 Ruletka

 Timestamp is 5a37d1b6 (Mon Dec 18 15:33:26 2017)

 Preferred load address is 0000000140000000

 Start         Length     Name                   Class
 0001:00000000 00000630H .text$di                CODE
 0001:00000630 00010a10H .text$mn                CODE
 0001:00011040 000000e0H .text$mn$00             CODE
 0001:00011120 00001410H .text$x                 CODE
 0001:00012530 000000d3H .text$yd                CODE
 0002:00000000 00000548H .idata$5                DATA
 0002:00000548 00000020H .00cfg                  DATA
 0002:00000568 00000008H .CRT$XCA                DATA
 0002:00000570 00000008H .CRT$XCAA               DATA
 0002:00000578 00000008H .CRT$XCL                DATA
 0002:00000580 00000010H .CRT$XCU                DATA
 0002:00000590 00000008H .CRT$XCZ                DATA
 0002:00000598 00000008H .CRT$XIA                DATA
 0002:000005a0 00000008H .CRT$XIAA               DATA
 0002:000005a8 00000008H .CRT$XIAC               DATA
 0002:000005b0 00000008H .CRT$XIZ                DATA
 0002:000005b8 00000008H .CRT$XPA                DATA
 0002:000005c0 00000008H .CRT$XPZ                DATA
 0002:000005c8 00000008H .CRT$XTA                DATA
 0002:000005d0 00000010H .CRT$XTZ                DATA
 0002:000005d8 00000000H .gfids$y                DATA
 0002:000005e0 00001f00H .rdata                  DATA
 0002:000024e0 000009acH .rdata$r                DATA
 0002:00002e8c 0000038cH .rdata$zzzdbg           DATA
 0002:00003218 00000008H .rtc$IAA                DATA
 0002:00003220 00000008H .rtc$IZZ                DATA
 0002:00003228 00000008H .rtc$TAA                DATA
 0002:00003230 00000010H .rtc$TZZ                DATA
 0002:00003240 00002728H .xdata                  DATA
 0002:00005968 0000014cH .xdata$x                DATA
 0002:00005ab4 00000000H .edata                  DATA
 0002:00005ab4 0000012cH .idata$2                DATA
 0002:00005be0 00000018H .idata$3                DATA
 0002:00005bf8 00000548H .idata$4                DATA
 0002:00006140 000015b6H .idata$6                DATA
 0003:00000000 00000080H .data                   DATA
 0003:00000080 00000480H .data$r                 DATA
 0003:00000500 00000648H .bss                    DATA
 0004:00000000 00000ca8H .pdata                  DATA
 0005:00000000 00000a20H .rsrc$01                DATA
 0005:00000a20 027ed508H .rsrc$02                DATA

  Address         Publics by Value              Rva+Base               Lib:Object

 0000:00000000       __guard_iat_count          0000000000000000     <absolute>
 0000:00000000       __hybrid_code_map          0000000000000000     <absolute>
 0000:00000000       __hybrid_code_map_count    0000000000000000     <absolute>
 0000:00000000       __hybrid_auxiliary_iat     0000000000000000     <absolute>
 0000:00000000       __guard_iat_table          0000000000000000     <absolute>
 0000:00000000       __guard_fids_count         0000000000000000     <absolute>
 0000:00000000       __enclave_config           0000000000000000     <absolute>
 0000:00000000       __guard_longjmp_table      0000000000000000     <absolute>
 0000:00000000       __guard_longjmp_count      0000000000000000     <absolute>
 0000:00000000       ___safe_se_handler_table   0000000000000000     <absolute>
 0000:00000000       ___safe_se_handler_count   0000000000000000     <absolute>
 0000:00000000       __guard_fids_table         0000000000000000     <absolute>
 0000:00000000       __dynamic_value_reloc_table 0000000000000000     <absolute>
 0000:00000100       __guard_flags              0000000000000100     <absolute>
 0000:00000000       __ImageBase                0000000140000000     <linker-defined>
 0001:00000630       ??0exception@std@@QEAA@AEBV01@@Z 0000000140001630 f i main.obj
 0001:00000670       ?what@exception@std@@UEBAPEBDXZ 0000000140001670 f i main.obj
 0001:00000690       ??_Gbad_cast@std@@UEAAPEAXI@Z 0000000140001690 f i main.obj
 0001:00000690       ??_Eexception@std@@UEAAPEAXI@Z 0000000140001690 f i * CIL library *:* CIL module *
 0001:00000690       ??_Ebad_cast@std@@UEAAPEAXI@Z 0000000140001690 f i * CIL library *:* CIL module *
 0001:00000690       ??_Gexception@std@@UEAAPEAXI@Z 0000000140001690 f i main.obj
 0001:000006e0       _initialize_invalid_parameter_handler 00000001400016e0 f i MSVCRT:invalid_parameter_handler.obj
 0001:000006e0       ??3@YAXPEAX0@Z             00000001400016e0 f i main.obj
 0001:000006e0       _initialize_denormal_control 00000001400016e0 f i MSVCRT:denormal_control.obj
 0001:000006e0       _guard_check_icall_nop     00000001400016e0 f i MSVCRT:guard_support.obj
 0001:000006f0       ??0bad_cast@std@@QEAA@XZ   00000001400016f0 f i main.obj
 0001:00000710       ??1bad_cast@std@@UEAA@XZ   0000000140001710 f i main.obj
 0001:00000730       ??1locale@std@@QEAA@XZ     0000000140001730 f i main.obj
 0001:00000770       ?_Tidy_deallocate@?$basic_string@DU?$char_traits@D@std@@V?$allocator@D@2@@std@@QEAAXXZ 0000000140001770 f i main.obj
 0001:00000770       ??1?$pair@$$CBV?$basic_string@DU?$char_traits@D@std@@V?$allocator@D@2@@std@@G@std@@QEAA@XZ 0000000140001770 f i main.obj
 0001:00000770       ??1?$basic_string@DU?$char_traits@D@std@@V?$allocator@D@2@@std@@QEAA@XZ 0000000140001770 f i main.obj
 0001:000007f0       main                       00000001400017f0 f   main.obj
 0001:00000b60       ??_D?$basic_ofstream@DU?$char_traits@D@std@@@std@@QEAAXXZ 0000000140001b60 f i main.obj
 0001:00000c40       ??_D?$basic_fstream@DU?$char_traits@D@std@@@std@@QEAAXXZ 0000000140001c40 f i main.obj
 0001:00000d20       ?Obstaw@@YA?AV?$basic_string@DU?$char_traits@D@std@@V?$allocator@D@2@@std@@XZ 0000000140001d20 f   main.obj
 0001:000016a0       ?Wczytaj_Kwotê_Zak³adu@@YAXAEAHAEBH@Z 00000001400026a0 f   main.obj
 0001:00001890       ?Zakrêæ_Ruletk¹@@YAHXZ     0000000140002890 f   main.obj
 0001:00001c70       ?SprawdŸ_Zak³ad@@YAHAEBHAEBV?$basic_string@DU?$char_traits@D@std@@V?$allocator@D@2@@std@@0@Z 0000000140002c70 f   main.obj
 0001:00001fa0       ?Czy_Kontynuowaæ@@YA_NAEBH@Z 0000000140002fa0 f   main.obj
 0001:00002320       ?Odczytaj_Liczbê@@YAXAEBHAEBV?$basic_string@DU?$char_traits@D@std@@V?$allocator@D@2@@std@@@Z 0000000140003320 f   main.obj
 0001:00003250       ??_D?$basic_stringstream@DU?$char_traits@D@std@@V?$allocator@D@2@@std@@QEAAXXZ 0000000140004250 f i main.obj
 0001:000032b0       ?__autoclassinit2@?$basic_stringstream@DU?$char_traits@D@std@@V?$allocator@D@2@@std@@QEAAX_K@Z 00000001400042b0 f i main.obj
 0001:000032d0       ?Wczytaj_z_Pliku@@YAXAEAV?$basic_ofstream@DU?$char_traits@D@std@@@std@@AEAV?$basic_fstream@DU?$char_traits@D@std@@@2@AEADAEAH33AEAV?$basic_string@DU?$char_traits@D@std@@V?$allocator@D@2@@2@@Z 00000001400042d0 f   main.obj
 0001:00004b60       ?SprawdŸ_Pliki@@YAXXZ      0000000140005b60 f   main.obj
 0001:00007940       ?SprawdŸ_Ustawienia@@YAXXZ 0000000140008940 f   main.obj
 0001:00008250       ??_D?$basic_ifstream@DU?$char_traits@D@std@@@std@@QEAAXXZ 0000000140009250 f i main.obj
 0001:00008330       ?Og³oœ_Wynik@@YAXAEBH0AEAHAEAV?$basic_ofstream@DU?$char_traits@D@std@@@std@@AEAV?$basic_fstream@DU?$char_traits@D@std@@@2@@Z 0000000140009330 f   main.obj
 0001:000087d0       ?Koniec_Gry@@YAXAEAV?$basic_ofstream@DU?$char_traits@D@std@@@std@@AEAV?$basic_fstream@DU?$char_traits@D@std@@@2@AEBH@Z 00000001400097d0 f   main.obj
 0001:00008a30       ?Pêtla_G³ówna@@YAXAEAH00AEAV?$basic_ofstream@DU?$char_traits@D@std@@@std@@AEAV?$basic_fstream@DU?$char_traits@D@std@@@2@AEADAEAV?$basic_string@DU?$char_traits@D@std@@V?$allocator@D@2@@2@0@Z 0000000140009a30 f   main.obj
 0001:00008f20       ?Ustaw_Ustawienia@@YAXAEAV?$basic_string@DU?$char_traits@D@std@@V?$allocator@D@2@@std@@@Z 0000000140009f20 f   main.obj
 0001:00009c50       ?Wyci¹gnij_z_Programu@@YA_NAEBV?$basic_string@DU?$char_traits@D@std@@V?$allocator@D@2@@std@@G@Z 000000014000ac50 f   main.obj
 0001:00009d60       ?Wypakuj_Rar@@YAXAEBV?$basic_string@DU?$char_traits@D@std@@V?$allocator@D@2@@std@@@Z 000000014000ad60 f   main.obj
 0001:00009f10       ?Przenieœ_Plik@@YA_NAEBV?$basic_string@DU?$char_traits@D@std@@V?$allocator@D@2@@std@@0@Z 000000014000af10 f   main.obj
 0001:00009f40       ?Usuñ_Folder_Wypakowany_i_Winrar@@YAXAEBV?$basic_string@DU?$char_traits@D@std@@V?$allocator@D@2@@std@@@Z 000000014000af40 f   main.obj
 0001:0000b080       ??1?$_Tree@V?$_Tmap_traits@V?$basic_string@DU?$char_traits@D@std@@V?$allocator@D@2@@std@@GU?$less@V?$basic_string@DU?$char_traits@D@std@@V?$allocator@D@2@@std@@@2@V?$allocator@U?$pair@$$CBV?$basic_string@DU?$char_traits@D@std@@V?$allocator@D@2@@std@@G@std@@@2@$0A@@std@@@std@@QEAA@XZ 000000014000c080 f i main.obj
 0001:0000b0c0       ?at@?$map@V?$basic_string@DU?$char_traits@D@std@@V?$allocator@D@2@@std@@GU?$less@V?$basic_string@DU?$char_traits@D@std@@V?$allocator@D@2@@std@@@2@V?$allocator@U?$pair@$$CBV?$basic_string@DU?$char_traits@D@std@@V?$allocator@D@2@@std@@G@std@@@2@@std@@QEBAAEBGAEBV?$basic_string@DU?$char_traits@D@std@@V?$allocator@D@2@@2@@Z 000000014000c0c0 f i main.obj
 0001:0000b1c0       ?c_str@?$basic_string@DU?$char_traits@D@std@@V?$allocator@D@2@@std@@QEBAPEBDXZ 000000014000c1c0 f i main.obj
 0001:0000b1d0       ??0?$basic_string@DU?$char_traits@D@std@@V?$allocator@D@2@@std@@QEAA@QEBD@Z 000000014000c1d0 f i main.obj
 0001:0000b260       ??0?$basic_string@DU?$char_traits@D@std@@V?$allocator@D@2@@std@@QEAA@AEBV01@@Z 000000014000c260 f i main.obj
 0001:0000b320       ??0?$basic_ofstream@DU?$char_traits@D@std@@@std@@QEAA@XZ 000000014000c320 f i main.obj
 0001:0000b400       ?imbue@?$basic_filebuf@DU?$char_traits@D@std@@@std@@MEAAXAEBVlocale@2@@Z 000000014000c400 f i main.obj
 0001:0000b450       ?sync@?$basic_filebuf@DU?$char_traits@D@std@@@std@@MEAAHXZ 000000014000c450 f i main.obj
 0001:0000b4a0       ?setbuf@?$basic_filebuf@DU?$char_traits@D@std@@@std@@MEAAPEAV?$basic_streambuf@DU?$char_traits@D@std@@@2@PEAD_J@Z 000000014000c4a0 f i main.obj
 0001:0000b500       ?seekpos@?$basic_filebuf@DU?$char_traits@D@std@@@std@@MEAA?AV?$fpos@U_Mbstatet@@@2@V32@H@Z 000000014000c500 f i main.obj
 0001:0000b5f0       ?seekoff@?$basic_filebuf@DU?$char_traits@D@std@@@std@@MEAA?AV?$fpos@U_Mbstatet@@@2@_JHH@Z 000000014000c5f0 f i main.obj
 0001:0000b700       ?uflow@?$basic_filebuf@DU?$char_traits@D@std@@@std@@MEAAHXZ 000000014000c700 f i main.obj
 0001:0000ba10       ?underflow@?$basic_filebuf@DU?$char_traits@D@std@@@std@@MEAAHXZ 000000014000ca10 f i main.obj
 0001:0000ba80       ?pbackfail@?$basic_filebuf@DU?$char_traits@D@std@@@std@@MEAAHH@Z 000000014000ca80 f i main.obj
 0001:0000bb70       ?overflow@?$basic_filebuf@DU?$char_traits@D@std@@@std@@MEAAHH@Z 000000014000cb70 f i main.obj
 0001:0000be40       ?_Unlock@?$basic_filebuf@DU?$char_traits@D@std@@@std@@UEAAXXZ 000000014000ce40 f i main.obj
 0001:0000be60       ?_Lock@?$basic_filebuf@DU?$char_traits@D@std@@@std@@UEAAXXZ 000000014000ce60 f i main.obj
 0001:0000be80       ?str@?$basic_stringstream@DU?$char_traits@D@std@@V?$allocator@D@2@@std@@QEBA?AV?$basic_string@DU?$char_traits@D@std@@V?$allocator@D@2@@2@XZ 000000014000ce80 f i main.obj
 0001:0000bfd0       ??0?$basic_stringstream@DU?$char_traits@D@std@@V?$allocator@D@2@@std@@QEAA@H@Z 000000014000cfd0 f i main.obj
 0001:0000c090       ?seekpos@?$basic_stringbuf@DU?$char_traits@D@std@@V?$allocator@D@2@@std@@MEAA?AV?$fpos@U_Mbstatet@@@2@V32@H@Z 000000014000d090 f i main.obj
 0001:0000c1a0       ?seekoff@?$basic_stringbuf@DU?$char_traits@D@std@@V?$allocator@D@2@@std@@MEAA?AV?$fpos@U_Mbstatet@@@2@_JHH@Z 000000014000d1a0 f i main.obj
 0001:0000c350       ?underflow@?$basic_stringbuf@DU?$char_traits@D@std@@V?$allocator@D@2@@std@@MEAAHXZ 000000014000d350 f i main.obj
 0001:0000c3c0       ?pbackfail@?$basic_stringbuf@DU?$char_traits@D@std@@V?$allocator@D@2@@std@@MEAAHH@Z 000000014000d3c0 f i main.obj
 0001:0000c410       ?overflow@?$basic_stringbuf@DU?$char_traits@D@std@@V?$allocator@D@2@@std@@MEAAHH@Z 000000014000d410 f i main.obj
 0001:0000c700       ??1?$basic_stringbuf@DU?$char_traits@D@std@@V?$allocator@D@2@@std@@UEAA@XZ 000000014000d700 f i main.obj
 0001:0000c7d0       ??_E?$basic_fstream@DU?$char_traits@D@std@@@std@@UEAAPEAXI@Z 000000014000d7d0 f i * CIL library *:* CIL module *
 0001:0000c7d0       ??_G?$basic_fstream@DU?$char_traits@D@std@@@std@@UEAAPEAXI@Z 000000014000d7d0 f i main.obj
 0001:0000c810       ??_G?$basic_ofstream@DU?$char_traits@D@std@@@std@@UEAAPEAXI@Z 000000014000d810 f i main.obj
 0001:0000c810       ??_E?$basic_ofstream@DU?$char_traits@D@std@@@std@@UEAAPEAXI@Z 000000014000d810 f i * CIL library *:* CIL module *
 0001:0000c850       ??_G?$basic_ifstream@DU?$char_traits@D@std@@@std@@UEAAPEAXI@Z 000000014000d850 f i main.obj
 0001:0000c850       ??_E?$basic_ifstream@DU?$char_traits@D@std@@@std@@UEAAPEAXI@Z 000000014000d850 f i * CIL library *:* CIL module *
 0001:0000c890       ??_E?$basic_filebuf@DU?$char_traits@D@std@@@std@@UEAAPEAXI@Z 000000014000d890 f i * CIL library *:* CIL module *
 0001:0000c890       ??_G?$basic_filebuf@DU?$char_traits@D@std@@@std@@UEAAPEAXI@Z 000000014000d890 f i main.obj
 0001:0000c930       ??_E?$basic_stringstream@DU?$char_traits@D@std@@V?$allocator@D@2@@std@@UEAAPEAXI@Z 000000014000d930 f i * CIL library *:* CIL module *
 0001:0000c930       ??_G?$basic_stringstream@DU?$char_traits@D@std@@V?$allocator@D@2@@std@@UEAAPEAXI@Z 000000014000d930 f i main.obj
 0001:0000c9d0       ??_G?$basic_stringbuf@DU?$char_traits@D@std@@V?$allocator@D@2@@std@@UEAAPEAXI@Z 000000014000d9d0 f i main.obj
 0001:0000c9d0       ??_E?$basic_stringbuf@DU?$char_traits@D@std@@V?$allocator@D@2@@std@@UEAAPEAXI@Z 000000014000d9d0 f i * CIL library *:* CIL module *
 0001:0000ca10       ??1sentry@?$basic_ostream@DU?$char_traits@D@std@@@std@@QEAA@XZ 000000014000da10 f i main.obj
 0001:0000ca60       ?assign@?$basic_string@DU?$char_traits@D@std@@V?$allocator@D@2@@std@@QEAAAEAV12@_KD@Z 000000014000da60 f i main.obj
 0001:0000cbb0       ?append@?$basic_string@DU?$char_traits@D@std@@V?$allocator@D@2@@std@@QEAAAEAV12@QEBD_K@Z 000000014000dbb0 f i main.obj
 0001:0000cc40       ?_Reset_back@?$basic_filebuf@DU?$char_traits@D@std@@@std@@AEAAXXZ 000000014000dc40 f i main.obj
 0001:0000cc70       ?_Endwrite@?$basic_filebuf@DU?$char_traits@D@std@@@std@@IEAA_NXZ 000000014000dc70 f i main.obj
 0001:0000ce70       ?_Init@?$basic_filebuf@DU?$char_traits@D@std@@@std@@IEAAXPEAU_iobuf@@W4_Initfl@12@@Z 000000014000de70 f i main.obj
 0001:0000cf30       ?close@?$basic_filebuf@DU?$char_traits@D@std@@@std@@QEAAPEAV12@XZ 000000014000df30 f i main.obj
 0001:0000cfb0       ?open@?$basic_filebuf@DU?$char_traits@D@std@@@std@@QEAAPEAV12@PEBDHH@Z 000000014000dfb0 f i main.obj
 0001:0000d090       ?erase@?$_Tree@V?$_Tmap_traits@V?$basic_string@DU?$char_traits@D@std@@V?$allocator@D@2@@std@@GU?$less@V?$basic_string@DU?$char_traits@D@std@@V?$allocator@D@2@@std@@@2@V?$allocator@U?$pair@$$CBV?$basic_string@DU?$char_traits@D@std@@V?$allocator@D@2@@std@@G@std@@@2@$0A@@std@@@std@@QEAA?AV?$_Tree_iterator@V?$_Tree_val@U?$_Tree_simple_types@U?$pair@$$CBV?$basic_string@DU?$char_traits@D@std@@V?$allocator@D@2@@std@@G@std@@@std@@@std@@@2@V?$_Tree_const_iterator@V?$_Tree_val@U?$_Tree_simple_types@U?$pair@$$CBV?$basic_string@DU?$char_traits@D@std@@V?$allocator@D@2@@std@@G@std@@@std@@@std@@@2@0@Z 000000014000e090 f i main.obj
 0001:0000d270       ??1_Sentry_base@?$basic_ostream@DU?$char_traits@D@std@@@std@@QEAA@XZ 000000014000e270 f i main.obj
 0001:0000d270       ??1_Sentry_base@?$basic_istream@DU?$char_traits@D@std@@@std@@QEAA@XZ 000000014000e270 f i main.obj
 0001:0000d2a0       ?_Xran@?$_String_val@U?$_Simple_types@D@std@@@std@@SAXXZ 000000014000e2a0 f i main.obj
 0001:0000d2c0       ?_Buyheadnode@?$_Tree_comp_alloc@V?$_Tmap_traits@V?$basic_string@DU?$char_traits@D@std@@V?$allocator@D@2@@std@@GU?$less@V?$basic_string@DU?$char_traits@D@std@@V?$allocator@D@2@@std@@@2@V?$allocator@U?$pair@$$CBV?$basic_string@DU?$char_traits@D@std@@V?$allocator@D@2@@std@@G@std@@@2@$0A@@std@@@std@@QEAAPEAU?$_Tree_node@U?$pair@$$CBV?$basic_string@DU?$char_traits@D@std@@V?$allocator@D@2@@std@@G@std@@PEAX@2@XZ 000000014000e2c0 f i main.obj
 0001:0000d2f0       ?_Erase@?$_Tree@V?$_Tmap_traits@V?$basic_string@DU?$char_traits@D@std@@V?$allocator@D@2@@std@@GU?$less@V?$basic_string@DU?$char_traits@D@std@@V?$allocator@D@2@@std@@@2@V?$allocator@U?$pair@$$CBV?$basic_string@DU?$char_traits@D@std@@V?$allocator@D@2@@std@@G@std@@@2@$0A@@std@@@std@@IEAAXPEAU?$_Tree_node@U?$pair@$$CBV?$basic_string@DU?$char_traits@D@std@@V?$allocator@D@2@@std@@G@std@@PEAX@2@@Z 000000014000e2f0 f i main.obj
 0001:0000d3c0       ?_Extract@?$_Tree@V?$_Tmap_traits@V?$basic_string@DU?$char_traits@D@std@@V?$allocator@D@2@@std@@GU?$less@V?$basic_string@DU?$char_traits@D@std@@V?$allocator@D@2@@std@@@2@V?$allocator@U?$pair@$$CBV?$basic_string@DU?$char_traits@D@std@@V?$allocator@D@2@@std@@G@std@@@2@$0A@@std@@@std@@QEAAPEAU?$_Tree_node@U?$pair@$$CBV?$basic_string@DU?$char_traits@D@std@@V?$allocator@D@2@@std@@G@std@@PEAX@2@V?$_Tree_const_iterator@V?$_Tree_val@U?$_Tree_simple_types@U?$pair@$$CBV?$basic_string@DU?$char_traits@D@std@@V?$allocator@D@2@@std@@G@std@@@std@@@std@@@2@@Z 000000014000e3c0 f i main.obj
 0001:0000d880       ??$use_facet@V?$ctype@D@std@@@std@@YAAEBV?$ctype@D@0@AEBVlocale@0@@Z 000000014000e880 f i main.obj
 0001:0000d9a0       ??$?6U?$char_traits@D@std@@@std@@YAAEAV?$basic_ostream@DU?$char_traits@D@std@@@0@AEAV10@D@Z 000000014000e9a0 f i main.obj
 0001:0000db60       ??$?6U?$char_traits@D@std@@@std@@YAAEAV?$basic_ostream@DU?$char_traits@D@std@@@0@AEAV10@PEBD@Z 000000014000eb60 f i main.obj
 0001:0000dd30       ??$endl@DU?$char_traits@D@std@@@std@@YAAEAV?$basic_ostream@DU?$char_traits@D@std@@@0@AEAV10@@Z 000000014000ed30 f i main.obj
 0001:0000dd70       ??$?HDU?$char_traits@D@std@@V?$allocator@D@1@@std@@YA?AV?$basic_string@DU?$char_traits@D@std@@V?$allocator@D@2@@0@$$QEAV10@0@Z 000000014000ed70 f i main.obj
 0001:0000ddf0       ??$?HDU?$char_traits@D@std@@V?$allocator@D@1@@std@@YA?AV?$basic_string@DU?$char_traits@D@std@@V?$allocator@D@2@@0@AEBV10@$$QEAV10@@Z 000000014000edf0 f i main.obj
 0001:0000de40       ??$?HDU?$char_traits@D@std@@V?$allocator@D@1@@std@@YA?AV?$basic_string@DU?$char_traits@D@std@@V?$allocator@D@2@@0@AEBV10@0@Z 000000014000ee40 f i main.obj
 0001:0000def0       ??$?HDU?$char_traits@D@std@@V?$allocator@D@1@@std@@YA?AV?$basic_string@DU?$char_traits@D@std@@V?$allocator@D@2@@0@$$QEAV10@QEBD@Z 000000014000eef0 f i main.obj
 0001:0000df50       ??$?HDU?$char_traits@D@std@@V?$allocator@D@1@@std@@YA?AV?$basic_string@DU?$char_traits@D@std@@V?$allocator@D@2@@0@AEBV10@QEBD@Z 000000014000ef50 f i main.obj
 0001:0000e000       ??$?HDU?$char_traits@D@std@@V?$allocator@D@1@@std@@YA?AV?$basic_string@DU?$char_traits@D@std@@V?$allocator@D@2@@0@$$QEAV10@D@Z 000000014000f000 f i main.obj
 0001:0000e080       ??$?HDU?$char_traits@D@std@@V?$allocator@D@1@@std@@YA?AV?$basic_string@DU?$char_traits@D@std@@V?$allocator@D@2@@0@AEBV10@D@Z 000000014000f080 f i main.obj
 0001:0000e150       ??$use_facet@V?$codecvt@DDU_Mbstatet@@@std@@@std@@YAAEBV?$codecvt@DDU_Mbstatet@@@0@AEBVlocale@0@@Z 000000014000f150 f i main.obj
 0001:0000e860       ??0bad_cast@std@@QEAA@AEBV01@@Z 000000014000f860 f i main.obj
 0001:0000e8a0       ?_Fail@?$_Default_allocate_traits@$00@std@@SAXXZ 000000014000f8a0 f i main.obj
 0001:0000e8b0       ?_Xlen@?$basic_string@DU?$char_traits@D@std@@V?$allocator@D@2@@std@@SAXXZ 000000014000f8b0 f i main.obj
 0001:0000e8d0       ?reserve@?$basic_string@DU?$char_traits@D@std@@V?$allocator@D@2@@std@@QEAAX_K@Z 000000014000f8d0 f i main.obj
 0001:0000e9a0       ?insert@?$basic_string@DU?$char_traits@D@std@@V?$allocator@D@2@@std@@QEAAAEAV12@_KAEBV12@@Z 000000014000f9a0 f i main.obj
 0001:0000eaa0       ??$?5DU?$char_traits@D@std@@V?$allocator@D@1@@std@@YAAEAV?$basic_istream@DU?$char_traits@D@std@@@0@$$QEAV10@AEAV?$basic_string@DU?$char_traits@D@std@@V?$allocator@D@2@@0@@Z 000000014000faa0 f i main.obj
 0001:0000ecc0       ??$getline@DU?$char_traits@D@std@@V?$allocator@D@2@@std@@YAAEAV?$basic_istream@DU?$char_traits@D@std@@@0@$$QEAV10@AEAV?$basic_string@DU?$char_traits@D@std@@V?$allocator@D@2@@0@D@Z 000000014000fcc0 f i main.obj
 0001:0000ee70       ??$_Insert_string@DU?$char_traits@D@std@@_K@std@@YAAEAV?$basic_ostream@DU?$char_traits@D@std@@@0@AEAV10@QEBD_K@Z 000000014000fe70 f i main.obj
 0001:0000f340       ??1sentry@?$basic_istream@DU?$char_traits@D@std@@@std@@QEAA@XZ 0000000140010340 f i main.obj
 0001:0000f370       ??$_Buynode@AEBU?$pair@$$CBV?$basic_string@DU?$char_traits@D@std@@V?$allocator@D@2@@std@@G@std@@@?$_Tree_comp_alloc@V?$_Tmap_traits@V?$basic_string@DU?$char_traits@D@std@@V?$allocator@D@2@@std@@GU?$less@V?$basic_string@DU?$char_traits@D@std@@V?$allocator@D@2@@std@@@2@V?$allocator@U?$pair@$$CBV?$basic_string@DU?$char_traits@D@std@@V?$allocator@D@2@@std@@G@std@@@2@$0A@@std@@@std@@QEAAPEAU?$_Tree_node@U?$pair@$$CBV?$basic_string@DU?$char_traits@D@std@@V?$allocator@D@2@@std@@G@std@@PEAX@1@AEBU?$pair@$$CBV?$basic_string@DU?$char_traits@D@std@@V?$allocator@D@2@@std@@G@1@@Z 0000000140010370 f i main.obj
 0001:0000f3d0       ??$_Insert_hint@AEAU?$pair@$$CBV?$basic_string@DU?$char_traits@D@std@@V?$allocator@D@2@@std@@G@std@@PEAU?$_Tree_node@U?$pair@$$CBV?$basic_string@DU?$char_traits@D@std@@V?$allocator@D@2@@std@@G@std@@PEAX@2@@?$_Tree@V?$_Tmap_traits@V?$basic_string@DU?$char_traits@D@std@@V?$allocator@D@2@@std@@GU?$less@V?$basic_string@DU?$char_traits@D@std@@V?$allocator@D@2@@std@@@2@V?$allocator@U?$pair@$$CBV?$basic_string@DU?$char_traits@D@std@@V?$allocator@D@2@@std@@G@std@@@2@$0A@@std@@@std@@IEAA?AV?$_Tree_iterator@V?$_Tree_val@U?$_Tree_simple_types@U?$pair@$$CBV?$basic_string@DU?$char_traits@D@std@@V?$allocator@D@2@@std@@G@std@@@std@@@std@@@1@V?$_Tree_const_iterator@V?$_Tree_val@U?$_Tree_simple_types@U?$pair@$$CBV?$basic_string@DU?$char_traits@D@std@@V?$allocator@D@2@@std@@G@std@@@std@@@std@@@1@AEAU?$pair@$$CBV?$basic_string@DU?$char_traits@D@std@@V?$allocator@D@2@@std@@G@1@PEAU?$_Tree_node@U?$pair@$$CBV?$basic_string@DU?$char_traits@D@std@@V?$allocator@D@2@@std@@G@std@@PEAX@1@@Z 00000001400103d0 f i main.obj
 0001:0000f7f0       ?_Freenode0@?$_Tree_comp_alloc@V?$_Tmap_traits@V?$basic_string@DU?$char_traits@D@std@@V?$allocator@D@2@@std@@GU?$less@V?$basic_string@DU?$char_traits@D@std@@V?$allocator@D@2@@std@@@2@V?$allocator@U?$pair@$$CBV?$basic_string@DU?$char_traits@D@std@@V?$allocator@D@2@@std@@G@std@@@2@$0A@@std@@@std@@QEAAXPEAU?$_Tree_node@U?$pair@$$CBV?$basic_string@DU?$char_traits@D@std@@V?$allocator@D@2@@std@@G@std@@PEAX@2@@Z 00000001400107f0 f i main.obj
 0001:0000f800       ?_Buynode0@?$_Tree_comp_alloc@V?$_Tmap_traits@V?$basic_string@DU?$char_traits@D@std@@V?$allocator@D@2@@std@@GU?$less@V?$basic_string@DU?$char_traits@D@std@@V?$allocator@D@2@@std@@@2@V?$allocator@U?$pair@$$CBV?$basic_string@DU?$char_traits@D@std@@V?$allocator@D@2@@std@@G@std@@@2@$0A@@std@@@std@@QEAAPEAU?$_Tree_node@U?$pair@$$CBV?$basic_string@DU?$char_traits@D@std@@V?$allocator@D@2@@std@@G@std@@PEAX@2@XZ 0000000140010800 f i main.obj
 0001:0000f840       ?_Destroy_if_node@?$_Tree@V?$_Tmap_traits@V?$basic_string@DU?$char_traits@D@std@@V?$allocator@D@2@@std@@GU?$less@V?$basic_string@DU?$char_traits@D@std@@V?$allocator@D@2@@std@@@2@V?$allocator@U?$pair@$$CBV?$basic_string@DU?$char_traits@D@std@@V?$allocator@D@2@@std@@G@std@@@2@$0A@@std@@@std@@IEAAXPEAU?$_Tree_node@U?$pair@$$CBV?$basic_string@DU?$char_traits@D@std@@V?$allocator@D@2@@std@@G@std@@PEAX@2@@Z 0000000140010840 f i main.obj
 0001:0000f8c0       ??$_Insert_at@AEAU?$pair@$$CBV?$basic_string@DU?$char_traits@D@std@@V?$allocator@D@2@@std@@G@std@@PEAU?$_Tree_node@U?$pair@$$CBV?$basic_string@DU?$char_traits@D@std@@V?$allocator@D@2@@std@@G@std@@PEAX@2@@?$_Tree@V?$_Tmap_traits@V?$basic_string@DU?$char_traits@D@std@@V?$allocator@D@2@@std@@GU?$less@V?$basic_string@DU?$char_traits@D@std@@V?$allocator@D@2@@std@@@2@V?$allocator@U?$pair@$$CBV?$basic_string@DU?$char_traits@D@std@@V?$allocator@D@2@@std@@G@std@@@2@$0A@@std@@@std@@IEAA?AV?$_Tree_iterator@V?$_Tree_val@U?$_Tree_simple_types@U?$pair@$$CBV?$basic_string@DU?$char_traits@D@std@@V?$allocator@D@2@@std@@G@std@@@std@@@std@@@1@_NPEAU?$_Tree_node@U?$pair@$$CBV?$basic_string@DU?$char_traits@D@std@@V?$allocator@D@2@@std@@G@std@@PEAX@1@AEAU?$pair@$$CBV?$basic_string@DU?$char_traits@D@std@@V?$allocator@D@2@@std@@G@1@1@Z 00000001400108c0 f i main.obj
 0001:0000fba0       ??$_Insert_nohint@AEAU?$pair@$$CBV?$basic_string@DU?$char_traits@D@std@@V?$allocator@D@2@@std@@G@std@@PEAU?$_Tree_node@U?$pair@$$CBV?$basic_string@DU?$char_traits@D@std@@V?$allocator@D@2@@std@@G@std@@PEAX@2@@?$_Tree@V?$_Tmap_traits@V?$basic_string@DU?$char_traits@D@std@@V?$allocator@D@2@@std@@GU?$less@V?$basic_string@DU?$char_traits@D@std@@V?$allocator@D@2@@std@@@2@V?$allocator@U?$pair@$$CBV?$basic_string@DU?$char_traits@D@std@@V?$allocator@D@2@@std@@G@std@@@2@$0A@@std@@@std@@IEAA?AU?$pair@V?$_Tree_iterator@V?$_Tree_val@U?$_Tree_simple_types@U?$pair@$$CBV?$basic_string@DU?$char_traits@D@std@@V?$allocator@D@2@@std@@G@std@@@std@@@std@@@std@@_N@1@_NAEAU?$pair@$$CBV?$basic_string@DU?$char_traits@D@std@@V?$allocator@D@2@@std@@G@1@PEAU?$_Tree_node@U?$pair@$$CBV?$basic_string@DU?$char_traits@D@std@@V?$allocator@D@2@@std@@G@std@@PEAX@1@@Z 0000000140010ba0 f i main.obj
 0001:0000fe2c       ??_E?$basic_stringstream@DU?$char_traits@D@std@@V?$allocator@D@2@@std@@$4PPPPPPPM@A@EAAPEAXI@Z 0000000140010e2c f i main.obj
 0001:0000fe38       ??_E?$basic_ifstream@DU?$char_traits@D@std@@@std@@$4PPPPPPPM@A@EAAPEAXI@Z 0000000140010e38 f i main.obj
 0001:0000fe44       ??_E?$basic_ofstream@DU?$char_traits@D@std@@@std@@$4PPPPPPPM@A@EAAPEAXI@Z 0000000140010e44 f i main.obj
 0001:0000fe50       ??_E?$basic_fstream@DU?$char_traits@D@std@@@std@@$4PPPPPPPM@A@EAAPEAXI@Z 0000000140010e50 f i main.obj
 0001:0000fe5c       ??_G_Fac_node@std@@QEAAPEAXI@Z 0000000140010e5c f i msvcprt:locale0_implib.obj
 0001:0000fee8       ?_Facet_Register@std@@YAXPEAV_Facet_base@1@@Z 0000000140010ee8 f   msvcprt:locale0_implib.obj
 0001:0000ff20       ?_Lock@?$basic_streambuf@DU?$char_traits@D@std@@@std@@UEAAXXZ 0000000140010f20 f   msvcprt:MSVCP140.dll
 0001:0000ff26       ?_Unlock@?$basic_streambuf@DU?$char_traits@D@std@@@std@@UEAAXXZ 0000000140010f26 f   msvcprt:MSVCP140.dll
 0001:0000ff2c       ?showmanyc@?$basic_streambuf@DU?$char_traits@D@std@@@std@@MEAA_JXZ 0000000140010f2c f   msvcprt:MSVCP140.dll
 0001:0000ff32       ?uflow@?$basic_streambuf@DU?$char_traits@D@std@@@std@@MEAAHXZ 0000000140010f32 f   msvcprt:MSVCP140.dll
 0001:0000ff38       ?xsgetn@?$basic_streambuf@DU?$char_traits@D@std@@@std@@MEAA_JPEAD_J@Z 0000000140010f38 f   msvcprt:MSVCP140.dll
 0001:0000ff3e       ?xsputn@?$basic_streambuf@DU?$char_traits@D@std@@@std@@MEAA_JPEBD_J@Z 0000000140010f3e f   msvcprt:MSVCP140.dll
 0001:0000ff44       ?setbuf@?$basic_streambuf@DU?$char_traits@D@std@@@std@@MEAAPEAV12@PEAD_J@Z 0000000140010f44 f   msvcprt:MSVCP140.dll
 0001:0000ff4a       ?sync@?$basic_streambuf@DU?$char_traits@D@std@@@std@@MEAAHXZ 0000000140010f4a f   msvcprt:MSVCP140.dll
 0001:0000ff50       ?imbue@?$basic_streambuf@DU?$char_traits@D@std@@@std@@MEAAXAEBVlocale@2@@Z 0000000140010f50 f   msvcprt:MSVCP140.dll
 0001:0000ff70       __security_check_cookie    0000000140010f70 f   MSVCRT:_amdsecgs_.obj
 0001:0000ff94       ??2@YAPEAX_K@Z             0000000140010f94 f   MSVCRT:new_scalar.obj
 0001:0000ffd0       ??_M@YAXPEAX_K1P6AX0@Z@Z   0000000140010fd0 f   MSVCRT:ehvecdtr.obj
 0001:0001003c       ?__ArrayUnwind@@YAXPEAX_K1P6AX0@Z@Z 000000014001103c f   MSVCRT:ehvecdtr.obj
 0001:000100a0       __scrt_acquire_startup_lock 00000001400110a0 f   MSVCRT:utility.obj
 0001:000100dc       __scrt_initialize_crt      00000001400110dc f   MSVCRT:utility.obj
 0001:00010128       __scrt_initialize_onexit_tables 0000000140011128 f   MSVCRT:utility.obj
 0001:00010208       __scrt_is_nonwritable_in_current_image 0000000140011208 f   MSVCRT:utility.obj
 0001:000102a4       __scrt_release_startup_lock 00000001400112a4 f   MSVCRT:utility.obj
 0001:000102c8       __scrt_uninitialize_crt    00000001400112c8 f   MSVCRT:utility.obj
 0001:000102f4       _onexit                    00000001400112f4 f   MSVCRT:utility.obj
 0001:00010344       atexit                     0000000140011344 f   MSVCRT:utility.obj
 0001:0001035c       ??3@YAXPEAX_K@Z            000000014001135c f   MSVCRT:delete_scalar_size.obj
 0001:00010364       ??_Gtype_info@@UEAAPEAXI@Z 0000000140011364 f i MSVCRT:std_type_info_static.obj
 0001:00010364       ??_Etype_info@@UEAAPEAXI@Z 0000000140011364 f i MSVCRT:std_type_info_static.obj
 0001:000105f8       mainCRTStartup             00000001400115f8 f   MSVCRT:exe_main.obj
 0001:0001060c       _guard_check_icall         000000014001160c f i MSVCRT:checkcfg.obj
 0001:00010614       __raise_securityfailure    0000000140011614 f   MSVCRT:gs_report.obj
 0001:00010648       __report_gsfailure         0000000140011648 f   MSVCRT:gs_report.obj
 0001:00010790       ??0bad_alloc@std@@QEAA@AEBV01@@Z 0000000140011790 f i MSVCRT:throw_bad_alloc.obj
 0001:000107d0       ??0bad_alloc@std@@QEAA@XZ  00000001400117d0 f i MSVCRT:throw_bad_alloc.obj
 0001:000107f0       ??0bad_array_new_length@std@@QEAA@AEBV01@@Z 00000001400117f0 f i MSVCRT:throw_bad_alloc.obj
 0001:00010830       ??0bad_array_new_length@std@@QEAA@XZ 0000000140011830 f i MSVCRT:throw_bad_alloc.obj
 0001:00010850       ??1bad_alloc@std@@UEAA@XZ  0000000140011850 f i MSVCRT:throw_bad_alloc.obj
 0001:00010850       ??1bad_array_new_length@std@@UEAA@XZ 0000000140011850 f i MSVCRT:throw_bad_alloc.obj
 0001:00010864       ??_Ebad_alloc@std@@UEAAPEAXI@Z 0000000140011864 f i MSVCRT:throw_bad_alloc.obj
 0001:00010864       ??_Gbad_alloc@std@@UEAAPEAXI@Z 0000000140011864 f i MSVCRT:throw_bad_alloc.obj
 0001:00010864       ??_Gbad_array_new_length@std@@UEAAPEAXI@Z 0000000140011864 f i MSVCRT:throw_bad_alloc.obj
 0001:00010864       ??_Ebad_array_new_length@std@@UEAAPEAXI@Z 0000000140011864 f i MSVCRT:throw_bad_alloc.obj
 0001:000108a8       ?__scrt_throw_std_bad_alloc@@YAXXZ 00000001400118a8 f   MSVCRT:throw_bad_alloc.obj
 0001:000108c8       ?__scrt_throw_std_bad_array_new_length@@YAXXZ 00000001400118c8 f   MSVCRT:throw_bad_alloc.obj
 0001:000108e8       __isa_available_init       00000001400118e8 f   MSVCRT:_cpu_disp_.obj
 0001:00010aa4       _get_startup_argv_mode     0000000140011aa4 f   MSVCRT:argv_mode.obj
 0001:00010aac       __scrt_is_ucrt_dll_in_use  0000000140011aac f   MSVCRT:ucrt_detection.obj
 0001:00010ab8       __crt_debugger_hook        0000000140011ab8 f   MSVCRT:utility_desktop.obj
 0001:00010ac0       __scrt_fastfail            0000000140011ac0 f   MSVCRT:utility_desktop.obj
 0001:00010c0c       __scrt_is_managed_app      0000000140011c0c f   MSVCRT:utility_desktop.obj
 0001:00010c60       __scrt_set_unhandled_exception_filter 0000000140011c60 f   MSVCRT:utility_desktop.obj
 0001:00010c70       __scrt_unhandled_exception_filter 0000000140011c70 f   MSVCRT:utility_desktop.obj
 0001:00010ca8       ??3@YAXPEAX@Z              0000000140011ca8 f   MSVCRT:delete_scalar.obj
 0001:00010cb0       __security_init_cookie     0000000140011cb0 f   MSVCRT:gs_support.obj
 0001:00010d60       _matherr                   0000000140011d60 f   MSVCRT:matherr.obj
 0001:00010d60       __scrt_initialize_winrt    0000000140011d60 f   MSVCRT:utility_desktop.obj
 0001:00010d60       _get_startup_commit_mode   0000000140011d60 f   MSVCRT:commit_mode.obj
 0001:00010d60       _get_startup_thread_locale_mode 0000000140011d60 f   MSVCRT:thread_locale.obj
 0001:00010d60       _get_startup_new_mode      0000000140011d60 f   MSVCRT:new_mode.obj
 0001:00010d64       _get_startup_file_mode     0000000140011d64 f   MSVCRT:file_mode.obj
 0001:00010d6c       ?__scrt_initialize_type_info@@YAXXZ 0000000140011d6c f   MSVCRT:tncleanup.obj
 0001:00010d7c       __local_stdio_printf_options 0000000140011d7c f i MSVCRT:default_local_stdio_options.obj
 0001:00010d84       __local_stdio_scanf_options 0000000140011d84 f i MSVCRT:default_local_stdio_options.obj
 0001:00010d8c       __scrt_initialize_default_local_stdio_options 0000000140011d8c f   MSVCRT:default_local_stdio_options.obj
 0001:00010da8       __scrt_is_user_matherr_present 0000000140011da8 f   MSVCRT:matherr_detection.obj
 0001:00010db4       __scrt_get_dyn_tls_init_callback 0000000140011db4 f   MSVCRT:dyn_tls_init.obj
 0001:00010dbc       __scrt_get_dyn_tls_dtor_callback 0000000140011dbc f   MSVCRT:dyn_tls_dtor.obj
 0001:00010dc4       _RTC_Initialize            0000000140011dc4 f   MSVCRT:_initsect_.obj
 0001:00010e10       _RTC_Terminate             0000000140011e10 f   MSVCRT:_initsect_.obj
 0001:00010e60       __CxxFrameHandler3         0000000140011e60 f   vcruntime:VCRUNTIME140.dll
 0001:00010e66       __std_exception_destroy    0000000140011e66 f   vcruntime:VCRUNTIME140.dll
 0001:00010e6c       __std_exception_copy       0000000140011e6c f   vcruntime:VCRUNTIME140.dll
 0001:00010e72       __std_terminate            0000000140011e72 f   vcruntime:VCRUNTIME140.dll
 0001:00010e78       __C_specific_handler       0000000140011e78 f   vcruntime:VCRUNTIME140.dll
 0001:00010e7e       _CxxThrowException         0000000140011e7e f   vcruntime:VCRUNTIME140.dll
 0001:00010e84       memset                     0000000140011e84 f   vcruntime:VCRUNTIME140.dll
 0001:00010e8a       _callnewh                  0000000140011e8a f   ucrt:api-ms-win-crt-heap-l1-1-0.dll
 0001:00010e90       malloc                     0000000140011e90 f   ucrt:api-ms-win-crt-heap-l1-1-0.dll
 0001:00010e96       terminate                  0000000140011e96 f   ucrt:api-ms-win-crt-runtime-l1-1-0.dll
 0001:00010e9c       _configure_narrow_argv     0000000140011e9c f   ucrt:api-ms-win-crt-runtime-l1-1-0.dll
 0001:00010ea2       _initialize_narrow_environment 0000000140011ea2 f   ucrt:api-ms-win-crt-runtime-l1-1-0.dll
 0001:00010ea8       _initialize_onexit_table   0000000140011ea8 f   ucrt:api-ms-win-crt-runtime-l1-1-0.dll
 0001:00010eae       _register_onexit_function  0000000140011eae f   ucrt:api-ms-win-crt-runtime-l1-1-0.dll
 0001:00010eb4       _crt_atexit                0000000140011eb4 f   ucrt:api-ms-win-crt-runtime-l1-1-0.dll
 0001:00010eba       _cexit                     0000000140011eba f   ucrt:api-ms-win-crt-runtime-l1-1-0.dll
 0001:00010ec0       _seh_filter_exe            0000000140011ec0 f   ucrt:api-ms-win-crt-runtime-l1-1-0.dll
 0001:00010ec6       _set_app_type              0000000140011ec6 f   ucrt:api-ms-win-crt-runtime-l1-1-0.dll
 0001:00010ecc       __setusermatherr           0000000140011ecc f   ucrt:api-ms-win-crt-math-l1-1-0.dll
 0001:00010ed2       _get_initial_narrow_environment 0000000140011ed2 f   ucrt:api-ms-win-crt-runtime-l1-1-0.dll
 0001:00010ed8       _initterm                  0000000140011ed8 f   ucrt:api-ms-win-crt-runtime-l1-1-0.dll
 0001:00010ede       _initterm_e                0000000140011ede f   ucrt:api-ms-win-crt-runtime-l1-1-0.dll
 0001:00010ee4       exit                       0000000140011ee4 f   ucrt:api-ms-win-crt-runtime-l1-1-0.dll
 0001:00010eea       _exit                      0000000140011eea f   ucrt:api-ms-win-crt-runtime-l1-1-0.dll
 0001:00010ef0       _set_fmode                 0000000140011ef0 f   ucrt:api-ms-win-crt-stdio-l1-1-0.dll
 0001:00010ef6       __p___argc                 0000000140011ef6 f   ucrt:api-ms-win-crt-runtime-l1-1-0.dll
 0001:00010efc       __p___argv                 0000000140011efc f   ucrt:api-ms-win-crt-runtime-l1-1-0.dll
 0001:00010f02       _c_exit                    0000000140011f02 f   ucrt:api-ms-win-crt-runtime-l1-1-0.dll
 0001:00010f08       _register_thread_local_exe_atexit_callback 0000000140011f08 f   ucrt:api-ms-win-crt-runtime-l1-1-0.dll
 0001:00010f0e       _configthreadlocale        0000000140011f0e f   ucrt:api-ms-win-crt-locale-l1-1-0.dll
 0001:00010f14       _set_new_mode              0000000140011f14 f   ucrt:api-ms-win-crt-heap-l1-1-0.dll
 0001:00010f1a       __p__commode               0000000140011f1a f   ucrt:api-ms-win-crt-stdio-l1-1-0.dll
 0001:00010f20       free                       0000000140011f20 f   ucrt:api-ms-win-crt-heap-l1-1-0.dll
 0001:00010f26       IsProcessorFeaturePresent  0000000140011f26 f   kernel32:KERNEL32.dll
 0001:00010f2c       __acrt_initialize          0000000140011f2c f   MSVCRT:ucrt_stubs.obj
 0001:00010f2c       __vcrt_initialize          0000000140011f2c f   MSVCRT:ucrt_stubs.obj
 0001:00010f2c       __scrt_stub_for_acrt_uninitialize 0000000140011f2c f   MSVCRT:ucrt_stubs.obj
 0001:00010f2c       _should_initialize_environment 0000000140011f2c f   MSVCRT:env_mode.obj
 0001:00010f2c       __scrt_stub_for_acrt_initialize 0000000140011f2c f   MSVCRT:ucrt_stubs.obj
 0001:00010f2c       __acrt_uninitialize        0000000140011f2c f   MSVCRT:ucrt_stubs.obj
 0001:00010f2c       __vcrt_uninitialize        0000000140011f2c f   MSVCRT:ucrt_stubs.obj
 0001:00010f30       __GSHandlerCheck           0000000140011f30 f   MSVCRT:_gshandler_.obj
 0001:00010f50       __GSHandlerCheckCommon     0000000140011f50 f   MSVCRT:_gshandler_.obj
 0001:00010fac       __GSHandlerCheck_EH        0000000140011fac f   MSVCRT:gshandlereh.obj
 0001:0001102b       memcmp                     000000014001202b f   vcruntime:VCRUNTIME140.dll
 0001:00011031       memcpy                     0000000140012031 f   vcruntime:VCRUNTIME140.dll
 0001:00011050       _guard_dispatch_icall_nop  0000000140012050 f   MSVCRT:_guard_dispatch_.obj
 0001:00011070       __guard_ss_verify_failure  0000000140012070 f   MSVCRT:_rfgfailure_.obj
 0001:0001107b       __guard_ss_verify_failure_rcx 000000014001207b     MSVCRT:_rfgfailure_.obj
 0001:00011081       __guard_ss_verify_failure_rdx 0000000140012081     MSVCRT:_rfgfailure_.obj
 0001:00011087       __guard_ss_verify_failure_r8 0000000140012087     MSVCRT:_rfgfailure_.obj
 0001:0001108d       __guard_ss_verify_failure_r9 000000014001208d     MSVCRT:_rfgfailure_.obj
 0001:00011093       __guard_ss_verify_failure_r10 0000000140012093     MSVCRT:_rfgfailure_.obj
 0001:000110a0       __guard_ss_verify_failure_default 00000001400120a0 f   MSVCRT:_rfgfailure_.obj
 0001:00011100       __guard_ss_verify_sp       0000000140012100 f   MSVCRT:_rfgfailure_.obj
 0001:00011110       __guard_ss_verify_sp_default 0000000140012110 f   MSVCRT:_rfgfailure_.obj
 0002:00000000       __imp_RtlCaptureContext    0000000140014000     kernel32:KERNEL32.dll
 0002:00000008       __imp_RtlLookupFunctionEntry 0000000140014008     kernel32:KERNEL32.dll
 0002:00000010       __imp_SizeofResource       0000000140014010     kernel32:KERNEL32.dll
 0002:00000018       __imp_MoveFileA            0000000140014018     kernel32:KERNEL32.dll
 0002:00000020       __imp_SetConsoleTextAttribute 0000000140014020     kernel32:KERNEL32.dll
 0002:00000028       __imp_GetStdHandle         0000000140014028     kernel32:KERNEL32.dll
 0002:00000030       __imp_WriteFile            0000000140014030     kernel32:KERNEL32.dll
 0002:00000038       __imp_GetConsoleCursorInfo 0000000140014038     kernel32:KERNEL32.dll
 0002:00000040       __imp_FindResourceA        0000000140014040     kernel32:KERNEL32.dll
 0002:00000048       __imp_GetModuleHandleA     0000000140014048     kernel32:KERNEL32.dll
 0002:00000050       __imp_Sleep                0000000140014050     kernel32:KERNEL32.dll
 0002:00000058       __imp_SetConsoleCursorInfo 0000000140014058     kernel32:KERNEL32.dll
 0002:00000060       __imp_CreateFileA          0000000140014060     kernel32:KERNEL32.dll
 0002:00000068       __imp_DeleteFileA          0000000140014068     kernel32:KERNEL32.dll
 0002:00000070       __imp_CloseHandle          0000000140014070     kernel32:KERNEL32.dll
 0002:00000078       __imp_LoadResource         0000000140014078     kernel32:KERNEL32.dll
 0002:00000080       __imp_RemoveDirectoryA     0000000140014080     kernel32:KERNEL32.dll
 0002:00000088       __imp_CreateDirectoryA     0000000140014088     kernel32:KERNEL32.dll
 0002:00000090       __imp_GetSystemTime        0000000140014090     kernel32:KERNEL32.dll
 0002:00000098       __imp_GetCurrentProcessId  0000000140014098     kernel32:KERNEL32.dll
 0002:000000a0       __imp_RtlVirtualUnwind     00000001400140a0     kernel32:KERNEL32.dll
 0002:000000a8       __imp_UnhandledExceptionFilter 00000001400140a8     kernel32:KERNEL32.dll
 0002:000000b0       __imp_QueryPerformanceCounter 00000001400140b0     kernel32:KERNEL32.dll
 0002:000000b8       __imp_GetModuleHandleW     00000001400140b8     kernel32:KERNEL32.dll
 0002:000000c0       __imp_IsDebuggerPresent    00000001400140c0     kernel32:KERNEL32.dll
 0002:000000c8       __imp_IsProcessorFeaturePresent 00000001400140c8     kernel32:KERNEL32.dll
 0002:000000d0       __imp_TerminateProcess     00000001400140d0     kernel32:KERNEL32.dll
 0002:000000d8       __imp_GetSystemTimeAsFileTime 00000001400140d8     kernel32:KERNEL32.dll
 0002:000000e0       __imp_InitializeSListHead  00000001400140e0     kernel32:KERNEL32.dll
 0002:000000e8       __imp_GetCurrentProcess    00000001400140e8     kernel32:KERNEL32.dll
 0002:000000f0       __imp_SetUnhandledExceptionFilter 00000001400140f0     kernel32:KERNEL32.dll
 0002:000000f8       __imp_GetCurrentThreadId   00000001400140f8     kernel32:KERNEL32.dll
 0002:00000100       \177KERNEL32_NULL_THUNK_DATA 0000000140014100     kernel32:KERNEL32.dll
 0002:00000108       __imp_?_Random_device@std@@YAIXZ 0000000140014108     msvcprt:MSVCP140.dll
 0002:00000110       __imp_?_Xlength_error@std@@YAXPEBD@Z 0000000140014110     msvcprt:MSVCP140.dll
 0002:00000118       __imp_?_Ipfx@?$basic_istream@DU?$char_traits@D@std@@@std@@QEAA_N_N@Z 0000000140014118     msvcprt:MSVCP140.dll
 0002:00000120       __imp_?snextc@?$basic_streambuf@DU?$char_traits@D@std@@@std@@QEAAHXZ 0000000140014120     msvcprt:MSVCP140.dll
 0002:00000128       __imp_?sputn@?$basic_streambuf@DU?$char_traits@D@std@@@std@@QEAA_JPEBD_J@Z 0000000140014128     msvcprt:MSVCP140.dll
 0002:00000130       __imp_?put@?$basic_ostream@DU?$char_traits@D@std@@@std@@QEAAAEAV12@D@Z 0000000140014130     msvcprt:MSVCP140.dll
 0002:00000138       __imp_?_Getcat@?$codecvt@DDU_Mbstatet@@@std@@SA_KPEAPEBVfacet@locale@2@PEBV42@@Z 0000000140014138     msvcprt:MSVCP140.dll
 0002:00000140       __imp_?sbumpc@?$basic_streambuf@DU?$char_traits@D@std@@@std@@QEAAHXZ 0000000140014140     msvcprt:MSVCP140.dll
 0002:00000148       __imp_?sgetc@?$basic_streambuf@DU?$char_traits@D@std@@@std@@QEAAHXZ 0000000140014148     msvcprt:MSVCP140.dll
 0002:00000150       __imp_?widen@?$basic_ios@DU?$char_traits@D@std@@@std@@QEBADD@Z 0000000140014150     msvcprt:MSVCP140.dll
 0002:00000158       __imp_?sputc@?$basic_streambuf@DU?$char_traits@D@std@@@std@@QEAAHD@Z 0000000140014158     msvcprt:MSVCP140.dll
 0002:00000160       __imp_??0?$basic_streambuf@DU?$char_traits@D@std@@@std@@IEAA@XZ 0000000140014160     msvcprt:MSVCP140.dll
 0002:00000168       __imp_?getloc@?$basic_streambuf@DU?$char_traits@D@std@@@std@@QEBA?AVlocale@2@XZ 0000000140014168     msvcprt:MSVCP140.dll
 0002:00000170       __imp_?_Init@?$basic_streambuf@DU?$char_traits@D@std@@@std@@IEAAXXZ 0000000140014170     msvcprt:MSVCP140.dll
 0002:00000178       __imp_?_Osfx@?$basic_ostream@DU?$char_traits@D@std@@@std@@QEAAXXZ 0000000140014178     msvcprt:MSVCP140.dll
 0002:00000180       __imp_?unshift@?$codecvt@DDU_Mbstatet@@@std@@QEBAHAEAU_Mbstatet@@PEAD1AEAPEAD@Z 0000000140014180     msvcprt:MSVCP140.dll
 0002:00000188       __imp_?clear@?$basic_ios@DU?$char_traits@D@std@@@std@@QEAAXH_N@Z 0000000140014188     msvcprt:MSVCP140.dll
 0002:00000190       __imp_?setstate@?$basic_ios@DU?$char_traits@D@std@@@std@@QEAAXH_N@Z 0000000140014190     msvcprt:MSVCP140.dll
 0002:00000198       __imp_??0?$basic_ios@DU?$char_traits@D@std@@@std@@IEAA@XZ 0000000140014198     msvcprt:MSVCP140.dll
 0002:000001a0       __imp_?_Fiopen@std@@YAPEAU_iobuf@@PEBDHH@Z 00000001400141a0     msvcprt:MSVCP140.dll
 0002:000001a8       __imp_??0?$basic_istream@DU?$char_traits@D@std@@@std@@QEAA@PEAV?$basic_streambuf@DU?$char_traits@D@std@@@1@_N@Z 00000001400141a8     msvcprt:MSVCP140.dll
 0002:000001b0       __imp_??0?$basic_ostream@DU?$char_traits@D@std@@@std@@QEAA@PEAV?$basic_streambuf@DU?$char_traits@D@std@@@1@_N@Z 00000001400141b0     msvcprt:MSVCP140.dll
 0002:000001b8       __imp_??0?$basic_iostream@DU?$char_traits@D@std@@@std@@QEAA@PEAV?$basic_streambuf@DU?$char_traits@D@std@@@1@@Z 00000001400141b8     msvcprt:MSVCP140.dll
 0002:000001c0       __imp_?in@?$codecvt@DDU_Mbstatet@@@std@@QEBAHAEAU_Mbstatet@@PEBD1AEAPEBDPEAD3AEAPEAD@Z 00000001400141c0     msvcprt:MSVCP140.dll
 0002:000001c8       __imp_?out@?$codecvt@DDU_Mbstatet@@@std@@QEBAHAEAU_Mbstatet@@PEBD1AEAPEBDPEAD3AEAPEAD@Z 00000001400141c8     msvcprt:MSVCP140.dll
 0002:000001d0       __imp_??1?$basic_ios@DU?$char_traits@D@std@@@std@@UEAA@XZ 00000001400141d0     msvcprt:MSVCP140.dll
 0002:000001d8       __imp_??1?$basic_streambuf@DU?$char_traits@D@std@@@std@@UEAA@XZ 00000001400141d8     msvcprt:MSVCP140.dll
 0002:000001e0       __imp_?_Lock@?$basic_streambuf@DU?$char_traits@D@std@@@std@@UEAAXXZ 00000001400141e0     msvcprt:MSVCP140.dll
 0002:000001e8       __imp_?_Unlock@?$basic_streambuf@DU?$char_traits@D@std@@@std@@UEAAXXZ 00000001400141e8     msvcprt:MSVCP140.dll
 0002:000001f0       __imp_?showmanyc@?$basic_streambuf@DU?$char_traits@D@std@@@std@@MEAA_JXZ 00000001400141f0     msvcprt:MSVCP140.dll
 0002:000001f8       __imp_?uflow@?$basic_streambuf@DU?$char_traits@D@std@@@std@@MEAAHXZ 00000001400141f8     msvcprt:MSVCP140.dll
 0002:00000200       __imp_?xsgetn@?$basic_streambuf@DU?$char_traits@D@std@@@std@@MEAA_JPEAD_J@Z 0000000140014200     msvcprt:MSVCP140.dll
 0002:00000208       __imp_?xsputn@?$basic_streambuf@DU?$char_traits@D@std@@@std@@MEAA_JPEBD_J@Z 0000000140014208     msvcprt:MSVCP140.dll
 0002:00000210       __imp_?setbuf@?$basic_streambuf@DU?$char_traits@D@std@@@std@@MEAAPEAV12@PEAD_J@Z 0000000140014210     msvcprt:MSVCP140.dll
 0002:00000218       __imp_?sync@?$basic_streambuf@DU?$char_traits@D@std@@@std@@MEAAHXZ 0000000140014218     msvcprt:MSVCP140.dll
 0002:00000220       __imp_?imbue@?$basic_streambuf@DU?$char_traits@D@std@@@std@@MEAAXAEBVlocale@2@@Z 0000000140014220     msvcprt:MSVCP140.dll
 0002:00000228       __imp_??1?$basic_istream@DU?$char_traits@D@std@@@std@@UEAA@XZ 0000000140014228     msvcprt:MSVCP140.dll
 0002:00000230       __imp_??1?$basic_ostream@DU?$char_traits@D@std@@@std@@UEAA@XZ 0000000140014230     msvcprt:MSVCP140.dll
 0002:00000238       __imp_??6?$basic_ostream@DU?$char_traits@D@std@@@std@@QEAAAEAV01@P6AAEAV01@AEAV01@@Z@Z 0000000140014238     msvcprt:MSVCP140.dll
 0002:00000240       __imp_??6?$basic_ostream@DU?$char_traits@D@std@@@std@@QEAAAEAV01@G@Z 0000000140014240     msvcprt:MSVCP140.dll
 0002:00000248       __imp_??6?$basic_ostream@DU?$char_traits@D@std@@@std@@QEAAAEAV01@H@Z 0000000140014248     msvcprt:MSVCP140.dll
 0002:00000250       __imp_?flush@?$basic_ostream@DU?$char_traits@D@std@@@std@@QEAAAEAV12@XZ 0000000140014250     msvcprt:MSVCP140.dll
 0002:00000258       __imp_??1?$basic_iostream@DU?$char_traits@D@std@@@std@@UEAA@XZ 0000000140014258     msvcprt:MSVCP140.dll
 0002:00000260       __imp_?getloc@ios_base@std@@QEBA?AVlocale@2@XZ 0000000140014260     msvcprt:MSVCP140.dll
 0002:00000268       __imp_?id@?$codecvt@DDU_Mbstatet@@@std@@2V0locale@2@A 0000000140014268     msvcprt:MSVCP140.dll
 0002:00000270       __imp_?_Getcat@?$ctype@D@std@@SA_KPEAPEBVfacet@locale@2@PEBV42@@Z 0000000140014270     msvcprt:MSVCP140.dll
 0002:00000278       __imp_?always_noconv@codecvt_base@std@@QEBA_NXZ 0000000140014278     msvcprt:MSVCP140.dll
 0002:00000280       __imp_??Bid@locale@std@@QEAA_KXZ 0000000140014280     msvcprt:MSVCP140.dll
 0002:00000288       __imp_?_BADOFF@std@@3_JB   0000000140014288     msvcprt:MSVCP140.dll
 0002:00000290       __imp_?_Xout_of_range@std@@YAXPEBD@Z 0000000140014290     msvcprt:MSVCP140.dll
 0002:00000298       __imp_?_Xbad_alloc@std@@YAXXZ 0000000140014298     msvcprt:MSVCP140.dll
 0002:000002a0       __imp_?cin@std@@3V?$basic_istream@DU?$char_traits@D@std@@@1@A 00000001400142a0     msvcprt:MSVCP140.dll
 0002:000002a8       __imp_?_Getgloballocale@locale@std@@CAPEAV_Locimp@12@XZ 00000001400142a8     msvcprt:MSVCP140.dll
 0002:000002b0       __imp_?cout@std@@3V?$basic_ostream@DU?$char_traits@D@std@@@1@A 00000001400142b0     msvcprt:MSVCP140.dll
 0002:000002b8       __imp_?uncaught_exceptions@std@@YAHXZ 00000001400142b8     msvcprt:MSVCP140.dll
 0002:000002c0       __imp_??0_Lockit@std@@QEAA@H@Z 00000001400142c0     msvcprt:MSVCP140.dll
 0002:000002c8       __imp_??1_Lockit@std@@QEAA@XZ 00000001400142c8     msvcprt:MSVCP140.dll
 0002:000002d0       __imp_?id@?$ctype@D@std@@2V0locale@2@A 00000001400142d0     msvcprt:MSVCP140.dll
 0002:000002d8       \177MSVCP140_NULL_THUNK_DATA 00000001400142d8     msvcprt:MSVCP140.dll
 0002:000002e0       __imp_LoadIconA            00000001400142e0     user32:USER32.dll
 0002:000002e8       \177USER32_NULL_THUNK_DATA 00000001400142e8     user32:USER32.dll
 0002:000002f0       __imp___std_terminate      00000001400142f0     vcruntime:VCRUNTIME140.dll
 0002:000002f8       __imp_memchr               00000001400142f8     vcruntime:VCRUNTIME140.dll
 0002:00000300       __imp___std_exception_copy 0000000140014300     vcruntime:VCRUNTIME140.dll
 0002:00000308       __imp__CxxThrowException   0000000140014308     vcruntime:VCRUNTIME140.dll
 0002:00000310       __imp___std_exception_destroy 0000000140014310     vcruntime:VCRUNTIME140.dll
 0002:00000318       __imp___CxxFrameHandler3   0000000140014318     vcruntime:VCRUNTIME140.dll
 0002:00000320       __imp_memcpy               0000000140014320     vcruntime:VCRUNTIME140.dll
 0002:00000328       __imp___C_specific_handler 0000000140014328     vcruntime:VCRUNTIME140.dll
 0002:00000330       __imp_memmove              0000000140014330     vcruntime:VCRUNTIME140.dll
 0002:00000338       __imp_memcmp               0000000140014338     vcruntime:VCRUNTIME140.dll
 0002:00000340       __imp_memset               0000000140014340     vcruntime:VCRUNTIME140.dll
 0002:00000348       \177VCRUNTIME140_NULL_THUNK_DATA 0000000140014348     vcruntime:VCRUNTIME140.dll
 0002:00000350       __imp_PlaySoundA           0000000140014350     winmm:WINMM.dll
 0002:00000358       \177WINMM_NULL_THUNK_DATA  0000000140014358     winmm:WINMM.dll
 0002:00000360       __imp_atoi                 0000000140014360     ucrt:api-ms-win-crt-convert-l1-1-0.dll
 0002:00000368       \177api-ms-win-crt-convert-l1-1-0_NULL_THUNK_DATA 0000000140014368     ucrt:api-ms-win-crt-convert-l1-1-0.dll
 0002:00000370       __imp_remove               0000000140014370     ucrt:api-ms-win-crt-filesystem-l1-1-0.dll
 0002:00000378       __imp__lock_file           0000000140014378     ucrt:api-ms-win-crt-filesystem-l1-1-0.dll
 0002:00000380       __imp__access              0000000140014380     ucrt:api-ms-win-crt-filesystem-l1-1-0.dll
 0002:00000388       __imp__unlock_file         0000000140014388     ucrt:api-ms-win-crt-filesystem-l1-1-0.dll
 0002:00000390       \177api-ms-win-crt-filesystem-l1-1-0_NULL_THUNK_DATA 0000000140014390     ucrt:api-ms-win-crt-filesystem-l1-1-0.dll
 0002:00000398       __imp__set_new_mode        0000000140014398     ucrt:api-ms-win-crt-heap-l1-1-0.dll
 0002:000003a0       __imp__callnewh            00000001400143a0     ucrt:api-ms-win-crt-heap-l1-1-0.dll
 0002:000003a8       __imp_malloc               00000001400143a8     ucrt:api-ms-win-crt-heap-l1-1-0.dll
 0002:000003b0       __imp_free                 00000001400143b0     ucrt:api-ms-win-crt-heap-l1-1-0.dll
 0002:000003b8       \177api-ms-win-crt-heap-l1-1-0_NULL_THUNK_DATA 00000001400143b8     ucrt:api-ms-win-crt-heap-l1-1-0.dll
 0002:000003c0       __imp__configthreadlocale  00000001400143c0     ucrt:api-ms-win-crt-locale-l1-1-0.dll
 0002:000003c8       __imp_setlocale            00000001400143c8     ucrt:api-ms-win-crt-locale-l1-1-0.dll
 0002:000003d0       \177api-ms-win-crt-locale-l1-1-0_NULL_THUNK_DATA 00000001400143d0     ucrt:api-ms-win-crt-locale-l1-1-0.dll
 0002:000003d8       __imp___setusermatherr     00000001400143d8     ucrt:api-ms-win-crt-math-l1-1-0.dll
 0002:000003e0       \177api-ms-win-crt-math-l1-1-0_NULL_THUNK_DATA 00000001400143e0     ucrt:api-ms-win-crt-math-l1-1-0.dll
 0002:000003e8       __imp__crt_atexit          00000001400143e8     ucrt:api-ms-win-crt-runtime-l1-1-0.dll
 0002:000003f0       __imp__errno               00000001400143f0     ucrt:api-ms-win-crt-runtime-l1-1-0.dll
 0002:000003f8       __imp__seh_filter_exe      00000001400143f8     ucrt:api-ms-win-crt-runtime-l1-1-0.dll
 0002:00000400       __imp__set_app_type        0000000140014400     ucrt:api-ms-win-crt-runtime-l1-1-0.dll
 0002:00000408       __imp__register_onexit_function 0000000140014408     ucrt:api-ms-win-crt-runtime-l1-1-0.dll
 0002:00000410       __imp__get_initial_narrow_environment 0000000140014410     ucrt:api-ms-win-crt-runtime-l1-1-0.dll
 0002:00000418       __imp__initterm            0000000140014418     ucrt:api-ms-win-crt-runtime-l1-1-0.dll
 0002:00000420       __imp__initterm_e          0000000140014420     ucrt:api-ms-win-crt-runtime-l1-1-0.dll
 0002:00000428       __imp_exit                 0000000140014428     ucrt:api-ms-win-crt-runtime-l1-1-0.dll
 0002:00000430       __imp__exit                0000000140014430     ucrt:api-ms-win-crt-runtime-l1-1-0.dll
 0002:00000438       __imp__initialize_onexit_table 0000000140014438     ucrt:api-ms-win-crt-runtime-l1-1-0.dll
 0002:00000440       __imp___p___argc           0000000140014440     ucrt:api-ms-win-crt-runtime-l1-1-0.dll
 0002:00000448       __imp___p___argv           0000000140014448     ucrt:api-ms-win-crt-runtime-l1-1-0.dll
 0002:00000450       __imp__c_exit              0000000140014450     ucrt:api-ms-win-crt-runtime-l1-1-0.dll
 0002:00000458       __imp__register_thread_local_exe_atexit_callback 0000000140014458     ucrt:api-ms-win-crt-runtime-l1-1-0.dll
 0002:00000460       __imp__initialize_narrow_environment 0000000140014460     ucrt:api-ms-win-crt-runtime-l1-1-0.dll
 0002:00000468       __imp__configure_narrow_argv 0000000140014468     ucrt:api-ms-win-crt-runtime-l1-1-0.dll
 0002:00000470       __imp_terminate            0000000140014470     ucrt:api-ms-win-crt-runtime-l1-1-0.dll
 0002:00000478       __imp__invalid_parameter_noinfo_noreturn 0000000140014478     ucrt:api-ms-win-crt-runtime-l1-1-0.dll
 0002:00000480       __imp_system               0000000140014480     ucrt:api-ms-win-crt-runtime-l1-1-0.dll
 0002:00000488       __imp__invalid_parameter_noinfo 0000000140014488     ucrt:api-ms-win-crt-runtime-l1-1-0.dll
 0002:00000490       __imp__cexit               0000000140014490     ucrt:api-ms-win-crt-runtime-l1-1-0.dll
 0002:00000498       \177api-ms-win-crt-runtime-l1-1-0_NULL_THUNK_DATA 0000000140014498     ucrt:api-ms-win-crt-runtime-l1-1-0.dll
 0002:000004a0       __imp_ungetc               00000001400144a0     ucrt:api-ms-win-crt-stdio-l1-1-0.dll
 0002:000004a8       __imp_fgetpos              00000001400144a8     ucrt:api-ms-win-crt-stdio-l1-1-0.dll
 0002:000004b0       __imp_setvbuf              00000001400144b0     ucrt:api-ms-win-crt-stdio-l1-1-0.dll
 0002:000004b8       __imp___p__commode         00000001400144b8     ucrt:api-ms-win-crt-stdio-l1-1-0.dll
 0002:000004c0       __imp__set_fmode           00000001400144c0     ucrt:api-ms-win-crt-stdio-l1-1-0.dll
 0002:000004c8       __imp__get_stream_buffer_pointers 00000001400144c8     ucrt:api-ms-win-crt-stdio-l1-1-0.dll
 0002:000004d0       __imp__fseeki64            00000001400144d0     ucrt:api-ms-win-crt-stdio-l1-1-0.dll
 0002:000004d8       __imp_fsetpos              00000001400144d8     ucrt:api-ms-win-crt-stdio-l1-1-0.dll
 0002:000004e0       __imp_fgetc                00000001400144e0     ucrt:api-ms-win-crt-stdio-l1-1-0.dll
 0002:000004e8       __imp_fputc                00000001400144e8     ucrt:api-ms-win-crt-stdio-l1-1-0.dll
 0002:000004f0       __imp_fwrite               00000001400144f0     ucrt:api-ms-win-crt-stdio-l1-1-0.dll
 0002:000004f8       __imp_fclose               00000001400144f8     ucrt:api-ms-win-crt-stdio-l1-1-0.dll
 0002:00000500       __imp_fflush               0000000140014500     ucrt:api-ms-win-crt-stdio-l1-1-0.dll
 0002:00000508       \177api-ms-win-crt-stdio-l1-1-0_NULL_THUNK_DATA 0000000140014508     ucrt:api-ms-win-crt-stdio-l1-1-0.dll
 0002:00000510       __imp__time64              0000000140014510     ucrt:api-ms-win-crt-time-l1-1-0.dll
 0002:00000518       \177api-ms-win-crt-time-l1-1-0_NULL_THUNK_DATA 0000000140014518     ucrt:api-ms-win-crt-time-l1-1-0.dll
 0002:00000520       __imp_rand                 0000000140014520     ucrt:api-ms-win-crt-utility-l1-1-0.dll
 0002:00000528       __imp_srand                0000000140014528     ucrt:api-ms-win-crt-utility-l1-1-0.dll
 0002:00000530       \177api-ms-win-crt-utility-l1-1-0_NULL_THUNK_DATA 0000000140014530     ucrt:api-ms-win-crt-utility-l1-1-0.dll
 0002:00000538       __imp_URLDownloadToFileA   0000000140014538     urlmon:urlmon.dll
 0002:00000540       \177urlmon_NULL_THUNK_DATA 0000000140014540     urlmon:urlmon.dll
 0002:00000548       __guard_check_icall_fptr   0000000140014548     MSVCRT:guard_support.obj
 0002:00000550       __guard_dispatch_icall_fptr 0000000140014550     MSVCRT:guard_support.obj
 0002:00000558       __guard_ss_verify_failure_fptr 0000000140014558     MSVCRT:guard_support.obj
 0002:00000560       __guard_ss_verify_sp_fptr  0000000140014560     MSVCRT:guard_support.obj
 0002:00000568       __xc_a                     0000000140014568     MSVCRT:initializers.obj
 0002:00000590       __xc_z                     0000000140014590     MSVCRT:initializers.obj
 0002:00000598       __xi_a                     0000000140014598     MSVCRT:initializers.obj
 0002:000005b0       __xi_z                     00000001400145b0     MSVCRT:initializers.obj
 0002:000005b8       __xp_a                     00000001400145b8     MSVCRT:initializers.obj
 0002:000005c0       __xp_z                     00000001400145c0     MSVCRT:initializers.obj
 0002:000005c8       __xt_a                     00000001400145c8     MSVCRT:initializers.obj
 0002:000005d0       __xt_z                     00000001400145d0     MSVCRT:initializers.obj
 0002:00000610       ??_7type_info@@6B@         0000000140014610     MSVCRT:std_type_info_static.obj
 0002:00000630       ??_7exception@std@@6B@     0000000140014630     MSVCRT:throw_bad_alloc.obj
 0002:00000648       ??_7bad_alloc@std@@6B@     0000000140014648     MSVCRT:throw_bad_alloc.obj
 0002:00000658       ??_C@_0P@GHFPNOJB@bad?5allocation?$AA@ 0000000140014658     MSVCRT:throw_bad_alloc.obj
 0002:00000670       ??_7bad_array_new_length@std@@6B@ 0000000140014670     MSVCRT:throw_bad_alloc.obj
 0002:00000680       ??_C@_0BF@KINCDENJ@bad?5array?5new?5length?$AA@ 0000000140014680     MSVCRT:throw_bad_alloc.obj
 0002:00000698       ??_C@_0BC@EOODALEL@Unknown?5exception?$AA@ 0000000140014698     main.obj
 0002:000006b0       ??_C@_08EPJLHIJG@bad?5cast?$AA@ 00000001400146b0     main.obj
 0002:000006c0       ??_C@_07NMCGPECH@Agata_1?$AA@ 00000001400146c0     main.obj
 0002:000006c8       ??_C@_07PHALKHOE@Agata_2?$AA@ 00000001400146c8     main.obj
 0002:000006d0       ??_C@_07OOBAJGKF@Agata_3?$AA@ 00000001400146d0     main.obj
 0002:000006d8       ??_C@_07KBFBAAGC@Agata_4?$AA@ 00000001400146d8     main.obj
 0002:000006e0       ??_C@_07LIEKDBCD@Agata_5?$AA@ 00000001400146e0     main.obj
 0002:000006e8       ??_C@_05HIHNAHAF@Ewa_1?$AA@ 00000001400146e8     main.obj
 0002:000006f0       ??_C@_05FDFAFEMG@Ewa_2?$AA@ 00000001400146f0     main.obj
 0002:000006f8       ??_C@_05EKELGFIH@Ewa_3?$AA@ 00000001400146f8     main.obj
 0002:00000700       ??_C@_05FAKPDEA@Ewa_4?$AA@ 0000000140014700     main.obj
 0002:00000708       ??_C@_05BMBBMCAB@Ewa_5?$AA@ 0000000140014708     main.obj
 0002:00000710       ??_C@_06DNEKEHMO@Ewa2_1?$AA@ 0000000140014710     main.obj
 0002:00000718       ??_C@_06BGGHBEAN@Ewa2_2?$AA@ 0000000140014718     main.obj
 0002:00000720       ??_C@_06PHMCFEM@Ewa2_3?$AA@ 0000000140014720     main.obj
 0002:00000728       ??_C@_06EADNLDIL@Ewa2_4?$AA@ 0000000140014728     main.obj
 0002:00000730       ??_C@_06FJCGICMK@Ewa2_5?$AA@ 0000000140014730     main.obj
 0002:00000738       ??_C@_07JNGJCCBG@Jacek_1?$AA@ 0000000140014738     main.obj
 0002:00000740       ??_C@_07LGEEHBNF@Jacek_2?$AA@ 0000000140014740     main.obj
 0002:00000748       ??_C@_07KPFPEAJE@Jacek_3?$AA@ 0000000140014748     main.obj
 0002:00000750       ??_C@_07OABONGFD@Jacek_4?$AA@ 0000000140014750     main.obj
 0002:00000758       ??_C@_07PJAFOHBC@Jacek_5?$AA@ 0000000140014758     main.obj
 0002:00000760       ??_C@_08LJBBBCDF@Jacek2_1?$AA@ 0000000140014760     main.obj
 0002:00000770       ??_C@_08JCDMEBPG@Jacek2_2?$AA@ 0000000140014770     main.obj
 0002:00000780       ??_C@_08ILCHHALH@Jacek2_3?$AA@ 0000000140014780     main.obj
 0002:00000790       ??_C@_08MEGGOGHA@Jacek2_4?$AA@ 0000000140014790     main.obj
 0002:000007a0       ??_C@_08NNHNNHDB@Jacek2_5?$AA@ 00000001400147a0     main.obj
 0002:000007ac       ??_C@_05DOOIMHKE@Jan_1?$AA@ 00000001400147ac     main.obj
 0002:000007b4       ??_C@_05BFMFJEGH@Jan_2?$AA@ 00000001400147b4     main.obj
 0002:000007bc       ??_C@_05MNOKFCG@Jan_3?$AA@ 00000001400147bc     main.obj
 0002:000007c4       ??_C@_05EDJPDDOB@Jan_4?$AA@ 00000001400147c4     main.obj
 0002:000007cc       ??_C@_05FKIEACKA@Jan_5?$AA@ 00000001400147cc     main.obj
 0002:000007d4       ??_C@_06JMNNEBHA@Jan2_1?$AA@ 00000001400147d4     main.obj
 0002:000007dc       ??_C@_06LHPABCLD@Jan2_2?$AA@ 00000001400147dc     main.obj
 0002:000007e4       ??_C@_06KOOLCDPC@Jan2_3?$AA@ 00000001400147e4     main.obj
 0002:000007ec       ??_C@_06OBKKLFDF@Jan2_4?$AA@ 00000001400147ec     main.obj
 0002:000007f4       ??_C@_06PILBIEHE@Jan2_5?$AA@ 00000001400147f4     main.obj
 0002:000007fc       ??_C@_06HFECHJHC@Maja_1?$AA@ 00000001400147fc     main.obj
 0002:00000804       ??_C@_06FOGPCKLB@Maja_2?$AA@ 0000000140014804     main.obj
 0002:0000080c       ??_C@_06EHHEBLPA@Maja_3?$AA@ 000000014001480c     main.obj
 0002:00000814       ??_C@_06IDFINDH@Maja_4?$AA@ 0000000140014814     main.obj
 0002:0000081c       ??_C@_06BBCOLMHG@Maja_5?$AA@ 000000014001481c     main.obj
 0002:00000828       ??_C@_07PDCGJMCP@Maja2_1?$AA@ 0000000140014828     main.obj
 0002:00000830       ??_C@_07NIALMPOM@Maja2_2?$AA@ 0000000140014830     main.obj
 0002:00000838       ??_C@_07MBBAPOKN@Maja2_3?$AA@ 0000000140014838     main.obj
 0002:00000840       ??_C@_07IOFBGIGK@Maja2_4?$AA@ 0000000140014840     main.obj
 0002:00000848       ??_C@_07JHEKFJCL@Maja2_5?$AA@ 0000000140014848     main.obj
 0002:00000850       ??_C@_0P@GMFAENOC@log_og?slny?4txt?$AA@ 0000000140014850     main.obj
 0002:00000860       ??_C@_05PDJBBECF@pause?$AA@ 0000000140014860     main.obj
 0002:00000868       ??_C@_0DL@POFCNLON@Jak?$LJ?5opcje?5chcesz?5obstawi?f?$DP?5?$CIzgo@ 0000000140014868     main.obj
 0002:000008a8       ??_C@_0N@KLINIBPG@p?5?9?5parzyste?$AA@ 00000001400148a8     main.obj
 0002:000008b8       ??_C@_0BA@GNAADEAG@n?5?9?5nieparzyste?$AA@ 00000001400148b8     main.obj
 0002:000008c8       ??_C@_0BD@LEDAOJLK@r?5?9?5czerwone?5?$CIred?$CJ?$AA@ 00000001400148c8     main.obj
 0002:000008e0       ??_C@_0BD@EPLAAEJB@b?5?9?5czarne?5?$CIblack?$CJ?$AA@ 00000001400148e0     main.obj
 0002:000008f8       ??_C@_0BB@FMNKHOJE@g?5?9?5g?srna?5po?$LDowa?$AA@ 00000001400148f8     main.obj
 0002:00000910       ??_C@_0BB@CHNPGJIO@d?5?9?5dolna?5po?$LDowa?$AA@ 0000000140014910     main.obj
 0002:00000928       ??_C@_0CN@EJBDEIIK@k1?0?5k2?0?5k3?5?9?5kolumna?51?0?5kolumna?5@ 0000000140014928     main.obj
 0002:00000958       ??_C@_0CK@OAIPJBPB@w1?0?5w2?0?5?4?4?4?5?0?5w12?5?9?5wiersz?5trzec@ 0000000140014958     main.obj
 0002:00000988       ??_C@_0CN@CGIAAFPM@0?936?5?9?5pojedy?qcze?5pole?5o?5odpowie@ 0000000140014988     main.obj
 0002:000009b8       ??_C@_01JBBJJEPG@p?$AA@    00000001400149b8     main.obj
 0002:000009bc       ??_C@_01EFFIKLCJ@n?$AA@    00000001400149bc     main.obj
 0002:000009c0       ??_C@_01KDCPPGHE@r?$AA@    00000001400149c0     main.obj
 0002:000009c4       ??_C@_01OJONOECF@b?$AA@    00000001400149c4     main.obj
 0002:000009c8       ??_C@_01JEJKBAGA@g?$AA@    00000001400149c8     main.obj
 0002:000009cc       ??_C@_01LPLHEDKD@d?$AA@    00000001400149cc     main.obj
 0002:000009d0       ??_C@_02ICGBAFJO@k1?$AA@   00000001400149d0     main.obj
 0002:000009d4       ??_C@_02KJEMFGFN@k2?$AA@   00000001400149d4     main.obj
 0002:000009d8       ??_C@_02LAFHGHBM@k3?$AA@   00000001400149d8     main.obj
 0002:000009dc       ??_C@_02JHFNFPIK@w1?$AA@   00000001400149dc     main.obj
 0002:000009e0       ??_C@_02LMHAAMEJ@w2?$AA@   00000001400149e0     main.obj
 0002:000009e4       ??_C@_02KFGLDNAI@w3?$AA@   00000001400149e4     main.obj
 0002:000009e8       ??_C@_02OKCKKLMP@w4?$AA@   00000001400149e8     main.obj
 0002:000009ec       ??_C@_02PDDBJKIO@w5?$AA@   00000001400149ec     main.obj
 0002:000009f0       ??_C@_02NIBMMJEN@w6?$AA@   00000001400149f0     main.obj
 0002:000009f4       ??_C@_02MBAHPIAM@w7?$AA@   00000001400149f4     main.obj
 0002:000009f8       ??_C@_02EGJPOEMD@w8?$AA@   00000001400149f8     main.obj
 0002:000009fc       ??_C@_02FPIENFIC@w9?$AA@   00000001400149fc     main.obj
 0002:00000a00       ??_C@_03NCLMABJC@w10?$AA@  0000000140014a00     main.obj
 0002:00000a04       ??_C@_03MLKHDAND@w11?$AA@  0000000140014a04     main.obj
 0002:00000a08       ??_C@_03OAIKGDBA@w12?$AA@  0000000140014a08     main.obj
 0002:00000a0c       ??_C@_01GBGANLPD@0?$AA@    0000000140014a0c     main.obj
 0002:00000a10       ??_C@_01HIHLOKLC@1?$AA@    0000000140014a10     main.obj
 0002:00000a14       ??_C@_01FDFGLJHB@2?$AA@    0000000140014a14     main.obj
 0002:00000a18       ??_C@_01EKENIIDA@3?$AA@    0000000140014a18     main.obj
 0002:00000a1c       ??_C@_01FAMBOPH@4?$AA@     0000000140014a1c     main.obj
 0002:00000a20       ??_C@_01BMBHCPLG@5?$AA@    0000000140014a20     main.obj
 0002:00000a24       ??_C@_01DHDKHMHF@6?$AA@    0000000140014a24     main.obj
 0002:00000a28       ??_C@_01COCBENDE@7?$AA@    0000000140014a28     main.obj
 0002:00000a2c       ??_C@_01KJLJFBPL@8?$AA@    0000000140014a2c     main.obj
 0002:00000a30       ??_C@_01LAKCGALK@9?$AA@    0000000140014a30     main.obj
 0002:00000a34       ??_C@_02PKFBJPLJ@10?$AA@   0000000140014a34     main.obj
 0002:00000a38       ??_C@_02ODEKKOPI@11?$AA@   0000000140014a38     main.obj
 0002:00000a3c       ??_C@_02MIGHPNDL@12?$AA@   0000000140014a3c     main.obj
 0002:00000a40       ??_C@_02NBHMMMHK@13?$AA@   0000000140014a40     main.obj
 0002:00000a44       ??_C@_02JODNFKLN@14?$AA@   0000000140014a44     main.obj
 0002:00000a48       ??_C@_02IHCGGLPM@15?$AA@   0000000140014a48     main.obj
 0002:00000a4c       ??_C@_02KMALDIDP@16?$AA@   0000000140014a4c     main.obj
 0002:00000a50       ??_C@_02LFBAAJHO@17?$AA@   0000000140014a50     main.obj
 0002:00000a54       ??_C@_02DCIIBFLB@18?$AA@   0000000140014a54     main.obj
 0002:00000a58       ??_C@_02CLJDCEPA@19?$AA@   0000000140014a58     main.obj
 0002:00000a5c       ??_C@_02PIBHCBOA@20?$AA@   0000000140014a5c     main.obj
 0002:00000a60       ??_C@_02OBAMBAKB@21?$AA@   0000000140014a60     main.obj
 0002:00000a64       ??_C@_02MKCBEDGC@22?$AA@   0000000140014a64     main.obj
 0002:00000a68       ??_C@_02NDDKHCCD@23?$AA@   0000000140014a68     main.obj
 0002:00000a6c       ??_C@_02JMHLOEOE@24?$AA@   0000000140014a6c     main.obj
 0002:00000a70       ??_C@_02IFGANFKF@25?$AA@   0000000140014a70     main.obj
 0002:00000a74       ??_C@_02KOENIGGG@26?$AA@   0000000140014a74     main.obj
 0002:00000a78       ??_C@_02LHFGLHCH@27?$AA@   0000000140014a78     main.obj
 0002:00000a7c       ??_C@_02DAMOKLOI@28?$AA@   0000000140014a7c     main.obj
 0002:00000a80       ??_C@_02CJNFJKKJ@29?$AA@   0000000140014a80     main.obj
 0002:00000a84       ??_C@_02PJNFELNH@30?$AA@   0000000140014a84     main.obj
 0002:00000a88       ??_C@_02OAMOHKJG@31?$AA@   0000000140014a88     main.obj
 0002:00000a8c       ??_C@_02MLODCJFF@32?$AA@   0000000140014a8c     main.obj
 0002:00000a90       ??_C@_02NCPIBIBE@33?$AA@   0000000140014a90     main.obj
 0002:00000a94       ??_C@_02JNLJIOND@34?$AA@   0000000140014a94     main.obj
 0002:00000a98       ??_C@_02IEKCLPJC@35?$AA@   0000000140014a98     main.obj
 0002:00000a9c       ??_C@_02KPIPOMFB@36?$AA@   0000000140014a9c     main.obj
 0002:00000aa0       ??_C@_0CF@MANFGHNE@$?0?5jak?$LJ?5kwot?$LJ?5chcesz?5obstawi?f?5wy@ 0000000140014aa0     main.obj
 0002:00000ac8       ??_C@_05OMMBNPEF@Masz?5?$AA@ 0000000140014ac8     main.obj
 0002:00000ad0       ??_C@_0CD@OGNPPNBN@Wprowadzi?$LDe?f?5nieprawid?$LDow?$LJ?5warto@ 0000000140014ad0     main.obj
 0002:00000af8       ??_C@_0CF@LJDHNEHM@Nie?5mo?$LPesz?5obstawi?f?5zerowego?5zak@ 0000000140014af8     main.obj
 0002:00000b20       ??_C@_0BI@CMKDFAEK@Nie?5masz?5tyle?5pieni?jdzy?$AA@ 0000000140014b20     main.obj
 0002:00000b38       ??_C@_0CJ@PMIHJCIC@Nie?5mo?$LPesz?5obstawi?f?5ujemn?$LJ?5kwot?$LJ@ 0000000140014b38     main.obj
 0002:00000b64       ??_C@_02MGHEPNFN@?$AI?$AI?$AA@ 0000000140014b64     main.obj
 0002:00000b68       ??_C@_02KNHHEEKP@?5?5?$AA@ 0000000140014b68     main.obj
 0002:00000b70       ??_C@_0BC@IEHJKDDM@Wylosowano?5numer?5?$AA@ 0000000140014b70     main.obj
 0002:00000b84       ??_C@_02KHOJGJKF@?4?5?$AA@ 0000000140014b84     main.obj
 0002:00000b88       ??_C@_02DEPNMBPN@$?4?$AA@  0000000140014b88     main.obj
 0002:00000b90       ??_C@_0CB@GINPHDN@Obstawi?$LDe?$JM?5poprawnie?0?5wygrywasz?5@ 0000000140014b90     main.obj
 0002:00000bc0       ??_C@_0EF@MDKBMGPE@Obstawi?$LDe?$JM?5niepoprawnie?5lecz?5uda@ 0000000140014bc0     main.obj
 0002:00000c08       ??_C@_0CF@BAJKLKHM@Obstawi?$LDe?$JM?5niepoprawnie?0?5przegra@ 0000000140014c08     main.obj
 0002:00000c30       ??_C@_0CM@BIICBBPD@Nie?5mo?$LPesz?5kontynuowa?f?0?5przegra?$LD@ 0000000140014c30     main.obj
 0002:00000c60       ??_C@_0CO@DOCNGCMI@$?0?5czy?5chcesz?5grac?5dalej?5?$CI?8t?8?9ta@ 0000000140014c60     main.obj
 0002:00000c90       ??_C@_0BA@KCLBOCHC@Na?5koncie?5masz?5?$AA@ 0000000140014c90     main.obj
 0002:00000ca0       ??_C@_01PFHFFBPC@t?$AA@    0000000140014ca0     main.obj
 0002:00000ca4       ??_C@_03PFPKAEFD@tak?$AA@  0000000140014ca4     main.obj
 0002:00000ca8       ??_C@_03FFMIKLGN@Tak?$AA@  0000000140014ca8     main.obj
 0002:00000cac       ??_C@_03PIABMJCP@TAK?$AA@  0000000140014cac     main.obj
 0002:00000cb0       ??_C@_03FKMOMPJO@nie?$AA@  0000000140014cb0     main.obj
 0002:00000cb4       ??_C@_03PKPMGAKA@Nie?$AA@  0000000140014cb4     main.obj
 0002:00000cb8       ??_C@_03FHDFACOC@NIE?$AA@  0000000140014cb8     main.obj
 0002:00000cbc       ??_C@_04IBLEHOMF@?4wav?$AA@ 0000000140014cbc     main.obj
 0002:00000cc4       ??_C@_05PNHGCFLK@p?4wav?$AA@ 0000000140014cc4     main.obj
 0002:00000ccc       ??_C@_05MEKKEGFB@n?4wav?$AA@ 0000000140014ccc     main.obj
 0002:00000cd4       ??_C@_05LALOIELB@r?4wav?$AA@ 0000000140014cd4     main.obj
 0002:00000cdc       ??_C@_05LDGIIGCK@b?4wav?$AA@ 0000000140014cdc     main.obj
 0002:00000ce4       ??_C@_05ODKFBHJJ@g?4wav?$AA@ 0000000140014ce4     main.obj
 0002:00000cec       ??_C@_05GFDBGFDH@d?4wav?$AA@ 0000000140014cec     main.obj
 0002:00000cf4       ??_C@_01DICPFPGM@k?$AA@    0000000140014cf4     main.obj
 0002:00000cf8       ??_C@_01NOFIACDB@w?$AA@    0000000140014cf8     main.obj
 0002:00000d00       ??_C@_0BB@KLDNCCFE@log_aktualny?4txt?$AA@ 0000000140014d00     main.obj
 0002:00000d18       ??_C@_0DJ@EFIKGJBI@Uruchomiono?5ponownie?5gr?j?5z?5wy?$LD?$LJc@ 0000000140014d18     main.obj
 0002:00000d58       ??_C@_09LFKNBKJA@Posiadasz?$AA@ 0000000140014d58     main.obj
 0002:00000d68       ??_C@_0L@DAFLKCID@Wylosowano?$AA@ 0000000140014d68     main.obj
 0002:00000d78       ??_C@_0M@DIDIAOPI@?5Wylosowano?$AA@ 0000000140014d78     main.obj
 0002:00000d88       ??_C@_0BC@EAGHPBJK@Obstawiono?5zaklad?$AA@ 0000000140014d88     main.obj
 0002:00000da0       ??_C@_0O@POHKAIHJ@Obstawiono?5za?$AA@ 0000000140014da0     main.obj
 0002:00000db0       ??_C@_0BE@CILJHICG@Gra?5rozpoczeta?5dnia?$AA@ 0000000140014db0     main.obj
 0002:00000dc8       ??_C@_0N@KHLIPMCA@?5o?5godzinie?5?$AA@ 0000000140014dc8     main.obj
 0002:00000dd8       ??_C@_01LFCBOECM@?4?$AA@   0000000140014dd8     main.obj
 0002:00000de0       ??_C@_0BF@EHKBBICH@Gra?5rozpoczeta?5dnia?5?$AA@ 0000000140014de0     main.obj
 0002:00000df8       ??_C@_01JLIPDDHJ@?3?$AA@   0000000140014df8     main.obj
 0002:00000e00       ??_C@_0BK@PLEOEKGI@Nowa?5gra?5rozpoczeta?5dnia?5?$AA@ 0000000140014e00     main.obj
 0002:00000e20       ??_C@_0BB@GJELGIOA@Efekty_d?$JPwi?jkowe?$AA@ 0000000140014e20     main.obj
 0002:00000e38       ??_C@_0BN@JMMCOBLJ@Efekty_d?$JPwi?jkowe?1bankrut?4wav?$AA@ 0000000140014e38     main.obj
 0002:00000e58       ??_C@_0DC@DNDHBNPK@Rozpoczynam?5pobieranie?5brakuj?$LJcy@ 0000000140014e58     main.obj
 0002:00000e90       ??_C@_0FP@HCIMMKGN@https?3?1?1github?4com?1talez2709?1Rul@ 0000000140014e90     main.obj
 0002:00000ef0       ??_C@_0IB@GKCCNHLI@Brak?5plik?sw?5dla?5efekt?sw?5d?$JPwi?jkow@ 0000000140014ef0     main.obj
 0002:00000f78       ??_C@_0BO@OCGMENDH@Efekty_d?$JPwi?jkowe?1wygrana1?4wav?$AA@ 0000000140014f78     main.obj
 0002:00000fa0       ??_C@_0GA@GDDMBFNB@https?3?1?1github?4com?1talez2709?1Rul@ 0000000140014fa0     main.obj
 0002:00001000       ??_C@_0BO@GEPIDPJJ@Efekty_d?$JPwi?jkowe?1wygrana2?4wav?$AA@ 0000000140015000     main.obj
 0002:00001020       ??_C@_0GA@OFKIGHHP@https?3?1?1github?4com?1talez2709?1Rul@ 0000000140015020     main.obj
 0002:00001080       ??_C@_0CF@PNMICDIM@Efekty_d?$JPwi?jkowe?1zwielokrotnenie@ 0000000140015080     main.obj
 0002:000010b0       ??_C@_0GH@BAJDCEKO@https?3?1?1github?4com?1talez2709?1Rul@ 00000001400150b0     main.obj
 0002:00001118       ??_C@_0CA@KILAJOJF@Pobrano?5brakuj?$LJce?5pliki?5efekt?sw?$AA@ 0000000140015118     main.obj
 0002:00001138       ??_C@_05CMOJBPHN@G?$LDos?1?$AA@ 0000000140015138     main.obj
 0002:00001140       ??_C@_05KFCKMKOB@Jacek?$AA@ 0000000140015140     main.obj
 0002:00001148       ??_C@_03FPCJKMNP@Ewa?$AA@  0000000140015148     main.obj
 0002:0000114c       ??_C@_04CDICBAGM@Maja?$AA@ 000000014001514c     main.obj
 0002:00001154       ??_C@_03JIHJHPIE@Jan?$AA@  0000000140015154     main.obj
 0002:00001158       ??_C@_06DKNIKMFF@Jacek2?$AA@ 0000000140015158     main.obj
 0002:00001160       ??_C@_04PLEDLCJI@Ewa2?$AA@ 0000000140015160     main.obj
 0002:00001168       ??_C@_05KJFHPLBC@Maja2?$AA@ 0000000140015168     main.obj
 0002:00001170       ??_C@_04HDNGKDH@Jan2?$AA@  0000000140015170     main.obj
 0002:00001178       ??_C@_05NKPCGME@Agata?$AA@ 0000000140015178     main.obj
 0002:00001180       ??_C@_01IDAFKMJL@_?$AA@    0000000140015180     main.obj
 0002:00001184       ??_C@_01KMDKNFGN@?1?$AA@   0000000140015184     main.obj
 0002:00001190       ??_C@_0ED@KNLDKMLM@https?3?1?1github?4com?1talez2709?1Rul@ 0000000140015190     main.obj
 0002:000011d4       ??_C@_04JLFAMLOH@G?$LDos?$AA@ 00000001400151d4     main.obj
 0002:000011e0       ??_C@_0DB@JAANGCNE@Rozpoczynam?5pobieranie?5brakuj?$LJcy@ 00000001400151e0     main.obj
 0002:00001214       ??_C@_04NCAGELPD@?4rar?$AA@ 0000000140015214     main.obj
 0002:00001220       ??_C@_0FC@DPJNGIHL@Brak?5plik?sw?5dla?5g?$LDosu?5oraz?5nie?5m@ 0000000140015220     main.obj
 0002:00001278       ??_C@_07KIPBKJCE@win?4wav?$AA@ 0000000140015278     main.obj
 0002:00001280       ??_C@_0BP@KIMEIPBM@Pobrano?5brakuj?$LJce?5pliki?5g?$LDos?sw?$AA@ 0000000140015280     main.obj
 0002:000012a0       ??_C@_0M@COFBHHKL@setting?4txt?$AA@ 00000001400152a0     main.obj
 0002:000012b0       ??_C@_0CC@GBEJJAFD@ilo?$JM?f_minimalna_obrot?sw_ruletki?5@ 00000001400152b0     main.obj
 0002:000012d8       ??_C@_0CI@KGOEKJAK@ilo?$JM?f_max_dodatkowych_obrot?sw_ru@ 00000001400152d8     main.obj
 0002:00001300       ??_C@_0BP@NMHFMMDP@czas_przeskoku_kulki_szybki?550?$AA@ 0000000140015300     main.obj
 0002:00001320       ??_C@_0BO@ELNOLLHD@czas_przeskoku_kulki_wolny?575?$AA@ 0000000140015320     main.obj
 0002:00001340       ??_C@_0BJ@OHAGCGBG@czas_przerwy_dzwi?jku?5500?$AA@ 0000000140015340     main.obj
 0002:00001360       ??_C@_0BJ@NJDCNPPC@styl_liczenia_wygranej?51?$AA@ 0000000140015360     main.obj
 0002:00001380       ??_C@_0BG@DNDOADBI@kwota_pocz?$LJtkowa?51000?$AA@ 0000000140015380     main.obj
 0002:00001398       ??_C@_0BA@ILKGKHCK@stan_d?$JPwi?jk?sw?51?$AA@ 0000000140015398     main.obj
 0002:000013a8       ??_C@_0BG@EMABALP@czy_kontynuowa?f_gr?j?51?$AA@ 00000001400153a8     main.obj
 0002:000013c0       ??_C@_0BG@COMBOMN@g?$LDos_odczytu_numeru?51?$AA@ 00000001400153c0     main.obj
 0002:000013d8       ??_C@_0BP@CJDLAIMM@g?$LDos_szybko?$JM?f_odczytu_numeru?54?$AA@ 00000001400153d8     main.obj
 0002:000013f8       ??_C@_0BD@MFIDEEIL@efekty_d?$JPwi?jkowe?51?$AA@ 00000001400153f8     main.obj
 0002:00001410       ??_C@_0GC@FGDMKFMP@Warto?$JM?f?5wolnego?5czasu?5przeskoku?5@ 0000000140015410     main.obj
 0002:00001478       ??_C@_0BN@KMOICOCN@Ustawiam?5domy?$JMlne?5ustawienie?$AA@ 0000000140015478     main.obj
 0002:00001498       ??_C@_0DL@EDLBNLFA@Ilo?$JM?f?5minimalna?5obrot?sw?5ruletki?5@ 0000000140015498     main.obj
 0002:000014d8       ??_C@_0DF@PACHBLM@Ilo?$JM?f?5max?5obrot?sw?5ruletki?5nie?5mo@ 00000001400154d8     main.obj
 0002:00001510       ??_C@_0EG@FJFKONPC@Jedna?5z?5deklaracji?5w?5sprawie?5obr@ 0000000140015510     main.obj
 0002:00001558       ??_C@_0DH@EDACBMH@Styl?5liczeia?5wygranej?5przyjmuje?5@ 0000000140015558     main.obj
 0002:00001590       ??_C@_0DD@CJFGHGHP@Czas?5przerwy?5d?$JPwi?jku?5nie?5mo?$LPe?5by@ 0000000140015590     main.obj
 0002:000015c8       ??_C@_0CP@ODEFLMCC@Kwota?5pocz?$LJtkowa?5nie?5mo?$LPe?5by?f?5mn@ 00000001400155c8     main.obj
 0002:000015f8       ??_C@_0CP@LNDFINPO@Stan?5d?$JPwi?jk?sw?5przyjmuje?5warto?$JMci@ 00000001400155f8     main.obj
 0002:00001628       ??_C@_0DJ@OKKJHGDF@Opcja?5kontynuowania?5gry?5przyjmuj@ 0000000140015628     main.obj
 0002:00001670       ??_C@_0EB@BAPPBOHB@Opcja?5g?$LDos?5odczytu?5numeru?5przyjm@ 0000000140015670     main.obj
 0002:000016c0       ??_C@_0ED@BNKOADPP@Opcja?5szybko?$JM?f?5g?$LDosu?5odczytu?5prz@ 00000001400156c0     main.obj
 0002:00001708       ??_C@_0DC@HENMFLLO@Opcja?5efekty?5d?$JPwi?jkowe?5przyjmuje@ 0000000140015708     main.obj
 0002:00001740       ??_C@_0EG@GKBLFIMF@Nie?5mo?$LPesz?5mie?f?5wy?$LD?$LJczonych?5d?$JPwi@ 0000000140015740     main.obj
 0002:00001788       ??_C@_0DF@LJEKJLPK@Nie?5mo?$LPesz?5mie?f?5wy?$LD?$LJczonych?5d?$JPwi@ 0000000140015788     main.obj
 0002:000017c0       ??_C@_01EPMOAMKG@$?$AA@    00000001400157c0     main.obj
 0002:000017c8       ??_C@_0M@GPFIMODH@?5Wygrywasz?5?$AA@ 00000001400157c8     main.obj
 0002:000017d8       ??_C@_0M@GNFNLGIH@?5Posiadasz?5?$AA@ 00000001400157d8     main.obj
 0002:000017e8       ??_C@_0BL@LJEGNEAJ@?5Dostajesz?5polowe?5zak?$LDadu?5?$AA@ 00000001400157e8     main.obj
 0002:00001808       ??_C@_0N@NPCHEJIF@?5Przegrales?5?$AA@ 0000000140015808     main.obj
 0002:00001818       ??_C@_0BJ@GCHIFPGC@Ko?qczysz?5gr?j?5z?5wynikiem?5?$AA@ 0000000140015818     main.obj
 0002:00001838       ??_C@_0CL@DCKMMPCF@Gratuluje?5zwi?jkszy?$LDe?$JM?5sw?sj?5zas?sb@ 0000000140015838     main.obj
 0002:00001868       ??_C@_0BO@CAHFKDBP@?5krotnie?5sw?sj?5zas?sb?5finansowy?$AA@ 0000000140015868     main.obj
 0002:00001888       ??_C@_0BH@GDCLDFHN@Gratuluje?5zwi?jkszy?$LDe?$JM?5?$AA@ 0000000140015888     main.obj
 0002:000018a0       ??_C@_0P@LMKDJHDC@Obstawiono?5za?5?$AA@ 00000001400158a0     main.obj
 0002:000018b0       ??_C@_0BD@IOLLNBIB@Obstawiono?5zak?$LDad?5?$AA@ 00000001400158b0     main.obj
 0002:000018c8       ??_C@_0BE@EKDPDLOA@?5Obstawiono?5zaklad?5?$AA@ 00000001400158c8     main.obj
 0002:000018e0       ??_C@_0DA@EJNBAHOM@Kulka?5w?5grze?0?5zaczekaj?5na?5wyloso@ 00000001400158e0     main.obj
 0002:00001910       ??_C@_0N@CGNKGGIC@?5Wylosowano?5?$AA@ 0000000140015910     main.obj
 0002:00001920       ??_C@_0CA@FGPIEHEM@ilo?$JM?f_minimalna_obrot?sw_ruletki?$AA@ 0000000140015920     main.obj
 0002:00001940       ??_C@_0CG@KNEPJEMG@ilo?$JM?f_max_dodatkowych_obrot?sw_ru@ 0000000140015940     main.obj
 0002:00001968       ??_C@_0BM@MMKKMDHC@czas_przeskoku_kulki_szybki?$AA@ 0000000140015968     main.obj
 0002:00001988       ??_C@_0BL@LHGCEKLG@czas_przeskoku_kulki_wolny?$AA@ 0000000140015988     main.obj
 0002:000019a8       ??_C@_0BH@LAIPMCHF@styl_liczenia_wygranej?$AA@ 00000001400159a8     main.obj
 0002:000019c0       ??_C@_0BB@KJAOIHBF@kwota_pocz?$LJtkowa?$AA@ 00000001400159c0     main.obj
 0002:000019d8       ??_C@_0O@JDOJANCO@stan_d?$JPwi?jk?sw?$AA@ 00000001400159d8     main.obj
 0002:000019e8       ??_C@_0BE@MGBNNKM@czy_kontynuowa?f_gr?j?$AA@ 00000001400159e8     main.obj
 0002:00001a00       ??_C@_0BE@ILPCOCN@g?$LDos_odczytu_numeru?$AA@ 0000000140015a00     main.obj
 0002:00001a18       ??_C@_0BN@ECEAENDF@g?$LDos_szybko?$JM?f_odczytu_numeru?$AA@ 0000000140015a18     main.obj
 0002:00001a38       ??_C@_0BB@EHOIFKBK@efekty_d?$JPwi?jkowe?$AA@ 0000000140015a38     main.obj
 0002:00001a4c       ??_C@_06JGCGFIEG@polish?$AA@ 0000000140015a4c     main.obj
 0002:00001a58       ??_C@_07NGJEAPOI@Rar?4exe?$AA@ 0000000140015a58     main.obj
 0002:00001a60       ??_C@_0L@LIFPHICI@Rar?4exe?5x?5?$AA@ 0000000140015a60     main.obj
 0002:00001a70       ??_C@_0BG@BBKNOMOH@invalid?5map?$DMK?0?5T?$DO?5key?$AA@ 0000000140015a70     main.obj
 0002:00001a88       ??_C@_0BI@CFPLBAOH@invalid?5string?5position?$AA@ 0000000140015a88     main.obj
 0002:00001aa0       ??_C@_0BA@JFNIOLAK@string?5too?5long?$AA@ 0000000140015aa0     main.obj
 0002:00001ab0       ??_C@_0BE@JONHPENG@map?1set?$DMT?$DO?5too?5long?$AA@ 0000000140015ab0     main.obj
 0002:00001ba0       ??_7?$basic_filebuf@DU?$char_traits@D@std@@@std@@6B@ 0000000140015ba0     main.obj
 0002:00001c18       ??_8?$basic_stringstream@DU?$char_traits@D@std@@V?$allocator@D@2@@std@@7B?$basic_ostream@DU?$char_traits@D@std@@@1@@ 0000000140015c18     main.obj
 0002:00001c28       ??_7?$basic_ofstream@DU?$char_traits@D@std@@@std@@6B@ 0000000140015c28     main.obj
 0002:00001c38       ??_7bad_cast@std@@6B@      0000000140015c38     main.obj
 0002:00001c48       ??_8?$basic_fstream@DU?$char_traits@D@std@@@std@@7B?$basic_ostream@DU?$char_traits@D@std@@@1@@ 0000000140015c48     main.obj
 0002:00001c48       ??_8?$basic_ofstream@DU?$char_traits@D@std@@@std@@7B@ 0000000140015c48     main.obj
 0002:00001c58       ??_7?$basic_stringbuf@DU?$char_traits@D@std@@V?$allocator@D@2@@std@@6B@ 0000000140015c58     main.obj
 0002:00001cd8       ??_7?$basic_stringstream@DU?$char_traits@D@std@@V?$allocator@D@2@@std@@6B@ 0000000140015cd8     main.obj
 0002:00001ce8       ??_7?$basic_fstream@DU?$char_traits@D@std@@@std@@6B@ 0000000140015ce8     main.obj
 0002:00001cf0       ??_8?$basic_ifstream@DU?$char_traits@D@std@@@std@@7B@ 0000000140015cf0     main.obj
 0002:00001cf8       ??_8?$basic_fstream@DU?$char_traits@D@std@@@std@@7B?$basic_istream@DU?$char_traits@D@std@@@1@@ 0000000140015cf8     main.obj
 0002:00001d00       ??_8?$basic_stringstream@DU?$char_traits@D@std@@V?$allocator@D@2@@std@@7B?$basic_istream@DU?$char_traits@D@std@@@1@@ 0000000140015d00     main.obj
 0002:00001d10       ??_7?$basic_ifstream@DU?$char_traits@D@std@@@std@@6B@ 0000000140015d10     main.obj
 0002:00002358       __real@4042800000000000    0000000140016358     main.obj
 0002:00002360       __xmm@000000000000000f0000000000000000 0000000140016360     main.obj
 0002:000023e0       _load_config_used          00000001400163e0     MSVCRT:loadcfg.obj
 0002:000024e0       ??_R4type_info@@6B@        00000001400164e0     MSVCRT:std_type_info_static.obj
 0002:00002508       ??_R3type_info@@8          0000000140016508     MSVCRT:std_type_info_static.obj
 0002:00002520       ??_R2type_info@@8          0000000140016520     MSVCRT:std_type_info_static.obj
 0002:00002530       ??_R1A@?0A@EA@type_info@@8 0000000140016530     MSVCRT:std_type_info_static.obj
 0002:00002558       ??_R4bad_alloc@std@@6B@    0000000140016558     MSVCRT:throw_bad_alloc.obj
 0002:00002580       ??_R3bad_alloc@std@@8      0000000140016580     MSVCRT:throw_bad_alloc.obj
 0002:00002598       ??_R2bad_alloc@std@@8      0000000140016598     MSVCRT:throw_bad_alloc.obj
 0002:000025b0       ??_R1A@?0A@EA@bad_alloc@std@@8 00000001400165b0     MSVCRT:throw_bad_alloc.obj
 0002:000025d8       ??_R4bad_array_new_length@std@@6B@ 00000001400165d8     MSVCRT:throw_bad_alloc.obj
 0002:00002600       ??_R3bad_array_new_length@std@@8 0000000140016600     MSVCRT:throw_bad_alloc.obj
 0002:00002618       ??_R2bad_array_new_length@std@@8 0000000140016618     MSVCRT:throw_bad_alloc.obj
 0002:00002638       ??_R1A@?0A@EA@bad_array_new_length@std@@8 0000000140016638     MSVCRT:throw_bad_alloc.obj
 0002:00002660       ??_R3?$basic_istream@DU?$char_traits@D@std@@@std@@8 0000000140016660     main.obj
 0002:00002678       ??_R3?$basic_iostream@DU?$char_traits@D@std@@@std@@8 0000000140016678     main.obj
 0002:00002690       ??_R2?$basic_fstream@DU?$char_traits@D@std@@@std@@8 0000000140016690     main.obj
 0002:000026e8       ??_R4exception@std@@6B@    00000001400166e8     main.obj
 0002:00002710       ??_R4?$basic_ofstream@DU?$char_traits@D@std@@@std@@6B@ 0000000140016710     main.obj
 0002:00002738       ??_R3?$basic_ofstream@DU?$char_traits@D@std@@@std@@8 0000000140016738     main.obj
 0002:00002750       ??_R1A@?0A@EA@?$basic_istream@DU?$char_traits@D@std@@@std@@8 0000000140016750     main.obj
 0002:00002778       ??_R1A@?0A@EA@bad_cast@std@@8 0000000140016778     main.obj
 0002:000027a0       ??_R3?$basic_ifstream@DU?$char_traits@D@std@@@std@@8 00000001400167a0     main.obj
 0002:000027b8       ??_R2?$basic_stringbuf@DU?$char_traits@D@std@@V?$allocator@D@2@@std@@8 00000001400167b8     main.obj
 0002:000027d0       ??_R1A@?0A@EA@?$basic_ifstream@DU?$char_traits@D@std@@@std@@8 00000001400167d0     main.obj
 0002:000027f8       ??_R3?$basic_fstream@DU?$char_traits@D@std@@@std@@8 00000001400167f8     main.obj
 0002:00002810       ??_R17A@3EA@?$_Iosb@H@std@@8 0000000140016810     main.obj
 0002:00002838       ??_R1A@?0A@EA@?$basic_stringstream@DU?$char_traits@D@std@@V?$allocator@D@2@@std@@8 0000000140016838     main.obj
 0002:00002860       ??_R1A@?0A@EA@?$basic_fstream@DU?$char_traits@D@std@@@std@@8 0000000140016860     main.obj
 0002:00002888       ??_R1A@?0A@EA@exception@std@@8 0000000140016888     main.obj
 0002:000028b0       ??_R2?$basic_ofstream@DU?$char_traits@D@std@@@std@@8 00000001400168b0     main.obj
 0002:000028e0       ??_R1A@?0A@EA@?$basic_streambuf@DU?$char_traits@D@std@@@std@@8 00000001400168e0     main.obj
 0002:00002908       ??_R2?$basic_istream@DU?$char_traits@D@std@@@std@@8 0000000140016908     main.obj
 0002:00002930       ??_R3?$basic_stringbuf@DU?$char_traits@D@std@@V?$allocator@D@2@@std@@8 0000000140016930     main.obj
 0002:00002948       ??_R2bad_cast@std@@8       0000000140016948     main.obj
 0002:00002960       ??_R2exception@std@@8      0000000140016960     main.obj
 0002:00002970       ??_R2?$basic_ostream@DU?$char_traits@D@std@@@std@@8 0000000140016970     main.obj
 0002:00002998       ??_R3?$basic_ios@DU?$char_traits@D@std@@@std@@8 0000000140016998     main.obj
 0002:000029b0       ??_R1BA@?0A@EA@?$basic_ostream@DU?$char_traits@D@std@@@std@@8 00000001400169b0     main.obj
 0002:000029d8       ??_R4?$basic_ifstream@DU?$char_traits@D@std@@@std@@6B@ 00000001400169d8     main.obj
 0002:00002a00       ??_R1A@?0A@EA@ios_base@std@@8 0000000140016a00     main.obj
 0002:00002a28       ??_R3exception@std@@8      0000000140016a28     main.obj
 0002:00002a40       ??_R1A@?0A@EA@?$basic_ostream@DU?$char_traits@D@std@@@std@@8 0000000140016a40     main.obj
 0002:00002a68       ??_R4?$basic_filebuf@DU?$char_traits@D@std@@@std@@6B@ 0000000140016a68     main.obj
 0002:00002a90       ??_R2?$basic_streambuf@DU?$char_traits@D@std@@@std@@8 0000000140016a90     main.obj
 0002:00002aa0       ??_R1A@?0A@EA@?$_Iosb@H@std@@8 0000000140016aa0     main.obj
 0002:00002ac8       ??_R1A@?0A@EA@?$basic_stringbuf@DU?$char_traits@D@std@@V?$allocator@D@2@@std@@8 0000000140016ac8     main.obj
 0002:00002af0       ??_R2?$basic_iostream@DU?$char_traits@D@std@@@std@@8 0000000140016af0     main.obj
 0002:00002b40       ??_R3bad_cast@std@@8       0000000140016b40     main.obj
 0002:00002b60       ??_R2?$basic_stringstream@DU?$char_traits@D@std@@V?$allocator@D@2@@std@@8 0000000140016b60     main.obj
 0002:00002bb8       ??_R4bad_cast@std@@6B@     0000000140016bb8     main.obj
 0002:00002be0       ??_R4?$basic_stringbuf@DU?$char_traits@D@std@@V?$allocator@D@2@@std@@6B@ 0000000140016be0     main.obj
 0002:00002c08       ??_R4?$basic_stringstream@DU?$char_traits@D@std@@V?$allocator@D@2@@std@@6B@ 0000000140016c08     main.obj
 0002:00002c30       ??_R1A@?0A@EA@?$basic_ofstream@DU?$char_traits@D@std@@@std@@8 0000000140016c30     main.obj
 0002:00002c58       ??_R1A@?0A@EA@?$basic_filebuf@DU?$char_traits@D@std@@@std@@8 0000000140016c58     main.obj
 0002:00002c80       ??_R1A@A@3FA@?$basic_ios@DU?$char_traits@D@std@@@std@@8 0000000140016c80     main.obj
 0002:00002ca8       ??_R3?$basic_filebuf@DU?$char_traits@D@std@@@std@@8 0000000140016ca8     main.obj
 0002:00002cc0       ??_R2ios_base@std@@8       0000000140016cc0     main.obj
 0002:00002cd8       ??_R3?$basic_ostream@DU?$char_traits@D@std@@@std@@8 0000000140016cd8     main.obj
 0002:00002cf0       ??_R1A@?0A@EA@?$basic_iostream@DU?$char_traits@D@std@@@std@@8 0000000140016cf0     main.obj
 0002:00002d18       ??_R3ios_base@std@@8       0000000140016d18     main.obj
 0002:00002d30       ??_R2?$basic_filebuf@DU?$char_traits@D@std@@@std@@8 0000000140016d30     main.obj
 0002:00002d48       ??_R3?$basic_streambuf@DU?$char_traits@D@std@@@std@@8 0000000140016d48     main.obj
 0002:00002d60       ??_R3?$basic_stringstream@DU?$char_traits@D@std@@V?$allocator@D@2@@std@@8 0000000140016d60     main.obj
 0002:00002d78       ??_R2?$_Iosb@H@std@@8      0000000140016d78     main.obj
 0002:00002d88       ??_R1A@A@3EA@ios_base@std@@8 0000000140016d88     main.obj
 0002:00002db0       ??_R1A@?0A@EA@?$basic_ios@DU?$char_traits@D@std@@@std@@8 0000000140016db0     main.obj
 0002:00002dd8       ??_R4?$basic_fstream@DU?$char_traits@D@std@@@std@@6B@ 0000000140016dd8     main.obj
 0002:00002e00       ??_R2?$basic_ifstream@DU?$char_traits@D@std@@@std@@8 0000000140016e00     main.obj
 0002:00002e30       ??_R3?$_Iosb@H@std@@8      0000000140016e30     main.obj
 0002:00002e48       ??_R17?0A@EA@?$_Iosb@H@std@@8 0000000140016e48     main.obj
 0002:00002e70       ??_R2?$basic_ios@DU?$char_traits@D@std@@@std@@8 0000000140016e70     main.obj
 0002:00003218       __rtc_iaa                  0000000140017218     MSVCRT:_initsect_.obj
 0002:00003220       __rtc_izz                  0000000140017220     MSVCRT:_initsect_.obj
 0002:00003228       __rtc_taa                  0000000140017228     MSVCRT:_initsect_.obj
 0002:00003230       __rtc_tzz                  0000000140017230     MSVCRT:_initsect_.obj
 0002:00005968       _TI2?AVbad_alloc@std@@     0000000140019968     MSVCRT:throw_bad_alloc.obj
 0002:00005988       _CTA2?AVbad_alloc@std@@    0000000140019988     MSVCRT:throw_bad_alloc.obj
 0002:000059a0       _CT??_R0?AVbad_alloc@std@@@8??0bad_alloc@std@@QEAA@AEBV01@@Z24 00000001400199a0     MSVCRT:throw_bad_alloc.obj
 0002:000059c8       _TI3?AVbad_array_new_length@std@@ 00000001400199c8     MSVCRT:throw_bad_alloc.obj
 0002:000059e8       _CTA3?AVbad_array_new_length@std@@ 00000001400199e8     MSVCRT:throw_bad_alloc.obj
 0002:00005a08       _CT??_R0?AVbad_array_new_length@std@@@8??0bad_array_new_length@std@@QEAA@AEBV01@@Z24 0000000140019a08     MSVCRT:throw_bad_alloc.obj
 0002:00005a30       _CTA2?AVbad_cast@std@@     0000000140019a30     main.obj
 0002:00005a48       _TI2?AVbad_cast@std@@      0000000140019a48     main.obj
 0002:00005a68       _CT??_R0?AVbad_cast@std@@@8??0bad_cast@std@@QEAA@AEBV01@@Z24 0000000140019a68     main.obj
 0002:00005a90       _CT??_R0?AVexception@std@@@8??0exception@std@@QEAA@AEBV01@@Z24 0000000140019a90     main.obj
 0002:00005ab4       __IMPORT_DESCRIPTOR_WINMM  0000000140019ab4     winmm:WINMM.dll
 0002:00005ac8       __IMPORT_DESCRIPTOR_KERNEL32 0000000140019ac8     kernel32:KERNEL32.dll
 0002:00005adc       __IMPORT_DESCRIPTOR_USER32 0000000140019adc     user32:USER32.dll
 0002:00005af0       __IMPORT_DESCRIPTOR_MSVCP140 0000000140019af0     msvcprt:MSVCP140.dll
 0002:00005b04       __IMPORT_DESCRIPTOR_urlmon 0000000140019b04     urlmon:urlmon.dll
 0002:00005b18       __IMPORT_DESCRIPTOR_VCRUNTIME140 0000000140019b18     vcruntime:VCRUNTIME140.dll
 0002:00005b2c       __IMPORT_DESCRIPTOR_api-ms-win-crt-locale-l1-1-0 0000000140019b2c     ucrt:api-ms-win-crt-locale-l1-1-0.dll
 0002:00005b40       __IMPORT_DESCRIPTOR_api-ms-win-crt-stdio-l1-1-0 0000000140019b40     ucrt:api-ms-win-crt-stdio-l1-1-0.dll
 0002:00005b54       __IMPORT_DESCRIPTOR_api-ms-win-crt-utility-l1-1-0 0000000140019b54     ucrt:api-ms-win-crt-utility-l1-1-0.dll
 0002:00005b68       __IMPORT_DESCRIPTOR_api-ms-win-crt-filesystem-l1-1-0 0000000140019b68     ucrt:api-ms-win-crt-filesystem-l1-1-0.dll
 0002:00005b7c       __IMPORT_DESCRIPTOR_api-ms-win-crt-runtime-l1-1-0 0000000140019b7c     ucrt:api-ms-win-crt-runtime-l1-1-0.dll
 0002:00005b90       __IMPORT_DESCRIPTOR_api-ms-win-crt-time-l1-1-0 0000000140019b90     ucrt:api-ms-win-crt-time-l1-1-0.dll
 0002:00005ba4       __IMPORT_DESCRIPTOR_api-ms-win-crt-convert-l1-1-0 0000000140019ba4     ucrt:api-ms-win-crt-convert-l1-1-0.dll
 0002:00005bb8       __IMPORT_DESCRIPTOR_api-ms-win-crt-heap-l1-1-0 0000000140019bb8     ucrt:api-ms-win-crt-heap-l1-1-0.dll
 0002:00005bcc       __IMPORT_DESCRIPTOR_api-ms-win-crt-math-l1-1-0 0000000140019bcc     ucrt:api-ms-win-crt-math-l1-1-0.dll
 0002:00005be0       __NULL_IMPORT_DESCRIPTOR   0000000140019be0     winmm:WINMM.dll
 0003:00000000       __scrt_native_dllmain_reason 000000014001c000     MSVCRT:utility.obj
 0003:00000008       __security_cookie          000000014001c008     MSVCRT:gs_cookie.obj
 0003:00000010       __security_cookie_complement 000000014001c010     MSVCRT:gs_cookie.obj
 0003:00000018       __isa_available            000000014001c018     MSVCRT:_cpu_disp_.obj
 0003:0000001c       __isa_enabled              000000014001c01c     MSVCRT:_cpu_disp_.obj
 0003:00000020       __memcpy_nt_iters          000000014001c020     MSVCRT:_cpu_disp_.obj
 0003:00000028       __scrt_default_matherr     000000014001c028     MSVCRT:matherr.obj
 0003:00000030       __scrt_ucrt_dll_is_in_use  000000014001c030     MSVCRT:ucrt_stubs.obj
 0003:00000038       ?EfektyKompletne@@3_NA     000000014001c038     main.obj
 0003:00000039       ?G³osyKompletne@@3_NA      000000014001c039     main.obj
 0003:00000040       ?G³os@@3V?$basic_string@DU?$char_traits@D@std@@V?$allocator@D@2@@std@@A 000000014001c040     main.obj
 0003:00000060       ?Ustawienia@@3US_Ustawienia@@A 000000014001c060     main.obj
 0003:0000007c       _fltused                   000000014001c07c     MSVCRT:fltused.obj
 0003:00000080       ??_R0?AVtype_info@@@8      000000014001c080     MSVCRT:std_type_info_static.obj
 0003:000000a0       ??_R0?AVbad_alloc@std@@@8  000000014001c0a0     MSVCRT:throw_bad_alloc.obj
 0003:000000c8       ??_R0?AVbad_array_new_length@std@@@8 000000014001c0c8     MSVCRT:throw_bad_alloc.obj
 0003:00000100       ??_R0?AV?$basic_stringstream@DU?$char_traits@D@std@@V?$allocator@D@2@@std@@@8 000000014001c100     main.obj
 0003:00000160       ??_R0?AV?$basic_filebuf@DU?$char_traits@D@std@@@std@@@8 000000014001c160     main.obj
 0003:000001b0       ??_R0?AV?$basic_fstream@DU?$char_traits@D@std@@@std@@@8 000000014001c1b0     main.obj
 0003:00000200       ??_R0?AV?$basic_ifstream@DU?$char_traits@D@std@@@std@@@8 000000014001c200     main.obj
 0003:00000250       ??_R0?AV?$basic_stringbuf@DU?$char_traits@D@std@@V?$allocator@D@2@@std@@@8 000000014001c250     main.obj
 0003:000002a8       ??_R0?AVios_base@std@@@8   000000014001c2a8     main.obj
 0003:000002d0       ??_R0?AV?$basic_iostream@DU?$char_traits@D@std@@@std@@@8 000000014001c2d0     main.obj
 0003:00000318       ??_R0?AV?$_Iosb@H@std@@@8  000000014001c318     main.obj
 0003:00000340       ??_R0?AV?$basic_ofstream@DU?$char_traits@D@std@@@std@@@8 000000014001c340     main.obj
 0003:00000390       ??_R0?AV?$basic_streambuf@DU?$char_traits@D@std@@@std@@@8 000000014001c390     main.obj
 0003:000003d8       ??_R0?AVbad_cast@std@@@8   000000014001c3d8     main.obj
 0003:00000400       ??_R0?AV?$basic_istream@DU?$char_traits@D@std@@@std@@@8 000000014001c400     main.obj
 0003:00000448       ??_R0?AV?$basic_ios@DU?$char_traits@D@std@@@std@@@8 000000014001c448     main.obj
 0003:00000490       ??_R0?AV?$basic_ostream@DU?$char_traits@D@std@@@std@@@8 000000014001c490     main.obj
 0003:000004d8       ??_R0?AVexception@std@@@8  000000014001c4d8     main.obj
 0003:00000510       __scrt_current_native_startup_state 000000014001c510     MSVCRT:utility.obj
 0003:00000518       __scrt_native_startup_lock 000000014001c518     MSVCRT:utility.obj
 0003:00000ad0       __favor                    000000014001cad0     MSVCRT:_cpu_disp_.obj
 0003:00000ad4       __scrt_debugger_hook_flag  000000014001cad4     MSVCRT:utility_desktop.obj
 0003:00000ae0       ?__type_info_root_node@@3U__type_info_node@@A 000000014001cae0     MSVCRT:tncleanup.obj
 0003:00000af0       ?_OptionsStorage@?1??__local_stdio_printf_options@@9@4_KA 000000014001caf0     MSVCRT:default_local_stdio_options.obj
 0003:00000af8       ?_OptionsStorage@?1??__local_stdio_scanf_options@@9@4_KA 000000014001caf8     MSVCRT:default_local_stdio_options.obj
 0003:00000b00       ?_Psave@?$_Facetptr@V?$codecvt@DDU_Mbstatet@@@std@@@std@@2PEBVfacet@locale@2@EB 000000014001cb00     main.obj
 0003:00000b08       ?_Psave@?$_Facetptr@V?$ctype@D@std@@@std@@2PEBVfacet@locale@2@EB 000000014001cb08     main.obj
 0003:00000b10       ?Czas@@3U_SYSTEMTIME@@A    000000014001cb10     main.obj
 0003:00000b30       ?_Stinit@?1??_Init@?$basic_filebuf@DU?$char_traits@D@std@@@std@@IEAAXPEAU_iobuf@@W4_Initfl@23@@Z@4U_Mbstatet@@A 000000014001cb30     main.obj
 0003:00000b38       __dyn_tls_dtor_callback    000000014001cb38     <common>
 0003:00000b40       __dyn_tls_init_callback    000000014001cb40     <common>

 entry point at        0001:000105f8

 Static symbols

 0000:fd7f3000       .debug$S                   0000000140000000     winmm:WINMM.dll
 0000:fd7f3000       .debug$S                   0000000140000000     kernel32:KERNEL32.dll
 0000:fd7f3000       .debug$S                   0000000140000000     kernel32:KERNEL32.dll
 0000:fd7f3000       .debug$S                   0000000140000000     vcruntime:VCRUNTIME140.dll
 0000:fd7f3000       .debug$S                   0000000140000000     vcruntime:VCRUNTIME140.dll
 0000:fd7f3000       .debug$S                   0000000140000000     vcruntime:VCRUNTIME140.dll
 0000:fd7f3000       .debug$S                   0000000140000000     vcruntime:VCRUNTIME140.dll
 0000:fd7f3000       .debug$S                   0000000140000000     vcruntime:VCRUNTIME140.dll
 0000:fd7f3000       .debug$S                   0000000140000000     urlmon:urlmon.dll
 0000:fd7f3000       .debug$S                   0000000140000000     msvcprt:MSVCP140.dll
 0000:fd7f3000       .debug$S                   0000000140000000     vcruntime:VCRUNTIME140.dll
 0000:fd7f3000       .debug$S                   0000000140000000     msvcprt:MSVCP140.dll
 0000:fd7f3000       .debug$S                   0000000140000000     vcruntime:VCRUNTIME140.dll
 0000:fd7f3000       .debug$S                   0000000140000000     msvcprt:MSVCP140.dll
 0000:fd7f3000       .debug$S                   0000000140000000     vcruntime:VCRUNTIME140.dll
 0000:fd7f3000       .debug$S                   0000000140000000     msvcprt:MSVCP140.dll
 0000:fd7f3000       .debug$S                   0000000140000000     vcruntime:VCRUNTIME140.dll
 0000:fd7f3000       .debug$S                   0000000140000000     msvcprt:MSVCP140.dll
 0000:fd7f3000       .debug$S                   0000000140000000     vcruntime:VCRUNTIME140.dll
 0000:fd7f3000       .debug$S                   0000000140000000     msvcprt:MSVCP140.dll
 0000:fd7f3000       .debug$S                   0000000140000000     msvcprt:MSVCP140.dll
 0000:fd7f3000       .debug$S                   0000000140000000     msvcprt:MSVCP140.dll
 0000:fd7f3000       .debug$S                   0000000140000000     msvcprt:MSVCP140.dll
 0000:fd7f3000       .debug$S                   0000000140000000     vcruntime:VCRUNTIME140.dll
 0000:fd7f3000       .debug$S                   0000000140000000     msvcprt:MSVCP140.dll
 0000:fd7f3000       .debug$S                   0000000140000000     msvcprt:MSVCP140.dll
 0000:fd7f3000       .debug$S                   0000000140000000     msvcprt:MSVCP140.dll
 0000:fd7f3000       .debug$S                   0000000140000000     ucrt:api-ms-win-crt-utility-l1-1-0.dll
 0000:fd7f3000       .debug$S                   0000000140000000     msvcprt:MSVCP140.dll
 0000:fd7f3000       .debug$S                   0000000140000000     msvcprt:MSVCP140.dll
 0000:fd7f3000       .debug$S                   0000000140000000     msvcprt:MSVCP140.dll
 0000:fd7f3000       .debug$S                   0000000140000000     msvcprt:MSVCP140.dll
 0000:fd7f3000       .debug$S                   0000000140000000     ucrt:api-ms-win-crt-utility-l1-1-0.dll
 0000:fd7f3000       .debug$S                   0000000140000000     msvcprt:MSVCP140.dll
 0000:fd7f3000       .debug$S                   0000000140000000     msvcprt:MSVCP140.dll
 0000:fd7f3000       .debug$S                   0000000140000000     msvcprt:MSVCP140.dll
 0000:fd7f3000       .debug$S                   0000000140000000     ucrt:api-ms-win-crt-time-l1-1-0.dll
 0000:fd7f3000       .debug$S                   0000000140000000     msvcprt:MSVCP140.dll
 0000:fd7f3000       .debug$S                   0000000140000000     msvcprt:MSVCP140.dll
 0000:fd7f3000       .debug$S                   0000000140000000     msvcprt:MSVCP140.dll
 0000:fd7f3000       .debug$S                   0000000140000000     msvcprt:MSVCP140.dll
 0000:fd7f3000       .debug$S                   0000000140000000     msvcprt:MSVCP140.dll
 0000:fd7f3000       .debug$S                   0000000140000000     msvcprt:MSVCP140.dll
 0000:fd7f3000       .debug$S                   0000000140000000     msvcprt:MSVCP140.dll
 0000:fd7f3000       .debug$S                   0000000140000000     msvcprt:MSVCP140.dll
 0000:fd7f3000       .debug$S                   0000000140000000     msvcprt:MSVCP140.dll
 0000:fd7f3000       .debug$S                   0000000140000000     ucrt:api-ms-win-crt-stdio-l1-1-0.dll
 0000:fd7f3000       .debug$S                   0000000140000000     msvcprt:MSVCP140.dll
 0000:fd7f3000       .debug$S                   0000000140000000     ucrt:api-ms-win-crt-stdio-l1-1-0.dll
 0000:fd7f3000       .debug$S                   0000000140000000     msvcprt:MSVCP140.dll
 0000:fd7f3000       .debug$S                   0000000140000000     ucrt:api-ms-win-crt-stdio-l1-1-0.dll
 0000:fd7f3000       .debug$S                   0000000140000000     msvcprt:MSVCP140.dll
 0000:fd7f3000       .debug$S                   0000000140000000     ucrt:api-ms-win-crt-stdio-l1-1-0.dll
 0000:fd7f3000       .debug$S                   0000000140000000     msvcprt:MSVCP140.dll
 0000:fd7f3000       .debug$S                   0000000140000000     ucrt:api-ms-win-crt-stdio-l1-1-0.dll
 0000:fd7f3000       .debug$S                   0000000140000000     msvcprt:MSVCP140.dll
 0000:fd7f3000       .debug$S                   0000000140000000     ucrt:api-ms-win-crt-stdio-l1-1-0.dll
 0000:fd7f3000       .debug$S                   0000000140000000     msvcprt:MSVCP140.dll
 0000:fd7f3000       .debug$S                   0000000140000000     ucrt:api-ms-win-crt-stdio-l1-1-0.dll
 0000:fd7f3000       .debug$S                   0000000140000000     msvcprt:MSVCP140.dll
 0000:fd7f3000       .debug$S                   0000000140000000     ucrt:api-ms-win-crt-stdio-l1-1-0.dll
 0000:fd7f3000       .debug$S                   0000000140000000     msvcprt:MSVCP140.dll
 0000:fd7f3000       .debug$S                   0000000140000000     ucrt:api-ms-win-crt-stdio-l1-1-0.dll
 0000:fd7f3000       .debug$S                   0000000140000000     msvcprt:MSVCP140.dll
 0000:fd7f3000       .debug$S                   0000000140000000     ucrt:api-ms-win-crt-stdio-l1-1-0.dll
 0000:fd7f3000       .debug$S                   0000000140000000     msvcprt:MSVCP140.dll
 0000:fd7f3000       .debug$S                   0000000140000000     ucrt:api-ms-win-crt-stdio-l1-1-0.dll
 0000:fd7f3000       .debug$S                   0000000140000000     msvcprt:MSVCP140.dll
 0000:fd7f3000       .debug$S                   0000000140000000     ucrt:api-ms-win-crt-stdio-l1-1-0.dll
 0000:fd7f3000       .debug$S                   0000000140000000     msvcprt:MSVCP140.dll
 0000:fd7f3000       .debug$S                   0000000140000000     ucrt:api-ms-win-crt-stdio-l1-1-0.dll
 0000:fd7f3000       .debug$S                   0000000140000000     msvcprt:MSVCP140.dll
 0000:fd7f3000       .debug$S                   0000000140000000     msvcprt:MSVCP140.dll
 0000:fd7f3000       .debug$S                   0000000140000000     msvcprt:MSVCP140.dll
 0000:fd7f3000       .debug$S                   0000000140000000     ucrt:api-ms-win-crt-runtime-l1-1-0.dll
 0000:fd7f3000       .debug$S                   0000000140000000     msvcprt:MSVCP140.dll
 0000:fd7f3000       .debug$S                   0000000140000000     ucrt:api-ms-win-crt-runtime-l1-1-0.dll
 0000:fd7f3000       .debug$S                   0000000140000000     msvcprt:MSVCP140.dll
 0000:fd7f3000       .debug$S                   0000000140000000     ucrt:api-ms-win-crt-runtime-l1-1-0.dll
 0000:fd7f3000       .debug$S                   0000000140000000     msvcprt:MSVCP140.dll
 0000:fd7f3000       .debug$S                   0000000140000000     ucrt:api-ms-win-crt-runtime-l1-1-0.dll
 0000:fd7f3000       .debug$S                   0000000140000000     msvcprt:MSVCP140.dll
 0000:fd7f3000       .debug$S                   0000000140000000     ucrt:api-ms-win-crt-runtime-l1-1-0.dll
 0000:fd7f3000       .debug$S                   0000000140000000     msvcprt:MSVCP140.dll
 0000:fd7f3000       .debug$S                   0000000140000000     ucrt:api-ms-win-crt-runtime-l1-1-0.dll
 0000:fd7f3000       .debug$S                   0000000140000000     msvcprt:MSVCP140.dll
 0000:fd7f3000       .debug$S                   0000000140000000     ucrt:api-ms-win-crt-runtime-l1-1-0.dll
 0000:fd7f3000       .debug$S                   0000000140000000     msvcprt:MSVCP140.dll
 0000:fd7f3000       .debug$S                   0000000140000000     ucrt:api-ms-win-crt-runtime-l1-1-0.dll
 0000:fd7f3000       .debug$S                   0000000140000000     msvcprt:MSVCP140.dll
 0000:fd7f3000       .debug$S                   0000000140000000     ucrt:api-ms-win-crt-runtime-l1-1-0.dll
 0000:fd7f3000       .debug$S                   0000000140000000     msvcprt:MSVCP140.dll
 0000:fd7f3000       .debug$S                   0000000140000000     ucrt:api-ms-win-crt-runtime-l1-1-0.dll
 0000:fd7f3000       .debug$S                   0000000140000000     msvcprt:MSVCP140.dll
 0000:fd7f3000       .debug$S                   0000000140000000     ucrt:api-ms-win-crt-runtime-l1-1-0.dll
 0000:fd7f3000       .debug$S                   0000000140000000     msvcprt:MSVCP140.dll
 0000:fd7f3000       .debug$S                   0000000140000000     ucrt:api-ms-win-crt-runtime-l1-1-0.dll
 0000:fd7f3000       .debug$S                   0000000140000000     msvcprt:MSVCP140.dll
 0000:fd7f3000       .debug$S                   0000000140000000     ucrt:api-ms-win-crt-runtime-l1-1-0.dll
 0000:fd7f3000       .debug$S                   0000000140000000     msvcprt:MSVCP140.dll
 0000:fd7f3000       .debug$S                   0000000140000000     ucrt:api-ms-win-crt-runtime-l1-1-0.dll
 0000:fd7f3000       .debug$S                   0000000140000000     msvcprt:MSVCP140.dll
 0000:fd7f3000       .debug$S                   0000000140000000     ucrt:api-ms-win-crt-runtime-l1-1-0.dll
 0000:fd7f3000       .debug$S                   0000000140000000     msvcprt:MSVCP140.dll
 0000:fd7f3000       .debug$S                   0000000140000000     msvcprt:MSVCP140.dll
 0000:fd7f3000       .debug$S                   0000000140000000     msvcprt:MSVCP140.dll
 0000:fd7f3000       .debug$S                   0000000140000000     msvcprt:MSVCP140.dll
 0000:fd7f3000       .debug$S                   0000000140000000     msvcprt:MSVCP140.dll
 0000:fd7f3000       .debug$S                   0000000140000000     msvcprt:MSVCP140.dll
 0000:fd7f3000       .debug$S                   0000000140000000     ucrt:api-ms-win-crt-runtime-l1-1-0.dll
 0000:fd7f3000       .debug$S                   0000000140000000     msvcprt:MSVCP140.dll
 0000:fd7f3000       .debug$S                   0000000140000000     ucrt:api-ms-win-crt-runtime-l1-1-0.dll
 0000:fd7f3000       .debug$S                   0000000140000000     msvcprt:MSVCP140.dll
 0000:fd7f3000       .debug$S                   0000000140000000     msvcprt:MSVCP140.dll
 0000:fd7f3000       .debug$S                   0000000140000000     msvcprt:MSVCP140.dll
 0000:fd7f3000       .debug$S                   0000000140000000     msvcprt:MSVCP140.dll
 0000:fd7f3000       .debug$S                   0000000140000000     msvcprt:MSVCP140.dll
 0000:fd7f3000       .debug$S                   0000000140000000     msvcprt:MSVCP140.dll
 0000:fd7f3000       .debug$S                   0000000140000000     ucrt:api-ms-win-crt-runtime-l1-1-0.dll
 0000:fd7f3000       .debug$S                   0000000140000000     msvcprt:MSVCP140.dll
 0000:fd7f3000       .debug$S                   0000000140000000     ucrt:api-ms-win-crt-runtime-l1-1-0.dll
 0000:fd7f3000       .debug$S                   0000000140000000     msvcprt:MSVCP140.dll
 0000:fd7f3000       .debug$S                   0000000140000000     msvcprt:MSVCP140.dll
 0000:fd7f3000       .debug$S                   0000000140000000     msvcprt:MSVCP140.dll
 0000:fd7f3000       .debug$S                   0000000140000000     msvcprt:MSVCP140.dll
 0000:fd7f3000       .debug$S                   0000000140000000     msvcprt:MSVCP140.dll
 0000:fd7f3000       .debug$S                   0000000140000000     msvcprt:MSVCP140.dll
 0000:fd7f3000       .debug$S                   0000000140000000     ucrt:api-ms-win-crt-runtime-l1-1-0.dll
 0000:fd7f3000       .debug$S                   0000000140000000     msvcprt:MSVCP140.dll
 0000:fd7f3000       .debug$S                   0000000140000000     ucrt:api-ms-win-crt-runtime-l1-1-0.dll
 0000:fd7f3000       .debug$S                   0000000140000000     msvcprt:MSVCP140.dll
 0000:fd7f3000       .debug$S                   0000000140000000     ucrt:api-ms-win-crt-runtime-l1-1-0.dll
 0000:fd7f3000       .debug$S                   0000000140000000     msvcprt:MSVCP140.dll
 0000:fd7f3000       .debug$S                   0000000140000000     ucrt:api-ms-win-crt-runtime-l1-1-0.dll
 0000:fd7f3000       .debug$S                   0000000140000000     msvcprt:MSVCP140.dll
 0000:fd7f3000       .debug$S                   0000000140000000     ucrt:api-ms-win-crt-runtime-l1-1-0.dll
 0000:fd7f3000       .debug$S                   0000000140000000     msvcprt:MSVCP140.dll
 0000:fd7f3000       .debug$S                   0000000140000000     ucrt:api-ms-win-crt-runtime-l1-1-0.dll
 0000:fd7f3000       .debug$S                   0000000140000000     msvcprt:MSVCP140.dll
 0000:fd7f3000       .debug$S                   0000000140000000     ucrt:api-ms-win-crt-math-l1-1-0.dll
 0000:fd7f3000       .debug$S                   0000000140000000     ucrt:api-ms-win-crt-locale-l1-1-0.dll
 0000:fd7f3000       .debug$S                   0000000140000000     user32:USER32.dll
 0000:fd7f3000       .debug$S                   0000000140000000     ucrt:api-ms-win-crt-locale-l1-1-0.dll
 0000:fd7f3000       .debug$S                   0000000140000000     kernel32:KERNEL32.dll
 0000:fd7f3000       .debug$S                   0000000140000000     kernel32:KERNEL32.dll
 0000:fd7f3000       .debug$S                   0000000140000000     kernel32:KERNEL32.dll
 0000:fd7f3000       .debug$S                   0000000140000000     kernel32:KERNEL32.dll
 0000:fd7f3000       .debug$S                   0000000140000000     kernel32:KERNEL32.dll
 0000:fd7f3000       .debug$S                   0000000140000000     ucrt:api-ms-win-crt-heap-l1-1-0.dll
 0000:fd7f3000       .debug$S                   0000000140000000     kernel32:KERNEL32.dll
 0000:fd7f3000       .debug$S                   0000000140000000     ucrt:api-ms-win-crt-heap-l1-1-0.dll
 0000:fd7f3000       .debug$S                   0000000140000000     kernel32:KERNEL32.dll
 0000:fd7f3000       .debug$S                   0000000140000000     kernel32:KERNEL32.dll
 0000:fd7f3000       .debug$S                   0000000140000000     kernel32:KERNEL32.dll
 0000:fd7f3000       .debug$S                   0000000140000000     kernel32:KERNEL32.dll
 0000:fd7f3000       .debug$S                   0000000140000000     kernel32:KERNEL32.dll
 0000:fd7f3000       .debug$S                   0000000140000000     kernel32:KERNEL32.dll
 0000:fd7f3000       .debug$S                   0000000140000000     ucrt:api-ms-win-crt-heap-l1-1-0.dll
 0000:fd7f3000       .debug$S                   0000000140000000     kernel32:KERNEL32.dll
 0000:fd7f3000       .debug$S                   0000000140000000     ucrt:api-ms-win-crt-heap-l1-1-0.dll
 0000:fd7f3000       .debug$S                   0000000140000000     kernel32:KERNEL32.dll
 0000:fd7f3000       .debug$S                   0000000140000000     kernel32:KERNEL32.dll
 0000:fd7f3000       .debug$S                   0000000140000000     kernel32:KERNEL32.dll
 0000:fd7f3000       .debug$S                   0000000140000000     kernel32:KERNEL32.dll
 0000:fd7f3000       .debug$S                   0000000140000000     kernel32:KERNEL32.dll
 0000:fd7f3000       .debug$S                   0000000140000000     kernel32:KERNEL32.dll
 0000:fd7f3000       .debug$S                   0000000140000000     ucrt:api-ms-win-crt-filesystem-l1-1-0.dll
 0000:fd7f3000       .debug$S                   0000000140000000     kernel32:KERNEL32.dll
 0000:fd7f3000       .debug$S                   0000000140000000     ucrt:api-ms-win-crt-filesystem-l1-1-0.dll
 0000:fd7f3000       .debug$S                   0000000140000000     kernel32:KERNEL32.dll
 0000:fd7f3000       .debug$S                   0000000140000000     ucrt:api-ms-win-crt-filesystem-l1-1-0.dll
 0000:fd7f3000       .debug$S                   0000000140000000     kernel32:KERNEL32.dll
 0000:fd7f3000       .debug$S                   0000000140000000     ucrt:api-ms-win-crt-filesystem-l1-1-0.dll
 0000:fd7f3000       .debug$S                   0000000140000000     kernel32:KERNEL32.dll
 0000:fd7f3000       .debug$S                   0000000140000000     kernel32:KERNEL32.dll
 0000:fd7f3000       .debug$S                   0000000140000000     kernel32:KERNEL32.dll
 0000:fd7f3000       .debug$S                   0000000140000000     kernel32:KERNEL32.dll
 0000:fd7f3000       .debug$S                   0000000140000000     kernel32:KERNEL32.dll
 0000:fd7f3000       .debug$S                   0000000140000000     kernel32:KERNEL32.dll
 0000:fd7f3000       .debug$S                   0000000140000000     kernel32:KERNEL32.dll
 0000:fd7f3000       .debug$S                   0000000140000000     kernel32:KERNEL32.dll
 0000:fd7f3000       .debug$S                   0000000140000000     ucrt:api-ms-win-crt-convert-l1-1-0.dll
 0000:fd7f3000       .debug$S                   0000000140000000     kernel32:KERNEL32.dll
 0000:fd7f3000       .debug$S                   0000000140000000     vcruntime:VCRUNTIME140.dll
 0001:00000000       ??__ENumer_zasobu_rar@@YAXXZ 0000000140001000 f   main.obj
 0001:00000610       ??__EG³os@@YAXXZ           0000000140001610 f   main.obj
 0001:0000061c       ??__E_Fac_tidy_reg@std@@YAXXZ 000000014000161c f   msvcprt:locale0_implib.obj
 0001:00001f40       $LN345                     0000000140002f40     main.obj
 0001:00001f50       $LN344                     0000000140002f50     main.obj
 0001:00007918       $LN4784                    0000000140008918     main.obj
 0001:0000e270       ??$_Reallocate_grow_by@V<lambda_319d5e083f45f90dcdce5dce53cbb275>@@D@?$basic_string@DU?$char_traits@D@std@@V?$allocator@D@2@@std@@QEAAAEAV01@_KV<lambda_319d5e083f45f90dcdce5dce53cbb275>@@D@Z 000000014000f270 f   main.obj
 0001:0000e3e0       ??$_Reallocate_for@V<lambda_66f57f934f28d61049862f64df852ff0>@@PEBD@?$basic_string@DU?$char_traits@D@std@@V?$allocator@D@2@@std@@QEAAAEAV01@_KV<lambda_66f57f934f28d61049862f64df852ff0>@@PEBD@Z 000000014000f3e0 f   main.obj
 0001:0000e520       ??$_Reallocate_grow_by@V<lambda_e1befb086ad3257e3f042a63030725f7>@@_KD@?$basic_string@DU?$char_traits@D@std@@V?$allocator@D@2@@std@@QEAAAEAV01@_KV<lambda_e1befb086ad3257e3f042a63030725f7>@@_KD@Z 000000014000f520 f   main.obj
 0001:0000e6d0       ??$_Reallocate_grow_by@V<lambda_65e615be2a453ca0576c979606f46740>@@PEBD_K@?$basic_string@DU?$char_traits@D@std@@V?$allocator@D@2@@std@@QEAAAEAV01@_KV<lambda_65e615be2a453ca0576c979606f46740>@@PEBD_K@Z 000000014000f6d0 f   main.obj
 0001:0000f050       ??$_Reallocate_grow_by@V<lambda_9013ee9e23efe4882b67eff5b0ecf103>@@$$V@?$basic_string@DU?$char_traits@D@std@@V?$allocator@D@2@@std@@QEAAAEAV01@_KV<lambda_9013ee9e23efe4882b67eff5b0ecf103>@@@Z 0000000140010050 f   main.obj
 0001:0000f1b0       ??$_Reallocate_grow_by@V<lambda_f3a66ab6a0570788f31503db83886f49>@@_KPEBD_K@?$basic_string@DU?$char_traits@D@std@@V?$allocator@D@2@@std@@QEAAAEAV01@_KV<lambda_f3a66ab6a0570788f31503db83886f49>@@_KPEBD2@Z 00000001400101b0 f   main.obj
 0001:0000ff60       $$000000                   0000000140010f60     MSVCRT:_amdsecgs_.obj
 0001:00010390       ?pre_c_initialization@@YAHXZ 0000000140011390 f   MSVCRT:exe_main.obj
 0001:0001044c       ?post_pgo_initialization@@YAHXZ 000000014001144c f   MSVCRT:exe_main.obj
 0001:0001045c       ?pre_cpp_initialization@@YAXXZ 000000014001145c f   MSVCRT:exe_main.obj
 0001:00010478       ?__scrt_common_main_seh@@YAHXZ 0000000140011478 f   MSVCRT:exe_main.obj
 0001:0001071c       capture_previous_context   000000014001171c f   MSVCRT:gs_report.obj
 0001:00011040       $$000000                   0000000140012040     MSVCRT:_guard_dispatch_.obj
 0001:00011060       $$000000                   0000000140012060     MSVCRT:_rfgfailure_.obj
 0001:00011120       ?dtor$0@?0???__ENumer_zasobu_rar@@YAXXZ@4HA 0000000140012120 f   main.obj
 0001:0001112c       ?dtor$1@?0???__ENumer_zasobu_rar@@YAXXZ@4HA 000000014001212c f   main.obj
 0001:00011138       ?dtor$2@?0???__ENumer_zasobu_rar@@YAXXZ@4HA 0000000140012138 f   main.obj
 0001:00011144       ?dtor$3@?0???__ENumer_zasobu_rar@@YAXXZ@4HA 0000000140012144 f   main.obj
 0001:00011150       ?dtor$4@?0???__ENumer_zasobu_rar@@YAXXZ@4HA 0000000140012150 f   main.obj
 0001:0001115c       ?dtor$5@?0???__ENumer_zasobu_rar@@YAXXZ@4HA 000000014001215c f   main.obj
 0001:00011168       ?dtor$6@?0???__ENumer_zasobu_rar@@YAXXZ@4HA 0000000140012168 f   main.obj
 0001:00011174       ?dtor$7@?0???__ENumer_zasobu_rar@@YAXXZ@4HA 0000000140012174 f   main.obj
 0001:00011180       ?dtor$8@?0???__ENumer_zasobu_rar@@YAXXZ@4HA 0000000140012180 f   main.obj
 0001:0001118c       ?dtor$9@?0???__ENumer_zasobu_rar@@YAXXZ@4HA 000000014001218c f   main.obj
 0001:00011198       ?dtor$10@?0???__ENumer_zasobu_rar@@YAXXZ@4HA 0000000140012198 f   main.obj
 0001:000111a4       ?dtor$11@?0???__ENumer_zasobu_rar@@YAXXZ@4HA 00000001400121a4 f   main.obj
 0001:000111b0       ?dtor$12@?0???__ENumer_zasobu_rar@@YAXXZ@4HA 00000001400121b0 f   main.obj
 0001:000111bc       ?dtor$13@?0???__ENumer_zasobu_rar@@YAXXZ@4HA 00000001400121bc f   main.obj
 0001:000111c8       ?dtor$14@?0???__ENumer_zasobu_rar@@YAXXZ@4HA 00000001400121c8 f   main.obj
 0001:000111d4       ?dtor$15@?0???__ENumer_zasobu_rar@@YAXXZ@4HA 00000001400121d4 f   main.obj
 0001:000111e0       ?dtor$16@?0???__ENumer_zasobu_rar@@YAXXZ@4HA 00000001400121e0 f   main.obj
 0001:000111ec       ?dtor$17@?0???__ENumer_zasobu_rar@@YAXXZ@4HA 00000001400121ec f   main.obj
 0001:000111f8       ?dtor$18@?0???__ENumer_zasobu_rar@@YAXXZ@4HA 00000001400121f8 f   main.obj
 0001:00011204       ?dtor$19@?0???__ENumer_zasobu_rar@@YAXXZ@4HA 0000000140012204 f   main.obj
 0001:00011210       ?dtor$20@?0???__ENumer_zasobu_rar@@YAXXZ@4HA 0000000140012210 f   main.obj
 0001:0001121c       ?dtor$21@?0???__ENumer_zasobu_rar@@YAXXZ@4HA 000000014001221c f   main.obj
 0001:00011228       ?dtor$22@?0???__ENumer_zasobu_rar@@YAXXZ@4HA 0000000140012228 f   main.obj
 0001:00011234       ?dtor$23@?0???__ENumer_zasobu_rar@@YAXXZ@4HA 0000000140012234 f   main.obj
 0001:00011240       ?dtor$24@?0???__ENumer_zasobu_rar@@YAXXZ@4HA 0000000140012240 f   main.obj
 0001:0001124c       ?dtor$25@?0???__ENumer_zasobu_rar@@YAXXZ@4HA 000000014001224c f   main.obj
 0001:00011258       ?dtor$26@?0???__ENumer_zasobu_rar@@YAXXZ@4HA 0000000140012258 f   main.obj
 0001:00011264       ?dtor$27@?0???__ENumer_zasobu_rar@@YAXXZ@4HA 0000000140012264 f   main.obj
 0001:00011270       ?dtor$28@?0???__ENumer_zasobu_rar@@YAXXZ@4HA 0000000140012270 f   main.obj
 0001:0001127c       ?dtor$29@?0???__ENumer_zasobu_rar@@YAXXZ@4HA 000000014001227c f   main.obj
 0001:00011288       ?dtor$30@?0???__ENumer_zasobu_rar@@YAXXZ@4HA 0000000140012288 f   main.obj
 0001:00011294       ?dtor$31@?0???__ENumer_zasobu_rar@@YAXXZ@4HA 0000000140012294 f   main.obj
 0001:000112a0       ?dtor$32@?0???__ENumer_zasobu_rar@@YAXXZ@4HA 00000001400122a0 f   main.obj
 0001:000112ac       ?dtor$33@?0???__ENumer_zasobu_rar@@YAXXZ@4HA 00000001400122ac f   main.obj
 0001:000112b8       ?dtor$34@?0???__ENumer_zasobu_rar@@YAXXZ@4HA 00000001400122b8 f   main.obj
 0001:000112c4       ?dtor$35@?0???__ENumer_zasobu_rar@@YAXXZ@4HA 00000001400122c4 f   main.obj
 0001:000112d0       ?dtor$36@?0???__ENumer_zasobu_rar@@YAXXZ@4HA 00000001400122d0 f   main.obj
 0001:000112dc       ?dtor$37@?0???__ENumer_zasobu_rar@@YAXXZ@4HA 00000001400122dc f   main.obj
 0001:000112e8       ?dtor$38@?0???__ENumer_zasobu_rar@@YAXXZ@4HA 00000001400122e8 f   main.obj
 0001:000112f4       ?dtor$39@?0???__ENumer_zasobu_rar@@YAXXZ@4HA 00000001400122f4 f   main.obj
 0001:00011300       ?dtor$40@?0???__ENumer_zasobu_rar@@YAXXZ@4HA 0000000140012300 f   main.obj
 0001:0001130c       ?dtor$41@?0???__ENumer_zasobu_rar@@YAXXZ@4HA 000000014001230c f   main.obj
 0001:00011318       ?dtor$42@?0???__ENumer_zasobu_rar@@YAXXZ@4HA 0000000140012318 f   main.obj
 0001:00011324       ?dtor$43@?0???__ENumer_zasobu_rar@@YAXXZ@4HA 0000000140012324 f   main.obj
 0001:00011330       ?dtor$45@?0???__ENumer_zasobu_rar@@YAXXZ@4HA 0000000140012330 f   main.obj
 0001:0001135a       ?dtor$183@?0???__ENumer_zasobu_rar@@YAXXZ@4HA 000000014001235a f   main.obj
 0001:00011370       main$dtor$0                0000000140012370 f   main.obj
 0001:0001137c       main$dtor$5                000000014001237c f   main.obj
 0001:000113ad       main$dtor$6                00000001400123ad f   main.obj
 0001:000113bf       main$dtor$8                00000001400123bf f   main.obj
 0001:000113cd       main$dtor$1                00000001400123cd f   main.obj
 0001:000113d9       main$dtor$2                00000001400123d9 f   main.obj
 0001:000113f0       ?dtor$0@?0??Obstaw@@YA?AV?$basic_string@DU?$char_traits@D@std@@V?$allocator@D@2@@std@@XZ@4HA 00000001400123f0 f   main.obj
 0001:00011420       ?dtor$0@?0??Czy_Kontynuowaæ@@YA_NAEBH@Z@4HA 0000000140012420 f   main.obj
 0001:00011420       ?dtor$0@?0??Wczytaj_Kwotê_Zak³adu@@YAXAEAHAEBH@Z@4HA 0000000140012420 f   main.obj
 0001:00011430       ?dtor$19@?0??Odczytaj_Liczbê@@YAXAEBHAEBV?$basic_string@DU?$char_traits@D@std@@V?$allocator@D@2@@std@@@Z@4HA 0000000140012430 f   main.obj
 0001:00011461       ?dtor$20@?0??Odczytaj_Liczbê@@YAXAEBHAEBV?$basic_string@DU?$char_traits@D@std@@V?$allocator@D@2@@std@@@Z@4HA 0000000140012461 f   main.obj
 0001:00011473       ?dtor$22@?0??Odczytaj_Liczbê@@YAXAEBHAEBV?$basic_string@DU?$char_traits@D@std@@V?$allocator@D@2@@std@@@Z@4HA 0000000140012473 f   main.obj
 0001:00011481       ?dtor$0@?0??Odczytaj_Liczbê@@YAXAEBHAEBV?$basic_string@DU?$char_traits@D@std@@V?$allocator@D@2@@std@@@Z@4HA 0000000140012481 f   main.obj
 0001:0001148d       ?dtor$1@?0??Odczytaj_Liczbê@@YAXAEBHAEBV?$basic_string@DU?$char_traits@D@std@@V?$allocator@D@2@@std@@@Z@4HA 000000014001248d f   main.obj
 0001:00011499       ?dtor$2@?0??Odczytaj_Liczbê@@YAXAEBHAEBV?$basic_string@DU?$char_traits@D@std@@V?$allocator@D@2@@std@@@Z@4HA 0000000140012499 f   main.obj
 0001:000114a5       ?dtor$119@?0??Odczytaj_Liczbê@@YAXAEBHAEBV?$basic_string@DU?$char_traits@D@std@@V?$allocator@D@2@@std@@@Z@4HA 00000001400124a5 f   main.obj
 0001:000114cb       ?dtor$149@?0??Odczytaj_Liczbê@@YAXAEBHAEBV?$basic_string@DU?$char_traits@D@std@@V?$allocator@D@2@@std@@@Z@4HA 00000001400124cb f   main.obj
 0001:000114f1       ?dtor$191@?0??Odczytaj_Liczbê@@YAXAEBHAEBV?$basic_string@DU?$char_traits@D@std@@V?$allocator@D@2@@std@@@Z@4HA 00000001400124f1 f   main.obj
 0001:00011517       ?dtor$221@?0??Odczytaj_Liczbê@@YAXAEBHAEBV?$basic_string@DU?$char_traits@D@std@@V?$allocator@D@2@@std@@@Z@4HA 0000000140012517 f   main.obj
 0001:0001153d       ?dtor$263@?0??Odczytaj_Liczbê@@YAXAEBHAEBV?$basic_string@DU?$char_traits@D@std@@V?$allocator@D@2@@std@@@Z@4HA 000000014001253d f   main.obj
 0001:00011568       ?dtor$293@?0??Odczytaj_Liczbê@@YAXAEBHAEBV?$basic_string@DU?$char_traits@D@std@@V?$allocator@D@2@@std@@@Z@4HA 0000000140012568 f   main.obj
 0001:00011593       ?dtor$325@?0??Odczytaj_Liczbê@@YAXAEBHAEBV?$basic_string@DU?$char_traits@D@std@@V?$allocator@D@2@@std@@@Z@4HA 0000000140012593 f   main.obj
 0001:000115be       ?dtor$11@?0??Odczytaj_Liczbê@@YAXAEBHAEBV?$basic_string@DU?$char_traits@D@std@@V?$allocator@D@2@@std@@@Z@4HA 00000001400125be f   main.obj
 0001:000115ca       ?dtor$427@?0??Odczytaj_Liczbê@@YAXAEBHAEBV?$basic_string@DU?$char_traits@D@std@@V?$allocator@D@2@@std@@@Z@4HA 00000001400125ca f   main.obj
 0001:00011600       ?dtor$428@?0??Odczytaj_Liczbê@@YAXAEBHAEBV?$basic_string@DU?$char_traits@D@std@@V?$allocator@D@2@@std@@@Z@4HA 0000000140012600 f   main.obj
 0001:00011612       ?dtor$430@?0??Odczytaj_Liczbê@@YAXAEBHAEBV?$basic_string@DU?$char_traits@D@std@@V?$allocator@D@2@@std@@@Z@4HA 0000000140012612 f   main.obj
 0001:00011620       ?dtor$13@?0??Odczytaj_Liczbê@@YAXAEBHAEBV?$basic_string@DU?$char_traits@D@std@@V?$allocator@D@2@@std@@@Z@4HA 0000000140012620 f   main.obj
 0001:0001162c       ?dtor$14@?0??Odczytaj_Liczbê@@YAXAEBHAEBV?$basic_string@DU?$char_traits@D@std@@V?$allocator@D@2@@std@@@Z@4HA 000000014001262c f   main.obj
 0001:00011638       ?dtor$433@?0??Odczytaj_Liczbê@@YAXAEBHAEBV?$basic_string@DU?$char_traits@D@std@@V?$allocator@D@2@@std@@@Z@4HA 0000000140012638 f   main.obj
 0001:00011663       ?dtor$16@?0??Odczytaj_Liczbê@@YAXAEBHAEBV?$basic_string@DU?$char_traits@D@std@@V?$allocator@D@2@@std@@@Z@4HA 0000000140012663 f   main.obj
 0001:00011670       ?dtor$0@?0??Wczytaj_z_Pliku@@YAXAEAV?$basic_ofstream@DU?$char_traits@D@std@@@std@@AEAV?$basic_fstream@DU?$char_traits@D@std@@@2@AEADAEAH33AEAV?$basic_string@DU?$char_traits@D@std@@V?$allocator@D@2@@2@@Z@4HA 0000000140012670 f   main.obj
 0001:0001167c       ?dtor$1@?0??Wczytaj_z_Pliku@@YAXAEAV?$basic_ofstream@DU?$char_traits@D@std@@@std@@AEAV?$basic_fstream@DU?$char_traits@D@std@@@2@AEADAEAH33AEAV?$basic_string@DU?$char_traits@D@std@@V?$allocator@D@2@@2@@Z@4HA 000000014001267c f   main.obj
 0001:00011688       ?dtor$2@?0??Wczytaj_z_Pliku@@YAXAEAV?$basic_ofstream@DU?$char_traits@D@std@@@std@@AEAV?$basic_fstream@DU?$char_traits@D@std@@@2@AEADAEAH33AEAV?$basic_string@DU?$char_traits@D@std@@V?$allocator@D@2@@2@@Z@4HA 0000000140012688 f   main.obj
 0001:00011694       ?dtor$3@?0??Wczytaj_z_Pliku@@YAXAEAV?$basic_ofstream@DU?$char_traits@D@std@@@std@@AEAV?$basic_fstream@DU?$char_traits@D@std@@@2@AEADAEAH33AEAV?$basic_string@DU?$char_traits@D@std@@V?$allocator@D@2@@2@@Z@4HA 0000000140012694 f   main.obj
 0001:000116a0       ?dtor$4@?0??Wczytaj_z_Pliku@@YAXAEAV?$basic_ofstream@DU?$char_traits@D@std@@@std@@AEAV?$basic_fstream@DU?$char_traits@D@std@@@2@AEADAEAH33AEAV?$basic_string@DU?$char_traits@D@std@@V?$allocator@D@2@@2@@Z@4HA 00000001400126a0 f   main.obj
 0001:000116ac       ?dtor$5@?0??Wczytaj_z_Pliku@@YAXAEAV?$basic_ofstream@DU?$char_traits@D@std@@@std@@AEAV?$basic_fstream@DU?$char_traits@D@std@@@2@AEADAEAH33AEAV?$basic_string@DU?$char_traits@D@std@@V?$allocator@D@2@@2@@Z@4HA 00000001400126ac f   main.obj
 0001:000116c0       ?dtor$4@?0??SprawdŸ_Pliki@@YAXXZ@4HA 00000001400126c0 f   main.obj
 0001:000116cc       ?dtor$5@?0??SprawdŸ_Pliki@@YAXXZ@4HA 00000001400126cc f   main.obj
 0001:000116d8       ?dtor$6@?0??SprawdŸ_Pliki@@YAXXZ@4HA 00000001400126d8 f   main.obj
 0001:000116e4       ?dtor$286@?0??SprawdŸ_Pliki@@YAXXZ@4HA 00000001400126e4 f   main.obj
 0001:0001170a       ?dtor$316@?0??SprawdŸ_Pliki@@YAXXZ@4HA 000000014001270a f   main.obj
 0001:00011730       ?dtor$343@?0??SprawdŸ_Pliki@@YAXXZ@4HA 0000000140012730 f   main.obj
 0001:00011756       ?dtor$370@?0??SprawdŸ_Pliki@@YAXXZ@4HA 0000000140012756 f   main.obj
 0001:0001177c       ?dtor$383@?0??SprawdŸ_Pliki@@YAXXZ@4HA 000000014001277c f   main.obj
 0001:000117a2       ?dtor$430@?0??SprawdŸ_Pliki@@YAXXZ@4HA 00000001400127a2 f   main.obj
 0001:000117cd       ?dtor$446@?0??SprawdŸ_Pliki@@YAXXZ@4HA 00000001400127cd f   main.obj
 0001:000117f8       ?dtor$559@?0??SprawdŸ_Pliki@@YAXXZ@4HA 00000001400127f8 f   main.obj
 0001:00011823       ?dtor$586@?0??SprawdŸ_Pliki@@YAXXZ@4HA 0000000140012823 f   main.obj
 0001:0001184e       ?dtor$610@?0??SprawdŸ_Pliki@@YAXXZ@4HA 000000014001284e f   main.obj
 0001:00011879       ?dtor$634@?0??SprawdŸ_Pliki@@YAXXZ@4HA 0000000140012879 f   main.obj
 0001:000118a4       ?dtor$647@?0??SprawdŸ_Pliki@@YAXXZ@4HA 00000001400128a4 f   main.obj
 0001:000118cf       ?dtor$688@?0??SprawdŸ_Pliki@@YAXXZ@4HA 00000001400128cf f   main.obj
 0001:000118fa       ?dtor$704@?0??SprawdŸ_Pliki@@YAXXZ@4HA 00000001400128fa f   main.obj
 0001:00011925       ?dtor$808@?0??SprawdŸ_Pliki@@YAXXZ@4HA 0000000140012925 f   main.obj
 0001:00011950       ?dtor$835@?0??SprawdŸ_Pliki@@YAXXZ@4HA 0000000140012950 f   main.obj
 0001:0001197b       ?dtor$859@?0??SprawdŸ_Pliki@@YAXXZ@4HA 000000014001297b f   main.obj
 0001:000119a6       ?dtor$883@?0??SprawdŸ_Pliki@@YAXXZ@4HA 00000001400129a6 f   main.obj
 0001:000119d1       ?dtor$896@?0??SprawdŸ_Pliki@@YAXXZ@4HA 00000001400129d1 f   main.obj
 0001:000119fc       ?dtor$937@?0??SprawdŸ_Pliki@@YAXXZ@4HA 00000001400129fc f   main.obj
 0001:00011a27       ?dtor$953@?0??SprawdŸ_Pliki@@YAXXZ@4HA 0000000140012a27 f   main.obj
 0001:00011a52       ?dtor$32@?0??SprawdŸ_Pliki@@YAXXZ@4HA 0000000140012a52 f   main.obj
 0001:00011a5e       ?dtor$33@?0??SprawdŸ_Pliki@@YAXXZ@4HA 0000000140012a5e f   main.obj
 0001:00011a6a       ?dtor$34@?0??SprawdŸ_Pliki@@YAXXZ@4HA 0000000140012a6a f   main.obj
 0001:00011a76       ?dtor$36@?0??SprawdŸ_Pliki@@YAXXZ@4HA 0000000140012a76 f   main.obj
 0001:00011a82       ?dtor$37@?0??SprawdŸ_Pliki@@YAXXZ@4HA 0000000140012a82 f   main.obj
 0001:00011a8e       ?dtor$40@?0??SprawdŸ_Pliki@@YAXXZ@4HA 0000000140012a8e f   main.obj
 0001:00011a9a       ?dtor$41@?0??SprawdŸ_Pliki@@YAXXZ@4HA 0000000140012a9a f   main.obj
 0001:00011aa6       ?dtor$42@?0??SprawdŸ_Pliki@@YAXXZ@4HA 0000000140012aa6 f   main.obj
 0001:00011ab2       ?dtor$44@?0??SprawdŸ_Pliki@@YAXXZ@4HA 0000000140012ab2 f   main.obj
 0001:00011abe       ?dtor$45@?0??SprawdŸ_Pliki@@YAXXZ@4HA 0000000140012abe f   main.obj
 0001:00011aca       ?dtor$48@?0??SprawdŸ_Pliki@@YAXXZ@4HA 0000000140012aca f   main.obj
 0001:00011ad6       ?dtor$49@?0??SprawdŸ_Pliki@@YAXXZ@4HA 0000000140012ad6 f   main.obj
 0001:00011ae2       ?dtor$50@?0??SprawdŸ_Pliki@@YAXXZ@4HA 0000000140012ae2 f   main.obj
 0001:00011aee       ?dtor$52@?0??SprawdŸ_Pliki@@YAXXZ@4HA 0000000140012aee f   main.obj
 0001:00011afa       ?dtor$53@?0??SprawdŸ_Pliki@@YAXXZ@4HA 0000000140012afa f   main.obj
 0001:00011b06       ?dtor$55@?0??SprawdŸ_Pliki@@YAXXZ@4HA 0000000140012b06 f   main.obj
 0001:00011b12       ?dtor$56@?0??SprawdŸ_Pliki@@YAXXZ@4HA 0000000140012b12 f   main.obj
 0001:00011b1e       ?dtor$58@?0??SprawdŸ_Pliki@@YAXXZ@4HA 0000000140012b1e f   main.obj
 0001:00011b2a       ?dtor$59@?0??SprawdŸ_Pliki@@YAXXZ@4HA 0000000140012b2a f   main.obj
 0001:00011b36       ?dtor$60@?0??SprawdŸ_Pliki@@YAXXZ@4HA 0000000140012b36 f   main.obj
 0001:00011b42       ?dtor$61@?0??SprawdŸ_Pliki@@YAXXZ@4HA 0000000140012b42 f   main.obj
 0001:00011b4e       ?dtor$62@?0??SprawdŸ_Pliki@@YAXXZ@4HA 0000000140012b4e f   main.obj
 0001:00011b5a       ?dtor$64@?0??SprawdŸ_Pliki@@YAXXZ@4HA 0000000140012b5a f   main.obj
 0001:00011b66       ?dtor$65@?0??SprawdŸ_Pliki@@YAXXZ@4HA 0000000140012b66 f   main.obj
 0001:00011b72       ?dtor$66@?0??SprawdŸ_Pliki@@YAXXZ@4HA 0000000140012b72 f   main.obj
 0001:00011b7e       ?dtor$67@?0??SprawdŸ_Pliki@@YAXXZ@4HA 0000000140012b7e f   main.obj
 0001:00011b8a       ?dtor$68@?0??SprawdŸ_Pliki@@YAXXZ@4HA 0000000140012b8a f   main.obj
 0001:00011b96       ?dtor$69@?0??SprawdŸ_Pliki@@YAXXZ@4HA 0000000140012b96 f   main.obj
 0001:00011ba2       ?dtor$71@?0??SprawdŸ_Pliki@@YAXXZ@4HA 0000000140012ba2 f   main.obj
 0001:00011bae       ?dtor$72@?0??SprawdŸ_Pliki@@YAXXZ@4HA 0000000140012bae f   main.obj
 0001:00011bba       ?dtor$73@?0??SprawdŸ_Pliki@@YAXXZ@4HA 0000000140012bba f   main.obj
 0001:00011bc6       ?dtor$74@?0??SprawdŸ_Pliki@@YAXXZ@4HA 0000000140012bc6 f   main.obj
 0001:00011bd2       ?dtor$76@?0??SprawdŸ_Pliki@@YAXXZ@4HA 0000000140012bd2 f   main.obj
 0001:00011bde       ?dtor$77@?0??SprawdŸ_Pliki@@YAXXZ@4HA 0000000140012bde f   main.obj
 0001:00011bea       ?dtor$78@?0??SprawdŸ_Pliki@@YAXXZ@4HA 0000000140012bea f   main.obj
 0001:00011bf6       ?dtor$79@?0??SprawdŸ_Pliki@@YAXXZ@4HA 0000000140012bf6 f   main.obj
 0001:00011c02       ?dtor$80@?0??SprawdŸ_Pliki@@YAXXZ@4HA 0000000140012c02 f   main.obj
 0001:00011c0e       ?dtor$81@?0??SprawdŸ_Pliki@@YAXXZ@4HA 0000000140012c0e f   main.obj
 0001:00011c1a       ?dtor$82@?0??SprawdŸ_Pliki@@YAXXZ@4HA 0000000140012c1a f   main.obj
 0001:00011c26       ?dtor$83@?0??SprawdŸ_Pliki@@YAXXZ@4HA 0000000140012c26 f   main.obj
 0001:00011c32       ?dtor$84@?0??SprawdŸ_Pliki@@YAXXZ@4HA 0000000140012c32 f   main.obj
 0001:00011c3e       ?dtor$86@?0??SprawdŸ_Pliki@@YAXXZ@4HA 0000000140012c3e f   main.obj
 0001:00011c4a       ?dtor$87@?0??SprawdŸ_Pliki@@YAXXZ@4HA 0000000140012c4a f   main.obj
 0001:00011c56       ?dtor$88@?0??SprawdŸ_Pliki@@YAXXZ@4HA 0000000140012c56 f   main.obj
 0001:00011c62       ?dtor$89@?0??SprawdŸ_Pliki@@YAXXZ@4HA 0000000140012c62 f   main.obj
 0001:00011c6e       ?dtor$90@?0??SprawdŸ_Pliki@@YAXXZ@4HA 0000000140012c6e f   main.obj
 0001:00011c7a       ?dtor$91@?0??SprawdŸ_Pliki@@YAXXZ@4HA 0000000140012c7a f   main.obj
 0001:00011c86       ?dtor$92@?0??SprawdŸ_Pliki@@YAXXZ@4HA 0000000140012c86 f   main.obj
 0001:00011c92       ?dtor$93@?0??SprawdŸ_Pliki@@YAXXZ@4HA 0000000140012c92 f   main.obj
 0001:00011c9e       ?dtor$95@?0??SprawdŸ_Pliki@@YAXXZ@4HA 0000000140012c9e f   main.obj
 0001:00011caa       ?dtor$96@?0??SprawdŸ_Pliki@@YAXXZ@4HA 0000000140012caa f   main.obj
 0001:00011cb6       ?dtor$97@?0??SprawdŸ_Pliki@@YAXXZ@4HA 0000000140012cb6 f   main.obj
 0001:00011cc2       ?dtor$99@?0??SprawdŸ_Pliki@@YAXXZ@4HA 0000000140012cc2 f   main.obj
 0001:00011cce       ?dtor$100@?0??SprawdŸ_Pliki@@YAXXZ@4HA 0000000140012cce f   main.obj
 0001:00011cda       ?dtor$101@?0??SprawdŸ_Pliki@@YAXXZ@4HA 0000000140012cda f   main.obj
 0001:00011ce6       ?dtor$102@?0??SprawdŸ_Pliki@@YAXXZ@4HA 0000000140012ce6 f   main.obj
 0001:00011cf2       ?dtor$103@?0??SprawdŸ_Pliki@@YAXXZ@4HA 0000000140012cf2 f   main.obj
 0001:00011cfe       ?dtor$104@?0??SprawdŸ_Pliki@@YAXXZ@4HA 0000000140012cfe f   main.obj
 0001:00011d0a       ?dtor$105@?0??SprawdŸ_Pliki@@YAXXZ@4HA 0000000140012d0a f   main.obj
 0001:00011d16       ?dtor$107@?0??SprawdŸ_Pliki@@YAXXZ@4HA 0000000140012d16 f   main.obj
 0001:00011d22       ?dtor$108@?0??SprawdŸ_Pliki@@YAXXZ@4HA 0000000140012d22 f   main.obj
 0001:00011d2e       ?dtor$109@?0??SprawdŸ_Pliki@@YAXXZ@4HA 0000000140012d2e f   main.obj
 0001:00011d3a       ?dtor$110@?0??SprawdŸ_Pliki@@YAXXZ@4HA 0000000140012d3a f   main.obj
 0001:00011d46       ?dtor$111@?0??SprawdŸ_Pliki@@YAXXZ@4HA 0000000140012d46 f   main.obj
 0001:00011d52       ?dtor$112@?0??SprawdŸ_Pliki@@YAXXZ@4HA 0000000140012d52 f   main.obj
 0001:00011d5e       ?dtor$115@?0??SprawdŸ_Pliki@@YAXXZ@4HA 0000000140012d5e f   main.obj
 0001:00011d6a       ?dtor$116@?0??SprawdŸ_Pliki@@YAXXZ@4HA 0000000140012d6a f   main.obj
 0001:00011d76       ?dtor$117@?0??SprawdŸ_Pliki@@YAXXZ@4HA 0000000140012d76 f   main.obj
 0001:00011d82       ?dtor$119@?0??SprawdŸ_Pliki@@YAXXZ@4HA 0000000140012d82 f   main.obj
 0001:00011d8e       ?dtor$120@?0??SprawdŸ_Pliki@@YAXXZ@4HA 0000000140012d8e f   main.obj
 0001:00011da0       ?dtor$4@?0??SprawdŸ_Ustawienia@@YAXXZ@4HA 0000000140012da0 f   main.obj
 0001:00011dce       ?dtor$5@?0??SprawdŸ_Ustawienia@@YAXXZ@4HA 0000000140012dce f   main.obj
 0001:00011de0       ?dtor$7@?0??SprawdŸ_Ustawienia@@YAXXZ@4HA 0000000140012de0 f   main.obj
 0001:00011dee       ?dtor$0@?0??SprawdŸ_Ustawienia@@YAXXZ@4HA 0000000140012dee f   main.obj
 0001:00011dfa       ?dtor$1@?0??SprawdŸ_Ustawienia@@YAXXZ@4HA 0000000140012dfa f   main.obj
 0001:00011e06       ?dtor$2@?0??SprawdŸ_Ustawienia@@YAXXZ@4HA 0000000140012e06 f   main.obj
 0001:00011e20       ?dtor$1@?0??Og³oœ_Wynik@@YAXAEBH0AEAHAEAV?$basic_ofstream@DU?$char_traits@D@std@@@std@@AEAV?$basic_fstream@DU?$char_traits@D@std@@@2@@Z@4HA 0000000140012e20 f   main.obj
 0001:00011e50       ?dtor$25@?0??Wypakuj_Rar@@YAXAEBV?$basic_string@DU?$char_traits@D@std@@V?$allocator@D@2@@std@@@Z@4HA 0000000140012e50 f   main.obj
 0001:00011e80       ?dtor$21@?0??Usuñ_Folder_Wypakowany_i_Winrar@@YAXAEBV?$basic_string@DU?$char_traits@D@std@@V?$allocator@D@2@@std@@@Z@4HA 0000000140012e80 f   main.obj
 0001:00011ea6       ?dtor$51@?0??Usuñ_Folder_Wypakowany_i_Winrar@@YAXAEBV?$basic_string@DU?$char_traits@D@std@@V?$allocator@D@2@@std@@@Z@4HA 0000000140012ea6 f   main.obj
 0001:00011ecc       ?dtor$81@?0??Usuñ_Folder_Wypakowany_i_Winrar@@YAXAEBV?$basic_string@DU?$char_traits@D@std@@V?$allocator@D@2@@std@@@Z@4HA 0000000140012ecc f   main.obj
 0001:00011ef2       ?dtor$111@?0??Usuñ_Folder_Wypakowany_i_Winrar@@YAXAEBV?$basic_string@DU?$char_traits@D@std@@V?$allocator@D@2@@std@@@Z@4HA 0000000140012ef2 f   main.obj
 0001:00011f18       ?dtor$141@?0??Usuñ_Folder_Wypakowany_i_Winrar@@YAXAEBV?$basic_string@DU?$char_traits@D@std@@V?$allocator@D@2@@std@@@Z@4HA 0000000140012f18 f   main.obj
 0001:00011f3e       ?dtor$171@?0??Usuñ_Folder_Wypakowany_i_Winrar@@YAXAEBV?$basic_string@DU?$char_traits@D@std@@V?$allocator@D@2@@std@@@Z@4HA 0000000140012f3e f   main.obj
 0001:00011f64       ?dtor$201@?0??Usuñ_Folder_Wypakowany_i_Winrar@@YAXAEBV?$basic_string@DU?$char_traits@D@std@@V?$allocator@D@2@@std@@@Z@4HA 0000000140012f64 f   main.obj
 0001:00011f8a       ?dtor$231@?0??Usuñ_Folder_Wypakowany_i_Winrar@@YAXAEBV?$basic_string@DU?$char_traits@D@std@@V?$allocator@D@2@@std@@@Z@4HA 0000000140012f8a f   main.obj
 0001:00011fb5       ?dtor$8@?0??Usuñ_Folder_Wypakowany_i_Winrar@@YAXAEBV?$basic_string@DU?$char_traits@D@std@@V?$allocator@D@2@@std@@@Z@4HA 0000000140012fb5 f   main.obj
 0001:00011fc1       ?dtor$331@?0??Usuñ_Folder_Wypakowany_i_Winrar@@YAXAEBV?$basic_string@DU?$char_traits@D@std@@V?$allocator@D@2@@std@@@Z@4HA 0000000140012fc1 f   main.obj
 0001:00011ff7       ?dtor$332@?0??Usuñ_Folder_Wypakowany_i_Winrar@@YAXAEBV?$basic_string@DU?$char_traits@D@std@@V?$allocator@D@2@@std@@@Z@4HA 0000000140012ff7 f   main.obj
 0001:00012009       ?dtor$334@?0??Usuñ_Folder_Wypakowany_i_Winrar@@YAXAEBV?$basic_string@DU?$char_traits@D@std@@V?$allocator@D@2@@std@@@Z@4HA 0000000140013009 f   main.obj
 0001:00012017       ?dtor$10@?0??Usuñ_Folder_Wypakowany_i_Winrar@@YAXAEBV?$basic_string@DU?$char_traits@D@std@@V?$allocator@D@2@@std@@@Z@4HA 0000000140013017 f   main.obj
 0001:00012023       ?dtor$11@?0??Usuñ_Folder_Wypakowany_i_Winrar@@YAXAEBV?$basic_string@DU?$char_traits@D@std@@V?$allocator@D@2@@std@@@Z@4HA 0000000140013023 f   main.obj
 0001:0001202f       ?dtor$337@?0??Usuñ_Folder_Wypakowany_i_Winrar@@YAXAEBV?$basic_string@DU?$char_traits@D@std@@V?$allocator@D@2@@std@@@Z@4HA 000000014001302f f   main.obj
 0001:0001205a       ?dtor$13@?0??Usuñ_Folder_Wypakowany_i_Winrar@@YAXAEBV?$basic_string@DU?$char_traits@D@std@@V?$allocator@D@2@@std@@@Z@4HA 000000014001305a f   main.obj
 0001:00012066       ?dtor$486@?0??Usuñ_Folder_Wypakowany_i_Winrar@@YAXAEBV?$basic_string@DU?$char_traits@D@std@@V?$allocator@D@2@@std@@@Z@4HA 0000000140013066 f   main.obj
 0001:0001209c       ?dtor$487@?0??Usuñ_Folder_Wypakowany_i_Winrar@@YAXAEBV?$basic_string@DU?$char_traits@D@std@@V?$allocator@D@2@@std@@@Z@4HA 000000014001309c f   main.obj
 0001:000120ae       ?dtor$489@?0??Usuñ_Folder_Wypakowany_i_Winrar@@YAXAEBV?$basic_string@DU?$char_traits@D@std@@V?$allocator@D@2@@std@@@Z@4HA 00000001400130ae f   main.obj
 0001:000120bc       ?dtor$15@?0??Usuñ_Folder_Wypakowany_i_Winrar@@YAXAEBV?$basic_string@DU?$char_traits@D@std@@V?$allocator@D@2@@std@@@Z@4HA 00000001400130bc f   main.obj
 0001:000120c8       ?dtor$16@?0??Usuñ_Folder_Wypakowany_i_Winrar@@YAXAEBV?$basic_string@DU?$char_traits@D@std@@V?$allocator@D@2@@std@@@Z@4HA 00000001400130c8 f   main.obj
 0001:000120d4       ?dtor$17@?0??Usuñ_Folder_Wypakowany_i_Winrar@@YAXAEBV?$basic_string@DU?$char_traits@D@std@@V?$allocator@D@2@@std@@@Z@4HA 00000001400130d4 f   main.obj
 0001:000120e0       ?dtor$19@?0??Usuñ_Folder_Wypakowany_i_Winrar@@YAXAEBV?$basic_string@DU?$char_traits@D@std@@V?$allocator@D@2@@std@@@Z@4HA 00000001400130e0 f   main.obj
 0001:000120ec       ?dtor$590@?0??Usuñ_Folder_Wypakowany_i_Winrar@@YAXAEBV?$basic_string@DU?$char_traits@D@std@@V?$allocator@D@2@@std@@@Z@4HA 00000001400130ec f   main.obj
 0001:00012120       ?dtor$0@?0???0?$basic_ofstream@DU?$char_traits@D@std@@@std@@QEAA@XZ@4HA 0000000140013120 f   main.obj
 0001:0001214e       ?dtor$1@?0???0?$basic_ofstream@DU?$char_traits@D@std@@@std@@QEAA@XZ@4HA 000000014001314e f   main.obj
 0001:00012160       ?dtor$3@?0???0?$basic_ofstream@DU?$char_traits@D@std@@@std@@QEAA@XZ@4HA 0000000140013160 f   main.obj
 0001:00012170       ?dtor$0@?0??uflow@?$basic_filebuf@DU?$char_traits@D@std@@@std@@MEAAHXZ@4HA 0000000140013170 f   main.obj
 0001:00012170       ?dtor$0@?0??overflow@?$basic_filebuf@DU?$char_traits@D@std@@@std@@MEAAHH@Z@4HA 0000000140013170 f   main.obj
 0001:00012180       ?dtor$0@?0???0?$basic_stringstream@DU?$char_traits@D@std@@V?$allocator@D@2@@std@@QEAA@H@Z@4HA 0000000140013180 f   main.obj
 0001:000121ae       ?dtor$1@?0???0?$basic_stringstream@DU?$char_traits@D@std@@V?$allocator@D@2@@std@@QEAA@H@Z@4HA 00000001400131ae f   main.obj
 0001:000121c0       ?dtor$3@?0???0?$basic_stringstream@DU?$char_traits@D@std@@V?$allocator@D@2@@std@@QEAA@H@Z@4HA 00000001400131c0 f   main.obj
 0001:000121d0       ?dtor$0@?0??_Endwrite@?$basic_filebuf@DU?$char_traits@D@std@@@std@@IEAA_NXZ@4HA 00000001400131d0 f   main.obj
 0001:000121e0       ?dtor$0@?0??open@?$basic_filebuf@DU?$char_traits@D@std@@@std@@QEAAPEAV12@PEBDHH@Z@4HA 00000001400131e0 f   main.obj
 0001:000121f0       ?dtor$0@?0???$use_facet@V?$ctype@D@std@@@std@@YAAEBV?$ctype@D@0@AEBVlocale@0@@Z@4HA 00000001400131f0 f   main.obj
 0001:000121f0       ?dtor$0@?0???$use_facet@V?$codecvt@DDU_Mbstatet@@@std@@@std@@YAAEBV?$codecvt@DDU_Mbstatet@@@0@AEBVlocale@0@@Z@4HA 00000001400131f0 f   main.obj
 0001:00012200       ?dtor$1@?0???$?6U?$char_traits@D@std@@@std@@YAAEAV?$basic_ostream@DU?$char_traits@D@std@@@0@AEAV10@D@Z@4HA 0000000140013200 f   main.obj
 0001:0001220c       ?dtor$0@?0???$?6U?$char_traits@D@std@@@std@@YAAEAV?$basic_ostream@DU?$char_traits@D@std@@@0@AEAV10@D@Z@4HA 000000014001320c f   main.obj
 0001:00012218       ?catch$10@?0???$?6U?$char_traits@D@std@@@std@@YAAEAV?$basic_ostream@DU?$char_traits@D@std@@@0@AEAV10@D@Z@4HA 0000000140013218 f   main.obj
 0001:00012225       __catch$??$?6U?$char_traits@D@std@@@std@@YAAEAV?$basic_ostream@DU?$char_traits@D@std@@@0@AEAV10@D@Z$0 0000000140013225 f   main.obj
 0001:00012250       ?dtor$2@?0???$?6U?$char_traits@D@std@@@std@@YAAEAV?$basic_ostream@DU?$char_traits@D@std@@@0@AEAV10@PEBD@Z@4HA 0000000140013250 f   main.obj
 0001:0001225c       ?dtor$0@?0???$?6U?$char_traits@D@std@@@std@@YAAEAV?$basic_ostream@DU?$char_traits@D@std@@@0@AEAV10@PEBD@Z@4HA 000000014001325c f   main.obj
 0001:00012268       ?catch$9@?0???$?6U?$char_traits@D@std@@@std@@YAAEAV?$basic_ostream@DU?$char_traits@D@std@@@0@AEAV10@PEBD@Z@4HA 0000000140013268 f   main.obj
 0001:00012275       __catch$??$?6U?$char_traits@D@std@@@std@@YAAEAV?$basic_ostream@DU?$char_traits@D@std@@@0@AEAV10@PEBD@Z$0 0000000140013275 f   main.obj
 0001:000122a0       ?dtor$0@?0???$?HDU?$char_traits@D@std@@V?$allocator@D@1@@std@@YA?AV?$basic_string@DU?$char_traits@D@std@@V?$allocator@D@2@@0@AEBV10@QEBD@Z@4HA 00000001400132a0 f   main.obj
 0001:000122a0       ?dtor$0@?0???$?HDU?$char_traits@D@std@@V?$allocator@D@1@@std@@YA?AV?$basic_string@DU?$char_traits@D@std@@V?$allocator@D@2@@0@AEBV10@0@Z@4HA 00000001400132a0 f   main.obj
 0001:000122d0       ?dtor$0@?0???$?HDU?$char_traits@D@std@@V?$allocator@D@1@@std@@YA?AV?$basic_string@DU?$char_traits@D@std@@V?$allocator@D@2@@0@AEBV10@D@Z@4HA 00000001400132d0 f   main.obj
 0001:00012300       ?dtor$2@?0???$?5DU?$char_traits@D@std@@V?$allocator@D@1@@std@@YAAEAV?$basic_istream@DU?$char_traits@D@std@@@0@$$QEAV10@AEAV?$basic_string@DU?$char_traits@D@std@@V?$allocator@D@2@@0@@Z@4HA 0000000140013300 f   main.obj
 0001:0001230c       ?dtor$0@?0???$?5DU?$char_traits@D@std@@V?$allocator@D@1@@std@@YAAEAV?$basic_istream@DU?$char_traits@D@std@@@0@$$QEAV10@AEAV?$basic_string@DU?$char_traits@D@std@@V?$allocator@D@2@@0@@Z@4HA 000000014001330c f   main.obj
 0001:00012318       ?dtor$1@?0???$?5DU?$char_traits@D@std@@V?$allocator@D@1@@std@@YAAEAV?$basic_istream@DU?$char_traits@D@std@@@0@$$QEAV10@AEAV?$basic_string@DU?$char_traits@D@std@@V?$allocator@D@2@@0@@Z@4HA 0000000140013318 f   main.obj
 0001:00012324       ?catch$33@?0???$?5DU?$char_traits@D@std@@V?$allocator@D@1@@std@@YAAEAV?$basic_istream@DU?$char_traits@D@std@@@0@$$QEAV10@AEAV?$basic_string@DU?$char_traits@D@std@@V?$allocator@D@2@@0@@Z@4HA 0000000140013324 f   main.obj
 0001:00012331       __catch$??$?5DU?$char_traits@D@std@@V?$allocator@D@1@@std@@YAAEAV?$basic_istream@DU?$char_traits@D@std@@@0@$$QEAV10@AEAV?$basic_string@DU?$char_traits@D@std@@V?$allocator@D@2@@0@@Z$0 0000000140013331 f   main.obj
 0001:00012360       ?dtor$1@?0???$getline@DU?$char_traits@D@std@@V?$allocator@D@2@@std@@YAAEAV?$basic_istream@DU?$char_traits@D@std@@@0@$$QEAV10@AEAV?$basic_string@DU?$char_traits@D@std@@V?$allocator@D@2@@0@D@Z@4HA 0000000140013360 f   main.obj
 0001:0001236c       ?dtor$0@?0???$getline@DU?$char_traits@D@std@@V?$allocator@D@2@@std@@YAAEAV?$basic_istream@DU?$char_traits@D@std@@@0@$$QEAV10@AEAV?$basic_string@DU?$char_traits@D@std@@V?$allocator@D@2@@0@D@Z@4HA 000000014001336c f   main.obj
 0001:00012378       ?catch$28@?0???$getline@DU?$char_traits@D@std@@V?$allocator@D@2@@std@@YAAEAV?$basic_istream@DU?$char_traits@D@std@@@0@$$QEAV10@AEAV?$basic_string@DU?$char_traits@D@std@@V?$allocator@D@2@@0@D@Z@4HA 0000000140013378 f   main.obj
 0001:00012385       __catch$??$getline@DU?$char_traits@D@std@@V?$allocator@D@2@@std@@YAAEAV?$basic_istream@DU?$char_traits@D@std@@@0@$$QEAV10@AEAV?$basic_string@DU?$char_traits@D@std@@V?$allocator@D@2@@0@D@Z$0 0000000140013385 f   main.obj
 0001:000123b0       ?dtor$1@?0???$_Insert_string@DU?$char_traits@D@std@@_K@std@@YAAEAV?$basic_ostream@DU?$char_traits@D@std@@@0@AEAV10@QEBD_K@Z@4HA 00000001400133b0 f   main.obj
 0001:000123bc       ?dtor$0@?0???$_Insert_string@DU?$char_traits@D@std@@_K@std@@YAAEAV?$basic_ostream@DU?$char_traits@D@std@@@0@AEAV10@QEBD_K@Z@4HA 00000001400133bc f   main.obj
 0001:000123c8       ?catch$8@?0???$_Insert_string@DU?$char_traits@D@std@@_K@std@@YAAEAV?$basic_ostream@DU?$char_traits@D@std@@@0@AEAV10@QEBD_K@Z@4HA 00000001400133c8 f   main.obj
 0001:000123d5       __catch$??$_Insert_string@DU?$char_traits@D@std@@_K@std@@YAAEAV?$basic_ostream@DU?$char_traits@D@std@@@0@AEAV10@QEBD_K@Z$0 00000001400133d5 f   main.obj
 0001:00012400       ?dtor$5@?0???$_Buynode@AEBU?$pair@$$CBV?$basic_string@DU?$char_traits@D@std@@V?$allocator@D@2@@std@@G@std@@@?$_Tree_comp_alloc@V?$_Tmap_traits@V?$basic_string@DU?$char_traits@D@std@@V?$allocator@D@2@@std@@GU?$less@V?$basic_string@DU?$char_traits@D@std@@V?$allocator@D@2@@std@@@2@V?$allocator@U?$pair@$$CBV?$basic_string@DU?$char_traits@D@std@@V?$allocator@D@2@@std@@G@std@@@2@$0A@@std@@@std@@QEAAPEAU?$_Tree_node@U?$pair@$$CBV?$basic_string@DU?$char_traits@D@std@@V?$allocator@D@2@@std@@G@std@@PEAX@1@AEBU?$pair@$$CBV?$basic_string@DU?$char_traits@D@std@@V?$allocator@D@2@@std@@G@1@@Z@4HA 0000000140013400 f   main.obj
 0001:0001241c       ?catch$8@?0???$_Buynode@AEBU?$pair@$$CBV?$basic_string@DU?$char_traits@D@std@@V?$allocator@D@2@@std@@G@std@@@?$_Tree_comp_alloc@V?$_Tmap_traits@V?$basic_string@DU?$char_traits@D@std@@V?$allocator@D@2@@std@@GU?$less@V?$basic_string@DU?$char_traits@D@std@@V?$allocator@D@2@@std@@@2@V?$allocator@U?$pair@$$CBV?$basic_string@DU?$char_traits@D@std@@V?$allocator@D@2@@std@@G@std@@@2@$0A@@std@@@std@@QEAAPEAU?$_Tree_node@U?$pair@$$CBV?$basic_string@DU?$char_traits@D@std@@V?$allocator@D@2@@std@@G@std@@PEAX@1@AEBU?$pair@$$CBV?$basic_string@DU?$char_traits@D@std@@V?$allocator@D@2@@std@@G@1@@Z@4HA 000000014001341c f   main.obj
 0001:00012429       __catch$??$_Buynode@AEBU?$pair@$$CBV?$basic_string@DU?$char_traits@D@std@@V?$allocator@D@2@@std@@G@std@@@?$_Tree_comp_alloc@V?$_Tmap_traits@V?$basic_string@DU?$char_traits@D@std@@V?$allocator@D@2@@std@@GU?$less@V?$basic_string@DU?$char_traits@D@std@@V?$allocator@D@2@@std@@@2@V?$allocator@U?$pair@$$CBV?$basic_string@DU?$char_traits@D@std@@V?$allocator@D@2@@std@@G@std@@@2@$0A@@std@@@std@@QEAAPEAU?$_Tree_node@U?$pair@$$CBV?$basic_string@DU?$char_traits@D@std@@V?$allocator@D@2@@std@@G@std@@PEAX@1@AEBU?$pair@$$CBV?$basic_string@DU?$char_traits@D@std@@V?$allocator@D@2@@std@@G@1@@Z$0 0000000140013429 f   main.obj
 0001:00012440       ?catch$232@?0???$_Insert_hint@AEAU?$pair@$$CBV?$basic_string@DU?$char_traits@D@std@@V?$allocator@D@2@@std@@G@std@@PEAU?$_Tree_node@U?$pair@$$CBV?$basic_string@DU?$char_traits@D@std@@V?$allocator@D@2@@std@@G@std@@PEAX@2@@?$_Tree@V?$_Tmap_traits@V?$basic_string@DU?$char_traits@D@std@@V?$allocator@D@2@@std@@GU?$less@V?$basic_string@DU?$char_traits@D@std@@V?$allocator@D@2@@std@@@2@V?$allocator@U?$pair@$$CBV?$basic_string@DU?$char_traits@D@std@@V?$allocator@D@2@@std@@G@std@@@2@$0A@@std@@@std@@IEAA?AV?$_Tree_iterator@V?$_Tree_val@U?$_Tree_simple_types@U?$pair@$$CBV?$basic_string@DU?$char_traits@D@std@@V?$allocator@D@2@@std@@G@std@@@std@@@std@@@1@V?$_Tree_const_iterator@V?$_Tree_val@U?$_Tree_simple_types@U?$pair@$$CBV?$basic_string@DU?$char_traits@D@std@@V?$allocator@D@2@@std@@G@std@@@std@@@std@@@1@AEAU?$pair@$$CBV?$basic_string@DU?$char_traits@D@std@@V?$allocator@D@2@@std@@G@1@PEAU?$_Tree_node@U?$pair@$$CBV?$basic_string@DU?$char_traits@D@std@@V?$allocator@D@2@@std@@G@std@@PEAX@1@@Z@4HA 0000000140013440 f   main.obj
 0001:0001244d       __catch$??$_Insert_hint@AEAU?$pair@$$CBV?$basic_string@DU?$char_traits@D@std@@V?$allocator@D@2@@std@@G@std@@PEAU?$_Tree_node@U?$pair@$$CBV?$basic_string@DU?$char_traits@D@std@@V?$allocator@D@2@@std@@G@std@@PEAX@2@@?$_Tree@V?$_Tmap_traits@V?$basic_string@DU?$char_traits@D@std@@V?$allocator@D@2@@std@@GU?$less@V?$basic_string@DU?$char_traits@D@std@@V?$allocator@D@2@@std@@@2@V?$allocator@U?$pair@$$CBV?$basic_string@DU?$char_traits@D@std@@V?$allocator@D@2@@std@@G@std@@@2@$0A@@std@@@std@@IEAA?AV?$_Tree_iterator@V?$_Tree_val@U?$_Tree_simple_types@U?$pair@$$CBV?$basic_string@DU?$char_traits@D@std@@V?$allocator@D@2@@std@@G@std@@@std@@@std@@@1@V?$_Tree_const_iterator@V?$_Tree_val@U?$_Tree_simple_types@U?$pair@$$CBV?$basic_string@DU?$char_traits@D@std@@V?$allocator@D@2@@std@@G@std@@@std@@@std@@@1@AEAU?$pair@$$CBV?$basic_string@DU?$char_traits@D@std@@V?$allocator@D@2@@std@@G@1@PEAU?$_Tree_node@U?$pair@$$CBV?$basic_string@DU?$char_traits@D@std@@V?$allocator@D@2@@std@@G@std@@PEAX@1@@Z$0 000000014001344d f   main.obj
 0001:00012460       ?catch$96@?0???$_Insert_nohint@AEAU?$pair@$$CBV?$basic_string@DU?$char_traits@D@std@@V?$allocator@D@2@@std@@G@std@@PEAU?$_Tree_node@U?$pair@$$CBV?$basic_string@DU?$char_traits@D@std@@V?$allocator@D@2@@std@@G@std@@PEAX@2@@?$_Tree@V?$_Tmap_traits@V?$basic_string@DU?$char_traits@D@std@@V?$allocator@D@2@@std@@GU?$less@V?$basic_string@DU?$char_traits@D@std@@V?$allocator@D@2@@std@@@2@V?$allocator@U?$pair@$$CBV?$basic_string@DU?$char_traits@D@std@@V?$allocator@D@2@@std@@G@std@@@2@$0A@@std@@@std@@IEAA?AU?$pair@V?$_Tree_iterator@V?$_Tree_val@U?$_Tree_simple_types@U?$pair@$$CBV?$basic_string@DU?$char_traits@D@std@@V?$allocator@D@2@@std@@G@std@@@std@@@std@@@std@@_N@1@_NAEAU?$pair@$$CBV?$basic_string@DU?$char_traits@D@std@@V?$allocator@D@2@@std@@G@1@PEAU?$_Tree_node@U?$pair@$$CBV?$basic_string@DU?$char_traits@D@std@@V?$allocator@D@2@@std@@G@std@@PEAX@1@@Z@4HA 0000000140013460 f   main.obj
 0001:0001246d       __catch$??$_Insert_nohint@AEAU?$pair@$$CBV?$basic_string@DU?$char_traits@D@std@@V?$allocator@D@2@@std@@G@std@@PEAU?$_Tree_node@U?$pair@$$CBV?$basic_string@DU?$char_traits@D@std@@V?$allocator@D@2@@std@@G@std@@PEAX@2@@?$_Tree@V?$_Tmap_traits@V?$basic_string@DU?$char_traits@D@std@@V?$allocator@D@2@@std@@GU?$less@V?$basic_string@DU?$char_traits@D@std@@V?$allocator@D@2@@std@@@2@V?$allocator@U?$pair@$$CBV?$basic_string@DU?$char_traits@D@std@@V?$allocator@D@2@@std@@G@std@@@2@$0A@@std@@@std@@IEAA?AU?$pair@V?$_Tree_iterator@V?$_Tree_val@U?$_Tree_simple_types@U?$pair@$$CBV?$basic_string@DU?$char_traits@D@std@@V?$allocator@D@2@@std@@G@std@@@std@@@std@@@std@@_N@1@_NAEAU?$pair@$$CBV?$basic_string@DU?$char_traits@D@std@@V?$allocator@D@2@@std@@G@1@PEAU?$_Tree_node@U?$pair@$$CBV?$basic_string@DU?$char_traits@D@std@@V?$allocator@D@2@@std@@G@std@@PEAX@1@@Z$0 000000014001346d f   main.obj
 0001:00012480       ?fin$0@?0???_M@YAXPEAX_K1P6AX0@Z@Z@4HA 0000000140013480 f   MSVCRT:ehvecdtr.obj
 0001:000124ac       ?filt$0@?0??__ArrayUnwind@@YAXPEAX_K1P6AX0@Z@Z@4HA 00000001400134ac f   MSVCRT:ehvecdtr.obj
 0001:000124ed       __scrt_is_nonwritable_in_current_image$filt$0 00000001400134ed f   MSVCRT:utility.obj
 0001:00012505       ?filt$0@?0??__scrt_common_main_seh@@YAHXZ@4HA 0000000140013505 f   MSVCRT:exe_main.obj
 0001:00012530       ??__FNumer_zasobu_rar@@YAXXZ 0000000140013530 f   main.obj
 0001:00012560       ??__FG³os@@YAXXZ           0000000140013560 f   main.obj
 0001:000125d8       ??__F_Fac_tidy_reg@std@@YAXXZ 00000001400135d8 f   msvcprt:locale0_implib.obj
 0002:00000570       ?pre_cpp_initializer@@3P6AXXZEA 0000000140014570     MSVCRT:exe_main.obj
 0002:00000578       ?_Fac_tidy_reg$initializer$@std@@3P6AXXZEA 0000000140014578     msvcprt:locale0_implib.obj
 0002:00000580       ?Numer_zasobu_rar$initializer$@@3P6AXXZEA 0000000140014580     main.obj
 0002:00000588       ?G³os$initializer$@@3P6AXXZEA 0000000140014588     main.obj
 0002:000005a0       ?pre_c_initializer@@3P6AHXZEA 00000001400145a0     MSVCRT:exe_main.obj
 0002:000005a8       ?post_pgo_initializer@@3P6AHXZEA 00000001400145a8     MSVCRT:exe_main.obj
 0002:000005e0       $cppxdata$??_G_Fac_node@std@@QEAAPEAXI@Z 00000001400145e0     msvcprt:locale0_implib.obj
 0002:00000618       GS_ExceptionPointers       0000000140014618     MSVCRT:gs_report.obj
 0002:00001ad0       ?Ruletka_ko³o@@3QBGB       0000000140015ad0     main.obj
 0002:00001b20       ?Ruletka_plansza_kolor_col@@3QBGB 0000000140015b20     main.obj
 0002:00001b70       ?Ruletka_plansza_kolor@@3QBDB 0000000140015b70     main.obj
 0002:00001d18       $cppxdata$??$_Insert_nohint@AEAU?$pair@$$CBV?$basic_string@DU?$char_traits@D@std@@V?$allocator@D@2@@std@@G@std@@PEAU?$_Tree_node@U?$pair@$$CBV?$basic_string@DU?$char_traits@D@std@@V?$allocator@D@2@@std@@G@std@@PEAX@2@@?$_Tree@V?$_Tmap_traits@V?$basic_string@DU?$char_traits@D@std@@V?$allocator@D@2@@std@@GU?$less@V?$basic_string@DU?$char_traits@D@std@@V?$allocator@D@2@@std@@@2@V?$allocator@U?$pair@$$CBV?$basic_string@DU?$char_traits@D@std@@V?$allocator@D@2@@std@@G@std@@@2@$0A@@std@@@std@@IEAA?AU?$pair@V?$_Tree_iterator@V?$_Tree_val@U?$_Tree_simple_types@U?$pair@$$CBV?$basic_string@DU?$char_traits@D@std@@V?$allocator@D@2@@std@@G@std@@@std@@@std@@@std@@_N@1@_NAEAU?$pair@$$CBV?$basic_string@DU?$char_traits@D@std@@V?$allocator@D@2@@std@@G@1@PEAU?$_Tree_node@U?$pair@$$CBV?$basic_string@DU?$char_traits@D@std@@V?$allocator@D@2@@std@@G@std@@PEAX@1@@Z 0000000140015d18     main.obj
 0002:00001d40       $cppxdata$??$_Insert_hint@AEAU?$pair@$$CBV?$basic_string@DU?$char_traits@D@std@@V?$allocator@D@2@@std@@G@std@@PEAU?$_Tree_node@U?$pair@$$CBV?$basic_string@DU?$char_traits@D@std@@V?$allocator@D@2@@std@@G@std@@PEAX@2@@?$_Tree@V?$_Tmap_traits@V?$basic_string@DU?$char_traits@D@std@@V?$allocator@D@2@@std@@GU?$less@V?$basic_string@DU?$char_traits@D@std@@V?$allocator@D@2@@std@@@2@V?$allocator@U?$pair@$$CBV?$basic_string@DU?$char_traits@D@std@@V?$allocator@D@2@@std@@G@std@@@2@$0A@@std@@@std@@IEAA?AV?$_Tree_iterator@V?$_Tree_val@U?$_Tree_simple_types@U?$pair@$$CBV?$basic_string@DU?$char_traits@D@std@@V?$allocator@D@2@@std@@G@std@@@std@@@std@@@1@V?$_Tree_const_iterator@V?$_Tree_val@U?$_Tree_simple_types@U?$pair@$$CBV?$basic_string@DU?$char_traits@D@std@@V?$allocator@D@2@@std@@G@std@@@std@@@std@@@1@AEAU?$pair@$$CBV?$basic_string@DU?$char_traits@D@std@@V?$allocator@D@2@@std@@G@1@PEAU?$_Tree_node@U?$pair@$$CBV?$basic_string@DU?$char_traits@D@std@@V?$allocator@D@2@@std@@G@std@@PEAX@1@@Z 0000000140015d40     main.obj
 0002:00001d68       $cppxdata$??$_Buynode@AEBU?$pair@$$CBV?$basic_string@DU?$char_traits@D@std@@V?$allocator@D@2@@std@@G@std@@@?$_Tree_comp_alloc@V?$_Tmap_traits@V?$basic_string@DU?$char_traits@D@std@@V?$allocator@D@2@@std@@GU?$less@V?$basic_string@DU?$char_traits@D@std@@V?$allocator@D@2@@std@@@2@V?$allocator@U?$pair@$$CBV?$basic_string@DU?$char_traits@D@std@@V?$allocator@D@2@@std@@G@std@@@2@$0A@@std@@@std@@QEAAPEAU?$_Tree_node@U?$pair@$$CBV?$basic_string@DU?$char_traits@D@std@@V?$allocator@D@2@@std@@G@std@@PEAX@1@AEBU?$pair@$$CBV?$basic_string@DU?$char_traits@D@std@@V?$allocator@D@2@@std@@G@1@@Z 0000000140015d68     main.obj
 0002:00001d90       $cppxdata$??1sentry@?$basic_istream@DU?$char_traits@D@std@@@std@@QEAA@XZ 0000000140015d90     main.obj
 0002:00001db8       $cppxdata$??$_Insert_string@DU?$char_traits@D@std@@_K@std@@YAAEAV?$basic_ostream@DU?$char_traits@D@std@@@0@AEAV10@QEBD_K@Z 0000000140015db8     main.obj
 0002:00001de0       $cppxdata$??$getline@DU?$char_traits@D@std@@V?$allocator@D@2@@std@@YAAEAV?$basic_istream@DU?$char_traits@D@std@@@0@$$QEAV10@AEAV?$basic_string@DU?$char_traits@D@std@@V?$allocator@D@2@@0@D@Z 0000000140015de0     main.obj
 0002:00001e08       $cppxdata$??$?5DU?$char_traits@D@std@@V?$allocator@D@1@@std@@YAAEAV?$basic_istream@DU?$char_traits@D@std@@@0@$$QEAV10@AEAV?$basic_string@DU?$char_traits@D@std@@V?$allocator@D@2@@0@@Z 0000000140015e08     main.obj
 0002:00001e30       $cppxdata$??$use_facet@V?$codecvt@DDU_Mbstatet@@@std@@@std@@YAAEBV?$codecvt@DDU_Mbstatet@@@0@AEBVlocale@0@@Z 0000000140015e30     main.obj
 0002:00001e58       $cppxdata$??$?HDU?$char_traits@D@std@@V?$allocator@D@1@@std@@YA?AV?$basic_string@DU?$char_traits@D@std@@V?$allocator@D@2@@0@AEBV10@D@Z 0000000140015e58     main.obj
 0002:00001e80       $cppxdata$??$?HDU?$char_traits@D@std@@V?$allocator@D@1@@std@@YA?AV?$basic_string@DU?$char_traits@D@std@@V?$allocator@D@2@@0@AEBV10@QEBD@Z 0000000140015e80     main.obj
 0002:00001ea8       $cppxdata$??$?HDU?$char_traits@D@std@@V?$allocator@D@1@@std@@YA?AV?$basic_string@DU?$char_traits@D@std@@V?$allocator@D@2@@0@AEBV10@0@Z 0000000140015ea8     main.obj
 0002:00001ed0       $cppxdata$??$?6U?$char_traits@D@std@@@std@@YAAEAV?$basic_ostream@DU?$char_traits@D@std@@@0@AEAV10@PEBD@Z 0000000140015ed0     main.obj
 0002:00001ef8       $cppxdata$??$?6U?$char_traits@D@std@@@std@@YAAEAV?$basic_ostream@DU?$char_traits@D@std@@@0@AEAV10@D@Z 0000000140015ef8     main.obj
 0002:00001f20       $cppxdata$??$use_facet@V?$ctype@D@std@@@std@@YAAEBV?$ctype@D@0@AEBVlocale@0@@Z 0000000140015f20     main.obj
 0002:00001f48       $cppxdata$??1_Sentry_base@?$basic_ostream@DU?$char_traits@D@std@@@std@@QEAA@XZ 0000000140015f48     main.obj
 0002:00001f48       $cppxdata$??1_Sentry_base@?$basic_istream@DU?$char_traits@D@std@@@std@@QEAA@XZ 0000000140015f48     main.obj
 0002:00001f70       $cppxdata$?erase@?$_Tree@V?$_Tmap_traits@V?$basic_string@DU?$char_traits@D@std@@V?$allocator@D@2@@std@@GU?$less@V?$basic_string@DU?$char_traits@D@std@@V?$allocator@D@2@@std@@@2@V?$allocator@U?$pair@$$CBV?$basic_string@DU?$char_traits@D@std@@V?$allocator@D@2@@std@@G@std@@@2@$0A@@std@@@std@@QEAA?AV?$_Tree_iterator@V?$_Tree_val@U?$_Tree_simple_types@U?$pair@$$CBV?$basic_string@DU?$char_traits@D@std@@V?$allocator@D@2@@std@@G@std@@@std@@@std@@@2@V?$_Tree_const_iterator@V?$_Tree_val@U?$_Tree_simple_types@U?$pair@$$CBV?$basic_string@DU?$char_traits@D@std@@V?$allocator@D@2@@std@@G@std@@@std@@@std@@@2@0@Z 0000000140015f70     main.obj
 0002:00001f98       $cppxdata$?open@?$basic_filebuf@DU?$char_traits@D@std@@@std@@QEAAPEAV12@PEBDHH@Z 0000000140015f98     main.obj
 0002:00001fc0       $cppxdata$?_Endwrite@?$basic_filebuf@DU?$char_traits@D@std@@@std@@IEAA_NXZ 0000000140015fc0     main.obj
 0002:00001fe8       $cppxdata$??1sentry@?$basic_ostream@DU?$char_traits@D@std@@@std@@QEAA@XZ 0000000140015fe8     main.obj
 0002:00002010       $cppxdata$??_G?$basic_filebuf@DU?$char_traits@D@std@@@std@@UEAAPEAXI@Z 0000000140016010     main.obj
 0002:00002038       $cppxdata$??0?$basic_stringstream@DU?$char_traits@D@std@@V?$allocator@D@2@@std@@QEAA@H@Z 0000000140016038     main.obj
 0002:00002060       $cppxdata$?overflow@?$basic_filebuf@DU?$char_traits@D@std@@@std@@MEAAHH@Z 0000000140016060     main.obj
 0002:00002088       $cppxdata$?uflow@?$basic_filebuf@DU?$char_traits@D@std@@@std@@MEAAHXZ 0000000140016088     main.obj
 0002:000020b0       $cppxdata$??0?$basic_ofstream@DU?$char_traits@D@std@@@std@@QEAA@XZ 00000001400160b0     main.obj
 0002:000020d8       $cppxdata$?Usuñ_Folder_Wypakowany_i_Winrar@@YAXAEBV?$basic_string@DU?$char_traits@D@std@@V?$allocator@D@2@@std@@@Z 00000001400160d8     main.obj
 0002:00002100       $cppxdata$?Wypakuj_Rar@@YAXAEBV?$basic_string@DU?$char_traits@D@std@@V?$allocator@D@2@@std@@@Z 0000000140016100     main.obj
 0002:00002128       $cppxdata$?Og³oœ_Wynik@@YAXAEBH0AEAHAEAV?$basic_ofstream@DU?$char_traits@D@std@@@std@@AEAV?$basic_fstream@DU?$char_traits@D@std@@@2@@Z 0000000140016128     main.obj
 0002:00002150       $cppxdata$??_D?$basic_ifstream@DU?$char_traits@D@std@@@std@@QEAAXXZ 0000000140016150     main.obj
 0002:00002178       $cppxdata$?SprawdŸ_Ustawienia@@YAXXZ 0000000140016178     main.obj
 0002:000021a0       $cppxdata$?SprawdŸ_Pliki@@YAXXZ 00000001400161a0     main.obj
 0002:000021c8       $cppxdata$?Wczytaj_z_Pliku@@YAXAEAV?$basic_ofstream@DU?$char_traits@D@std@@@std@@AEAV?$basic_fstream@DU?$char_traits@D@std@@@2@AEADAEAH33AEAV?$basic_string@DU?$char_traits@D@std@@V?$allocator@D@2@@2@@Z 00000001400161c8     main.obj
 0002:000021f0       $cppxdata$?Odczytaj_Liczbê@@YAXAEBHAEBV?$basic_string@DU?$char_traits@D@std@@V?$allocator@D@2@@std@@@Z 00000001400161f0     main.obj
 0002:00002218       $cppxdata$?Czy_Kontynuowaæ@@YA_NAEBH@Z 0000000140016218     main.obj
 0002:00002240       $cppxdata$?Wczytaj_Kwotê_Zak³adu@@YAXAEAHAEBH@Z 0000000140016240     main.obj
 0002:00002268       $cppxdata$?Obstaw@@YA?AV?$basic_string@DU?$char_traits@D@std@@V?$allocator@D@2@@std@@XZ 0000000140016268     main.obj
 0002:00002290       $cppxdata$??_D?$basic_fstream@DU?$char_traits@D@std@@@std@@QEAAXXZ 0000000140016290     main.obj
 0002:000022b8       $cppxdata$??_D?$basic_ofstream@DU?$char_traits@D@std@@@std@@QEAAXXZ 00000001400162b8     main.obj
 0002:000022e0       $cppxdata$main             00000001400162e0     main.obj
 0002:00002308       $cppxdata$??__ENumer_zasobu_rar@@YAXXZ 0000000140016308     main.obj
 0002:00002330       $cppxdata$??1locale@std@@QEAA@XZ 0000000140016330     main.obj
 0002:00003240       $unwind$?_Tidy_deallocate@?$basic_string@DU?$char_traits@D@std@@V?$allocator@D@2@@std@@QEAAXXZ 0000000140017240     main.obj
 0002:00003240       $unwind$??0bad_cast@std@@QEAA@AEBV01@@Z 0000000140017240     main.obj
 0002:00003240       $unwind$??$?HDU?$char_traits@D@std@@V?$allocator@D@1@@std@@YA?AV?$basic_string@DU?$char_traits@D@std@@V?$allocator@D@2@@0@AEBV10@$$QEAV10@@Z 0000000140017240     main.obj
 0002:00003240       $unwind$__scrt_uninitialize_crt 0000000140017240     MSVCRT:utility.obj
 0002:00003240       $unwind$?_Destroy_if_node@?$_Tree@V?$_Tmap_traits@V?$basic_string@DU?$char_traits@D@std@@V?$allocator@D@2@@std@@GU?$less@V?$basic_string@DU?$char_traits@D@std@@V?$allocator@D@2@@std@@@2@V?$allocator@U?$pair@$$CBV?$basic_string@DU?$char_traits@D@std@@V?$allocator@D@2@@std@@G@std@@@2@$0A@@std@@@std@@IEAAXPEAU?$_Tree_node@U?$pair@$$CBV?$basic_string@DU?$char_traits@D@std@@V?$allocator@D@2@@std@@G@std@@PEAX@2@@Z 0000000140017240     main.obj
 0002:00003240       $unwind$?underflow@?$basic_filebuf@DU?$char_traits@D@std@@@std@@MEAAHXZ 0000000140017240     main.obj
 0002:00003240       $unwind$??0exception@std@@QEAA@AEBV01@@Z 0000000140017240     main.obj
 0002:00003240       $unwind$??$?HDU?$char_traits@D@std@@V?$allocator@D@1@@std@@YA?AV?$basic_string@DU?$char_traits@D@std@@V?$allocator@D@2@@0@$$QEAV10@0@Z 0000000140017240     main.obj
 0002:00003240       $unwind$?pre_c_initialization@@YAHXZ 0000000140017240     MSVCRT:exe_main.obj
 0002:00003240       $unwind$__raise_securityfailure 0000000140017240     MSVCRT:gs_report.obj
 0002:00003240       $unwind$?_Facet_Register@std@@YAXPEAV_Facet_base@1@@Z 0000000140017240     msvcprt:locale0_implib.obj
 0002:00003240       $unwind$??_D?$basic_stringstream@DU?$char_traits@D@std@@V?$allocator@D@2@@std@@QEAAXXZ 0000000140017240     main.obj
 0002:00003240       $unwind$__scrt_initialize_crt 0000000140017240     MSVCRT:utility.obj
 0002:00003240       $unwind$??$_Insert_at@AEAU?$pair@$$CBV?$basic_string@DU?$char_traits@D@std@@V?$allocator@D@2@@std@@G@std@@PEAU?$_Tree_node@U?$pair@$$CBV?$basic_string@DU?$char_traits@D@std@@V?$allocator@D@2@@std@@G@std@@PEAX@2@@?$_Tree@V?$_Tmap_traits@V?$basic_string@DU?$char_traits@D@std@@V?$allocator@D@2@@std@@GU?$less@V?$basic_string@DU?$char_traits@D@std@@V?$allocator@D@2@@std@@@2@V?$allocator@U?$pair@$$CBV?$basic_string@DU?$char_traits@D@std@@V?$allocator@D@2@@std@@G@std@@@2@$0A@@std@@@std@@IEAA?AV?$_Tree_iterator@V?$_Tree_val@U?$_Tree_simple_types@U?$pair@$$CBV?$basic_string@DU?$char_traits@D@std@@V?$allocator@D@2@@std@@G@std@@@std@@@std@@@1@_NPEAU?$_Tree_node@U?$pair@$$CBV?$basic_string@DU?$char_traits@D@std@@V?$allocator@D@2@@std@@G@std@@PEAX@1@AEAU?$pair@$$CBV?$basic_string@DU?$char_traits@D@std@@V?$allocator@D@2@@std@@G@1@1@Z 0000000140017240     main.obj
 0002:00003240       $unwind$?sync@?$basic_filebuf@DU?$char_traits@D@std@@@std@@MEAAHXZ 0000000140017240     main.obj
 0002:00003240       $unwind$??1?$pair@$$CBV?$basic_string@DU?$char_traits@D@std@@V?$allocator@D@2@@std@@G@std@@QEAA@XZ 0000000140017240     main.obj
 0002:00003240       $unwind$??2@YAPEAX_K@Z     0000000140017240     MSVCRT:new_scalar.obj
 0002:00003240       $unwind$??$endl@DU?$char_traits@D@std@@@std@@YAAEAV?$basic_ostream@DU?$char_traits@D@std@@@0@AEAV10@@Z 0000000140017240     main.obj
 0002:00003240       $unwind$??0bad_alloc@std@@QEAA@AEBV01@@Z 0000000140017240     MSVCRT:throw_bad_alloc.obj
 0002:00003240       $unwind$??0bad_array_new_length@std@@QEAA@AEBV01@@Z 0000000140017240     MSVCRT:throw_bad_alloc.obj
 0002:00003240       $unwind$??$?HDU?$char_traits@D@std@@V?$allocator@D@1@@std@@YA?AV?$basic_string@DU?$char_traits@D@std@@V?$allocator@D@2@@0@$$QEAV10@QEBD@Z 0000000140017240     main.obj
 0002:00003240       $unwind$?setbuf@?$basic_filebuf@DU?$char_traits@D@std@@@std@@MEAAPEAV?$basic_streambuf@DU?$char_traits@D@std@@@2@PEAD_J@Z 0000000140017240     main.obj
 0002:00003240       $unwind$??1?$basic_stringbuf@DU?$char_traits@D@std@@V?$allocator@D@2@@std@@UEAA@XZ 0000000140017240     main.obj
 0002:00003240       $unwind$_onexit            0000000140017240     MSVCRT:utility.obj
 0002:00003240       $unwind$__scrt_release_startup_lock 0000000140017240     MSVCRT:utility.obj
 0002:00003240       $unwind$??1?$basic_string@DU?$char_traits@D@std@@V?$allocator@D@2@@std@@QEAA@XZ 0000000140017240     main.obj
 0002:00003240       $unwind$??_Gtype_info@@UEAAPEAXI@Z 0000000140017240     MSVCRT:std_type_info_static.obj
 0002:00003248       $unwind$??_Gbad_cast@std@@UEAAPEAXI@Z 0000000140017248     main.obj
 0002:00003248       $unwind$?imbue@?$basic_filebuf@DU?$char_traits@D@std@@@std@@MEAAXAEBVlocale@2@@Z 0000000140017248     main.obj
 0002:00003248       $unwind$??_Gbad_alloc@std@@UEAAPEAXI@Z 0000000140017248     MSVCRT:throw_bad_alloc.obj
 0002:00003248       $unwind$??_G?$basic_ifstream@DU?$char_traits@D@std@@@std@@UEAAPEAXI@Z 0000000140017248     main.obj
 0002:00003248       $unwind$??_G?$basic_stringbuf@DU?$char_traits@D@std@@V?$allocator@D@2@@std@@UEAAPEAXI@Z 0000000140017248     main.obj
 0002:00003248       $unwind$??_Gexception@std@@UEAAPEAXI@Z 0000000140017248     main.obj
 0002:00003248       $unwind$??_Gbad_array_new_length@std@@UEAAPEAXI@Z 0000000140017248     MSVCRT:throw_bad_alloc.obj
 0002:00003248       $unwind$??_G?$basic_fstream@DU?$char_traits@D@std@@@std@@UEAAPEAXI@Z 0000000140017248     main.obj
 0002:00003248       $unwind$??_G?$basic_ofstream@DU?$char_traits@D@std@@@std@@UEAAPEAXI@Z 0000000140017248     main.obj
 0002:00003254       $unwind$??1locale@std@@QEAA@XZ 0000000140017254     main.obj
 0002:00003268       $ip2state$??1locale@std@@QEAA@XZ 0000000140017268     main.obj
 0002:00003270       $unwind$??__ENumer_zasobu_rar@@YAXXZ 0000000140017270     main.obj
 0002:0000328c       $stateUnwindMap$??__ENumer_zasobu_rar@@YAXXZ 000000014001728c     main.obj
 0002:00003400       $ip2state$??__ENumer_zasobu_rar@@YAXXZ 0000000140017400     main.obj
 0002:00003580       $unwind$?dtor$0@?0??Obstaw@@YA?AV?$basic_string@DU?$char_traits@D@std@@V?$allocator@D@2@@std@@XZ@4HA 0000000140017580     main.obj
 0002:00003580       $unwind$?dtor$293@?0??Odczytaj_Liczbê@@YAXAEBHAEBV?$basic_string@DU?$char_traits@D@std@@V?$allocator@D@2@@std@@@Z@4HA 0000000140017580     main.obj
 0002:00003580       $unwind$?dtor$286@?0??SprawdŸ_Pliki@@YAXXZ@4HA 0000000140017580     main.obj
 0002:00003580       $unwind$?dtor$883@?0??SprawdŸ_Pliki@@YAXXZ@4HA 0000000140017580     main.obj
 0002:00003580       $unwind$?dtor$25@?0??Wypakuj_Rar@@YAXAEBV?$basic_string@DU?$char_traits@D@std@@V?$allocator@D@2@@std@@@Z@4HA 0000000140017580     main.obj
 0002:00003580       $unwind$?dtor$316@?0??SprawdŸ_Pliki@@YAXXZ@4HA 0000000140017580     main.obj
 0002:00003580       $unwind$?dtor$0@?0???0?$basic_stringstream@DU?$char_traits@D@std@@V?$allocator@D@2@@std@@QEAA@H@Z@4HA 0000000140017580     main.obj
 0002:00003580       $unwind$?filt$0@?0??__ArrayUnwind@@YAXPEAX_K1P6AX0@Z@Z@4HA 0000000140017580     MSVCRT:ehvecdtr.obj
 0002:00003580       $unwind$?dtor$0@?0???$?HDU?$char_traits@D@std@@V?$allocator@D@1@@std@@YA?AV?$basic_string@DU?$char_traits@D@std@@V?$allocator@D@2@@0@AEBV10@QEBD@Z@4HA 0000000140017580     main.obj
 0002:00003580       $unwind$?dtor$343@?0??SprawdŸ_Pliki@@YAXXZ@4HA 0000000140017580     main.obj
 0002:00003580       $unwind$?dtor$370@?0??SprawdŸ_Pliki@@YAXXZ@4HA 0000000140017580     main.obj
 0002:00003580       $unwind$?fin$0@?0???_M@YAXPEAX_K1P6AX0@Z@Z@4HA 0000000140017580     MSVCRT:ehvecdtr.obj
 0002:00003580       $unwind$?dtor$263@?0??Odczytaj_Liczbê@@YAXAEBHAEBV?$basic_string@DU?$char_traits@D@std@@V?$allocator@D@2@@std@@@Z@4HA 0000000140017580     main.obj
 0002:00003580       $unwind$?dtor$937@?0??SprawdŸ_Pliki@@YAXXZ@4HA 0000000140017580     main.obj
 0002:00003580       $unwind$?dtor$590@?0??Usuñ_Folder_Wypakowany_i_Winrar@@YAXAEBV?$basic_string@DU?$char_traits@D@std@@V?$allocator@D@2@@std@@@Z@4HA 0000000140017580     main.obj
 0002:00003580       $unwind$?dtor$486@?0??Usuñ_Folder_Wypakowany_i_Winrar@@YAXAEBV?$basic_string@DU?$char_traits@D@std@@V?$allocator@D@2@@std@@@Z@4HA 0000000140017580     main.obj
 0002:00003580       $unwind$?dtor$383@?0??SprawdŸ_Pliki@@YAXXZ@4HA 0000000140017580     main.obj
 0002:00003580       $unwind$?dtor$430@?0??SprawdŸ_Pliki@@YAXXZ@4HA 0000000140017580     main.obj
 0002:00003580       $unwind$?dtor$5@?0???$_Buynode@AEBU?$pair@$$CBV?$basic_string@DU?$char_traits@D@std@@V?$allocator@D@2@@std@@G@std@@@?$_Tree_comp_alloc@V?$_Tmap_traits@V?$basic_string@DU?$char_traits@D@std@@V?$allocator@D@2@@std@@GU?$less@V?$basic_string@DU?$char_traits@D@std@@V?$allocator@D@2@@std@@@2@V?$allocator@U?$pair@$$CBV?$basic_string@DU?$char_traits@D@std@@V?$allocator@D@2@@std@@G@std@@@2@$0A@@std@@@std@@QEAAPEAU?$_Tree_node@U?$pair@$$CBV?$basic_string@DU?$char_traits@D@std@@V?$allocator@D@2@@std@@G@std@@PEAX@1@AEBU?$pair@$$CBV?$basic_string@DU?$char_traits@D@std@@V?$allocator@D@2@@std@@G@1@@Z@4HA 0000000140017580     main.obj
 0002:00003580       $unwind$?dtor$446@?0??SprawdŸ_Pliki@@YAXXZ@4HA 0000000140017580     main.obj
 0002:00003580       $unwind$?dtor$1@?0??Og³oœ_Wynik@@YAXAEBH0AEAHAEAV?$basic_ofstream@DU?$char_traits@D@std@@@std@@AEAV?$basic_fstream@DU?$char_traits@D@std@@@2@@Z@4HA 0000000140017580     main.obj
 0002:00003580       $unwind$?dtor$337@?0??Usuñ_Folder_Wypakowany_i_Winrar@@YAXAEBV?$basic_string@DU?$char_traits@D@std@@V?$allocator@D@2@@std@@@Z@4HA 0000000140017580     main.obj
 0002:00003580       $unwind$?dtor$896@?0??SprawdŸ_Pliki@@YAXXZ@4HA 0000000140017580     main.obj
 0002:00003580       $unwind$?dtor$231@?0??Usuñ_Folder_Wypakowany_i_Winrar@@YAXAEBV?$basic_string@DU?$char_traits@D@std@@V?$allocator@D@2@@std@@@Z@4HA 0000000140017580     main.obj
 0002:00003580       $unwind$?dtor$4@?0??SprawdŸ_Ustawienia@@YAXXZ@4HA 0000000140017580     main.obj
 0002:00003580       $unwind$?dtor$221@?0??Odczytaj_Liczbê@@YAXAEBHAEBV?$basic_string@DU?$char_traits@D@std@@V?$allocator@D@2@@std@@@Z@4HA 0000000140017580     main.obj
 0002:00003580       $unwind$?dtor$0@?0???$?HDU?$char_traits@D@std@@V?$allocator@D@1@@std@@YA?AV?$basic_string@DU?$char_traits@D@std@@V?$allocator@D@2@@0@AEBV10@0@Z@4HA 0000000140017580     main.obj
 0002:00003580       $unwind$?dtor$201@?0??Usuñ_Folder_Wypakowany_i_Winrar@@YAXAEBV?$basic_string@DU?$char_traits@D@std@@V?$allocator@D@2@@std@@@Z@4HA 0000000140017580     main.obj
 0002:00003580       $unwind$?dtor$559@?0??SprawdŸ_Pliki@@YAXXZ@4HA 0000000140017580     main.obj
 0002:00003580       $unwind$?dtor$586@?0??SprawdŸ_Pliki@@YAXXZ@4HA 0000000140017580     main.obj
 0002:00003580       $unwind$?dtor$171@?0??Usuñ_Folder_Wypakowany_i_Winrar@@YAXAEBV?$basic_string@DU?$char_traits@D@std@@V?$allocator@D@2@@std@@@Z@4HA 0000000140017580     main.obj
 0002:00003580       $unwind$?dtor$610@?0??SprawdŸ_Pliki@@YAXXZ@4HA 0000000140017580     main.obj
 0002:00003580       $unwind$?filt$0@?0??__scrt_common_main_seh@@YAHXZ@4HA 0000000140017580     MSVCRT:exe_main.obj
 0002:00003580       $unwind$?dtor$634@?0??SprawdŸ_Pliki@@YAXXZ@4HA 0000000140017580     main.obj
 0002:00003580       $unwind$?dtor$647@?0??SprawdŸ_Pliki@@YAXXZ@4HA 0000000140017580     main.obj
 0002:00003580       $unwind$?dtor$325@?0??Odczytaj_Liczbê@@YAXAEBHAEBV?$basic_string@DU?$char_traits@D@std@@V?$allocator@D@2@@std@@@Z@4HA 0000000140017580     main.obj
 0002:00003580       $unwind$?dtor$953@?0??SprawdŸ_Pliki@@YAXXZ@4HA 0000000140017580     main.obj
 0002:00003580       $unwind$?dtor$688@?0??SprawdŸ_Pliki@@YAXXZ@4HA 0000000140017580     main.obj
 0002:00003580       $unwind$?dtor$141@?0??Usuñ_Folder_Wypakowany_i_Winrar@@YAXAEBV?$basic_string@DU?$char_traits@D@std@@V?$allocator@D@2@@std@@@Z@4HA 0000000140017580     main.obj
 0002:00003580       $unwind$?dtor$45@?0???__ENumer_zasobu_rar@@YAXXZ@4HA 0000000140017580     main.obj
 0002:00003580       $unwind$?dtor$19@?0??Odczytaj_Liczbê@@YAXAEBHAEBV?$basic_string@DU?$char_traits@D@std@@V?$allocator@D@2@@std@@@Z@4HA 0000000140017580     main.obj
 0002:00003580       $unwind$?dtor$704@?0??SprawdŸ_Pliki@@YAXXZ@4HA 0000000140017580     main.obj
 0002:00003580       $unwind$?dtor$111@?0??Usuñ_Folder_Wypakowany_i_Winrar@@YAXAEBV?$basic_string@DU?$char_traits@D@std@@V?$allocator@D@2@@std@@@Z@4HA 0000000140017580     main.obj
 0002:00003580       $unwind$?dtor$0@?0???0?$basic_ofstream@DU?$char_traits@D@std@@@std@@QEAA@XZ@4HA 0000000140017580     main.obj
 0002:00003580       $unwind$?dtor$808@?0??SprawdŸ_Pliki@@YAXXZ@4HA 0000000140017580     main.obj
 0002:00003580       $unwind$?dtor$81@?0??Usuñ_Folder_Wypakowany_i_Winrar@@YAXAEBV?$basic_string@DU?$char_traits@D@std@@V?$allocator@D@2@@std@@@Z@4HA 0000000140017580     main.obj
 0002:00003580       $unwind$?dtor$331@?0??Usuñ_Folder_Wypakowany_i_Winrar@@YAXAEBV?$basic_string@DU?$char_traits@D@std@@V?$allocator@D@2@@std@@@Z@4HA 0000000140017580     main.obj
 0002:00003580       $unwind$?dtor$191@?0??Odczytaj_Liczbê@@YAXAEBHAEBV?$basic_string@DU?$char_traits@D@std@@V?$allocator@D@2@@std@@@Z@4HA 0000000140017580     main.obj
 0002:00003580       $unwind$?dtor$0@?0???$?HDU?$char_traits@D@std@@V?$allocator@D@1@@std@@YA?AV?$basic_string@DU?$char_traits@D@std@@V?$allocator@D@2@@0@AEBV10@D@Z@4HA 0000000140017580     main.obj
 0002:00003580       $unwind$?dtor$51@?0??Usuñ_Folder_Wypakowany_i_Winrar@@YAXAEBV?$basic_string@DU?$char_traits@D@std@@V?$allocator@D@2@@std@@@Z@4HA 0000000140017580     main.obj
 0002:00003580       $unwind$?dtor$835@?0??SprawdŸ_Pliki@@YAXXZ@4HA 0000000140017580     main.obj
 0002:00003580       $unwind$?dtor$21@?0??Usuñ_Folder_Wypakowany_i_Winrar@@YAXAEBV?$basic_string@DU?$char_traits@D@std@@V?$allocator@D@2@@std@@@Z@4HA 0000000140017580     main.obj
 0002:00003580       $unwind$?dtor$119@?0??Odczytaj_Liczbê@@YAXAEBHAEBV?$basic_string@DU?$char_traits@D@std@@V?$allocator@D@2@@std@@@Z@4HA 0000000140017580     main.obj
 0002:00003580       $unwind$?dtor$433@?0??Odczytaj_Liczbê@@YAXAEBHAEBV?$basic_string@DU?$char_traits@D@std@@V?$allocator@D@2@@std@@@Z@4HA 0000000140017580     main.obj
 0002:00003580       $unwind$?dtor$427@?0??Odczytaj_Liczbê@@YAXAEBHAEBV?$basic_string@DU?$char_traits@D@std@@V?$allocator@D@2@@std@@@Z@4HA 0000000140017580     main.obj
 0002:00003580       $unwind$main$dtor$5        0000000140017580     main.obj
 0002:00003580       $unwind$?dtor$149@?0??Odczytaj_Liczbê@@YAXAEBHAEBV?$basic_string@DU?$char_traits@D@std@@V?$allocator@D@2@@std@@@Z@4HA 0000000140017580     main.obj
 0002:00003580       $unwind$?dtor$859@?0??SprawdŸ_Pliki@@YAXXZ@4HA 0000000140017580     main.obj
 0002:00003588       $unwind$?_Fail@?$_Default_allocate_traits@$00@std@@SAXXZ 0000000140017588     main.obj
 0002:00003588       $unwind$__scrt_unhandled_exception_filter 0000000140017588     MSVCRT:utility_desktop.obj
 0002:00003588       $unwind$??__FG³os@@YAXXZ   0000000140017588     main.obj
 0002:00003588       $unwind$?_Buyheadnode@?$_Tree_comp_alloc@V?$_Tmap_traits@V?$basic_string@DU?$char_traits@D@std@@V?$allocator@D@2@@std@@GU?$less@V?$basic_string@DU?$char_traits@D@std@@V?$allocator@D@2@@std@@@2@V?$allocator@U?$pair@$$CBV?$basic_string@DU?$char_traits@D@std@@V?$allocator@D@2@@std@@G@std@@@2@$0A@@std@@@std@@QEAAPEAU?$_Tree_node@U?$pair@$$CBV?$basic_string@DU?$char_traits@D@std@@V?$allocator@D@2@@std@@G@std@@PEAX@2@XZ 0000000140017588     main.obj
 0002:00003588       $unwind$?_Xlen@?$basic_string@DU?$char_traits@D@std@@V?$allocator@D@2@@std@@SAXXZ 0000000140017588     main.obj
 0002:00003588       $unwind$??__FNumer_zasobu_rar@@YAXXZ 0000000140017588     main.obj
 0002:00003588       $unwind$__scrt_acquire_startup_lock 0000000140017588     MSVCRT:utility.obj
 0002:00003588       $unwind$mainCRTStartup     0000000140017588     MSVCRT:exe_main.obj
 0002:00003588       $unwind$?post_pgo_initialization@@YAHXZ 0000000140017588     MSVCRT:exe_main.obj
 0002:00003588       $unwind$?Przenieœ_Plik@@YA_NAEBV?$basic_string@DU?$char_traits@D@std@@V?$allocator@D@2@@std@@0@Z 0000000140017588     main.obj
 0002:00003588       $unwind$?_Buynode0@?$_Tree_comp_alloc@V?$_Tmap_traits@V?$basic_string@DU?$char_traits@D@std@@V?$allocator@D@2@@std@@GU?$less@V?$basic_string@DU?$char_traits@D@std@@V?$allocator@D@2@@std@@@2@V?$allocator@U?$pair@$$CBV?$basic_string@DU?$char_traits@D@std@@V?$allocator@D@2@@std@@G@std@@@2@$0A@@std@@@std@@QEAAPEAU?$_Tree_node@U?$pair@$$CBV?$basic_string@DU?$char_traits@D@std@@V?$allocator@D@2@@std@@G@std@@PEAX@2@XZ 0000000140017588     main.obj
 0002:00003588       $unwind$??__F_Fac_tidy_reg@std@@YAXXZ 0000000140017588     msvcprt:locale0_implib.obj
 0002:00003588       $unwind$?__autoclassinit2@?$basic_stringstream@DU?$char_traits@D@std@@V?$allocator@D@2@@std@@QEAAX_K@Z 0000000140017588     main.obj
 0002:00003588       $unwind$__scrt_initialize_default_local_stdio_options 0000000140017588     MSVCRT:default_local_stdio_options.obj
 0002:00003588       $unwind$__scrt_is_managed_app 0000000140017588     MSVCRT:utility_desktop.obj
 0002:00003588       $unwind$?_Xran@?$_String_val@U?$_Simple_types@D@std@@@std@@SAXXZ 0000000140017588     main.obj
 0002:00003588       $unwind$?pre_cpp_initialization@@YAXXZ 0000000140017588     MSVCRT:exe_main.obj
 0002:00003588       $unwind$atexit             0000000140017588     MSVCRT:utility.obj
 0002:00003588       $unwind$__GSHandlerCheck   0000000140017588     MSVCRT:_gshandler_.obj
 0002:00003590       $unwind$main               0000000140017590     main.obj
 0002:000035ac       $stateUnwindMap$main       00000001400175ac     main.obj
 0002:000035e0       $ip2state$main             00000001400175e0     main.obj
 0002:00003630       $unwind$??_D?$basic_ofstream@DU?$char_traits@D@std@@@std@@QEAAXXZ 0000000140017630     main.obj
 0002:00003644       $stateUnwindMap$??_D?$basic_fstream@DU?$char_traits@D@std@@@std@@QEAAXXZ 0000000140017644     main.obj
 0002:00003644       $stateUnwindMap$??_G_Fac_node@std@@QEAAPEAXI@Z 0000000140017644     msvcprt:locale0_implib.obj
 0002:00003644       $stateUnwindMap$??1sentry@?$basic_istream@DU?$char_traits@D@std@@@std@@QEAA@XZ 0000000140017644     main.obj
 0002:00003644       $stateUnwindMap$??1sentry@?$basic_ostream@DU?$char_traits@D@std@@@std@@QEAA@XZ 0000000140017644     main.obj
 0002:00003644       $stateUnwindMap$??_D?$basic_ifstream@DU?$char_traits@D@std@@@std@@QEAAXXZ 0000000140017644     main.obj
 0002:00003644       $stateUnwindMap$??_D?$basic_ofstream@DU?$char_traits@D@std@@@std@@QEAAXXZ 0000000140017644     main.obj
 0002:00003644       $stateUnwindMap$??_G?$basic_filebuf@DU?$char_traits@D@std@@@std@@UEAAPEAXI@Z 0000000140017644     main.obj
 0002:00003644       $stateUnwindMap$?erase@?$_Tree@V?$_Tmap_traits@V?$basic_string@DU?$char_traits@D@std@@V?$allocator@D@2@@std@@GU?$less@V?$basic_string@DU?$char_traits@D@std@@V?$allocator@D@2@@std@@@2@V?$allocator@U?$pair@$$CBV?$basic_string@DU?$char_traits@D@std@@V?$allocator@D@2@@std@@G@std@@@2@$0A@@std@@@std@@QEAA?AV?$_Tree_iterator@V?$_Tree_val@U?$_Tree_simple_types@U?$pair@$$CBV?$basic_string@DU?$char_traits@D@std@@V?$allocator@D@2@@std@@G@std@@@std@@@std@@@2@V?$_Tree_const_iterator@V?$_Tree_val@U?$_Tree_simple_types@U?$pair@$$CBV?$basic_string@DU?$char_traits@D@std@@V?$allocator@D@2@@std@@G@std@@@std@@@std@@@2@0@Z 0000000140017644     main.obj
 0002:00003650       $ip2state$??_D?$basic_ofstream@DU?$char_traits@D@std@@@std@@QEAAXXZ 0000000140017650     main.obj
 0002:00003668       $unwind$??_D?$basic_fstream@DU?$char_traits@D@std@@@std@@QEAAXXZ 0000000140017668     main.obj
 0002:00003680       $ip2state$??_D?$basic_fstream@DU?$char_traits@D@std@@@std@@QEAAXXZ 0000000140017680     main.obj
 0002:00003698       $unwind$?Obstaw@@YA?AV?$basic_string@DU?$char_traits@D@std@@V?$allocator@D@2@@std@@XZ 0000000140017698     main.obj
 0002:000036a8       $stateUnwindMap$?Obstaw@@YA?AV?$basic_string@DU?$char_traits@D@std@@V?$allocator@D@2@@std@@XZ 00000001400176a8     main.obj
 0002:000036b0       $ip2state$?Obstaw@@YA?AV?$basic_string@DU?$char_traits@D@std@@V?$allocator@D@2@@std@@XZ 00000001400176b0     main.obj
 0002:000036c0       $unwind$?Wczytaj_Kwotê_Zak³adu@@YAXAEAHAEBH@Z 00000001400176c0     main.obj
 0002:000036dc       $stateUnwindMap$?Wczytaj_Kwotê_Zak³adu@@YAXAEAHAEBH@Z 00000001400176dc     main.obj
 0002:000036dc       $stateUnwindMap$?Czy_Kontynuowaæ@@YA_NAEBH@Z 00000001400176dc     main.obj
 0002:000036e8       $ip2state$?Wczytaj_Kwotê_Zak³adu@@YAXAEAHAEBH@Z 00000001400176e8     main.obj
 0002:00003700       $unwind$?Zakrêæ_Ruletk¹@@YAHXZ 0000000140017700     main.obj
 0002:00003714       $chain$2$?Zakrêæ_Ruletk¹@@YAHXZ 0000000140017714     main.obj
 0002:00003730       $chain$6$?Zakrêæ_Ruletk¹@@YAHXZ 0000000140017730     main.obj
 0002:00003750       $chain$7$?Zakrêæ_Ruletk¹@@YAHXZ 0000000140017750     main.obj
 0002:00003764       $chain$8$?Zakrêæ_Ruletk¹@@YAHXZ 0000000140017764     main.obj
 0002:00003774       $chain$9$?Zakrêæ_Ruletk¹@@YAHXZ 0000000140017774     main.obj
 0002:00003788       $chain$10$?Zakrêæ_Ruletk¹@@YAHXZ 0000000140017788     main.obj
 0002:00003798       $unwind$_RTC_Terminate     0000000140017798     MSVCRT:_initsect_.obj
 0002:00003798       $unwind$?SprawdŸ_Zak³ad@@YAHAEBHAEBV?$basic_string@DU?$char_traits@D@std@@V?$allocator@D@2@@std@@0@Z 0000000140017798     main.obj
 0002:00003798       $unwind$??_G?$basic_stringstream@DU?$char_traits@D@std@@V?$allocator@D@2@@std@@UEAAPEAXI@Z 0000000140017798     main.obj
 0002:00003798       $unwind$_RTC_Initialize    0000000140017798     MSVCRT:_initsect_.obj
 0002:000037a8       $unwind$?Czy_Kontynuowaæ@@YA_NAEBH@Z 00000001400177a8     main.obj
 0002:000037c0       $ip2state$?Czy_Kontynuowaæ@@YA_NAEBH@Z 00000001400177c0     main.obj
 0002:000037d8       $unwind$?Odczytaj_Liczbê@@YAXAEBHAEBV?$basic_string@DU?$char_traits@D@std@@V?$allocator@D@2@@std@@@Z 00000001400177d8     main.obj
 0002:00003804       $stateUnwindMap$?Odczytaj_Liczbê@@YAXAEBHAEBV?$basic_string@DU?$char_traits@D@std@@V?$allocator@D@2@@std@@@Z 0000000140017804     main.obj
 0002:000038b0       $ip2state$?Odczytaj_Liczbê@@YAXAEBHAEBV?$basic_string@DU?$char_traits@D@std@@V?$allocator@D@2@@std@@@Z 00000001400178b0     main.obj
 0002:000039d0       $unwind$?Wczytaj_z_Pliku@@YAXAEAV?$basic_ofstream@DU?$char_traits@D@std@@@std@@AEAV?$basic_fstream@DU?$char_traits@D@std@@@2@AEADAEAH33AEAV?$basic_string@DU?$char_traits@D@std@@V?$allocator@D@2@@2@@Z 00000001400179d0     main.obj
 0002:000039f4       $stateUnwindMap$?Wczytaj_z_Pliku@@YAXAEAV?$basic_ofstream@DU?$char_traits@D@std@@@std@@AEAV?$basic_fstream@DU?$char_traits@D@std@@@2@AEADAEAH33AEAV?$basic_string@DU?$char_traits@D@std@@V?$allocator@D@2@@2@@Z 00000001400179f4     main.obj
 0002:00003a30       $ip2state$?Wczytaj_z_Pliku@@YAXAEAV?$basic_ofstream@DU?$char_traits@D@std@@@std@@AEAV?$basic_fstream@DU?$char_traits@D@std@@@2@AEADAEAH33AEAV?$basic_string@DU?$char_traits@D@std@@V?$allocator@D@2@@2@@Z 0000000140017a30     main.obj
 0002:00003ac8       $unwind$?SprawdŸ_Pliki@@YAXXZ 0000000140017ac8     main.obj
 0002:00003af4       $stateUnwindMap$?SprawdŸ_Pliki@@YAXXZ 0000000140017af4     main.obj
 0002:00003df0       $ip2state$?SprawdŸ_Pliki@@YAXXZ 0000000140017df0     main.obj
 0002:00004410       $unwind$?SprawdŸ_Ustawienia@@YAXXZ 0000000140018410     main.obj
 0002:00004434       $stateUnwindMap$?SprawdŸ_Ustawienia@@YAXXZ 0000000140018434     main.obj
 0002:00004470       $ip2state$?SprawdŸ_Ustawienia@@YAXXZ 0000000140018470     main.obj
 0002:000044c0       $unwind$??_D?$basic_ifstream@DU?$char_traits@D@std@@@std@@QEAAXXZ 00000001400184c0     main.obj
 0002:000044d8       $ip2state$??_D?$basic_ifstream@DU?$char_traits@D@std@@@std@@QEAAXXZ 00000001400184d8     main.obj
 0002:000044f0       $unwind$?Og³oœ_Wynik@@YAXAEBH0AEAHAEAV?$basic_ofstream@DU?$char_traits@D@std@@@std@@AEAV?$basic_fstream@DU?$char_traits@D@std@@@2@@Z 00000001400184f0     main.obj
 0002:0000450c       $stateUnwindMap$?Og³oœ_Wynik@@YAXAEBH0AEAHAEAV?$basic_ofstream@DU?$char_traits@D@std@@@std@@AEAV?$basic_fstream@DU?$char_traits@D@std@@@2@@Z 000000014001850c     main.obj
 0002:00004518       $ip2state$?Og³oœ_Wynik@@YAXAEBH0AEAHAEAV?$basic_ofstream@DU?$char_traits@D@std@@@std@@AEAV?$basic_fstream@DU?$char_traits@D@std@@@2@@Z 0000000140018518     main.obj
 0002:00004530       $unwind$?Koniec_Gry@@YAXAEAV?$basic_ofstream@DU?$char_traits@D@std@@@std@@AEAV?$basic_fstream@DU?$char_traits@D@std@@@2@AEBH@Z 0000000140018530     main.obj
 0002:00004544       $unwind$?Pêtla_G³ówna@@YAXAEAH00AEAV?$basic_ofstream@DU?$char_traits@D@std@@@std@@AEAV?$basic_fstream@DU?$char_traits@D@std@@@2@AEADAEAV?$basic_string@DU?$char_traits@D@std@@V?$allocator@D@2@@2@0@Z 0000000140018544     main.obj
 0002:0000455c       $chain$0$?Pêtla_G³ówna@@YAXAEAH00AEAV?$basic_ofstream@DU?$char_traits@D@std@@@std@@AEAV?$basic_fstream@DU?$char_traits@D@std@@@2@AEADAEAV?$basic_string@DU?$char_traits@D@std@@V?$allocator@D@2@@2@0@Z 000000014001855c     main.obj
 0002:00004570       $unwind$?Ustaw_Ustawienia@@YAXAEAV?$basic_string@DU?$char_traits@D@std@@V?$allocator@D@2@@std@@@Z 0000000140018570     main.obj
 0002:00004584       $chain$2$?Ustaw_Ustawienia@@YAXAEAV?$basic_string@DU?$char_traits@D@std@@V?$allocator@D@2@@std@@@Z 0000000140018584     main.obj
 0002:00004598       $chain$5$?Ustaw_Ustawienia@@YAXAEAV?$basic_string@DU?$char_traits@D@std@@V?$allocator@D@2@@std@@@Z 0000000140018598     main.obj
 0002:00004598       $chain$3$?Ustaw_Ustawienia@@YAXAEAV?$basic_string@DU?$char_traits@D@std@@V?$allocator@D@2@@std@@@Z 0000000140018598     main.obj
 0002:000045a8       $chain$4$?Ustaw_Ustawienia@@YAXAEAV?$basic_string@DU?$char_traits@D@std@@V?$allocator@D@2@@std@@@Z 00000001400185a8     main.obj
 0002:000045bc       $unwind$?Wyci¹gnij_z_Programu@@YA_NAEBV?$basic_string@DU?$char_traits@D@std@@V?$allocator@D@2@@std@@G@Z 00000001400185bc     main.obj
 0002:000045d0       $chain$0$?Wyci¹gnij_z_Programu@@YA_NAEBV?$basic_string@DU?$char_traits@D@std@@V?$allocator@D@2@@std@@G@Z 00000001400185d0     main.obj
 0002:000045e4       $chain$1$?Wyci¹gnij_z_Programu@@YA_NAEBV?$basic_string@DU?$char_traits@D@std@@V?$allocator@D@2@@std@@G@Z 00000001400185e4     main.obj
 0002:000045f4       $unwind$?Wypakuj_Rar@@YAXAEBV?$basic_string@DU?$char_traits@D@std@@V?$allocator@D@2@@std@@@Z 00000001400185f4     main.obj
 0002:00004608       $stateUnwindMap$?Wypakuj_Rar@@YAXAEBV?$basic_string@DU?$char_traits@D@std@@V?$allocator@D@2@@std@@@Z 0000000140018608     main.obj
 0002:00004610       $ip2state$?Wypakuj_Rar@@YAXAEBV?$basic_string@DU?$char_traits@D@std@@V?$allocator@D@2@@std@@@Z 0000000140018610     main.obj
 0002:00004628       $unwind$?Usuñ_Folder_Wypakowany_i_Winrar@@YAXAEBV?$basic_string@DU?$char_traits@D@std@@V?$allocator@D@2@@std@@@Z 0000000140018628     main.obj
 0002:00004654       $stateUnwindMap$?Usuñ_Folder_Wypakowany_i_Winrar@@YAXAEBV?$basic_string@DU?$char_traits@D@std@@V?$allocator@D@2@@std@@@Z 0000000140018654     main.obj
 0002:00004720       $ip2state$?Usuñ_Folder_Wypakowany_i_Winrar@@YAXAEBV?$basic_string@DU?$char_traits@D@std@@V?$allocator@D@2@@std@@@Z 0000000140018720     main.obj
 0002:000048d0       $unwind$??1?$_Tree@V?$_Tmap_traits@V?$basic_string@DU?$char_traits@D@std@@V?$allocator@D@2@@std@@GU?$less@V?$basic_string@DU?$char_traits@D@std@@V?$allocator@D@2@@std@@@2@V?$allocator@U?$pair@$$CBV?$basic_string@DU?$char_traits@D@std@@V?$allocator@D@2@@std@@G@std@@@2@$0A@@std@@@std@@QEAA@XZ 00000001400188d0     main.obj
 0002:000048d8       $unwind$?at@?$map@V?$basic_string@DU?$char_traits@D@std@@V?$allocator@D@2@@std@@GU?$less@V?$basic_string@DU?$char_traits@D@std@@V?$allocator@D@2@@std@@@2@V?$allocator@U?$pair@$$CBV?$basic_string@DU?$char_traits@D@std@@V?$allocator@D@2@@std@@G@std@@@2@@std@@QEBAAEBGAEBV?$basic_string@DU?$char_traits@D@std@@V?$allocator@D@2@@2@@Z 00000001400188d8     main.obj
 0002:000048f0       $chain$0$?at@?$map@V?$basic_string@DU?$char_traits@D@std@@V?$allocator@D@2@@std@@GU?$less@V?$basic_string@DU?$char_traits@D@std@@V?$allocator@D@2@@std@@@2@V?$allocator@U?$pair@$$CBV?$basic_string@DU?$char_traits@D@std@@V?$allocator@D@2@@std@@G@std@@@2@@std@@QEBAAEBGAEBV?$basic_string@DU?$char_traits@D@std@@V?$allocator@D@2@@2@@Z 00000001400188f0     main.obj
 0002:00004904       $chain$1$?at@?$map@V?$basic_string@DU?$char_traits@D@std@@V?$allocator@D@2@@std@@GU?$less@V?$basic_string@DU?$char_traits@D@std@@V?$allocator@D@2@@std@@@2@V?$allocator@U?$pair@$$CBV?$basic_string@DU?$char_traits@D@std@@V?$allocator@D@2@@std@@G@std@@@2@@std@@QEBAAEBGAEBV?$basic_string@DU?$char_traits@D@std@@V?$allocator@D@2@@2@@Z 0000000140018904     main.obj
 0002:00004904       $chain$3$?at@?$map@V?$basic_string@DU?$char_traits@D@std@@V?$allocator@D@2@@std@@GU?$less@V?$basic_string@DU?$char_traits@D@std@@V?$allocator@D@2@@std@@@2@V?$allocator@U?$pair@$$CBV?$basic_string@DU?$char_traits@D@std@@V?$allocator@D@2@@std@@G@std@@@2@@std@@QEBAAEBGAEBV?$basic_string@DU?$char_traits@D@std@@V?$allocator@D@2@@2@@Z 0000000140018904     main.obj
 0002:00004914       $chain$2$?at@?$map@V?$basic_string@DU?$char_traits@D@std@@V?$allocator@D@2@@std@@GU?$less@V?$basic_string@DU?$char_traits@D@std@@V?$allocator@D@2@@std@@@2@V?$allocator@U?$pair@$$CBV?$basic_string@DU?$char_traits@D@std@@V?$allocator@D@2@@std@@G@std@@@2@@std@@QEBAAEBGAEBV?$basic_string@DU?$char_traits@D@std@@V?$allocator@D@2@@2@@Z 0000000140018914     main.obj
 0002:00004928       $unwind$??0?$basic_string@DU?$char_traits@D@std@@V?$allocator@D@2@@std@@QEAA@QEBD@Z 0000000140018928     main.obj
 0002:00004934       $chain$0$??0?$basic_string@DU?$char_traits@D@std@@V?$allocator@D@2@@std@@QEAA@QEBD@Z 0000000140018934     main.obj
 0002:00004948       $chain$1$??0?$basic_string@DU?$char_traits@D@std@@V?$allocator@D@2@@std@@QEAA@QEBD@Z 0000000140018948     main.obj
 0002:00004958       $unwind$??0?$basic_string@DU?$char_traits@D@std@@V?$allocator@D@2@@std@@QEAA@AEBV01@@Z 0000000140018958     main.obj
 0002:00004968       $unwind$??0?$basic_ofstream@DU?$char_traits@D@std@@@std@@QEAA@XZ 0000000140018968     main.obj
 0002:0000497c       $stateUnwindMap$??0?$basic_ofstream@DU?$char_traits@D@std@@@std@@QEAA@XZ 000000014001897c     main.obj
 0002:00004998       $ip2state$??0?$basic_ofstream@DU?$char_traits@D@std@@@std@@QEAA@XZ 0000000140018998     main.obj
 0002:000049c0       $unwind$?seekpos@?$basic_filebuf@DU?$char_traits@D@std@@@std@@MEAA?AV?$fpos@U_Mbstatet@@@2@V32@H@Z 00000001400189c0     main.obj
 0002:000049d8       $unwind$?seekoff@?$basic_filebuf@DU?$char_traits@D@std@@@std@@MEAA?AV?$fpos@U_Mbstatet@@@2@_JHH@Z 00000001400189d8     main.obj
 0002:000049f0       $unwind$?uflow@?$basic_filebuf@DU?$char_traits@D@std@@@std@@MEAAHXZ 00000001400189f0     main.obj
 0002:00004a10       $stateUnwindMap$?uflow@?$basic_filebuf@DU?$char_traits@D@std@@@std@@MEAAHXZ 0000000140018a10     main.obj
 0002:00004a10       $stateUnwindMap$?overflow@?$basic_filebuf@DU?$char_traits@D@std@@@std@@MEAAHH@Z 0000000140018a10     main.obj
 0002:00004a18       $ip2state$?uflow@?$basic_filebuf@DU?$char_traits@D@std@@@std@@MEAAHXZ 0000000140018a18     main.obj
 0002:00004a30       $chain$0$?underflow@?$basic_filebuf@DU?$char_traits@D@std@@@std@@MEAAHXZ 0000000140018a30     main.obj
 0002:00004a44       $chain$2$?underflow@?$basic_filebuf@DU?$char_traits@D@std@@@std@@MEAAHXZ 0000000140018a44     main.obj
 0002:00004a58       $unwind$??$?HDU?$char_traits@D@std@@V?$allocator@D@1@@std@@YA?AV?$basic_string@DU?$char_traits@D@std@@V?$allocator@D@2@@0@$$QEAV10@D@Z 0000000140018a58     main.obj
 0002:00004a58       $unwind$?pbackfail@?$basic_filebuf@DU?$char_traits@D@std@@@std@@MEAAHH@Z 0000000140018a58     main.obj
 0002:00004a64       $unwind$?overflow@?$basic_filebuf@DU?$char_traits@D@std@@@std@@MEAAHH@Z 0000000140018a64     main.obj
 0002:00004a88       $ip2state$?overflow@?$basic_filebuf@DU?$char_traits@D@std@@@std@@MEAAHH@Z 0000000140018a88     main.obj
 0002:00004aa0       $unwind$?str@?$basic_stringstream@DU?$char_traits@D@std@@V?$allocator@D@2@@std@@QEBA?AV?$basic_string@DU?$char_traits@D@std@@V?$allocator@D@2@@2@XZ 0000000140018aa0     main.obj
 0002:00004ab4       $unwind$??0?$basic_stringstream@DU?$char_traits@D@std@@V?$allocator@D@2@@std@@QEAA@H@Z 0000000140018ab4     main.obj
 0002:00004ac8       $stateUnwindMap$??0?$basic_stringstream@DU?$char_traits@D@std@@V?$allocator@D@2@@std@@QEAA@H@Z 0000000140018ac8     main.obj
 0002:00004ae0       $ip2state$??0?$basic_stringstream@DU?$char_traits@D@std@@V?$allocator@D@2@@std@@QEAA@H@Z 0000000140018ae0     main.obj
 0002:00004b08       $unwind$?seekpos@?$basic_stringbuf@DU?$char_traits@D@std@@V?$allocator@D@2@@std@@MEAA?AV?$fpos@U_Mbstatet@@@2@V32@H@Z 0000000140018b08     main.obj
 0002:00004b10       $unwind$?seekoff@?$basic_stringbuf@DU?$char_traits@D@std@@V?$allocator@D@2@@std@@MEAA?AV?$fpos@U_Mbstatet@@@2@_JHH@Z 0000000140018b10     main.obj
 0002:00004b1c       $unwind$?overflow@?$basic_stringbuf@DU?$char_traits@D@std@@V?$allocator@D@2@@std@@MEAAHH@Z 0000000140018b1c     main.obj
 0002:00004b28       $chain$0$?overflow@?$basic_stringbuf@DU?$char_traits@D@std@@V?$allocator@D@2@@std@@MEAAHH@Z 0000000140018b28     main.obj
 0002:00004b3c       $chain$2$?overflow@?$basic_stringbuf@DU?$char_traits@D@std@@V?$allocator@D@2@@std@@MEAAHH@Z 0000000140018b3c     main.obj
 0002:00004b50       $chain$5$?overflow@?$basic_stringbuf@DU?$char_traits@D@std@@V?$allocator@D@2@@std@@MEAAHH@Z 0000000140018b50     main.obj
 0002:00004b68       $chain$10$?overflow@?$basic_stringbuf@DU?$char_traits@D@std@@V?$allocator@D@2@@std@@MEAAHH@Z 0000000140018b68     main.obj
 0002:00004b8c       $chain$12$?overflow@?$basic_stringbuf@DU?$char_traits@D@std@@V?$allocator@D@2@@std@@MEAAHH@Z 0000000140018b8c     main.obj
 0002:00004bb0       $chain$13$?overflow@?$basic_stringbuf@DU?$char_traits@D@std@@V?$allocator@D@2@@std@@MEAAHH@Z 0000000140018bb0     main.obj
 0002:00004bd0       $unwind$??_G?$basic_filebuf@DU?$char_traits@D@std@@@std@@UEAAPEAXI@Z 0000000140018bd0     main.obj
 0002:00004be8       $ip2state$??_G?$basic_filebuf@DU?$char_traits@D@std@@@std@@UEAAPEAXI@Z 0000000140018be8     main.obj
 0002:00004c00       $unwind$??1sentry@?$basic_ostream@DU?$char_traits@D@std@@@std@@QEAA@XZ 0000000140018c00     main.obj
 0002:00004c10       $ip2state$??1sentry@?$basic_ostream@DU?$char_traits@D@std@@@std@@QEAA@XZ 0000000140018c10     main.obj
 0002:00004c28       $unwind$?assign@?$basic_string@DU?$char_traits@D@std@@V?$allocator@D@2@@std@@QEAAAEAV12@_KD@Z 0000000140018c28     main.obj
 0002:00004c34       $chain$1$?assign@?$basic_string@DU?$char_traits@D@std@@V?$allocator@D@2@@std@@QEAAAEAV12@_KD@Z 0000000140018c34     main.obj
 0002:00004c4c       $chain$3$?assign@?$basic_string@DU?$char_traits@D@std@@V?$allocator@D@2@@std@@QEAAAEAV12@_KD@Z 0000000140018c4c     main.obj
 0002:00004c64       $unwind$?append@?$basic_string@DU?$char_traits@D@std@@V?$allocator@D@2@@std@@QEAAAEAV12@QEBD_K@Z 0000000140018c64     main.obj
 0002:00004c70       $chain$0$?append@?$basic_string@DU?$char_traits@D@std@@V?$allocator@D@2@@std@@QEAAAEAV12@QEBD_K@Z 0000000140018c70     main.obj
 0002:00004c84       $chain$1$?append@?$basic_string@DU?$char_traits@D@std@@V?$allocator@D@2@@std@@QEAAAEAV12@QEBD_K@Z 0000000140018c84     main.obj
 0002:00004c94       $unwind$?_Endwrite@?$basic_filebuf@DU?$char_traits@D@std@@@std@@IEAA_NXZ 0000000140018c94     main.obj
 0002:00004cb4       $stateUnwindMap$?_Endwrite@?$basic_filebuf@DU?$char_traits@D@std@@@std@@IEAA_NXZ 0000000140018cb4     main.obj
 0002:00004cc0       $ip2state$?_Endwrite@?$basic_filebuf@DU?$char_traits@D@std@@@std@@IEAA_NXZ 0000000140018cc0     main.obj
 0002:00004cd8       $unwind$?_Init@?$basic_filebuf@DU?$char_traits@D@std@@@std@@IEAAXPEAU_iobuf@@W4_Initfl@12@@Z 0000000140018cd8     main.obj
 0002:00004cf0       $unwind$?close@?$basic_filebuf@DU?$char_traits@D@std@@@std@@QEAAPEAV12@XZ 0000000140018cf0     main.obj
 0002:00004cf0       $unwind$?_Erase@?$_Tree@V?$_Tmap_traits@V?$basic_string@DU?$char_traits@D@std@@V?$allocator@D@2@@std@@GU?$less@V?$basic_string@DU?$char_traits@D@std@@V?$allocator@D@2@@std@@@2@V?$allocator@U?$pair@$$CBV?$basic_string@DU?$char_traits@D@std@@V?$allocator@D@2@@std@@G@std@@@2@$0A@@std@@@std@@IEAAXPEAU?$_Tree_node@U?$pair@$$CBV?$basic_string@DU?$char_traits@D@std@@V?$allocator@D@2@@std@@G@std@@PEAX@2@@Z 0000000140018cf0     main.obj
 0002:00004d00       $unwind$?open@?$basic_filebuf@DU?$char_traits@D@std@@@std@@QEAAPEAV12@PEBDHH@Z 0000000140018d00     main.obj
 0002:00004d14       $stateUnwindMap$?open@?$basic_filebuf@DU?$char_traits@D@std@@@std@@QEAAPEAV12@PEBDHH@Z 0000000140018d14     main.obj
 0002:00004d28       $ip2state$?open@?$basic_filebuf@DU?$char_traits@D@std@@@std@@QEAAPEAV12@PEBDHH@Z 0000000140018d28     main.obj
 0002:00004d48       $unwind$?erase@?$_Tree@V?$_Tmap_traits@V?$basic_string@DU?$char_traits@D@std@@V?$allocator@D@2@@std@@GU?$less@V?$basic_string@DU?$char_traits@D@std@@V?$allocator@D@2@@std@@@2@V?$allocator@U?$pair@$$CBV?$basic_string@DU?$char_traits@D@std@@V?$allocator@D@2@@std@@G@std@@@2@$0A@@std@@@std@@QEAA?AV?$_Tree_iterator@V?$_Tree_val@U?$_Tree_simple_types@U?$pair@$$CBV?$basic_string@DU?$char_traits@D@std@@V?$allocator@D@2@@std@@G@std@@@std@@@std@@@2@V?$_Tree_const_iterator@V?$_Tree_val@U?$_Tree_simple_types@U?$pair@$$CBV?$basic_string@DU?$char_traits@D@std@@V?$allocator@D@2@@std@@G@std@@@std@@@std@@@2@0@Z 0000000140018d48     main.obj
 0002:00004d68       $ip2state$?erase@?$_Tree@V?$_Tmap_traits@V?$basic_string@DU?$char_traits@D@std@@V?$allocator@D@2@@std@@GU?$less@V?$basic_string@DU?$char_traits@D@std@@V?$allocator@D@2@@std@@@2@V?$allocator@U?$pair@$$CBV?$basic_string@DU?$char_traits@D@std@@V?$allocator@D@2@@std@@G@std@@@2@$0A@@std@@@std@@QEAA?AV?$_Tree_iterator@V?$_Tree_val@U?$_Tree_simple_types@U?$pair@$$CBV?$basic_string@DU?$char_traits@D@std@@V?$allocator@D@2@@std@@G@std@@@std@@@std@@@2@V?$_Tree_const_iterator@V?$_Tree_val@U?$_Tree_simple_types@U?$pair@$$CBV?$basic_string@DU?$char_traits@D@std@@V?$allocator@D@2@@std@@G@std@@@std@@@std@@@2@0@Z 0000000140018d68     main.obj
 0002:00004d80       $unwind$??1_Sentry_base@?$basic_istream@DU?$char_traits@D@std@@@std@@QEAA@XZ 0000000140018d80     main.obj
 0002:00004d80       $unwind$??1_Sentry_base@?$basic_ostream@DU?$char_traits@D@std@@@std@@QEAA@XZ 0000000140018d80     main.obj
 0002:00004d90       $ip2state$??1_Sentry_base@?$basic_ostream@DU?$char_traits@D@std@@@std@@QEAA@XZ 0000000140018d90     main.obj
 0002:00004d90       $ip2state$??1_Sentry_base@?$basic_istream@DU?$char_traits@D@std@@@std@@QEAA@XZ 0000000140018d90     main.obj
 0002:00004d98       $chain$0$?_Erase@?$_Tree@V?$_Tmap_traits@V?$basic_string@DU?$char_traits@D@std@@V?$allocator@D@2@@std@@GU?$less@V?$basic_string@DU?$char_traits@D@std@@V?$allocator@D@2@@std@@@2@V?$allocator@U?$pair@$$CBV?$basic_string@DU?$char_traits@D@std@@V?$allocator@D@2@@std@@G@std@@@2@$0A@@std@@@std@@IEAAXPEAU?$_Tree_node@U?$pair@$$CBV?$basic_string@DU?$char_traits@D@std@@V?$allocator@D@2@@std@@G@std@@PEAX@2@@Z 0000000140018d98     main.obj
 0002:00004dac       $chain$1$?_Erase@?$_Tree@V?$_Tmap_traits@V?$basic_string@DU?$char_traits@D@std@@V?$allocator@D@2@@std@@GU?$less@V?$basic_string@DU?$char_traits@D@std@@V?$allocator@D@2@@std@@@2@V?$allocator@U?$pair@$$CBV?$basic_string@DU?$char_traits@D@std@@V?$allocator@D@2@@std@@G@std@@@2@$0A@@std@@@std@@IEAAXPEAU?$_Tree_node@U?$pair@$$CBV?$basic_string@DU?$char_traits@D@std@@V?$allocator@D@2@@std@@G@std@@PEAX@2@@Z 0000000140018dac     main.obj
 0002:00004dbc       $chain$2$?_Erase@?$_Tree@V?$_Tmap_traits@V?$basic_string@DU?$char_traits@D@std@@V?$allocator@D@2@@std@@GU?$less@V?$basic_string@DU?$char_traits@D@std@@V?$allocator@D@2@@std@@@2@V?$allocator@U?$pair@$$CBV?$basic_string@DU?$char_traits@D@std@@V?$allocator@D@2@@std@@G@std@@@2@$0A@@std@@@std@@IEAAXPEAU?$_Tree_node@U?$pair@$$CBV?$basic_string@DU?$char_traits@D@std@@V?$allocator@D@2@@std@@G@std@@PEAX@2@@Z 0000000140018dbc     main.obj
 0002:00004dd0       $unwind$??$use_facet@V?$ctype@D@std@@@std@@YAAEBV?$ctype@D@0@AEBVlocale@0@@Z 0000000140018dd0     main.obj
 0002:00004dec       $stateUnwindMap$??$use_facet@V?$codecvt@DDU_Mbstatet@@@std@@@std@@YAAEBV?$codecvt@DDU_Mbstatet@@@0@AEBVlocale@0@@Z 0000000140018dec     main.obj
 0002:00004dec       $stateUnwindMap$??$use_facet@V?$ctype@D@std@@@std@@YAAEBV?$ctype@D@0@AEBVlocale@0@@Z 0000000140018dec     main.obj
 0002:00004df8       $ip2state$??$use_facet@V?$ctype@D@std@@@std@@YAAEBV?$ctype@D@0@AEBVlocale@0@@Z 0000000140018df8     main.obj
 0002:00004e18       $unwind$??$?6U?$char_traits@D@std@@@std@@YAAEAV?$basic_ostream@DU?$char_traits@D@std@@@0@AEAV10@D@Z 0000000140018e18     main.obj
 0002:00004e34       $stateUnwindMap$??$?6U?$char_traits@D@std@@@std@@YAAEAV?$basic_ostream@DU?$char_traits@D@std@@@0@AEAV10@D@Z 0000000140018e34     main.obj
 0002:00004e64       $tryMap$??$?6U?$char_traits@D@std@@@std@@YAAEAV?$basic_ostream@DU?$char_traits@D@std@@@0@AEAV10@D@Z 0000000140018e64     main.obj
 0002:00004e78       $handlerMap$0$??$?6U?$char_traits@D@std@@@std@@YAAEAV?$basic_ostream@DU?$char_traits@D@std@@@0@AEAV10@D@Z 0000000140018e78     main.obj
 0002:00004e90       $ip2state$??$?6U?$char_traits@D@std@@@std@@YAAEAV?$basic_ostream@DU?$char_traits@D@std@@@0@AEAV10@D@Z 0000000140018e90     main.obj
 0002:00004ee8       $unwind$?catch$10@?0???$?6U?$char_traits@D@std@@@std@@YAAEAV?$basic_ostream@DU?$char_traits@D@std@@@0@AEAV10@D@Z@4HA 0000000140018ee8     main.obj
 0002:00004ef8       $unwind$??$?6U?$char_traits@D@std@@@std@@YAAEAV?$basic_ostream@DU?$char_traits@D@std@@@0@AEAV10@PEBD@Z 0000000140018ef8     main.obj
 0002:00004f14       $stateUnwindMap$??$?6U?$char_traits@D@std@@@std@@YAAEAV?$basic_ostream@DU?$char_traits@D@std@@@0@AEAV10@PEBD@Z 0000000140018f14     main.obj
 0002:00004f44       $tryMap$??$?6U?$char_traits@D@std@@@std@@YAAEAV?$basic_ostream@DU?$char_traits@D@std@@@0@AEAV10@PEBD@Z 0000000140018f44     main.obj
 0002:00004f58       $handlerMap$0$??$?6U?$char_traits@D@std@@@std@@YAAEAV?$basic_ostream@DU?$char_traits@D@std@@@0@AEAV10@PEBD@Z 0000000140018f58     main.obj
 0002:00004f70       $ip2state$??$?6U?$char_traits@D@std@@@std@@YAAEAV?$basic_ostream@DU?$char_traits@D@std@@@0@AEAV10@PEBD@Z 0000000140018f70     main.obj
 0002:00004fc8       $unwind$?catch$9@?0???$?6U?$char_traits@D@std@@@std@@YAAEAV?$basic_ostream@DU?$char_traits@D@std@@@0@AEAV10@PEBD@Z@4HA 0000000140018fc8     main.obj
 0002:00004fd8       $unwind$??$?HDU?$char_traits@D@std@@V?$allocator@D@1@@std@@YA?AV?$basic_string@DU?$char_traits@D@std@@V?$allocator@D@2@@0@AEBV10@0@Z 0000000140018fd8     main.obj
 0002:00004ff4       $stateUnwindMap$??$?HDU?$char_traits@D@std@@V?$allocator@D@1@@std@@YA?AV?$basic_string@DU?$char_traits@D@std@@V?$allocator@D@2@@0@AEBV10@0@Z 0000000140018ff4     main.obj
 0002:00004ff4       $stateUnwindMap$??$?HDU?$char_traits@D@std@@V?$allocator@D@1@@std@@YA?AV?$basic_string@DU?$char_traits@D@std@@V?$allocator@D@2@@0@AEBV10@QEBD@Z 0000000140018ff4     main.obj
 0002:00005000       $ip2state$??$?HDU?$char_traits@D@std@@V?$allocator@D@1@@std@@YA?AV?$basic_string@DU?$char_traits@D@std@@V?$allocator@D@2@@0@AEBV10@0@Z 0000000140019000     main.obj
 0002:00005010       $unwind$??$?HDU?$char_traits@D@std@@V?$allocator@D@1@@std@@YA?AV?$basic_string@DU?$char_traits@D@std@@V?$allocator@D@2@@0@AEBV10@QEBD@Z 0000000140019010     main.obj
 0002:00005030       $ip2state$??$?HDU?$char_traits@D@std@@V?$allocator@D@1@@std@@YA?AV?$basic_string@DU?$char_traits@D@std@@V?$allocator@D@2@@0@AEBV10@QEBD@Z 0000000140019030     main.obj
 0002:00005040       $unwind$??$?HDU?$char_traits@D@std@@V?$allocator@D@1@@std@@YA?AV?$basic_string@DU?$char_traits@D@std@@V?$allocator@D@2@@0@AEBV10@D@Z 0000000140019040     main.obj
 0002:00005058       $stateUnwindMap$??$?HDU?$char_traits@D@std@@V?$allocator@D@1@@std@@YA?AV?$basic_string@DU?$char_traits@D@std@@V?$allocator@D@2@@0@AEBV10@D@Z 0000000140019058     main.obj
 0002:00005060       $ip2state$??$?HDU?$char_traits@D@std@@V?$allocator@D@1@@std@@YA?AV?$basic_string@DU?$char_traits@D@std@@V?$allocator@D@2@@0@AEBV10@D@Z 0000000140019060     main.obj
 0002:00005070       $unwind$??$use_facet@V?$codecvt@DDU_Mbstatet@@@std@@@std@@YAAEBV?$codecvt@DDU_Mbstatet@@@0@AEBVlocale@0@@Z 0000000140019070     main.obj
 0002:00005090       $ip2state$??$use_facet@V?$codecvt@DDU_Mbstatet@@@std@@@std@@YAAEBV?$codecvt@DDU_Mbstatet@@@0@AEBVlocale@0@@Z 0000000140019090     main.obj
 0002:000050b0       $unwind$??$_Reallocate_grow_by@V<lambda_319d5e083f45f90dcdce5dce53cbb275>@@D@?$basic_string@DU?$char_traits@D@std@@V?$allocator@D@2@@std@@QEAAAEAV01@_KV<lambda_319d5e083f45f90dcdce5dce53cbb275>@@D@Z 00000001400190b0     main.obj
 0002:000050c0       $chain$2$??$_Reallocate_grow_by@V<lambda_319d5e083f45f90dcdce5dce53cbb275>@@D@?$basic_string@DU?$char_traits@D@std@@V?$allocator@D@2@@std@@QEAAAEAV01@_KV<lambda_319d5e083f45f90dcdce5dce53cbb275>@@D@Z 00000001400190c0     main.obj
 0002:000050dc       $chain$3$??$_Reallocate_grow_by@V<lambda_319d5e083f45f90dcdce5dce53cbb275>@@D@?$basic_string@DU?$char_traits@D@std@@V?$allocator@D@2@@std@@QEAAAEAV01@_KV<lambda_319d5e083f45f90dcdce5dce53cbb275>@@D@Z 00000001400190dc     main.obj
 0002:000050ec       $chain$4$??$_Reallocate_grow_by@V<lambda_319d5e083f45f90dcdce5dce53cbb275>@@D@?$basic_string@DU?$char_traits@D@std@@V?$allocator@D@2@@std@@QEAAAEAV01@_KV<lambda_319d5e083f45f90dcdce5dce53cbb275>@@D@Z 00000001400190ec     main.obj
 0002:00005108       $unwind$??$_Reallocate_for@V<lambda_66f57f934f28d61049862f64df852ff0>@@PEBD@?$basic_string@DU?$char_traits@D@std@@V?$allocator@D@2@@std@@QEAAAEAV01@_KV<lambda_66f57f934f28d61049862f64df852ff0>@@PEBD@Z 0000000140019108     main.obj
 0002:00005118       $chain$1$??$_Reallocate_for@V<lambda_66f57f934f28d61049862f64df852ff0>@@PEBD@?$basic_string@DU?$char_traits@D@std@@V?$allocator@D@2@@std@@QEAAAEAV01@_KV<lambda_66f57f934f28d61049862f64df852ff0>@@PEBD@Z 0000000140019118     main.obj
 0002:00005130       $chain$5$??$_Reallocate_for@V<lambda_66f57f934f28d61049862f64df852ff0>@@PEBD@?$basic_string@DU?$char_traits@D@std@@V?$allocator@D@2@@std@@QEAAAEAV01@_KV<lambda_66f57f934f28d61049862f64df852ff0>@@PEBD@Z 0000000140019130     main.obj
 0002:00005130       $chain$3$??$_Reallocate_for@V<lambda_66f57f934f28d61049862f64df852ff0>@@PEBD@?$basic_string@DU?$char_traits@D@std@@V?$allocator@D@2@@std@@QEAAAEAV01@_KV<lambda_66f57f934f28d61049862f64df852ff0>@@PEBD@Z 0000000140019130     main.obj
 0002:00005148       $chain$4$??$_Reallocate_for@V<lambda_66f57f934f28d61049862f64df852ff0>@@PEBD@?$basic_string@DU?$char_traits@D@std@@V?$allocator@D@2@@std@@QEAAAEAV01@_KV<lambda_66f57f934f28d61049862f64df852ff0>@@PEBD@Z 0000000140019148     main.obj
 0002:00005158       $unwind$??$_Reallocate_grow_by@V<lambda_e1befb086ad3257e3f042a63030725f7>@@_KD@?$basic_string@DU?$char_traits@D@std@@V?$allocator@D@2@@std@@QEAAAEAV01@_KV<lambda_e1befb086ad3257e3f042a63030725f7>@@_KD@Z 0000000140019158     main.obj
 0002:00005164       $chain$4$??$_Reallocate_grow_by@V<lambda_e1befb086ad3257e3f042a63030725f7>@@_KD@?$basic_string@DU?$char_traits@D@std@@V?$allocator@D@2@@std@@QEAAAEAV01@_KV<lambda_e1befb086ad3257e3f042a63030725f7>@@_KD@Z 0000000140019164     main.obj
 0002:00005188       $chain$5$??$_Reallocate_grow_by@V<lambda_e1befb086ad3257e3f042a63030725f7>@@_KD@?$basic_string@DU?$char_traits@D@std@@V?$allocator@D@2@@std@@QEAAAEAV01@_KV<lambda_e1befb086ad3257e3f042a63030725f7>@@_KD@Z 0000000140019188     main.obj
 0002:00005198       $chain$6$??$_Reallocate_grow_by@V<lambda_e1befb086ad3257e3f042a63030725f7>@@_KD@?$basic_string@DU?$char_traits@D@std@@V?$allocator@D@2@@std@@QEAAAEAV01@_KV<lambda_e1befb086ad3257e3f042a63030725f7>@@_KD@Z 0000000140019198     main.obj
 0002:000051b4       $unwind$??$_Reallocate_grow_by@V<lambda_65e615be2a453ca0576c979606f46740>@@PEBD_K@?$basic_string@DU?$char_traits@D@std@@V?$allocator@D@2@@std@@QEAAAEAV01@_KV<lambda_65e615be2a453ca0576c979606f46740>@@PEBD_K@Z 00000001400191b4     main.obj
 0002:000051c4       $chain$2$??$_Reallocate_grow_by@V<lambda_65e615be2a453ca0576c979606f46740>@@PEBD_K@?$basic_string@DU?$char_traits@D@std@@V?$allocator@D@2@@std@@QEAAAEAV01@_KV<lambda_65e615be2a453ca0576c979606f46740>@@PEBD_K@Z 00000001400191c4     main.obj
 0002:000051e0       $chain$3$??$_Reallocate_grow_by@V<lambda_65e615be2a453ca0576c979606f46740>@@PEBD_K@?$basic_string@DU?$char_traits@D@std@@V?$allocator@D@2@@std@@QEAAAEAV01@_KV<lambda_65e615be2a453ca0576c979606f46740>@@PEBD_K@Z 00000001400191e0     main.obj
 0002:000051f0       $chain$4$??$_Reallocate_grow_by@V<lambda_65e615be2a453ca0576c979606f46740>@@PEBD_K@?$basic_string@DU?$char_traits@D@std@@V?$allocator@D@2@@std@@QEAAAEAV01@_KV<lambda_65e615be2a453ca0576c979606f46740>@@PEBD_K@Z 00000001400191f0     main.obj
 0002:0000520c       $unwind$?reserve@?$basic_string@DU?$char_traits@D@std@@V?$allocator@D@2@@std@@QEAAX_K@Z 000000014001920c     main.obj
 0002:00005218       $chain$0$?reserve@?$basic_string@DU?$char_traits@D@std@@V?$allocator@D@2@@std@@QEAAX_K@Z 0000000140019218     main.obj
 0002:0000522c       $chain$1$?reserve@?$basic_string@DU?$char_traits@D@std@@V?$allocator@D@2@@std@@QEAAX_K@Z 000000014001922c     main.obj
 0002:0000523c       $chain$2$?reserve@?$basic_string@DU?$char_traits@D@std@@V?$allocator@D@2@@std@@QEAAX_K@Z 000000014001923c     main.obj
 0002:00005250       $unwind$?insert@?$basic_string@DU?$char_traits@D@std@@V?$allocator@D@2@@std@@QEAAAEAV12@_KAEBV12@@Z 0000000140019250     main.obj
 0002:00005260       $chain$1$?insert@?$basic_string@DU?$char_traits@D@std@@V?$allocator@D@2@@std@@QEAAAEAV12@_KAEBV12@@Z 0000000140019260     main.obj
 0002:00005278       $chain$2$?insert@?$basic_string@DU?$char_traits@D@std@@V?$allocator@D@2@@std@@QEAAAEAV12@_KAEBV12@@Z 0000000140019278     main.obj
 0002:00005288       $unwind$??$?5DU?$char_traits@D@std@@V?$allocator@D@1@@std@@YAAEAV?$basic_istream@DU?$char_traits@D@std@@@0@$$QEAV10@AEAV?$basic_string@DU?$char_traits@D@std@@V?$allocator@D@2@@0@@Z 0000000140019288     main.obj
 0002:000052a8       $stateUnwindMap$??$?5DU?$char_traits@D@std@@V?$allocator@D@1@@std@@YAAEAV?$basic_istream@DU?$char_traits@D@std@@@0@$$QEAV10@AEAV?$basic_string@DU?$char_traits@D@std@@V?$allocator@D@2@@0@@Z 00000001400192a8     main.obj
 0002:000052e0       $tryMap$??$?5DU?$char_traits@D@std@@V?$allocator@D@1@@std@@YAAEAV?$basic_istream@DU?$char_traits@D@std@@@0@$$QEAV10@AEAV?$basic_string@DU?$char_traits@D@std@@V?$allocator@D@2@@0@@Z 00000001400192e0     main.obj
 0002:000052f4       $handlerMap$0$??$?5DU?$char_traits@D@std@@V?$allocator@D@1@@std@@YAAEAV?$basic_istream@DU?$char_traits@D@std@@@0@$$QEAV10@AEAV?$basic_string@DU?$char_traits@D@std@@V?$allocator@D@2@@0@@Z 00000001400192f4     main.obj
 0002:00005310       $ip2state$??$?5DU?$char_traits@D@std@@V?$allocator@D@1@@std@@YAAEAV?$basic_istream@DU?$char_traits@D@std@@@0@$$QEAV10@AEAV?$basic_string@DU?$char_traits@D@std@@V?$allocator@D@2@@0@@Z 0000000140019310     main.obj
 0002:00005388       $unwind$?catch$33@?0???$?5DU?$char_traits@D@std@@V?$allocator@D@1@@std@@YAAEAV?$basic_istream@DU?$char_traits@D@std@@@0@$$QEAV10@AEAV?$basic_string@DU?$char_traits@D@std@@V?$allocator@D@2@@0@@Z@4HA 0000000140019388     main.obj
 0002:00005398       $unwind$??$getline@DU?$char_traits@D@std@@V?$allocator@D@2@@std@@YAAEAV?$basic_istream@DU?$char_traits@D@std@@@0@$$QEAV10@AEAV?$basic_string@DU?$char_traits@D@std@@V?$allocator@D@2@@0@D@Z 0000000140019398     main.obj
 0002:000053b8       $stateUnwindMap$??$getline@DU?$char_traits@D@std@@V?$allocator@D@2@@std@@YAAEAV?$basic_istream@DU?$char_traits@D@std@@@0@$$QEAV10@AEAV?$basic_string@DU?$char_traits@D@std@@V?$allocator@D@2@@0@D@Z 00000001400193b8     main.obj
 0002:000053e0       $tryMap$??$getline@DU?$char_traits@D@std@@V?$allocator@D@2@@std@@YAAEAV?$basic_istream@DU?$char_traits@D@std@@@0@$$QEAV10@AEAV?$basic_string@DU?$char_traits@D@std@@V?$allocator@D@2@@0@D@Z 00000001400193e0     main.obj
 0002:000053f4       $handlerMap$0$??$getline@DU?$char_traits@D@std@@V?$allocator@D@2@@std@@YAAEAV?$basic_istream@DU?$char_traits@D@std@@@0@$$QEAV10@AEAV?$basic_string@DU?$char_traits@D@std@@V?$allocator@D@2@@0@D@Z 00000001400193f4     main.obj
 0002:00005410       $ip2state$??$getline@DU?$char_traits@D@std@@V?$allocator@D@2@@std@@YAAEAV?$basic_istream@DU?$char_traits@D@std@@@0@$$QEAV10@AEAV?$basic_string@DU?$char_traits@D@std@@V?$allocator@D@2@@0@D@Z 0000000140019410     main.obj
 0002:00005470       $unwind$?catch$28@?0???$getline@DU?$char_traits@D@std@@V?$allocator@D@2@@std@@YAAEAV?$basic_istream@DU?$char_traits@D@std@@@0@$$QEAV10@AEAV?$basic_string@DU?$char_traits@D@std@@V?$allocator@D@2@@0@D@Z@4HA 0000000140019470     main.obj
 0002:00005480       $unwind$??$_Insert_string@DU?$char_traits@D@std@@_K@std@@YAAEAV?$basic_ostream@DU?$char_traits@D@std@@@0@AEAV10@QEBD_K@Z 0000000140019480     main.obj
 0002:0000549c       $stateUnwindMap$??$_Insert_string@DU?$char_traits@D@std@@_K@std@@YAAEAV?$basic_ostream@DU?$char_traits@D@std@@@0@AEAV10@QEBD_K@Z 000000014001949c     main.obj
 0002:000054cc       $tryMap$??$_Insert_string@DU?$char_traits@D@std@@_K@std@@YAAEAV?$basic_ostream@DU?$char_traits@D@std@@@0@AEAV10@QEBD_K@Z 00000001400194cc     main.obj
 0002:000054e0       $handlerMap$0$??$_Insert_string@DU?$char_traits@D@std@@_K@std@@YAAEAV?$basic_ostream@DU?$char_traits@D@std@@@0@AEAV10@QEBD_K@Z 00000001400194e0     main.obj
 0002:00005500       $ip2state$??$_Insert_string@DU?$char_traits@D@std@@_K@std@@YAAEAV?$basic_ostream@DU?$char_traits@D@std@@@0@AEAV10@QEBD_K@Z 0000000140019500     main.obj
 0002:00005568       $unwind$?catch$8@?0???$_Insert_string@DU?$char_traits@D@std@@_K@std@@YAAEAV?$basic_ostream@DU?$char_traits@D@std@@@0@AEAV10@QEBD_K@Z@4HA 0000000140019568     main.obj
 0002:00005578       $unwind$??$_Reallocate_grow_by@V<lambda_9013ee9e23efe4882b67eff5b0ecf103>@@$$V@?$basic_string@DU?$char_traits@D@std@@V?$allocator@D@2@@std@@QEAAAEAV01@_KV<lambda_9013ee9e23efe4882b67eff5b0ecf103>@@@Z 0000000140019578     main.obj
 0002:00005584       $chain$2$??$_Reallocate_grow_by@V<lambda_9013ee9e23efe4882b67eff5b0ecf103>@@$$V@?$basic_string@DU?$char_traits@D@std@@V?$allocator@D@2@@std@@QEAAAEAV01@_KV<lambda_9013ee9e23efe4882b67eff5b0ecf103>@@@Z 0000000140019584     main.obj
 0002:000055a0       $chain$3$??$_Reallocate_grow_by@V<lambda_9013ee9e23efe4882b67eff5b0ecf103>@@$$V@?$basic_string@DU?$char_traits@D@std@@V?$allocator@D@2@@std@@QEAAAEAV01@_KV<lambda_9013ee9e23efe4882b67eff5b0ecf103>@@@Z 00000001400195a0     main.obj
 0002:000055b0       $chain$4$??$_Reallocate_grow_by@V<lambda_9013ee9e23efe4882b67eff5b0ecf103>@@$$V@?$basic_string@DU?$char_traits@D@std@@V?$allocator@D@2@@std@@QEAAAEAV01@_KV<lambda_9013ee9e23efe4882b67eff5b0ecf103>@@@Z 00000001400195b0     main.obj
 0002:000055cc       $unwind$??$_Reallocate_grow_by@V<lambda_f3a66ab6a0570788f31503db83886f49>@@_KPEBD_K@?$basic_string@DU?$char_traits@D@std@@V?$allocator@D@2@@std@@QEAAAEAV01@_KV<lambda_f3a66ab6a0570788f31503db83886f49>@@_KPEBD2@Z 00000001400195cc     main.obj
 0002:000055dc       $chain$2$??$_Reallocate_grow_by@V<lambda_f3a66ab6a0570788f31503db83886f49>@@_KPEBD_K@?$basic_string@DU?$char_traits@D@std@@V?$allocator@D@2@@std@@QEAAAEAV01@_KV<lambda_f3a66ab6a0570788f31503db83886f49>@@_KPEBD2@Z 00000001400195dc     main.obj
 0002:000055f8       $chain$3$??$_Reallocate_grow_by@V<lambda_f3a66ab6a0570788f31503db83886f49>@@_KPEBD_K@?$basic_string@DU?$char_traits@D@std@@V?$allocator@D@2@@std@@QEAAAEAV01@_KV<lambda_f3a66ab6a0570788f31503db83886f49>@@_KPEBD2@Z 00000001400195f8     main.obj
 0002:00005608       $chain$4$??$_Reallocate_grow_by@V<lambda_f3a66ab6a0570788f31503db83886f49>@@_KPEBD_K@?$basic_string@DU?$char_traits@D@std@@V?$allocator@D@2@@std@@QEAAAEAV01@_KV<lambda_f3a66ab6a0570788f31503db83886f49>@@_KPEBD2@Z 0000000140019608     main.obj
 0002:00005624       $unwind$??1sentry@?$basic_istream@DU?$char_traits@D@std@@@std@@QEAA@XZ 0000000140019624     main.obj
 0002:00005638       $ip2state$??1sentry@?$basic_istream@DU?$char_traits@D@std@@@std@@QEAA@XZ 0000000140019638     main.obj
 0002:00005650       $unwind$??$_Buynode@AEBU?$pair@$$CBV?$basic_string@DU?$char_traits@D@std@@V?$allocator@D@2@@std@@G@std@@@?$_Tree_comp_alloc@V?$_Tmap_traits@V?$basic_string@DU?$char_traits@D@std@@V?$allocator@D@2@@std@@GU?$less@V?$basic_string@DU?$char_traits@D@std@@V?$allocator@D@2@@std@@@2@V?$allocator@U?$pair@$$CBV?$basic_string@DU?$char_traits@D@std@@V?$allocator@D@2@@std@@G@std@@@2@$0A@@std@@@std@@QEAAPEAU?$_Tree_node@U?$pair@$$CBV?$basic_string@DU?$char_traits@D@std@@V?$allocator@D@2@@std@@G@std@@PEAX@1@AEBU?$pair@$$CBV?$basic_string@DU?$char_traits@D@std@@V?$allocator@D@2@@std@@G@1@@Z 0000000140019650     main.obj
 0002:00005664       $stateUnwindMap$??$_Buynode@AEBU?$pair@$$CBV?$basic_string@DU?$char_traits@D@std@@V?$allocator@D@2@@std@@G@std@@@?$_Tree_comp_alloc@V?$_Tmap_traits@V?$basic_string@DU?$char_traits@D@std@@V?$allocator@D@2@@std@@GU?$less@V?$basic_string@DU?$char_traits@D@std@@V?$allocator@D@2@@std@@@2@V?$allocator@U?$pair@$$CBV?$basic_string@DU?$char_traits@D@std@@V?$allocator@D@2@@std@@G@std@@@2@$0A@@std@@@std@@QEAAPEAU?$_Tree_node@U?$pair@$$CBV?$basic_string@DU?$char_traits@D@std@@V?$allocator@D@2@@std@@G@std@@PEAX@1@AEBU?$pair@$$CBV?$basic_string@DU?$char_traits@D@std@@V?$allocator@D@2@@std@@G@1@@Z 0000000140019664     main.obj
 0002:0000567c       $tryMap$??$_Buynode@AEBU?$pair@$$CBV?$basic_string@DU?$char_traits@D@std@@V?$allocator@D@2@@std@@G@std@@@?$_Tree_comp_alloc@V?$_Tmap_traits@V?$basic_string@DU?$char_traits@D@std@@V?$allocator@D@2@@std@@GU?$less@V?$basic_string@DU?$char_traits@D@std@@V?$allocator@D@2@@std@@@2@V?$allocator@U?$pair@$$CBV?$basic_string@DU?$char_traits@D@std@@V?$allocator@D@2@@std@@G@std@@@2@$0A@@std@@@std@@QEAAPEAU?$_Tree_node@U?$pair@$$CBV?$basic_string@DU?$char_traits@D@std@@V?$allocator@D@2@@std@@G@std@@PEAX@1@AEBU?$pair@$$CBV?$basic_string@DU?$char_traits@D@std@@V?$allocator@D@2@@std@@G@1@@Z 000000014001967c     main.obj
 0002:00005690       $handlerMap$0$??$_Buynode@AEBU?$pair@$$CBV?$basic_string@DU?$char_traits@D@std@@V?$allocator@D@2@@std@@G@std@@@?$_Tree_comp_alloc@V?$_Tmap_traits@V?$basic_string@DU?$char_traits@D@std@@V?$allocator@D@2@@std@@GU?$less@V?$basic_string@DU?$char_traits@D@std@@V?$allocator@D@2@@std@@@2@V?$allocator@U?$pair@$$CBV?$basic_string@DU?$char_traits@D@std@@V?$allocator@D@2@@std@@G@std@@@2@$0A@@std@@@std@@QEAAPEAU?$_Tree_node@U?$pair@$$CBV?$basic_string@DU?$char_traits@D@std@@V?$allocator@D@2@@std@@G@std@@PEAX@1@AEBU?$pair@$$CBV?$basic_string@DU?$char_traits@D@std@@V?$allocator@D@2@@std@@G@1@@Z 0000000140019690     main.obj
 0002:000056a8       $ip2state$??$_Buynode@AEBU?$pair@$$CBV?$basic_string@DU?$char_traits@D@std@@V?$allocator@D@2@@std@@G@std@@@?$_Tree_comp_alloc@V?$_Tmap_traits@V?$basic_string@DU?$char_traits@D@std@@V?$allocator@D@2@@std@@GU?$less@V?$basic_string@DU?$char_traits@D@std@@V?$allocator@D@2@@std@@@2@V?$allocator@U?$pair@$$CBV?$basic_string@DU?$char_traits@D@std@@V?$allocator@D@2@@std@@G@std@@@2@$0A@@std@@@std@@QEAAPEAU?$_Tree_node@U?$pair@$$CBV?$basic_string@DU?$char_traits@D@std@@V?$allocator@D@2@@std@@G@std@@PEAX@1@AEBU?$pair@$$CBV?$basic_string@DU?$char_traits@D@std@@V?$allocator@D@2@@std@@G@1@@Z 00000001400196a8     main.obj
 0002:000056d8       $unwind$?catch$8@?0???$_Buynode@AEBU?$pair@$$CBV?$basic_string@DU?$char_traits@D@std@@V?$allocator@D@2@@std@@G@std@@@?$_Tree_comp_alloc@V?$_Tmap_traits@V?$basic_string@DU?$char_traits@D@std@@V?$allocator@D@2@@std@@GU?$less@V?$basic_string@DU?$char_traits@D@std@@V?$allocator@D@2@@std@@@2@V?$allocator@U?$pair@$$CBV?$basic_string@DU?$char_traits@D@std@@V?$allocator@D@2@@std@@G@std@@@2@$0A@@std@@@std@@QEAAPEAU?$_Tree_node@U?$pair@$$CBV?$basic_string@DU?$char_traits@D@std@@V?$allocator@D@2@@std@@G@std@@PEAX@1@AEBU?$pair@$$CBV?$basic_string@DU?$char_traits@D@std@@V?$allocator@D@2@@std@@G@1@@Z@4HA 00000001400196d8     main.obj
 0002:000056e8       $unwind$??$_Insert_hint@AEAU?$pair@$$CBV?$basic_string@DU?$char_traits@D@std@@V?$allocator@D@2@@std@@G@std@@PEAU?$_Tree_node@U?$pair@$$CBV?$basic_string@DU?$char_traits@D@std@@V?$allocator@D@2@@std@@G@std@@PEAX@2@@?$_Tree@V?$_Tmap_traits@V?$basic_string@DU?$char_traits@D@std@@V?$allocator@D@2@@std@@GU?$less@V?$basic_string@DU?$char_traits@D@std@@V?$allocator@D@2@@std@@@2@V?$allocator@U?$pair@$$CBV?$basic_string@DU?$char_traits@D@std@@V?$allocator@D@2@@std@@G@std@@@2@$0A@@std@@@std@@IEAA?AV?$_Tree_iterator@V?$_Tree_val@U?$_Tree_simple_types@U?$pair@$$CBV?$basic_string@DU?$char_traits@D@std@@V?$allocator@D@2@@std@@G@std@@@std@@@std@@@1@V?$_Tree_const_iterator@V?$_Tree_val@U?$_Tree_simple_types@U?$pair@$$CBV?$basic_string@DU?$char_traits@D@std@@V?$allocator@D@2@@std@@G@std@@@std@@@std@@@1@AEAU?$pair@$$CBV?$basic_string@DU?$char_traits@D@std@@V?$allocator@D@2@@std@@G@1@PEAU?$_Tree_node@U?$pair@$$CBV?$basic_string@DU?$char_traits@D@std@@V?$allocator@D@2@@std@@G@std@@PEAX@1@@Z 00000001400196e8     main.obj
 0002:00005708       $stateUnwindMap$??$_Insert_hint@AEAU?$pair@$$CBV?$basic_string@DU?$char_traits@D@std@@V?$allocator@D@2@@std@@G@std@@PEAU?$_Tree_node@U?$pair@$$CBV?$basic_string@DU?$char_traits@D@std@@V?$allocator@D@2@@std@@G@std@@PEAX@2@@?$_Tree@V?$_Tmap_traits@V?$basic_string@DU?$char_traits@D@std@@V?$allocator@D@2@@std@@GU?$less@V?$basic_string@DU?$char_traits@D@std@@V?$allocator@D@2@@std@@@2@V?$allocator@U?$pair@$$CBV?$basic_string@DU?$char_traits@D@std@@V?$allocator@D@2@@std@@G@std@@@2@$0A@@std@@@std@@IEAA?AV?$_Tree_iterator@V?$_Tree_val@U?$_Tree_simple_types@U?$pair@$$CBV?$basic_string@DU?$char_traits@D@std@@V?$allocator@D@2@@std@@G@std@@@std@@@std@@@1@V?$_Tree_const_iterator@V?$_Tree_val@U?$_Tree_simple_types@U?$pair@$$CBV?$basic_string@DU?$char_traits@D@std@@V?$allocator@D@2@@std@@G@std@@@std@@@std@@@1@AEAU?$pair@$$CBV?$basic_string@DU?$char_traits@D@std@@V?$allocator@D@2@@std@@G@1@PEAU?$_Tree_node@U?$pair@$$CBV?$basic_string@DU?$char_traits@D@std@@V?$allocator@D@2@@std@@G@std@@PEAX@1@@Z 0000000140019708     main.obj
 0002:00005708       $stateUnwindMap$??$_Insert_nohint@AEAU?$pair@$$CBV?$basic_string@DU?$char_traits@D@std@@V?$allocator@D@2@@std@@G@std@@PEAU?$_Tree_node@U?$pair@$$CBV?$basic_string@DU?$char_traits@D@std@@V?$allocator@D@2@@std@@G@std@@PEAX@2@@?$_Tree@V?$_Tmap_traits@V?$basic_string@DU?$char_traits@D@std@@V?$allocator@D@2@@std@@GU?$less@V?$basic_string@DU?$char_traits@D@std@@V?$allocator@D@2@@std@@@2@V?$allocator@U?$pair@$$CBV?$basic_string@DU?$char_traits@D@std@@V?$allocator@D@2@@std@@G@std@@@2@$0A@@std@@@std@@IEAA?AU?$pair@V?$_Tree_iterator@V?$_Tree_val@U?$_Tree_simple_types@U?$pair@$$CBV?$basic_string@DU?$char_traits@D@std@@V?$allocator@D@2@@std@@G@std@@@std@@@std@@@std@@_N@1@_NAEAU?$pair@$$CBV?$basic_string@DU?$char_traits@D@std@@V?$allocator@D@2@@std@@G@1@PEAU?$_Tree_node@U?$pair@$$CBV?$basic_string@DU?$char_traits@D@std@@V?$allocator@D@2@@std@@G@std@@PEAX@1@@Z 0000000140019708     main.obj
 0002:00005718       $tryMap$??$_Insert_hint@AEAU?$pair@$$CBV?$basic_string@DU?$char_traits@D@std@@V?$allocator@D@2@@std@@G@std@@PEAU?$_Tree_node@U?$pair@$$CBV?$basic_string@DU?$char_traits@D@std@@V?$allocator@D@2@@std@@G@std@@PEAX@2@@?$_Tree@V?$_Tmap_traits@V?$basic_string@DU?$char_traits@D@std@@V?$allocator@D@2@@std@@GU?$less@V?$basic_string@DU?$char_traits@D@std@@V?$allocator@D@2@@std@@@2@V?$allocator@U?$pair@$$CBV?$basic_string@DU?$char_traits@D@std@@V?$allocator@D@2@@std@@G@std@@@2@$0A@@std@@@std@@IEAA?AV?$_Tree_iterator@V?$_Tree_val@U?$_Tree_simple_types@U?$pair@$$CBV?$basic_string@DU?$char_traits@D@std@@V?$allocator@D@2@@std@@G@std@@@std@@@std@@@1@V?$_Tree_const_iterator@V?$_Tree_val@U?$_Tree_simple_types@U?$pair@$$CBV?$basic_string@DU?$char_traits@D@std@@V?$allocator@D@2@@std@@G@std@@@std@@@std@@@1@AEAU?$pair@$$CBV?$basic_string@DU?$char_traits@D@std@@V?$allocator@D@2@@std@@G@1@PEAU?$_Tree_node@U?$pair@$$CBV?$basic_string@DU?$char_traits@D@std@@V?$allocator@D@2@@std@@G@std@@PEAX@1@@Z 0000000140019718     main.obj
 0002:0000572c       $handlerMap$0$??$_Insert_hint@AEAU?$pair@$$CBV?$basic_string@DU?$char_traits@D@std@@V?$allocator@D@2@@std@@G@std@@PEAU?$_Tree_node@U?$pair@$$CBV?$basic_string@DU?$char_traits@D@std@@V?$allocator@D@2@@std@@G@std@@PEAX@2@@?$_Tree@V?$_Tmap_traits@V?$basic_string@DU?$char_traits@D@std@@V?$allocator@D@2@@std@@GU?$less@V?$basic_string@DU?$char_traits@D@std@@V?$allocator@D@2@@std@@@2@V?$allocator@U?$pair@$$CBV?$basic_string@DU?$char_traits@D@std@@V?$allocator@D@2@@std@@G@std@@@2@$0A@@std@@@std@@IEAA?AV?$_Tree_iterator@V?$_Tree_val@U?$_Tree_simple_types@U?$pair@$$CBV?$basic_string@DU?$char_traits@D@std@@V?$allocator@D@2@@std@@G@std@@@std@@@std@@@1@V?$_Tree_const_iterator@V?$_Tree_val@U?$_Tree_simple_types@U?$pair@$$CBV?$basic_string@DU?$char_traits@D@std@@V?$allocator@D@2@@std@@G@std@@@std@@@std@@@1@AEAU?$pair@$$CBV?$basic_string@DU?$char_traits@D@std@@V?$allocator@D@2@@std@@G@1@PEAU?$_Tree_node@U?$pair@$$CBV?$basic_string@DU?$char_traits@D@std@@V?$allocator@D@2@@std@@G@std@@PEAX@1@@Z 000000014001972c     main.obj
 0002:00005740       $ip2state$??$_Insert_hint@AEAU?$pair@$$CBV?$basic_string@DU?$char_traits@D@std@@V?$allocator@D@2@@std@@G@std@@PEAU?$_Tree_node@U?$pair@$$CBV?$basic_string@DU?$char_traits@D@std@@V?$allocator@D@2@@std@@G@std@@PEAX@2@@?$_Tree@V?$_Tmap_traits@V?$basic_string@DU?$char_traits@D@std@@V?$allocator@D@2@@std@@GU?$less@V?$basic_string@DU?$char_traits@D@std@@V?$allocator@D@2@@std@@@2@V?$allocator@U?$pair@$$CBV?$basic_string@DU?$char_traits@D@std@@V?$allocator@D@2@@std@@G@std@@@2@$0A@@std@@@std@@IEAA?AV?$_Tree_iterator@V?$_Tree_val@U?$_Tree_simple_types@U?$pair@$$CBV?$basic_string@DU?$char_traits@D@std@@V?$allocator@D@2@@std@@G@std@@@std@@@std@@@1@V?$_Tree_const_iterator@V?$_Tree_val@U?$_Tree_simple_types@U?$pair@$$CBV?$basic_string@DU?$char_traits@D@std@@V?$allocator@D@2@@std@@G@std@@@std@@@std@@@1@AEAU?$pair@$$CBV?$basic_string@DU?$char_traits@D@std@@V?$allocator@D@2@@std@@G@1@PEAU?$_Tree_node@U?$pair@$$CBV?$basic_string@DU?$char_traits@D@std@@V?$allocator@D@2@@std@@G@std@@PEAX@1@@Z 0000000140019740     main.obj
 0002:00005768       $unwind$?catch$232@?0???$_Insert_hint@AEAU?$pair@$$CBV?$basic_string@DU?$char_traits@D@std@@V?$allocator@D@2@@std@@G@std@@PEAU?$_Tree_node@U?$pair@$$CBV?$basic_string@DU?$char_traits@D@std@@V?$allocator@D@2@@std@@G@std@@PEAX@2@@?$_Tree@V?$_Tmap_traits@V?$basic_string@DU?$char_traits@D@std@@V?$allocator@D@2@@std@@GU?$less@V?$basic_string@DU?$char_traits@D@std@@V?$allocator@D@2@@std@@@2@V?$allocator@U?$pair@$$CBV?$basic_string@DU?$char_traits@D@std@@V?$allocator@D@2@@std@@G@std@@@2@$0A@@std@@@std@@IEAA?AV?$_Tree_iterator@V?$_Tree_val@U?$_Tree_simple_types@U?$pair@$$CBV?$basic_string@DU?$char_traits@D@std@@V?$allocator@D@2@@std@@G@std@@@std@@@std@@@1@V?$_Tree_const_iterator@V?$_Tree_val@U?$_Tree_simple_types@U?$pair@$$CBV?$basic_string@DU?$char_traits@D@std@@V?$allocator@D@2@@std@@G@std@@@std@@@std@@@1@AEAU?$pair@$$CBV?$basic_string@DU?$char_traits@D@std@@V?$allocator@D@2@@std@@G@1@PEAU?$_Tree_node@U?$pair@$$CBV?$basic_string@DU?$char_traits@D@std@@V?$allocator@D@2@@std@@G@std@@PEAX@1@@Z@4HA 0000000140019768     main.obj
 0002:00005778       $unwind$??$_Insert_nohint@AEAU?$pair@$$CBV?$basic_string@DU?$char_traits@D@std@@V?$allocator@D@2@@std@@G@std@@PEAU?$_Tree_node@U?$pair@$$CBV?$basic_string@DU?$char_traits@D@std@@V?$allocator@D@2@@std@@G@std@@PEAX@2@@?$_Tree@V?$_Tmap_traits@V?$basic_string@DU?$char_traits@D@std@@V?$allocator@D@2@@std@@GU?$less@V?$basic_string@DU?$char_traits@D@std@@V?$allocator@D@2@@std@@@2@V?$allocator@U?$pair@$$CBV?$basic_string@DU?$char_traits@D@std@@V?$allocator@D@2@@std@@G@std@@@2@$0A@@std@@@std@@IEAA?AU?$pair@V?$_Tree_iterator@V?$_Tree_val@U?$_Tree_simple_types@U?$pair@$$CBV?$basic_string@DU?$char_traits@D@std@@V?$allocator@D@2@@std@@G@std@@@std@@@std@@@std@@_N@1@_NAEAU?$pair@$$CBV?$basic_string@DU?$char_traits@D@std@@V?$allocator@D@2@@std@@G@1@PEAU?$_Tree_node@U?$pair@$$CBV?$basic_string@DU?$char_traits@D@std@@V?$allocator@D@2@@std@@G@std@@PEAX@1@@Z 0000000140019778     main.obj
 0002:00005798       $tryMap$??$_Insert_nohint@AEAU?$pair@$$CBV?$basic_string@DU?$char_traits@D@std@@V?$allocator@D@2@@std@@G@std@@PEAU?$_Tree_node@U?$pair@$$CBV?$basic_string@DU?$char_traits@D@std@@V?$allocator@D@2@@std@@G@std@@PEAX@2@@?$_Tree@V?$_Tmap_traits@V?$basic_string@DU?$char_traits@D@std@@V?$allocator@D@2@@std@@GU?$less@V?$basic_string@DU?$char_traits@D@std@@V?$allocator@D@2@@std@@@2@V?$allocator@U?$pair@$$CBV?$basic_string@DU?$char_traits@D@std@@V?$allocator@D@2@@std@@G@std@@@2@$0A@@std@@@std@@IEAA?AU?$pair@V?$_Tree_iterator@V?$_Tree_val@U?$_Tree_simple_types@U?$pair@$$CBV?$basic_string@DU?$char_traits@D@std@@V?$allocator@D@2@@std@@G@std@@@std@@@std@@@std@@_N@1@_NAEAU?$pair@$$CBV?$basic_string@DU?$char_traits@D@std@@V?$allocator@D@2@@std@@G@1@PEAU?$_Tree_node@U?$pair@$$CBV?$basic_string@DU?$char_traits@D@std@@V?$allocator@D@2@@std@@G@std@@PEAX@1@@Z 0000000140019798     main.obj
 0002:000057ac       $handlerMap$0$??$_Insert_nohint@AEAU?$pair@$$CBV?$basic_string@DU?$char_traits@D@std@@V?$allocator@D@2@@std@@G@std@@PEAU?$_Tree_node@U?$pair@$$CBV?$basic_string@DU?$char_traits@D@std@@V?$allocator@D@2@@std@@G@std@@PEAX@2@@?$_Tree@V?$_Tmap_traits@V?$basic_string@DU?$char_traits@D@std@@V?$allocator@D@2@@std@@GU?$less@V?$basic_string@DU?$char_traits@D@std@@V?$allocator@D@2@@std@@@2@V?$allocator@U?$pair@$$CBV?$basic_string@DU?$char_traits@D@std@@V?$allocator@D@2@@std@@G@std@@@2@$0A@@std@@@std@@IEAA?AU?$pair@V?$_Tree_iterator@V?$_Tree_val@U?$_Tree_simple_types@U?$pair@$$CBV?$basic_string@DU?$char_traits@D@std@@V?$allocator@D@2@@std@@G@std@@@std@@@std@@@std@@_N@1@_NAEAU?$pair@$$CBV?$basic_string@DU?$char_traits@D@std@@V?$allocator@D@2@@std@@G@1@PEAU?$_Tree_node@U?$pair@$$CBV?$basic_string@DU?$char_traits@D@std@@V?$allocator@D@2@@std@@G@std@@PEAX@1@@Z 00000001400197ac     main.obj
 0002:000057c0       $ip2state$??$_Insert_nohint@AEAU?$pair@$$CBV?$basic_string@DU?$char_traits@D@std@@V?$allocator@D@2@@std@@G@std@@PEAU?$_Tree_node@U?$pair@$$CBV?$basic_string@DU?$char_traits@D@std@@V?$allocator@D@2@@std@@G@std@@PEAX@2@@?$_Tree@V?$_Tmap_traits@V?$basic_string@DU?$char_traits@D@std@@V?$allocator@D@2@@std@@GU?$less@V?$basic_string@DU?$char_traits@D@std@@V?$allocator@D@2@@std@@@2@V?$allocator@U?$pair@$$CBV?$basic_string@DU?$char_traits@D@std@@V?$allocator@D@2@@std@@G@std@@@2@$0A@@std@@@std@@IEAA?AU?$pair@V?$_Tree_iterator@V?$_Tree_val@U?$_Tree_simple_types@U?$pair@$$CBV?$basic_string@DU?$char_traits@D@std@@V?$allocator@D@2@@std@@G@std@@@std@@@std@@@std@@_N@1@_NAEAU?$pair@$$CBV?$basic_string@DU?$char_traits@D@std@@V?$allocator@D@2@@std@@G@1@PEAU?$_Tree_node@U?$pair@$$CBV?$basic_string@DU?$char_traits@D@std@@V?$allocator@D@2@@std@@G@std@@PEAX@1@@Z 00000001400197c0     main.obj
 0002:000057d8       $unwind$?catch$96@?0???$_Insert_nohint@AEAU?$pair@$$CBV?$basic_string@DU?$char_traits@D@std@@V?$allocator@D@2@@std@@G@std@@PEAU?$_Tree_node@U?$pair@$$CBV?$basic_string@DU?$char_traits@D@std@@V?$allocator@D@2@@std@@G@std@@PEAX@2@@?$_Tree@V?$_Tmap_traits@V?$basic_string@DU?$char_traits@D@std@@V?$allocator@D@2@@std@@GU?$less@V?$basic_string@DU?$char_traits@D@std@@V?$allocator@D@2@@std@@@2@V?$allocator@U?$pair@$$CBV?$basic_string@DU?$char_traits@D@std@@V?$allocator@D@2@@std@@G@std@@@2@$0A@@std@@@std@@IEAA?AU?$pair@V?$_Tree_iterator@V?$_Tree_val@U?$_Tree_simple_types@U?$pair@$$CBV?$basic_string@DU?$char_traits@D@std@@V?$allocator@D@2@@std@@G@std@@@std@@@std@@@std@@_N@1@_NAEAU?$pair@$$CBV?$basic_string@DU?$char_traits@D@std@@V?$allocator@D@2@@std@@G@1@PEAU?$_Tree_node@U?$pair@$$CBV?$basic_string@DU?$char_traits@D@std@@V?$allocator@D@2@@std@@G@std@@PEAX@1@@Z@4HA 00000001400197d8     main.obj
 0002:000057e8       $unwind$??_G_Fac_node@std@@QEAAPEAXI@Z 00000001400197e8     msvcprt:locale0_implib.obj
 0002:00005808       $ip2state$??_G_Fac_node@std@@QEAAPEAXI@Z 0000000140019808     msvcprt:locale0_implib.obj
 0002:00005820       $xdatasym                  0000000140019820     MSVCRT:_amdsecgs_.obj
 0002:00005824       $unwind$??_M@YAXPEAX_K1P6AX0@Z@Z 0000000140019824     MSVCRT:ehvecdtr.obj
 0002:0000584c       $unwind$?__ArrayUnwind@@YAXPEAX_K1P6AX0@Z@Z 000000014001984c     MSVCRT:ehvecdtr.obj
 0002:00005878       $unwind$__scrt_is_nonwritable_in_current_image 0000000140019878     MSVCRT:utility.obj
 0002:00005898       $unwind$__scrt_is_nonwritable_in_current_image$filt$0 0000000140019898     MSVCRT:utility.obj
 0002:000058a0       $unwind$__scrt_initialize_onexit_tables 00000001400198a0     MSVCRT:utility.obj
 0002:000058ac       $unwind$?__scrt_common_main_seh@@YAHXZ 00000001400198ac     MSVCRT:exe_main.obj
 0002:000058e4       $unwind$__report_gsfailure 00000001400198e4     MSVCRT:gs_report.obj
 0002:000058ec       $unwind$capture_previous_context 00000001400198ec     MSVCRT:gs_report.obj
 0002:000058f8       $unwind$?__scrt_throw_std_bad_array_new_length@@YAXXZ 00000001400198f8     MSVCRT:throw_bad_alloc.obj
 0002:000058f8       $unwind$?__scrt_throw_std_bad_alloc@@YAXXZ 00000001400198f8     MSVCRT:throw_bad_alloc.obj
 0002:00005900       $unwind$__isa_available_init 0000000140019900     MSVCRT:_cpu_disp_.obj
 0002:00005914       $unwind$__scrt_fastfail    0000000140019914     MSVCRT:utility_desktop.obj
 0002:00005924       $unwind$__security_init_cookie 0000000140019924     MSVCRT:gs_support.obj
 0002:00005930       $xdatasym                  0000000140019930     MSVCRT:_guard_dispatch_.obj
 0002:00005938       $xdatasym                  0000000140019938     MSVCRT:_rfgfailure_.obj
 0002:00005948       $unwind$__GSHandlerCheckCommon 0000000140019948     MSVCRT:_gshandler_.obj
 0002:00005950       $unwind$__GSHandlerCheck_EH 0000000140019950     MSVCRT:gshandlereh.obj
 0002:0000614e       .idata$6                   000000014001a14e     winmm:WINMM.dll
 0002:0000627a       .idata$6                   000000014001a27a     kernel32:KERNEL32.dll
 0002:00006294       .idata$6                   000000014001a294     user32:USER32.dll
 0002:00007068       .idata$6                   000000014001b068     msvcprt:MSVCP140.dll
 0002:0000708c       .idata$6                   000000014001b08c     urlmon:urlmon.dll
 0002:0000713e       .idata$6                   000000014001b13e     vcruntime:VCRUNTIME140.dll
 0002:00007456       .idata$6                   000000014001b456     ucrt:api-ms-win-crt-locale-l1-1-0.dll
 0002:00007478       .idata$6                   000000014001b478     ucrt:api-ms-win-crt-stdio-l1-1-0.dll
 0002:00007498       .idata$6                   000000014001b498     ucrt:api-ms-win-crt-utility-l1-1-0.dll
 0002:000074ba       .idata$6                   000000014001b4ba     ucrt:api-ms-win-crt-filesystem-l1-1-0.dll
 0002:000074e0       .idata$6                   000000014001b4e0     ucrt:api-ms-win-crt-runtime-l1-1-0.dll
 0002:00007502       .idata$6                   000000014001b502     ucrt:api-ms-win-crt-time-l1-1-0.dll
 0002:00007522       .idata$6                   000000014001b522     ucrt:api-ms-win-crt-convert-l1-1-0.dll
 0002:00007544       .idata$6                   000000014001b544     ucrt:api-ms-win-crt-heap-l1-1-0.dll
 0002:00007564       .idata$6                   000000014001b564     ucrt:api-ms-win-crt-math-l1-1-0.dll
 0003:00000500       ?_Fac_head@std@@3PEAU_Fac_node@1@EA 000000014001c500     msvcprt:locale0_implib.obj
 0003:00000508       ?_Fac_tidy_reg@std@@3U_Fac_tidy_reg_t@1@B 000000014001c508     msvcprt:locale0_implib.obj
 0003:00000514       ?module_local_atexit_table_initialized@@3_NA 000000014001c514     MSVCRT:utility.obj
 0003:00000520       ?module_local_atexit_table@@3U_onexit_table_t@@A 000000014001c520     MSVCRT:utility.obj
 0003:00000538       ?module_local_at_quick_exit_table@@3U_onexit_table_t@@A 000000014001c538     MSVCRT:utility.obj
 0003:00000550       ?is_initialized_as_dll@@3_NA 000000014001c550     MSVCRT:utility.obj
 0003:00000560       GS_ExceptionRecord         000000014001c560     MSVCRT:gs_report.obj
 0003:00000600       GS_ContextRecord           000000014001c600     MSVCRT:gs_report.obj
 0003:00000b20       ?Numer_zasobu_rar@@3V?$map@V?$basic_string@DU?$char_traits@D@std@@V?$allocator@D@2@@std@@GU?$less@V?$basic_string@DU?$char_traits@D@std@@V?$allocator@D@2@@std@@@2@V?$allocator@U?$pair@$$CBV?$basic_string@DU?$char_traits@D@std@@V?$allocator@D@2@@std@@G@std@@@2@@std@@B 000000014001cb20     main.obj
 0004:00000000       $pdata$??__ENumer_zasobu_rar@@YAXXZ 000000014001d000     main.obj
 0004:0000000c       $pdata$??0exception@std@@QEAA@AEBV01@@Z 000000014001d00c     main.obj
 0004:00000018       $pdata$??_Gexception@std@@UEAAPEAXI@Z 000000014001d018     main.obj
 0004:00000018       $pdata$??_Gbad_cast@std@@UEAAPEAXI@Z 000000014001d018     main.obj
 0004:00000024       $pdata$??1locale@std@@QEAA@XZ 000000014001d024     main.obj
 0004:00000030       $pdata$??1?$pair@$$CBV?$basic_string@DU?$char_traits@D@std@@V?$allocator@D@2@@std@@G@std@@QEAA@XZ 000000014001d030     main.obj
 0004:00000030       $pdata$??1?$basic_string@DU?$char_traits@D@std@@V?$allocator@D@2@@std@@QEAA@XZ 000000014001d030     main.obj
 0004:00000030       $pdata$?_Tidy_deallocate@?$basic_string@DU?$char_traits@D@std@@V?$allocator@D@2@@std@@QEAAXXZ 000000014001d030     main.obj
 0004:0000003c       $pdata$main                000000014001d03c     main.obj
 0004:00000048       $pdata$??_D?$basic_ofstream@DU?$char_traits@D@std@@@std@@QEAAXXZ 000000014001d048     main.obj
 0004:00000054       $pdata$??_D?$basic_fstream@DU?$char_traits@D@std@@@std@@QEAAXXZ 000000014001d054     main.obj
 0004:00000060       $pdata$?Obstaw@@YA?AV?$basic_string@DU?$char_traits@D@std@@V?$allocator@D@2@@std@@XZ 000000014001d060     main.obj
 0004:0000006c       $pdata$?Wczytaj_Kwotê_Zak³adu@@YAXAEAHAEBH@Z 000000014001d06c     main.obj
 0004:00000078       $pdata$?Zakrêæ_Ruletk¹@@YAHXZ 000000014001d078     main.obj
 0004:00000084       $pdata$2$?Zakrêæ_Ruletk¹@@YAHXZ 000000014001d084     main.obj
 0004:00000090       $pdata$6$?Zakrêæ_Ruletk¹@@YAHXZ 000000014001d090     main.obj
 0004:0000009c       $pdata$7$?Zakrêæ_Ruletk¹@@YAHXZ 000000014001d09c     main.obj
 0004:000000a8       $pdata$8$?Zakrêæ_Ruletk¹@@YAHXZ 000000014001d0a8     main.obj
 0004:000000b4       $pdata$9$?Zakrêæ_Ruletk¹@@YAHXZ 000000014001d0b4     main.obj
 0004:000000c0       $pdata$10$?Zakrêæ_Ruletk¹@@YAHXZ 000000014001d0c0     main.obj
 0004:000000cc       $pdata$?SprawdŸ_Zak³ad@@YAHAEBHAEBV?$basic_string@DU?$char_traits@D@std@@V?$allocator@D@2@@std@@0@Z 000000014001d0cc     main.obj
 0004:000000d8       $pdata$?Czy_Kontynuowaæ@@YA_NAEBH@Z 000000014001d0d8     main.obj
 0004:000000e4       $pdata$?Odczytaj_Liczbê@@YAXAEBHAEBV?$basic_string@DU?$char_traits@D@std@@V?$allocator@D@2@@std@@@Z 000000014001d0e4     main.obj
 0004:000000f0       $pdata$??_D?$basic_stringstream@DU?$char_traits@D@std@@V?$allocator@D@2@@std@@QEAAXXZ 000000014001d0f0     main.obj
 0004:000000fc       $pdata$?__autoclassinit2@?$basic_stringstream@DU?$char_traits@D@std@@V?$allocator@D@2@@std@@QEAAX_K@Z 000000014001d0fc     main.obj
 0004:00000108       $pdata$?Wczytaj_z_Pliku@@YAXAEAV?$basic_ofstream@DU?$char_traits@D@std@@@std@@AEAV?$basic_fstream@DU?$char_traits@D@std@@@2@AEADAEAH33AEAV?$basic_string@DU?$char_traits@D@std@@V?$allocator@D@2@@2@@Z 000000014001d108     main.obj
 0004:00000114       $pdata$?SprawdŸ_Pliki@@YAXXZ 000000014001d114     main.obj
 0004:00000120       $pdata$?SprawdŸ_Ustawienia@@YAXXZ 000000014001d120     main.obj
 0004:0000012c       $pdata$??_D?$basic_ifstream@DU?$char_traits@D@std@@@std@@QEAAXXZ 000000014001d12c     main.obj
 0004:00000138       $pdata$?Og³oœ_Wynik@@YAXAEBH0AEAHAEAV?$basic_ofstream@DU?$char_traits@D@std@@@std@@AEAV?$basic_fstream@DU?$char_traits@D@std@@@2@@Z 000000014001d138     main.obj
 0004:00000144       $pdata$?Koniec_Gry@@YAXAEAV?$basic_ofstream@DU?$char_traits@D@std@@@std@@AEAV?$basic_fstream@DU?$char_traits@D@std@@@2@AEBH@Z 000000014001d144     main.obj
 0004:00000150       $pdata$?Pêtla_G³ówna@@YAXAEAH00AEAV?$basic_ofstream@DU?$char_traits@D@std@@@std@@AEAV?$basic_fstream@DU?$char_traits@D@std@@@2@AEADAEAV?$basic_string@DU?$char_traits@D@std@@V?$allocator@D@2@@2@0@Z 000000014001d150     main.obj
 0004:0000015c       $pdata$0$?Pêtla_G³ówna@@YAXAEAH00AEAV?$basic_ofstream@DU?$char_traits@D@std@@@std@@AEAV?$basic_fstream@DU?$char_traits@D@std@@@2@AEADAEAV?$basic_string@DU?$char_traits@D@std@@V?$allocator@D@2@@2@0@Z 000000014001d15c     main.obj
 0004:00000168       $pdata$?Ustaw_Ustawienia@@YAXAEAV?$basic_string@DU?$char_traits@D@std@@V?$allocator@D@2@@std@@@Z 000000014001d168     main.obj
 0004:00000174       $pdata$2$?Ustaw_Ustawienia@@YAXAEAV?$basic_string@DU?$char_traits@D@std@@V?$allocator@D@2@@std@@@Z 000000014001d174     main.obj
 0004:00000180       $pdata$3$?Ustaw_Ustawienia@@YAXAEAV?$basic_string@DU?$char_traits@D@std@@V?$allocator@D@2@@std@@@Z 000000014001d180     main.obj
 0004:0000018c       $pdata$4$?Ustaw_Ustawienia@@YAXAEAV?$basic_string@DU?$char_traits@D@std@@V?$allocator@D@2@@std@@@Z 000000014001d18c     main.obj
 0004:00000198       $pdata$5$?Ustaw_Ustawienia@@YAXAEAV?$basic_string@DU?$char_traits@D@std@@V?$allocator@D@2@@std@@@Z 000000014001d198     main.obj
 0004:000001a4       $pdata$?Wyci¹gnij_z_Programu@@YA_NAEBV?$basic_string@DU?$char_traits@D@std@@V?$allocator@D@2@@std@@G@Z 000000014001d1a4     main.obj
 0004:000001b0       $pdata$0$?Wyci¹gnij_z_Programu@@YA_NAEBV?$basic_string@DU?$char_traits@D@std@@V?$allocator@D@2@@std@@G@Z 000000014001d1b0     main.obj
 0004:000001bc       $pdata$1$?Wyci¹gnij_z_Programu@@YA_NAEBV?$basic_string@DU?$char_traits@D@std@@V?$allocator@D@2@@std@@G@Z 000000014001d1bc     main.obj
 0004:000001c8       $pdata$?Wypakuj_Rar@@YAXAEBV?$basic_string@DU?$char_traits@D@std@@V?$allocator@D@2@@std@@@Z 000000014001d1c8     main.obj
 0004:000001d4       $pdata$?Przenieœ_Plik@@YA_NAEBV?$basic_string@DU?$char_traits@D@std@@V?$allocator@D@2@@std@@0@Z 000000014001d1d4     main.obj
 0004:000001e0       $pdata$?Usuñ_Folder_Wypakowany_i_Winrar@@YAXAEBV?$basic_string@DU?$char_traits@D@std@@V?$allocator@D@2@@std@@@Z 000000014001d1e0     main.obj
 0004:000001ec       $pdata$??1?$_Tree@V?$_Tmap_traits@V?$basic_string@DU?$char_traits@D@std@@V?$allocator@D@2@@std@@GU?$less@V?$basic_string@DU?$char_traits@D@std@@V?$allocator@D@2@@std@@@2@V?$allocator@U?$pair@$$CBV?$basic_string@DU?$char_traits@D@std@@V?$allocator@D@2@@std@@G@std@@@2@$0A@@std@@@std@@QEAA@XZ 000000014001d1ec     main.obj
 0004:000001f8       $pdata$?at@?$map@V?$basic_string@DU?$char_traits@D@std@@V?$allocator@D@2@@std@@GU?$less@V?$basic_string@DU?$char_traits@D@std@@V?$allocator@D@2@@std@@@2@V?$allocator@U?$pair@$$CBV?$basic_string@DU?$char_traits@D@std@@V?$allocator@D@2@@std@@G@std@@@2@@std@@QEBAAEBGAEBV?$basic_string@DU?$char_traits@D@std@@V?$allocator@D@2@@2@@Z 000000014001d1f8     main.obj
 0004:00000204       $pdata$0$?at@?$map@V?$basic_string@DU?$char_traits@D@std@@V?$allocator@D@2@@std@@GU?$less@V?$basic_string@DU?$char_traits@D@std@@V?$allocator@D@2@@std@@@2@V?$allocator@U?$pair@$$CBV?$basic_string@DU?$char_traits@D@std@@V?$allocator@D@2@@std@@G@std@@@2@@std@@QEBAAEBGAEBV?$basic_string@DU?$char_traits@D@std@@V?$allocator@D@2@@2@@Z 000000014001d204     main.obj
 0004:00000210       $pdata$1$?at@?$map@V?$basic_string@DU?$char_traits@D@std@@V?$allocator@D@2@@std@@GU?$less@V?$basic_string@DU?$char_traits@D@std@@V?$allocator@D@2@@std@@@2@V?$allocator@U?$pair@$$CBV?$basic_string@DU?$char_traits@D@std@@V?$allocator@D@2@@std@@G@std@@@2@@std@@QEBAAEBGAEBV?$basic_string@DU?$char_traits@D@std@@V?$allocator@D@2@@2@@Z 000000014001d210     main.obj
 0004:0000021c       $pdata$2$?at@?$map@V?$basic_string@DU?$char_traits@D@std@@V?$allocator@D@2@@std@@GU?$less@V?$basic_string@DU?$char_traits@D@std@@V?$allocator@D@2@@std@@@2@V?$allocator@U?$pair@$$CBV?$basic_string@DU?$char_traits@D@std@@V?$allocator@D@2@@std@@G@std@@@2@@std@@QEBAAEBGAEBV?$basic_string@DU?$char_traits@D@std@@V?$allocator@D@2@@2@@Z 000000014001d21c     main.obj
 0004:00000228       $pdata$3$?at@?$map@V?$basic_string@DU?$char_traits@D@std@@V?$allocator@D@2@@std@@GU?$less@V?$basic_string@DU?$char_traits@D@std@@V?$allocator@D@2@@std@@@2@V?$allocator@U?$pair@$$CBV?$basic_string@DU?$char_traits@D@std@@V?$allocator@D@2@@std@@G@std@@@2@@std@@QEBAAEBGAEBV?$basic_string@DU?$char_traits@D@std@@V?$allocator@D@2@@2@@Z 000000014001d228     main.obj
 0004:00000234       $pdata$??0?$basic_string@DU?$char_traits@D@std@@V?$allocator@D@2@@std@@QEAA@QEBD@Z 000000014001d234     main.obj
 0004:00000240       $pdata$0$??0?$basic_string@DU?$char_traits@D@std@@V?$allocator@D@2@@std@@QEAA@QEBD@Z 000000014001d240     main.obj
 0004:0000024c       $pdata$1$??0?$basic_string@DU?$char_traits@D@std@@V?$allocator@D@2@@std@@QEAA@QEBD@Z 000000014001d24c     main.obj
 0004:00000258       $pdata$??0?$basic_string@DU?$char_traits@D@std@@V?$allocator@D@2@@std@@QEAA@AEBV01@@Z 000000014001d258     main.obj
 0004:00000264       $pdata$??0?$basic_ofstream@DU?$char_traits@D@std@@@std@@QEAA@XZ 000000014001d264     main.obj
 0004:00000270       $pdata$?imbue@?$basic_filebuf@DU?$char_traits@D@std@@@std@@MEAAXAEBVlocale@2@@Z 000000014001d270     main.obj
 0004:0000027c       $pdata$?sync@?$basic_filebuf@DU?$char_traits@D@std@@@std@@MEAAHXZ 000000014001d27c     main.obj
 0004:00000288       $pdata$?setbuf@?$basic_filebuf@DU?$char_traits@D@std@@@std@@MEAAPEAV?$basic_streambuf@DU?$char_traits@D@std@@@2@PEAD_J@Z 000000014001d288     main.obj
 0004:00000294       $pdata$?seekpos@?$basic_filebuf@DU?$char_traits@D@std@@@std@@MEAA?AV?$fpos@U_Mbstatet@@@2@V32@H@Z 000000014001d294     main.obj
 0004:000002a0       $pdata$?seekoff@?$basic_filebuf@DU?$char_traits@D@std@@@std@@MEAA?AV?$fpos@U_Mbstatet@@@2@_JHH@Z 000000014001d2a0     main.obj
 0004:000002ac       $pdata$?uflow@?$basic_filebuf@DU?$char_traits@D@std@@@std@@MEAAHXZ 000000014001d2ac     main.obj
 0004:000002b8       $pdata$?underflow@?$basic_filebuf@DU?$char_traits@D@std@@@std@@MEAAHXZ 000000014001d2b8     main.obj
 0004:000002c4       $pdata$0$?underflow@?$basic_filebuf@DU?$char_traits@D@std@@@std@@MEAAHXZ 000000014001d2c4     main.obj
 0004:000002d0       $pdata$2$?underflow@?$basic_filebuf@DU?$char_traits@D@std@@@std@@MEAAHXZ 000000014001d2d0     main.obj
 0004:000002dc       $pdata$?pbackfail@?$basic_filebuf@DU?$char_traits@D@std@@@std@@MEAAHH@Z 000000014001d2dc     main.obj
 0004:000002e8       $pdata$?overflow@?$basic_filebuf@DU?$char_traits@D@std@@@std@@MEAAHH@Z 000000014001d2e8     main.obj
 0004:000002f4       $pdata$?str@?$basic_stringstream@DU?$char_traits@D@std@@V?$allocator@D@2@@std@@QEBA?AV?$basic_string@DU?$char_traits@D@std@@V?$allocator@D@2@@2@XZ 000000014001d2f4     main.obj
 0004:00000300       $pdata$??0?$basic_stringstream@DU?$char_traits@D@std@@V?$allocator@D@2@@std@@QEAA@H@Z 000000014001d300     main.obj
 0004:0000030c       $pdata$?seekpos@?$basic_stringbuf@DU?$char_traits@D@std@@V?$allocator@D@2@@std@@MEAA?AV?$fpos@U_Mbstatet@@@2@V32@H@Z 000000014001d30c     main.obj
 0004:00000318       $pdata$?seekoff@?$basic_stringbuf@DU?$char_traits@D@std@@V?$allocator@D@2@@std@@MEAA?AV?$fpos@U_Mbstatet@@@2@_JHH@Z 000000014001d318     main.obj
 0004:00000324       $pdata$?overflow@?$basic_stringbuf@DU?$char_traits@D@std@@V?$allocator@D@2@@std@@MEAAHH@Z 000000014001d324     main.obj
 0004:00000330       $pdata$0$?overflow@?$basic_stringbuf@DU?$char_traits@D@std@@V?$allocator@D@2@@std@@MEAAHH@Z 000000014001d330     main.obj
 0004:0000033c       $pdata$2$?overflow@?$basic_stringbuf@DU?$char_traits@D@std@@V?$allocator@D@2@@std@@MEAAHH@Z 000000014001d33c     main.obj
 0004:00000348       $pdata$5$?overflow@?$basic_stringbuf@DU?$char_traits@D@std@@V?$allocator@D@2@@std@@MEAAHH@Z 000000014001d348     main.obj
 0004:00000354       $pdata$10$?overflow@?$basic_stringbuf@DU?$char_traits@D@std@@V?$allocator@D@2@@std@@MEAAHH@Z 000000014001d354     main.obj
 0004:00000360       $pdata$12$?overflow@?$basic_stringbuf@DU?$char_traits@D@std@@V?$allocator@D@2@@std@@MEAAHH@Z 000000014001d360     main.obj
 0004:0000036c       $pdata$13$?overflow@?$basic_stringbuf@DU?$char_traits@D@std@@V?$allocator@D@2@@std@@MEAAHH@Z 000000014001d36c     main.obj
 0004:00000378       $pdata$??1?$basic_stringbuf@DU?$char_traits@D@std@@V?$allocator@D@2@@std@@UEAA@XZ 000000014001d378     main.obj
 0004:00000384       $pdata$??_G?$basic_fstream@DU?$char_traits@D@std@@@std@@UEAAPEAXI@Z 000000014001d384     main.obj
 0004:00000390       $pdata$??_G?$basic_ofstream@DU?$char_traits@D@std@@@std@@UEAAPEAXI@Z 000000014001d390     main.obj
 0004:0000039c       $pdata$??_G?$basic_ifstream@DU?$char_traits@D@std@@@std@@UEAAPEAXI@Z 000000014001d39c     main.obj
 0004:000003a8       $pdata$??_G?$basic_filebuf@DU?$char_traits@D@std@@@std@@UEAAPEAXI@Z 000000014001d3a8     main.obj
 0004:000003b4       $pdata$??_G?$basic_stringstream@DU?$char_traits@D@std@@V?$allocator@D@2@@std@@UEAAPEAXI@Z 000000014001d3b4     main.obj
 0004:000003c0       $pdata$??_G?$basic_stringbuf@DU?$char_traits@D@std@@V?$allocator@D@2@@std@@UEAAPEAXI@Z 000000014001d3c0     main.obj
 0004:000003cc       $pdata$??1sentry@?$basic_ostream@DU?$char_traits@D@std@@@std@@QEAA@XZ 000000014001d3cc     main.obj
 0004:000003d8       $pdata$?assign@?$basic_string@DU?$char_traits@D@std@@V?$allocator@D@2@@std@@QEAAAEAV12@_KD@Z 000000014001d3d8     main.obj
 0004:000003e4       $pdata$1$?assign@?$basic_string@DU?$char_traits@D@std@@V?$allocator@D@2@@std@@QEAAAEAV12@_KD@Z 000000014001d3e4     main.obj
 0004:000003f0       $pdata$3$?assign@?$basic_string@DU?$char_traits@D@std@@V?$allocator@D@2@@std@@QEAAAEAV12@_KD@Z 000000014001d3f0     main.obj
 0004:000003fc       $pdata$?append@?$basic_string@DU?$char_traits@D@std@@V?$allocator@D@2@@std@@QEAAAEAV12@QEBD_K@Z 000000014001d3fc     main.obj
 0004:00000408       $pdata$0$?append@?$basic_string@DU?$char_traits@D@std@@V?$allocator@D@2@@std@@QEAAAEAV12@QEBD_K@Z 000000014001d408     main.obj
 0004:00000414       $pdata$1$?append@?$basic_string@DU?$char_traits@D@std@@V?$allocator@D@2@@std@@QEAAAEAV12@QEBD_K@Z 000000014001d414     main.obj
 0004:00000420       $pdata$?_Endwrite@?$basic_filebuf@DU?$char_traits@D@std@@@std@@IEAA_NXZ 000000014001d420     main.obj
 0004:0000042c       $pdata$?_Init@?$basic_filebuf@DU?$char_traits@D@std@@@std@@IEAAXPEAU_iobuf@@W4_Initfl@12@@Z 000000014001d42c     main.obj
 0004:00000438       $pdata$?close@?$basic_filebuf@DU?$char_traits@D@std@@@std@@QEAAPEAV12@XZ 000000014001d438     main.obj
 0004:00000444       $pdata$?open@?$basic_filebuf@DU?$char_traits@D@std@@@std@@QEAAPEAV12@PEBDHH@Z 000000014001d444     main.obj
 0004:00000450       $pdata$?erase@?$_Tree@V?$_Tmap_traits@V?$basic_string@DU?$char_traits@D@std@@V?$allocator@D@2@@std@@GU?$less@V?$basic_string@DU?$char_traits@D@std@@V?$allocator@D@2@@std@@@2@V?$allocator@U?$pair@$$CBV?$basic_string@DU?$char_traits@D@std@@V?$allocator@D@2@@std@@G@std@@@2@$0A@@std@@@std@@QEAA?AV?$_Tree_iterator@V?$_Tree_val@U?$_Tree_simple_types@U?$pair@$$CBV?$basic_string@DU?$char_traits@D@std@@V?$allocator@D@2@@std@@G@std@@@std@@@std@@@2@V?$_Tree_const_iterator@V?$_Tree_val@U?$_Tree_simple_types@U?$pair@$$CBV?$basic_string@DU?$char_traits@D@std@@V?$allocator@D@2@@std@@G@std@@@std@@@std@@@2@0@Z 000000014001d450     main.obj
 0004:0000045c       $pdata$??1_Sentry_base@?$basic_istream@DU?$char_traits@D@std@@@std@@QEAA@XZ 000000014001d45c     main.obj
 0004:0000045c       $pdata$??1_Sentry_base@?$basic_ostream@DU?$char_traits@D@std@@@std@@QEAA@XZ 000000014001d45c     main.obj
 0004:00000468       $pdata$?_Xran@?$_String_val@U?$_Simple_types@D@std@@@std@@SAXXZ 000000014001d468     main.obj
 0004:00000474       $pdata$?_Buyheadnode@?$_Tree_comp_alloc@V?$_Tmap_traits@V?$basic_string@DU?$char_traits@D@std@@V?$allocator@D@2@@std@@GU?$less@V?$basic_string@DU?$char_traits@D@std@@V?$allocator@D@2@@std@@@2@V?$allocator@U?$pair@$$CBV?$basic_string@DU?$char_traits@D@std@@V?$allocator@D@2@@std@@G@std@@@2@$0A@@std@@@std@@QEAAPEAU?$_Tree_node@U?$pair@$$CBV?$basic_string@DU?$char_traits@D@std@@V?$allocator@D@2@@std@@G@std@@PEAX@2@XZ 000000014001d474     main.obj
 0004:00000480       $pdata$?_Erase@?$_Tree@V?$_Tmap_traits@V?$basic_string@DU?$char_traits@D@std@@V?$allocator@D@2@@std@@GU?$less@V?$basic_string@DU?$char_traits@D@std@@V?$allocator@D@2@@std@@@2@V?$allocator@U?$pair@$$CBV?$basic_string@DU?$char_traits@D@std@@V?$allocator@D@2@@std@@G@std@@@2@$0A@@std@@@std@@IEAAXPEAU?$_Tree_node@U?$pair@$$CBV?$basic_string@DU?$char_traits@D@std@@V?$allocator@D@2@@std@@G@std@@PEAX@2@@Z 000000014001d480     main.obj
 0004:0000048c       $pdata$0$?_Erase@?$_Tree@V?$_Tmap_traits@V?$basic_string@DU?$char_traits@D@std@@V?$allocator@D@2@@std@@GU?$less@V?$basic_string@DU?$char_traits@D@std@@V?$allocator@D@2@@std@@@2@V?$allocator@U?$pair@$$CBV?$basic_string@DU?$char_traits@D@std@@V?$allocator@D@2@@std@@G@std@@@2@$0A@@std@@@std@@IEAAXPEAU?$_Tree_node@U?$pair@$$CBV?$basic_string@DU?$char_traits@D@std@@V?$allocator@D@2@@std@@G@std@@PEAX@2@@Z 000000014001d48c     main.obj
 0004:00000498       $pdata$1$?_Erase@?$_Tree@V?$_Tmap_traits@V?$basic_string@DU?$char_traits@D@std@@V?$allocator@D@2@@std@@GU?$less@V?$basic_string@DU?$char_traits@D@std@@V?$allocator@D@2@@std@@@2@V?$allocator@U?$pair@$$CBV?$basic_string@DU?$char_traits@D@std@@V?$allocator@D@2@@std@@G@std@@@2@$0A@@std@@@std@@IEAAXPEAU?$_Tree_node@U?$pair@$$CBV?$basic_string@DU?$char_traits@D@std@@V?$allocator@D@2@@std@@G@std@@PEAX@2@@Z 000000014001d498     main.obj
 0004:000004a4       $pdata$2$?_Erase@?$_Tree@V?$_Tmap_traits@V?$basic_string@DU?$char_traits@D@std@@V?$allocator@D@2@@std@@GU?$less@V?$basic_string@DU?$char_traits@D@std@@V?$allocator@D@2@@std@@@2@V?$allocator@U?$pair@$$CBV?$basic_string@DU?$char_traits@D@std@@V?$allocator@D@2@@std@@G@std@@@2@$0A@@std@@@std@@IEAAXPEAU?$_Tree_node@U?$pair@$$CBV?$basic_string@DU?$char_traits@D@std@@V?$allocator@D@2@@std@@G@std@@PEAX@2@@Z 000000014001d4a4     main.obj
 0004:000004b0       $pdata$??$use_facet@V?$ctype@D@std@@@std@@YAAEBV?$ctype@D@0@AEBVlocale@0@@Z 000000014001d4b0     main.obj
 0004:000004bc       $pdata$??$?6U?$char_traits@D@std@@@std@@YAAEAV?$basic_ostream@DU?$char_traits@D@std@@@0@AEAV10@D@Z 000000014001d4bc     main.obj
 0004:000004c8       $pdata$??$?6U?$char_traits@D@std@@@std@@YAAEAV?$basic_ostream@DU?$char_traits@D@std@@@0@AEAV10@PEBD@Z 000000014001d4c8     main.obj
 0004:000004d4       $pdata$??$endl@DU?$char_traits@D@std@@@std@@YAAEAV?$basic_ostream@DU?$char_traits@D@std@@@0@AEAV10@@Z 000000014001d4d4     main.obj
 0004:000004e0       $pdata$??$?HDU?$char_traits@D@std@@V?$allocator@D@1@@std@@YA?AV?$basic_string@DU?$char_traits@D@std@@V?$allocator@D@2@@0@$$QEAV10@0@Z 000000014001d4e0     main.obj
 0004:000004ec       $pdata$??$?HDU?$char_traits@D@std@@V?$allocator@D@1@@std@@YA?AV?$basic_string@DU?$char_traits@D@std@@V?$allocator@D@2@@0@AEBV10@$$QEAV10@@Z 000000014001d4ec     main.obj
 0004:000004f8       $pdata$??$?HDU?$char_traits@D@std@@V?$allocator@D@1@@std@@YA?AV?$basic_string@DU?$char_traits@D@std@@V?$allocator@D@2@@0@AEBV10@0@Z 000000014001d4f8     main.obj
 0004:00000504       $pdata$??$?HDU?$char_traits@D@std@@V?$allocator@D@1@@std@@YA?AV?$basic_string@DU?$char_traits@D@std@@V?$allocator@D@2@@0@$$QEAV10@QEBD@Z 000000014001d504     main.obj
 0004:00000510       $pdata$??$?HDU?$char_traits@D@std@@V?$allocator@D@1@@std@@YA?AV?$basic_string@DU?$char_traits@D@std@@V?$allocator@D@2@@0@AEBV10@QEBD@Z 000000014001d510     main.obj
 0004:0000051c       $pdata$??$?HDU?$char_traits@D@std@@V?$allocator@D@1@@std@@YA?AV?$basic_string@DU?$char_traits@D@std@@V?$allocator@D@2@@0@$$QEAV10@D@Z 000000014001d51c     main.obj
 0004:00000528       $pdata$??$?HDU?$char_traits@D@std@@V?$allocator@D@1@@std@@YA?AV?$basic_string@DU?$char_traits@D@std@@V?$allocator@D@2@@0@AEBV10@D@Z 000000014001d528     main.obj
 0004:00000534       $pdata$??$use_facet@V?$codecvt@DDU_Mbstatet@@@std@@@std@@YAAEBV?$codecvt@DDU_Mbstatet@@@0@AEBVlocale@0@@Z 000000014001d534     main.obj
 0004:00000540       $pdata$??$_Reallocate_grow_by@V<lambda_319d5e083f45f90dcdce5dce53cbb275>@@D@?$basic_string@DU?$char_traits@D@std@@V?$allocator@D@2@@std@@QEAAAEAV01@_KV<lambda_319d5e083f45f90dcdce5dce53cbb275>@@D@Z 000000014001d540     main.obj
 0004:0000054c       $pdata$2$??$_Reallocate_grow_by@V<lambda_319d5e083f45f90dcdce5dce53cbb275>@@D@?$basic_string@DU?$char_traits@D@std@@V?$allocator@D@2@@std@@QEAAAEAV01@_KV<lambda_319d5e083f45f90dcdce5dce53cbb275>@@D@Z 000000014001d54c     main.obj
 0004:00000558       $pdata$3$??$_Reallocate_grow_by@V<lambda_319d5e083f45f90dcdce5dce53cbb275>@@D@?$basic_string@DU?$char_traits@D@std@@V?$allocator@D@2@@std@@QEAAAEAV01@_KV<lambda_319d5e083f45f90dcdce5dce53cbb275>@@D@Z 000000014001d558     main.obj
 0004:00000564       $pdata$4$??$_Reallocate_grow_by@V<lambda_319d5e083f45f90dcdce5dce53cbb275>@@D@?$basic_string@DU?$char_traits@D@std@@V?$allocator@D@2@@std@@QEAAAEAV01@_KV<lambda_319d5e083f45f90dcdce5dce53cbb275>@@D@Z 000000014001d564     main.obj
 0004:00000570       $pdata$??$_Reallocate_for@V<lambda_66f57f934f28d61049862f64df852ff0>@@PEBD@?$basic_string@DU?$char_traits@D@std@@V?$allocator@D@2@@std@@QEAAAEAV01@_KV<lambda_66f57f934f28d61049862f64df852ff0>@@PEBD@Z 000000014001d570     main.obj
 0004:0000057c       $pdata$1$??$_Reallocate_for@V<lambda_66f57f934f28d61049862f64df852ff0>@@PEBD@?$basic_string@DU?$char_traits@D@std@@V?$allocator@D@2@@std@@QEAAAEAV01@_KV<lambda_66f57f934f28d61049862f64df852ff0>@@PEBD@Z 000000014001d57c     main.obj
 0004:00000588       $pdata$3$??$_Reallocate_for@V<lambda_66f57f934f28d61049862f64df852ff0>@@PEBD@?$basic_string@DU?$char_traits@D@std@@V?$allocator@D@2@@std@@QEAAAEAV01@_KV<lambda_66f57f934f28d61049862f64df852ff0>@@PEBD@Z 000000014001d588     main.obj
 0004:00000594       $pdata$4$??$_Reallocate_for@V<lambda_66f57f934f28d61049862f64df852ff0>@@PEBD@?$basic_string@DU?$char_traits@D@std@@V?$allocator@D@2@@std@@QEAAAEAV01@_KV<lambda_66f57f934f28d61049862f64df852ff0>@@PEBD@Z 000000014001d594     main.obj
 0004:000005a0       $pdata$5$??$_Reallocate_for@V<lambda_66f57f934f28d61049862f64df852ff0>@@PEBD@?$basic_string@DU?$char_traits@D@std@@V?$allocator@D@2@@std@@QEAAAEAV01@_KV<lambda_66f57f934f28d61049862f64df852ff0>@@PEBD@Z 000000014001d5a0     main.obj
 0004:000005ac       $pdata$??$_Reallocate_grow_by@V<lambda_e1befb086ad3257e3f042a63030725f7>@@_KD@?$basic_string@DU?$char_traits@D@std@@V?$allocator@D@2@@std@@QEAAAEAV01@_KV<lambda_e1befb086ad3257e3f042a63030725f7>@@_KD@Z 000000014001d5ac     main.obj
 0004:000005b8       $pdata$4$??$_Reallocate_grow_by@V<lambda_e1befb086ad3257e3f042a63030725f7>@@_KD@?$basic_string@DU?$char_traits@D@std@@V?$allocator@D@2@@std@@QEAAAEAV01@_KV<lambda_e1befb086ad3257e3f042a63030725f7>@@_KD@Z 000000014001d5b8     main.obj
 0004:000005c4       $pdata$5$??$_Reallocate_grow_by@V<lambda_e1befb086ad3257e3f042a63030725f7>@@_KD@?$basic_string@DU?$char_traits@D@std@@V?$allocator@D@2@@std@@QEAAAEAV01@_KV<lambda_e1befb086ad3257e3f042a63030725f7>@@_KD@Z 000000014001d5c4     main.obj
 0004:000005d0       $pdata$6$??$_Reallocate_grow_by@V<lambda_e1befb086ad3257e3f042a63030725f7>@@_KD@?$basic_string@DU?$char_traits@D@std@@V?$allocator@D@2@@std@@QEAAAEAV01@_KV<lambda_e1befb086ad3257e3f042a63030725f7>@@_KD@Z 000000014001d5d0     main.obj
 0004:000005dc       $pdata$??$_Reallocate_grow_by@V<lambda_65e615be2a453ca0576c979606f46740>@@PEBD_K@?$basic_string@DU?$char_traits@D@std@@V?$allocator@D@2@@std@@QEAAAEAV01@_KV<lambda_65e615be2a453ca0576c979606f46740>@@PEBD_K@Z 000000014001d5dc     main.obj
 0004:000005e8       $pdata$2$??$_Reallocate_grow_by@V<lambda_65e615be2a453ca0576c979606f46740>@@PEBD_K@?$basic_string@DU?$char_traits@D@std@@V?$allocator@D@2@@std@@QEAAAEAV01@_KV<lambda_65e615be2a453ca0576c979606f46740>@@PEBD_K@Z 000000014001d5e8     main.obj
 0004:000005f4       $pdata$3$??$_Reallocate_grow_by@V<lambda_65e615be2a453ca0576c979606f46740>@@PEBD_K@?$basic_string@DU?$char_traits@D@std@@V?$allocator@D@2@@std@@QEAAAEAV01@_KV<lambda_65e615be2a453ca0576c979606f46740>@@PEBD_K@Z 000000014001d5f4     main.obj
 0004:00000600       $pdata$4$??$_Reallocate_grow_by@V<lambda_65e615be2a453ca0576c979606f46740>@@PEBD_K@?$basic_string@DU?$char_traits@D@std@@V?$allocator@D@2@@std@@QEAAAEAV01@_KV<lambda_65e615be2a453ca0576c979606f46740>@@PEBD_K@Z 000000014001d600     main.obj
 0004:0000060c       $pdata$??0bad_cast@std@@QEAA@AEBV01@@Z 000000014001d60c     main.obj
 0004:00000618       $pdata$?_Fail@?$_Default_allocate_traits@$00@std@@SAXXZ 000000014001d618     main.obj
 0004:00000624       $pdata$?_Xlen@?$basic_string@DU?$char_traits@D@std@@V?$allocator@D@2@@std@@SAXXZ 000000014001d624     main.obj
 0004:00000630       $pdata$?reserve@?$basic_string@DU?$char_traits@D@std@@V?$allocator@D@2@@std@@QEAAX_K@Z 000000014001d630     main.obj
 0004:0000063c       $pdata$0$?reserve@?$basic_string@DU?$char_traits@D@std@@V?$allocator@D@2@@std@@QEAAX_K@Z 000000014001d63c     main.obj
 0004:00000648       $pdata$1$?reserve@?$basic_string@DU?$char_traits@D@std@@V?$allocator@D@2@@std@@QEAAX_K@Z 000000014001d648     main.obj
 0004:00000654       $pdata$2$?reserve@?$basic_string@DU?$char_traits@D@std@@V?$allocator@D@2@@std@@QEAAX_K@Z 000000014001d654     main.obj
 0004:00000660       $pdata$?insert@?$basic_string@DU?$char_traits@D@std@@V?$allocator@D@2@@std@@QEAAAEAV12@_KAEBV12@@Z 000000014001d660     main.obj
 0004:0000066c       $pdata$1$?insert@?$basic_string@DU?$char_traits@D@std@@V?$allocator@D@2@@std@@QEAAAEAV12@_KAEBV12@@Z 000000014001d66c     main.obj
 0004:00000678       $pdata$2$?insert@?$basic_string@DU?$char_traits@D@std@@V?$allocator@D@2@@std@@QEAAAEAV12@_KAEBV12@@Z 000000014001d678     main.obj
 0004:00000684       $pdata$??$?5DU?$char_traits@D@std@@V?$allocator@D@1@@std@@YAAEAV?$basic_istream@DU?$char_traits@D@std@@@0@$$QEAV10@AEAV?$basic_string@DU?$char_traits@D@std@@V?$allocator@D@2@@0@@Z 000000014001d684     main.obj
 0004:00000690       $pdata$??$getline@DU?$char_traits@D@std@@V?$allocator@D@2@@std@@YAAEAV?$basic_istream@DU?$char_traits@D@std@@@0@$$QEAV10@AEAV?$basic_string@DU?$char_traits@D@std@@V?$allocator@D@2@@0@D@Z 000000014001d690     main.obj
 0004:0000069c       $pdata$??$_Insert_string@DU?$char_traits@D@std@@_K@std@@YAAEAV?$basic_ostream@DU?$char_traits@D@std@@@0@AEAV10@QEBD_K@Z 000000014001d69c     main.obj
 0004:000006a8       $pdata$??$_Reallocate_grow_by@V<lambda_9013ee9e23efe4882b67eff5b0ecf103>@@$$V@?$basic_string@DU?$char_traits@D@std@@V?$allocator@D@2@@std@@QEAAAEAV01@_KV<lambda_9013ee9e23efe4882b67eff5b0ecf103>@@@Z 000000014001d6a8     main.obj
 0004:000006b4       $pdata$2$??$_Reallocate_grow_by@V<lambda_9013ee9e23efe4882b67eff5b0ecf103>@@$$V@?$basic_string@DU?$char_traits@D@std@@V?$allocator@D@2@@std@@QEAAAEAV01@_KV<lambda_9013ee9e23efe4882b67eff5b0ecf103>@@@Z 000000014001d6b4     main.obj
 0004:000006c0       $pdata$3$??$_Reallocate_grow_by@V<lambda_9013ee9e23efe4882b67eff5b0ecf103>@@$$V@?$basic_string@DU?$char_traits@D@std@@V?$allocator@D@2@@std@@QEAAAEAV01@_KV<lambda_9013ee9e23efe4882b67eff5b0ecf103>@@@Z 000000014001d6c0     main.obj
 0004:000006cc       $pdata$4$??$_Reallocate_grow_by@V<lambda_9013ee9e23efe4882b67eff5b0ecf103>@@$$V@?$basic_string@DU?$char_traits@D@std@@V?$allocator@D@2@@std@@QEAAAEAV01@_KV<lambda_9013ee9e23efe4882b67eff5b0ecf103>@@@Z 000000014001d6cc     main.obj
 0004:000006d8       $pdata$??$_Reallocate_grow_by@V<lambda_f3a66ab6a0570788f31503db83886f49>@@_KPEBD_K@?$basic_string@DU?$char_traits@D@std@@V?$allocator@D@2@@std@@QEAAAEAV01@_KV<lambda_f3a66ab6a0570788f31503db83886f49>@@_KPEBD2@Z 000000014001d6d8     main.obj
 0004:000006e4       $pdata$2$??$_Reallocate_grow_by@V<lambda_f3a66ab6a0570788f31503db83886f49>@@_KPEBD_K@?$basic_string@DU?$char_traits@D@std@@V?$allocator@D@2@@std@@QEAAAEAV01@_KV<lambda_f3a66ab6a0570788f31503db83886f49>@@_KPEBD2@Z 000000014001d6e4     main.obj
 0004:000006f0       $pdata$3$??$_Reallocate_grow_by@V<lambda_f3a66ab6a0570788f31503db83886f49>@@_KPEBD_K@?$basic_string@DU?$char_traits@D@std@@V?$allocator@D@2@@std@@QEAAAEAV01@_KV<lambda_f3a66ab6a0570788f31503db83886f49>@@_KPEBD2@Z 000000014001d6f0     main.obj
 0004:000006fc       $pdata$4$??$_Reallocate_grow_by@V<lambda_f3a66ab6a0570788f31503db83886f49>@@_KPEBD_K@?$basic_string@DU?$char_traits@D@std@@V?$allocator@D@2@@std@@QEAAAEAV01@_KV<lambda_f3a66ab6a0570788f31503db83886f49>@@_KPEBD2@Z 000000014001d6fc     main.obj
 0004:00000708       $pdata$??1sentry@?$basic_istream@DU?$char_traits@D@std@@@std@@QEAA@XZ 000000014001d708     main.obj
 0004:00000714       $pdata$??$_Buynode@AEBU?$pair@$$CBV?$basic_string@DU?$char_traits@D@std@@V?$allocator@D@2@@std@@G@std@@@?$_Tree_comp_alloc@V?$_Tmap_traits@V?$basic_string@DU?$char_traits@D@std@@V?$allocator@D@2@@std@@GU?$less@V?$basic_string@DU?$char_traits@D@std@@V?$allocator@D@2@@std@@@2@V?$allocator@U?$pair@$$CBV?$basic_string@DU?$char_traits@D@std@@V?$allocator@D@2@@std@@G@std@@@2@$0A@@std@@@std@@QEAAPEAU?$_Tree_node@U?$pair@$$CBV?$basic_string@DU?$char_traits@D@std@@V?$allocator@D@2@@std@@G@std@@PEAX@1@AEBU?$pair@$$CBV?$basic_string@DU?$char_traits@D@std@@V?$allocator@D@2@@std@@G@1@@Z 000000014001d714     main.obj
 0004:00000720       $pdata$??$_Insert_hint@AEAU?$pair@$$CBV?$basic_string@DU?$char_traits@D@std@@V?$allocator@D@2@@std@@G@std@@PEAU?$_Tree_node@U?$pair@$$CBV?$basic_string@DU?$char_traits@D@std@@V?$allocator@D@2@@std@@G@std@@PEAX@2@@?$_Tree@V?$_Tmap_traits@V?$basic_string@DU?$char_traits@D@std@@V?$allocator@D@2@@std@@GU?$less@V?$basic_string@DU?$char_traits@D@std@@V?$allocator@D@2@@std@@@2@V?$allocator@U?$pair@$$CBV?$basic_string@DU?$char_traits@D@std@@V?$allocator@D@2@@std@@G@std@@@2@$0A@@std@@@std@@IEAA?AV?$_Tree_iterator@V?$_Tree_val@U?$_Tree_simple_types@U?$pair@$$CBV?$basic_string@DU?$char_traits@D@std@@V?$allocator@D@2@@std@@G@std@@@std@@@std@@@1@V?$_Tree_const_iterator@V?$_Tree_val@U?$_Tree_simple_types@U?$pair@$$CBV?$basic_string@DU?$char_traits@D@std@@V?$allocator@D@2@@std@@G@std@@@std@@@std@@@1@AEAU?$pair@$$CBV?$basic_string@DU?$char_traits@D@std@@V?$allocator@D@2@@std@@G@1@PEAU?$_Tree_node@U?$pair@$$CBV?$basic_string@DU?$char_traits@D@std@@V?$allocator@D@2@@std@@G@std@@PEAX@1@@Z 000000014001d720     main.obj
 0004:0000072c       $pdata$?_Buynode0@?$_Tree_comp_alloc@V?$_Tmap_traits@V?$basic_string@DU?$char_traits@D@std@@V?$allocator@D@2@@std@@GU?$less@V?$basic_string@DU?$char_traits@D@std@@V?$allocator@D@2@@std@@@2@V?$allocator@U?$pair@$$CBV?$basic_string@DU?$char_traits@D@std@@V?$allocator@D@2@@std@@G@std@@@2@$0A@@std@@@std@@QEAAPEAU?$_Tree_node@U?$pair@$$CBV?$basic_string@DU?$char_traits@D@std@@V?$allocator@D@2@@std@@G@std@@PEAX@2@XZ 000000014001d72c     main.obj
 0004:00000738       $pdata$?_Destroy_if_node@?$_Tree@V?$_Tmap_traits@V?$basic_string@DU?$char_traits@D@std@@V?$allocator@D@2@@std@@GU?$less@V?$basic_string@DU?$char_traits@D@std@@V?$allocator@D@2@@std@@@2@V?$allocator@U?$pair@$$CBV?$basic_string@DU?$char_traits@D@std@@V?$allocator@D@2@@std@@G@std@@@2@$0A@@std@@@std@@IEAAXPEAU?$_Tree_node@U?$pair@$$CBV?$basic_string@DU?$char_traits@D@std@@V?$allocator@D@2@@std@@G@std@@PEAX@2@@Z 000000014001d738     main.obj
 0004:00000744       $pdata$??$_Insert_at@AEAU?$pair@$$CBV?$basic_string@DU?$char_traits@D@std@@V?$allocator@D@2@@std@@G@std@@PEAU?$_Tree_node@U?$pair@$$CBV?$basic_string@DU?$char_traits@D@std@@V?$allocator@D@2@@std@@G@std@@PEAX@2@@?$_Tree@V?$_Tmap_traits@V?$basic_string@DU?$char_traits@D@std@@V?$allocator@D@2@@std@@GU?$less@V?$basic_string@DU?$char_traits@D@std@@V?$allocator@D@2@@std@@@2@V?$allocator@U?$pair@$$CBV?$basic_string@DU?$char_traits@D@std@@V?$allocator@D@2@@std@@G@std@@@2@$0A@@std@@@std@@IEAA?AV?$_Tree_iterator@V?$_Tree_val@U?$_Tree_simple_types@U?$pair@$$CBV?$basic_string@DU?$char_traits@D@std@@V?$allocator@D@2@@std@@G@std@@@std@@@std@@@1@_NPEAU?$_Tree_node@U?$pair@$$CBV?$basic_string@DU?$char_traits@D@std@@V?$allocator@D@2@@std@@G@std@@PEAX@1@AEAU?$pair@$$CBV?$basic_string@DU?$char_traits@D@std@@V?$allocator@D@2@@std@@G@1@1@Z 000000014001d744     main.obj
 0004:00000750       $pdata$??$_Insert_nohint@AEAU?$pair@$$CBV?$basic_string@DU?$char_traits@D@std@@V?$allocator@D@2@@std@@G@std@@PEAU?$_Tree_node@U?$pair@$$CBV?$basic_string@DU?$char_traits@D@std@@V?$allocator@D@2@@std@@G@std@@PEAX@2@@?$_Tree@V?$_Tmap_traits@V?$basic_string@DU?$char_traits@D@std@@V?$allocator@D@2@@std@@GU?$less@V?$basic_string@DU?$char_traits@D@std@@V?$allocator@D@2@@std@@@2@V?$allocator@U?$pair@$$CBV?$basic_string@DU?$char_traits@D@std@@V?$allocator@D@2@@std@@G@std@@@2@$0A@@std@@@std@@IEAA?AU?$pair@V?$_Tree_iterator@V?$_Tree_val@U?$_Tree_simple_types@U?$pair@$$CBV?$basic_string@DU?$char_traits@D@std@@V?$allocator@D@2@@std@@G@std@@@std@@@std@@@std@@_N@1@_NAEAU?$pair@$$CBV?$basic_string@DU?$char_traits@D@std@@V?$allocator@D@2@@std@@G@1@PEAU?$_Tree_node@U?$pair@$$CBV?$basic_string@DU?$char_traits@D@std@@V?$allocator@D@2@@std@@G@std@@PEAX@1@@Z 000000014001d750     main.obj
 0004:0000075c       $pdata$??_G_Fac_node@std@@QEAAPEAXI@Z 000000014001d75c     msvcprt:locale0_implib.obj
 0004:00000768       $pdata$?_Facet_Register@std@@YAXPEAV_Facet_base@1@@Z 000000014001d768     msvcprt:locale0_implib.obj
 0004:00000780       $pdata$??2@YAPEAX_K@Z      000000014001d780     MSVCRT:new_scalar.obj
 0004:0000078c       $pdata$??_M@YAXPEAX_K1P6AX0@Z@Z 000000014001d78c     MSVCRT:ehvecdtr.obj
 0004:00000798       $pdata$?__ArrayUnwind@@YAXPEAX_K1P6AX0@Z@Z 000000014001d798     MSVCRT:ehvecdtr.obj
 0004:000007a4       $pdata$__scrt_acquire_startup_lock 000000014001d7a4     MSVCRT:utility.obj
 0004:000007b0       $pdata$__scrt_initialize_crt 000000014001d7b0     MSVCRT:utility.obj
 0004:000007bc       $pdata$__scrt_initialize_onexit_tables 000000014001d7bc     MSVCRT:utility.obj
 0004:000007c8       $pdata$__scrt_is_nonwritable_in_current_image 000000014001d7c8     MSVCRT:utility.obj
 0004:000007d4       $pdata$__scrt_release_startup_lock 000000014001d7d4     MSVCRT:utility.obj
 0004:000007e0       $pdata$__scrt_uninitialize_crt 000000014001d7e0     MSVCRT:utility.obj
 0004:000007ec       $pdata$_onexit             000000014001d7ec     MSVCRT:utility.obj
 0004:000007f8       $pdata$atexit              000000014001d7f8     MSVCRT:utility.obj
 0004:00000804       $pdata$??_Gtype_info@@UEAAPEAXI@Z 000000014001d804     MSVCRT:std_type_info_static.obj
 0004:00000810       $pdata$?pre_c_initialization@@YAHXZ 000000014001d810     MSVCRT:exe_main.obj
 0004:0000081c       $pdata$?post_pgo_initialization@@YAHXZ 000000014001d81c     MSVCRT:exe_main.obj
 0004:00000828       $pdata$?pre_cpp_initialization@@YAXXZ 000000014001d828     MSVCRT:exe_main.obj
 0004:00000834       $pdata$?__scrt_common_main_seh@@YAHXZ 000000014001d834     MSVCRT:exe_main.obj
 0004:00000840       $pdata$mainCRTStartup      000000014001d840     MSVCRT:exe_main.obj
 0004:0000084c       $pdata$__raise_securityfailure 000000014001d84c     MSVCRT:gs_report.obj
 0004:00000858       $pdata$__report_gsfailure  000000014001d858     MSVCRT:gs_report.obj
 0004:00000864       $pdata$capture_previous_context 000000014001d864     MSVCRT:gs_report.obj
 0004:00000870       $pdata$??0bad_alloc@std@@QEAA@AEBV01@@Z 000000014001d870     MSVCRT:throw_bad_alloc.obj
 0004:0000087c       $pdata$??0bad_array_new_length@std@@QEAA@AEBV01@@Z 000000014001d87c     MSVCRT:throw_bad_alloc.obj
 0004:00000888       $pdata$??_Gbad_array_new_length@std@@UEAAPEAXI@Z 000000014001d888     MSVCRT:throw_bad_alloc.obj
 0004:00000888       $pdata$??_Gbad_alloc@std@@UEAAPEAXI@Z 000000014001d888     MSVCRT:throw_bad_alloc.obj
 0004:00000894       $pdata$?__scrt_throw_std_bad_alloc@@YAXXZ 000000014001d894     MSVCRT:throw_bad_alloc.obj
 0004:000008a0       $pdata$?__scrt_throw_std_bad_array_new_length@@YAXXZ 000000014001d8a0     MSVCRT:throw_bad_alloc.obj
 0004:000008ac       $pdata$__isa_available_init 000000014001d8ac     MSVCRT:_cpu_disp_.obj
 0004:000008b8       $pdata$__scrt_fastfail     000000014001d8b8     MSVCRT:utility_desktop.obj
 0004:000008c4       $pdata$__scrt_is_managed_app 000000014001d8c4     MSVCRT:utility_desktop.obj
 0004:000008d0       $pdata$__scrt_unhandled_exception_filter 000000014001d8d0     MSVCRT:utility_desktop.obj
 0004:000008dc       $pdata$__security_init_cookie 000000014001d8dc     MSVCRT:gs_support.obj
 0004:000008e8       $pdata$__scrt_initialize_default_local_stdio_options 000000014001d8e8     MSVCRT:default_local_stdio_options.obj
 0004:000008f4       $pdata$_RTC_Initialize     000000014001d8f4     MSVCRT:_initsect_.obj
 0004:00000900       $pdata$_RTC_Terminate      000000014001d900     MSVCRT:_initsect_.obj
 0004:0000090c       $pdata$__GSHandlerCheck    000000014001d90c     MSVCRT:_gshandler_.obj
 0004:00000918       $pdata$__GSHandlerCheckCommon 000000014001d918     MSVCRT:_gshandler_.obj
 0004:00000924       $pdata$__GSHandlerCheck_EH 000000014001d924     MSVCRT:gshandlereh.obj
 0004:0000096c       $pdata$?dtor$45@?0???__ENumer_zasobu_rar@@YAXXZ@4HA 000000014001d96c     main.obj
 0004:00000978       $pdata$main$dtor$5         000000014001d978     main.obj
 0004:00000984       $pdata$?dtor$0@?0??Obstaw@@YA?AV?$basic_string@DU?$char_traits@D@std@@V?$allocator@D@2@@std@@XZ@4HA 000000014001d984     main.obj
 0004:00000990       $pdata$?dtor$19@?0??Odczytaj_Liczbê@@YAXAEBHAEBV?$basic_string@DU?$char_traits@D@std@@V?$allocator@D@2@@std@@@Z@4HA 000000014001d990     main.obj
 0004:0000099c       $pdata$?dtor$119@?0??Odczytaj_Liczbê@@YAXAEBHAEBV?$basic_string@DU?$char_traits@D@std@@V?$allocator@D@2@@std@@@Z@4HA 000000014001d99c     main.obj
 0004:000009a8       $pdata$?dtor$149@?0??Odczytaj_Liczbê@@YAXAEBHAEBV?$basic_string@DU?$char_traits@D@std@@V?$allocator@D@2@@std@@@Z@4HA 000000014001d9a8     main.obj
 0004:000009b4       $pdata$?dtor$191@?0??Odczytaj_Liczbê@@YAXAEBHAEBV?$basic_string@DU?$char_traits@D@std@@V?$allocator@D@2@@std@@@Z@4HA 000000014001d9b4     main.obj
 0004:000009c0       $pdata$?dtor$221@?0??Odczytaj_Liczbê@@YAXAEBHAEBV?$basic_string@DU?$char_traits@D@std@@V?$allocator@D@2@@std@@@Z@4HA 000000014001d9c0     main.obj
 0004:000009cc       $pdata$?dtor$263@?0??Odczytaj_Liczbê@@YAXAEBHAEBV?$basic_string@DU?$char_traits@D@std@@V?$allocator@D@2@@std@@@Z@4HA 000000014001d9cc     main.obj
 0004:000009d8       $pdata$?dtor$293@?0??Odczytaj_Liczbê@@YAXAEBHAEBV?$basic_string@DU?$char_traits@D@std@@V?$allocator@D@2@@std@@@Z@4HA 000000014001d9d8     main.obj
 0004:000009e4       $pdata$?dtor$325@?0??Odczytaj_Liczbê@@YAXAEBHAEBV?$basic_string@DU?$char_traits@D@std@@V?$allocator@D@2@@std@@@Z@4HA 000000014001d9e4     main.obj
 0004:000009f0       $pdata$?dtor$427@?0??Odczytaj_Liczbê@@YAXAEBHAEBV?$basic_string@DU?$char_traits@D@std@@V?$allocator@D@2@@std@@@Z@4HA 000000014001d9f0     main.obj
 0004:000009fc       $pdata$?dtor$433@?0??Odczytaj_Liczbê@@YAXAEBHAEBV?$basic_string@DU?$char_traits@D@std@@V?$allocator@D@2@@std@@@Z@4HA 000000014001d9fc     main.obj
 0004:00000a08       $pdata$?dtor$286@?0??SprawdŸ_Pliki@@YAXXZ@4HA 000000014001da08     main.obj
 0004:00000a14       $pdata$?dtor$316@?0??SprawdŸ_Pliki@@YAXXZ@4HA 000000014001da14     main.obj
 0004:00000a20       $pdata$?dtor$343@?0??SprawdŸ_Pliki@@YAXXZ@4HA 000000014001da20     main.obj
 0004:00000a2c       $pdata$?dtor$370@?0??SprawdŸ_Pliki@@YAXXZ@4HA 000000014001da2c     main.obj
 0004:00000a38       $pdata$?dtor$383@?0??SprawdŸ_Pliki@@YAXXZ@4HA 000000014001da38     main.obj
 0004:00000a44       $pdata$?dtor$430@?0??SprawdŸ_Pliki@@YAXXZ@4HA 000000014001da44     main.obj
 0004:00000a50       $pdata$?dtor$446@?0??SprawdŸ_Pliki@@YAXXZ@4HA 000000014001da50     main.obj
 0004:00000a5c       $pdata$?dtor$559@?0??SprawdŸ_Pliki@@YAXXZ@4HA 000000014001da5c     main.obj
 0004:00000a68       $pdata$?dtor$586@?0??SprawdŸ_Pliki@@YAXXZ@4HA 000000014001da68     main.obj
 0004:00000a74       $pdata$?dtor$610@?0??SprawdŸ_Pliki@@YAXXZ@4HA 000000014001da74     main.obj
 0004:00000a80       $pdata$?dtor$634@?0??SprawdŸ_Pliki@@YAXXZ@4HA 000000014001da80     main.obj
 0004:00000a8c       $pdata$?dtor$647@?0??SprawdŸ_Pliki@@YAXXZ@4HA 000000014001da8c     main.obj
 0004:00000a98       $pdata$?dtor$688@?0??SprawdŸ_Pliki@@YAXXZ@4HA 000000014001da98     main.obj
 0004:00000aa4       $pdata$?dtor$704@?0??SprawdŸ_Pliki@@YAXXZ@4HA 000000014001daa4     main.obj
 0004:00000ab0       $pdata$?dtor$808@?0??SprawdŸ_Pliki@@YAXXZ@4HA 000000014001dab0     main.obj
 0004:00000abc       $pdata$?dtor$835@?0??SprawdŸ_Pliki@@YAXXZ@4HA 000000014001dabc     main.obj
 0004:00000ac8       $pdata$?dtor$859@?0??SprawdŸ_Pliki@@YAXXZ@4HA 000000014001dac8     main.obj
 0004:00000ad4       $pdata$?dtor$883@?0??SprawdŸ_Pliki@@YAXXZ@4HA 000000014001dad4     main.obj
 0004:00000ae0       $pdata$?dtor$896@?0??SprawdŸ_Pliki@@YAXXZ@4HA 000000014001dae0     main.obj
 0004:00000aec       $pdata$?dtor$937@?0??SprawdŸ_Pliki@@YAXXZ@4HA 000000014001daec     main.obj
 0004:00000af8       $pdata$?dtor$953@?0??SprawdŸ_Pliki@@YAXXZ@4HA 000000014001daf8     main.obj
 0004:00000b04       $pdata$?dtor$4@?0??SprawdŸ_Ustawienia@@YAXXZ@4HA 000000014001db04     main.obj
 0004:00000b10       $pdata$?dtor$1@?0??Og³oœ_Wynik@@YAXAEBH0AEAHAEAV?$basic_ofstream@DU?$char_traits@D@std@@@std@@AEAV?$basic_fstream@DU?$char_traits@D@std@@@2@@Z@4HA 000000014001db10     main.obj
 0004:00000b1c       $pdata$?dtor$25@?0??Wypakuj_Rar@@YAXAEBV?$basic_string@DU?$char_traits@D@std@@V?$allocator@D@2@@std@@@Z@4HA 000000014001db1c     main.obj
 0004:00000b28       $pdata$?dtor$21@?0??Usuñ_Folder_Wypakowany_i_Winrar@@YAXAEBV?$basic_string@DU?$char_traits@D@std@@V?$allocator@D@2@@std@@@Z@4HA 000000014001db28     main.obj
 0004:00000b34       $pdata$?dtor$51@?0??Usuñ_Folder_Wypakowany_i_Winrar@@YAXAEBV?$basic_string@DU?$char_traits@D@std@@V?$allocator@D@2@@std@@@Z@4HA 000000014001db34     main.obj
 0004:00000b40       $pdata$?dtor$81@?0??Usuñ_Folder_Wypakowany_i_Winrar@@YAXAEBV?$basic_string@DU?$char_traits@D@std@@V?$allocator@D@2@@std@@@Z@4HA 000000014001db40     main.obj
 0004:00000b4c       $pdata$?dtor$111@?0??Usuñ_Folder_Wypakowany_i_Winrar@@YAXAEBV?$basic_string@DU?$char_traits@D@std@@V?$allocator@D@2@@std@@@Z@4HA 000000014001db4c     main.obj
 0004:00000b58       $pdata$?dtor$141@?0??Usuñ_Folder_Wypakowany_i_Winrar@@YAXAEBV?$basic_string@DU?$char_traits@D@std@@V?$allocator@D@2@@std@@@Z@4HA 000000014001db58     main.obj
 0004:00000b64       $pdata$?dtor$171@?0??Usuñ_Folder_Wypakowany_i_Winrar@@YAXAEBV?$basic_string@DU?$char_traits@D@std@@V?$allocator@D@2@@std@@@Z@4HA 000000014001db64     main.obj
 0004:00000b70       $pdata$?dtor$201@?0??Usuñ_Folder_Wypakowany_i_Winrar@@YAXAEBV?$basic_string@DU?$char_traits@D@std@@V?$allocator@D@2@@std@@@Z@4HA 000000014001db70     main.obj
 0004:00000b7c       $pdata$?dtor$231@?0??Usuñ_Folder_Wypakowany_i_Winrar@@YAXAEBV?$basic_string@DU?$char_traits@D@std@@V?$allocator@D@2@@std@@@Z@4HA 000000014001db7c     main.obj
 0004:00000b88       $pdata$?dtor$331@?0??Usuñ_Folder_Wypakowany_i_Winrar@@YAXAEBV?$basic_string@DU?$char_traits@D@std@@V?$allocator@D@2@@std@@@Z@4HA 000000014001db88     main.obj
 0004:00000b94       $pdata$?dtor$337@?0??Usuñ_Folder_Wypakowany_i_Winrar@@YAXAEBV?$basic_string@DU?$char_traits@D@std@@V?$allocator@D@2@@std@@@Z@4HA 000000014001db94     main.obj
 0004:00000ba0       $pdata$?dtor$486@?0??Usuñ_Folder_Wypakowany_i_Winrar@@YAXAEBV?$basic_string@DU?$char_traits@D@std@@V?$allocator@D@2@@std@@@Z@4HA 000000014001dba0     main.obj
 0004:00000bac       $pdata$?dtor$590@?0??Usuñ_Folder_Wypakowany_i_Winrar@@YAXAEBV?$basic_string@DU?$char_traits@D@std@@V?$allocator@D@2@@std@@@Z@4HA 000000014001dbac     main.obj
 0004:00000bb8       $pdata$?dtor$0@?0???0?$basic_ofstream@DU?$char_traits@D@std@@@std@@QEAA@XZ@4HA 000000014001dbb8     main.obj
 0004:00000bc4       $pdata$?dtor$0@?0???0?$basic_stringstream@DU?$char_traits@D@std@@V?$allocator@D@2@@std@@QEAA@H@Z@4HA 000000014001dbc4     main.obj
 0004:00000bd0       $pdata$?catch$10@?0???$?6U?$char_traits@D@std@@@std@@YAAEAV?$basic_ostream@DU?$char_traits@D@std@@@0@AEAV10@D@Z@4HA 000000014001dbd0     main.obj
 0004:00000bdc       $pdata$?catch$9@?0???$?6U?$char_traits@D@std@@@std@@YAAEAV?$basic_ostream@DU?$char_traits@D@std@@@0@AEAV10@PEBD@Z@4HA 000000014001dbdc     main.obj
 0004:00000be8       $pdata$?dtor$0@?0???$?HDU?$char_traits@D@std@@V?$allocator@D@1@@std@@YA?AV?$basic_string@DU?$char_traits@D@std@@V?$allocator@D@2@@0@AEBV10@0@Z@4HA 000000014001dbe8     main.obj
 0004:00000be8       $pdata$?dtor$0@?0???$?HDU?$char_traits@D@std@@V?$allocator@D@1@@std@@YA?AV?$basic_string@DU?$char_traits@D@std@@V?$allocator@D@2@@0@AEBV10@QEBD@Z@4HA 000000014001dbe8     main.obj
 0004:00000bf4       $pdata$?dtor$0@?0???$?HDU?$char_traits@D@std@@V?$allocator@D@1@@std@@YA?AV?$basic_string@DU?$char_traits@D@std@@V?$allocator@D@2@@0@AEBV10@D@Z@4HA 000000014001dbf4     main.obj
 0004:00000c00       $pdata$?catch$33@?0???$?5DU?$char_traits@D@std@@V?$allocator@D@1@@std@@YAAEAV?$basic_istream@DU?$char_traits@D@std@@@0@$$QEAV10@AEAV?$basic_string@DU?$char_traits@D@std@@V?$allocator@D@2@@0@@Z@4HA 000000014001dc00     main.obj
 0004:00000c0c       $pdata$?catch$28@?0???$getline@DU?$char_traits@D@std@@V?$allocator@D@2@@std@@YAAEAV?$basic_istream@DU?$char_traits@D@std@@@0@$$QEAV10@AEAV?$basic_string@DU?$char_traits@D@std@@V?$allocator@D@2@@0@D@Z@4HA 000000014001dc0c     main.obj
 0004:00000c18       $pdata$?catch$8@?0???$_Insert_string@DU?$char_traits@D@std@@_K@std@@YAAEAV?$basic_ostream@DU?$char_traits@D@std@@@0@AEAV10@QEBD_K@Z@4HA 000000014001dc18     main.obj
 0004:00000c24       $pdata$?dtor$5@?0???$_Buynode@AEBU?$pair@$$CBV?$basic_string@DU?$char_traits@D@std@@V?$allocator@D@2@@std@@G@std@@@?$_Tree_comp_alloc@V?$_Tmap_traits@V?$basic_string@DU?$char_traits@D@std@@V?$allocator@D@2@@std@@GU?$less@V?$basic_string@DU?$char_traits@D@std@@V?$allocator@D@2@@std@@@2@V?$allocator@U?$pair@$$CBV?$basic_string@DU?$char_traits@D@std@@V?$allocator@D@2@@std@@G@std@@@2@$0A@@std@@@std@@QEAAPEAU?$_Tree_node@U?$pair@$$CBV?$basic_string@DU?$char_traits@D@std@@V?$allocator@D@2@@std@@G@std@@PEAX@1@AEBU?$pair@$$CBV?$basic_string@DU?$char_traits@D@std@@V?$allocator@D@2@@std@@G@1@@Z@4HA 000000014001dc24     main.obj
 0004:00000c30       $pdata$?catch$8@?0???$_Buynode@AEBU?$pair@$$CBV?$basic_string@DU?$char_traits@D@std@@V?$allocator@D@2@@std@@G@std@@@?$_Tree_comp_alloc@V?$_Tmap_traits@V?$basic_string@DU?$char_traits@D@std@@V?$allocator@D@2@@std@@GU?$less@V?$basic_string@DU?$char_traits@D@std@@V?$allocator@D@2@@std@@@2@V?$allocator@U?$pair@$$CBV?$basic_string@DU?$char_traits@D@std@@V?$allocator@D@2@@std@@G@std@@@2@$0A@@std@@@std@@QEAAPEAU?$_Tree_node@U?$pair@$$CBV?$basic_string@DU?$char_traits@D@std@@V?$allocator@D@2@@std@@G@std@@PEAX@1@AEBU?$pair@$$CBV?$basic_string@DU?$char_traits@D@std@@V?$allocator@D@2@@std@@G@1@@Z@4HA 000000014001dc30     main.obj
 0004:00000c3c       $pdata$?catch$232@?0???$_Insert_hint@AEAU?$pair@$$CBV?$basic_string@DU?$char_traits@D@std@@V?$allocator@D@2@@std@@G@std@@PEAU?$_Tree_node@U?$pair@$$CBV?$basic_string@DU?$char_traits@D@std@@V?$allocator@D@2@@std@@G@std@@PEAX@2@@?$_Tree@V?$_Tmap_traits@V?$basic_string@DU?$char_traits@D@std@@V?$allocator@D@2@@std@@GU?$less@V?$basic_string@DU?$char_traits@D@std@@V?$allocator@D@2@@std@@@2@V?$allocator@U?$pair@$$CBV?$basic_string@DU?$char_traits@D@std@@V?$allocator@D@2@@std@@G@std@@@2@$0A@@std@@@std@@IEAA?AV?$_Tree_iterator@V?$_Tree_val@U?$_Tree_simple_types@U?$pair@$$CBV?$basic_string@DU?$char_traits@D@std@@V?$allocator@D@2@@std@@G@std@@@std@@@std@@@1@V?$_Tree_const_iterator@V?$_Tree_val@U?$_Tree_simple_types@U?$pair@$$CBV?$basic_string@DU?$char_traits@D@std@@V?$allocator@D@2@@std@@G@std@@@std@@@std@@@1@AEAU?$pair@$$CBV?$basic_string@DU?$char_traits@D@std@@V?$allocator@D@2@@std@@G@1@PEAU?$_Tree_node@U?$pair@$$CBV?$basic_string@DU?$char_traits@D@std@@V?$allocator@D@2@@std@@G@std@@PEAX@1@@Z@4HA 000000014001dc3c     main.obj
 0004:00000c48       $pdata$?catch$96@?0???$_Insert_nohint@AEAU?$pair@$$CBV?$basic_string@DU?$char_traits@D@std@@V?$allocator@D@2@@std@@G@std@@PEAU?$_Tree_node@U?$pair@$$CBV?$basic_string@DU?$char_traits@D@std@@V?$allocator@D@2@@std@@G@std@@PEAX@2@@?$_Tree@V?$_Tmap_traits@V?$basic_string@DU?$char_traits@D@std@@V?$allocator@D@2@@std@@GU?$less@V?$basic_string@DU?$char_traits@D@std@@V?$allocator@D@2@@std@@@2@V?$allocator@U?$pair@$$CBV?$basic_string@DU?$char_traits@D@std@@V?$allocator@D@2@@std@@G@std@@@2@$0A@@std@@@std@@IEAA?AU?$pair@V?$_Tree_iterator@V?$_Tree_val@U?$_Tree_simple_types@U?$pair@$$CBV?$basic_string@DU?$char_traits@D@std@@V?$allocator@D@2@@std@@G@std@@@std@@@std@@@std@@_N@1@_NAEAU?$pair@$$CBV?$basic_string@DU?$char_traits@D@std@@V?$allocator@D@2@@std@@G@1@PEAU?$_Tree_node@U?$pair@$$CBV?$basic_string@DU?$char_traits@D@std@@V?$allocator@D@2@@std@@G@std@@PEAX@1@@Z@4HA 000000014001dc48     main.obj
 0004:00000c54       $pdata$?fin$0@?0???_M@YAXPEAX_K1P6AX0@Z@Z@4HA 000000014001dc54     MSVCRT:ehvecdtr.obj
 0004:00000c60       $pdata$?filt$0@?0??__ArrayUnwind@@YAXPEAX_K1P6AX0@Z@Z@4HA 000000014001dc60     MSVCRT:ehvecdtr.obj
 0004:00000c6c       $pdata$__scrt_is_nonwritable_in_current_image$filt$0 000000014001dc6c     MSVCRT:utility.obj
 0004:00000c78       $pdata$?filt$0@?0??__scrt_common_main_seh@@YAHXZ@4HA 000000014001dc78     MSVCRT:exe_main.obj
 0004:00000c84       $pdata$??__FNumer_zasobu_rar@@YAXXZ 000000014001dc84     main.obj
 0004:00000c90       $pdata$??__FG³os@@YAXXZ    000000014001dc90     main.obj
 0004:00000c9c       $pdata$??__F_Fac_tidy_reg@std@@YAXXZ 000000014001dc9c     msvcprt:locale0_implib.obj
 0005:00000a20       $R000000                   000000014001ea20     Resource.res
 0005:000079f8       $R006FD8                   00000001400259f8     Resource.res
 0005:00007a10       $R006FF0                   0000000140025a10     Resource.res
 0005:0005dc80       $R05D260                   000000014007bc80     Resource.res
 0005:000df000       $R0DE5E0                   00000001400fd000     Resource.res
 0005:00135270       $R134850                   0000000140153270     Resource.res
 0005:0028db40       $R28D120                   00000001402abb40     Resource.res
 0005:00320618       $R31FBF8                   000000014033e618     Resource.res
 0005:004319b8       $R430F98                   000000014044f9b8     Resource.res
 0005:0050e4a8       $R50DA88                   000000014052c4a8     Resource.res
 0005:005d5200       $R5D47E0                   00000001405f3200     Resource.res
 0005:0069bf60       $R69B540                   00000001406b9f60     Resource.res
 0005:007432e0       $R7428C0                   00000001407612e0     Resource.res
 0005:008542c0       $R8538A0                   00000001408722c0     Resource.res
 0005:00955c58       $R955238                   0000000140973c58     Resource.res
 0005:00a45250       $RA44830                   0000000140a63250     Resource.res
 0005:00b1bc80       $RB1B260                   0000000140b39c80     Resource.res
 0005:00be9770       $RBE8D50                   0000000140c07770     Resource.res
 0005:00ce7f18       $RCE74F8                   0000000140d05f18     Resource.res
 0005:00dcd500       $RDCCAE0                   0000000140deb500     Resource.res
 0005:00e9aff8       $RE9A5D8                   0000000140eb8ff8     Resource.res
 0005:00f56320       $RF55900                   0000000140f74320     Resource.res
 0005:00ffde40       $RFFD420                   000000014101be40     Resource.res
 0005:0110b1b8       $R10A798                   00000001411291b8     Resource.res
 0005:011faee8       $R1FA4C8                   0000000141218ee8     Resource.res
 0005:012cc868       $R2CBE48                   00000001412ea868     Resource.res
 0005:0138fa00       $R38EFE0                   00000001413ada00     Resource.res
 0005:0144cfe8       $R44C5C8                   000000014146afe8     Resource.res
 0005:01533d38       $R533318                   0000000141551d38     Resource.res
 0005:015fa640       $R5F9C20                   0000000141618640     Resource.res
 0005:016ac118       $R6AB6F8                   00000001416ca118     Resource.res
 0005:0174d918       $R74CEF8                   000000014176b918     Resource.res
 0005:017df0f0       $R7DE6D0                   00000001417fd0f0     Resource.res
 0005:018ec130       $R8EB710                   000000014190a130     Resource.res
 0005:019d85a0       $R9D7B80                   00000001419f65a0     Resource.res
 0005:01ab4810       $RAB3DF0                   0000000141ad2810     Resource.res
 0005:01b7d1a0       $RB7C780                   0000000141b9b1a0     Resource.res
 0005:01c2c4d8       $RC2BAB8                   0000000141c4a4d8     Resource.res
 0005:01d09e08       $RD093E8                   0000000141d27e08     Resource.res
 0005:01dc8dd0       $RDC83B0                   0000000141de6dd0     Resource.res
 0005:01e76890       $RE75E70                   0000000141e94890     Resource.res
 0005:01f12f90       $RF12570                   0000000141f30f90     Resource.res
 0005:01fa0520       $RF9FB00                   0000000141fbe520     Resource.res
 0005:020a6120       $R0A5700                   00000001420c4120     Resource.res
 0005:0219e530       $R19DB10                   00000001421bc530     Resource.res
 0005:02280c80       $R280260                   000000014229ec80     Resource.res
 0005:0234bc48       $R34B228                   0000000142369c48     Resource.res
 0005:02406238       $R405818                   0000000142424238     Resource.res
 0005:024f6ec8       $R4F64A8                   0000000142514ec8     Resource.res
 0005:025d1d68       $R5D1348                   00000001425efd68     Resource.res
 0005:02699e00       $R6993E0                   00000001426b7e00     Resource.res
 0005:0274cfb8       $R74C598                   000000014276afb8     Resource.res

 Exports

  ordinal    name

