 Ruletka

 Timestamp is 5a3a71e0 (Wed Dec 20 15:21:20 2017)

 Preferred load address is 0000000140000000

 Start         Length     Name                   Class
 0001:00000000 00000b70H .text$di                CODE
 0001:00000b70 00034160H .text$mn                CODE
 0001:00034cd0 000000e0H .text$mn$00             CODE
 0001:00034db0 00001ef0H .text$x                 CODE
 0001:00036ca0 00000264H .text$yd                CODE
 0002:00000000 00000338H .idata$5                DATA
 0002:00000338 00000020H .00cfg                  DATA
 0002:00000358 00000008H .CRT$XCA                DATA
 0002:00000360 00000008H .CRT$XCAA               DATA
 0002:00000368 00000058H .CRT$XCC                DATA
 0002:000003c0 00000010H .CRT$XCL                DATA
 0002:000003d0 00000020H .CRT$XCU                DATA
 0002:000003f0 00000008H .CRT$XCZ                DATA
 0002:000003f8 00000008H .CRT$XIA                DATA
 0002:00000400 00000008H .CRT$XIAA               DATA
 0002:00000408 00000008H .CRT$XIAC               DATA
 0002:00000410 00000028H .CRT$XIC                DATA
 0002:00000438 00000008H .CRT$XIZ                DATA
 0002:00000440 00000008H .CRT$XPA                DATA
 0002:00000448 00000010H .CRT$XPX                DATA
 0002:00000458 00000008H .CRT$XPXA               DATA
 0002:00000460 00000008H .CRT$XPZ                DATA
 0002:00000468 00000008H .CRT$XTA                DATA
 0002:00000470 00000010H .CRT$XTZ                DATA
 0002:00000478 00000000H .gfids$y                DATA
 0002:00000480 00011e70H .rdata                  DATA
 0002:000122f0 000014bcH .rdata$r                DATA
 0002:000137ac 000003dcH .rdata$zzzdbg           DATA
 0002:00013b88 00000008H .rtc$IAA                DATA
 0002:00013b90 00000008H .rtc$IZZ                DATA
 0002:00013b98 00000008H .rtc$TAA                DATA
 0002:00013ba0 00000010H .rtc$TZZ                DATA
 0002:00013bb0 00005128H .xdata                  DATA
 0002:00018cd8 0000036cH .xdata$x                DATA
 0002:00019044 00000000H .edata                  DATA
 0002:00019044 00000050H .idata$2                DATA
 0002:00019094 00000014H .idata$3                DATA
 0002:000190a8 00000338H .idata$4                DATA
 0002:000193e0 00000752H .idata$6                DATA
 0003:00000000 00000ba0H .data                   DATA
 0003:00000ba0 00000830H .data$r                 DATA
 0003:000013d0 00001abcH .bss                    DATA
 0004:00000000 00002d54H .pdata                  DATA
 0005:00000000 00000a20H .rsrc$01                DATA
 0005:00000a20 027e4fc0H .rsrc$02                DATA

  Address         Publics by Value              Rva+Base               Lib:Object

 0000:00000000       __guard_iat_table          0000000000000000     <absolute>
 0000:00000000       __dynamic_value_reloc_table 0000000000000000     <absolute>
 0000:00000000       __hybrid_code_map          0000000000000000     <absolute>
 0000:00000000       __hybrid_code_map_count    0000000000000000     <absolute>
 0000:00000000       __guard_iat_count          0000000000000000     <absolute>
 0000:00000000       __hybrid_auxiliary_iat     0000000000000000     <absolute>
 0000:00000000       __guard_longjmp_table      0000000000000000     <absolute>
 0000:00000000       __guard_longjmp_count      0000000000000000     <absolute>
 0000:00000000       __guard_fids_count         0000000000000000     <absolute>
 0000:00000000       __enclave_config           0000000000000000     <absolute>
 0000:00000000       ___safe_se_handler_table   0000000000000000     <absolute>
 0000:00000000       ___safe_se_handler_count   0000000000000000     <absolute>
 0000:00000000       __guard_fids_table         0000000000000000     <absolute>
 0000:00000100       __guard_flags              0000000000000100     <absolute>
 0000:00000000       __ImageBase                0000000140000000     <linker-defined>
 0001:00000b70       __local_stdio_printf_options 0000000140001b70 f i main.obj
 0001:00000b80       ??0exception@std@@QEAA@AEBV01@@Z 0000000140001b80 f i main.obj
 0001:00000bc0       ?what@exception@std@@UEBAPEBDXZ 0000000140001bc0 f i main.obj
 0001:00000be0       ??_Gexception@std@@UEAAPEAXI@Z 0000000140001be0 f i main.obj
 0001:00000be0       ??_Eout_of_range@std@@UEAAPEAXI@Z 0000000140001be0 f i libcpmt:xthrow.obj
 0001:00000be0       ??_Glength_error@std@@UEAAPEAXI@Z 0000000140001be0 f i libcpmt:xthrow.obj
 0001:00000be0       ??_Ebad_array_new_length@std@@UEAAPEAXI@Z 0000000140001be0 f i LIBCMT:throw_bad_alloc.obj
 0001:00000be0       ??_Eruntime_error@std@@UEAAPEAXI@Z 0000000140001be0 f i * CIL library *:* CIL module *
 0001:00000be0       ??_Glogic_error@std@@UEAAPEAXI@Z 0000000140001be0 f i libcpmt:xthrow.obj
 0001:00000be0       ??_Eexception@std@@UEAAPEAXI@Z 0000000140001be0 f i * CIL library *:* CIL module *
 0001:00000be0       ??_Gbad_alloc@std@@UEAAPEAXI@Z 0000000140001be0 f i libcpmt:xthrow.obj
 0001:00000be0       ??_Ebad_exception@std@@UEAAPEAXI@Z 0000000140001be0 f i libvcruntime:frame.obj
 0001:00000be0       ??_Elogic_error@std@@UEAAPEAXI@Z 0000000140001be0 f i libcpmt:xthrow.obj
 0001:00000be0       ??_Gout_of_range@std@@UEAAPEAXI@Z 0000000140001be0 f i libcpmt:xthrow.obj
 0001:00000be0       ??_Gruntime_error@std@@UEAAPEAXI@Z 0000000140001be0 f i main.obj
 0001:00000be0       ??_Gbad_exception@std@@UEAAPEAXI@Z 0000000140001be0 f i libvcruntime:frame.obj
 0001:00000be0       ??_Ebad_alloc@std@@UEAAPEAXI@Z 0000000140001be0 f i libcpmt:xthrow.obj
 0001:00000be0       ??_Elength_error@std@@UEAAPEAXI@Z 0000000140001be0 f i libcpmt:xthrow.obj
 0001:00000be0       ??_Gbad_array_new_length@std@@UEAAPEAXI@Z 0000000140001be0 f i LIBCMT:throw_bad_alloc.obj
 0001:00000c30       _initialize_denormal_control 0000000140001c30 f i LIBCMT:denormal_control.obj
 0001:00000c30       ??3@YAXPEAX0@Z             0000000140001c30 f i main.obj
 0001:00000c30       ?imbue@?$basic_streambuf@DU?$char_traits@D@std@@@std@@MEAAXAEBVlocale@2@@Z 0000000140001c30 f i main.obj
 0001:00000c30       _guard_check_icall_nop     0000000140001c30 f i LIBCMT:guard_support.obj
 0001:00000c30       _initialize_invalid_parameter_handler 0000000140001c30 f i LIBCMT:invalid_parameter_handler.obj
 0001:00000c30       ?_Unlock@?$basic_streambuf@DU?$char_traits@D@std@@@std@@UEAAXXZ 0000000140001c30 f i main.obj
 0001:00000c30       ?_Lock@?$basic_streambuf@DU?$char_traits@D@std@@@std@@UEAAXXZ 0000000140001c30 f i main.obj
 0001:00000c40       sprintf_s                  0000000140001c40 f i main.obj
 0001:00000ca0       ??0runtime_error@std@@QEAA@PEBD@Z 0000000140001ca0 f i main.obj
 0001:00000d10       ??1failure@ios_base@std@@UEAA@XZ 0000000140001d10 f i main.obj
 0001:00000d10       ??1runtime_error@std@@UEAA@XZ 0000000140001d10 f i main.obj
 0001:00000d10       ??1bad_array_new_length@std@@UEAA@XZ 0000000140001d10 f i LIBCMT:throw_bad_alloc.obj
 0001:00000d10       ??1bad_alloc@std@@UEAA@XZ  0000000140001d10 f i libcpmt:xthrow.obj
 0001:00000d10       ??1out_of_range@std@@UEAA@XZ 0000000140001d10 f i libcpmt:xthrow.obj
 0001:00000d10       ??1length_error@std@@UEAA@XZ 0000000140001d10 f i libcpmt:xthrow.obj
 0001:00000d10       ??1bad_exception@std@@UEAA@XZ 0000000140001d10 f i libvcruntime:frame.obj
 0001:00000d30       ??0_Locinfo@std@@QEAA@PEBD@Z 0000000140001d30 f i main.obj
 0001:00000dd0       ??1_Locinfo@std@@QEAA@XZ   0000000140001dd0 f i main.obj
 0001:00000e80       ??0runtime_error@std@@QEAA@AEBV01@@Z 0000000140001e80 f i main.obj
 0001:00000ec0       ??_E_Facet_base@std@@UEAAPEAXI@Z 0000000140001ec0 f i * CIL library *:* CIL module *
 0001:00000ec0       ??_G_Facet_base@std@@UEAAPEAXI@Z 0000000140001ec0 f i main.obj
 0001:00000ef0       ?_Incref@facet@locale@std@@UEAAXXZ 0000000140001ef0 f i main.obj
 0001:00000f00       ?_Decref@facet@locale@std@@UEAAPEAV_Facet_base@3@XZ 0000000140001f00 f i main.obj
 0001:00000f10       ??1facet@locale@std@@MEAA@XZ 0000000140001f10 f i main.obj
 0001:00000f20       ??1locale@std@@QEAA@XZ     0000000140001f20 f i main.obj
 0001:00000f60       ?do_encoding@codecvt_base@std@@MEBAHXZ 0000000140001f60 f i main.obj
 0001:00000f60       _get_startup_argv_mode     0000000140001f60 f i LIBCMT:argv_mode.obj
 0001:00000f60       ?do_max_length@codecvt_base@std@@MEBAHXZ 0000000140001f60 f i main.obj
 0001:00000f70       ?do_tolower@?$ctype@D@std@@MEBADD@Z 0000000140001f70 f i main.obj
 0001:00000f80       ?do_tolower@?$ctype@D@std@@MEBAPEBDPEADPEBD@Z 0000000140001f80 f i main.obj
 0001:00000fe0       ?do_toupper@?$ctype@D@std@@MEBADD@Z 0000000140001fe0 f i main.obj
 0001:00000ff0       ?do_toupper@?$ctype@D@std@@MEBAPEBDPEADPEBD@Z 0000000140001ff0 f i main.obj
 0001:00001050       ?do_narrow@?$ctype@D@std@@MEBADDD@Z 0000000140002050 f i main.obj
 0001:00001050       ?do_widen@?$ctype@D@std@@MEBADD@Z 0000000140002050 f i main.obj
 0001:00001060       ?do_widen@?$ctype@D@std@@MEBAPEBDPEBD0PEAD@Z 0000000140002060 f i main.obj
 0001:00001080       ?do_narrow@?$ctype@D@std@@MEBAPEBDPEBD0DPEAD@Z 0000000140002080 f i main.obj
 0001:000010a0       ??_E?$ctype@D@std@@MEAAPEAXI@Z 00000001400020a0 f i * CIL library *:* CIL module *
 0001:000010a0       ??_G?$ctype@D@std@@MEAAPEAXI@Z 00000001400020a0 f i main.obj
 0001:00001110       ??_G_Iostream_error_category@std@@UEAAPEAXI@Z 0000000140002110 f i main.obj
 0001:00001110       ??_Eerror_category@std@@UEAAPEAXI@Z 0000000140002110 f i * CIL library *:* CIL module *
 0001:00001110       ??_E_Iostream_error_category@std@@UEAAPEAXI@Z 0000000140002110 f i * CIL library *:* CIL module *
 0001:00001110       ??_Gerror_category@std@@UEAAPEAXI@Z 0000000140002110 f i main.obj
 0001:00001140       ?default_error_condition@error_category@std@@UEBA?AVerror_condition@2@H@Z 0000000140002140 f i main.obj
 0001:00001150       ?equivalent@error_category@std@@UEBA_NHAEBVerror_condition@2@@Z 0000000140002150 f i main.obj
 0001:00001190       ?equivalent@error_category@std@@UEBA_NAEBVerror_code@2@H@Z 0000000140002190 f i main.obj
 0001:000011b0       ?make_error_code@std@@YA?AVerror_code@1@W4io_errc@1@@Z 00000001400021b0 f i main.obj
 0001:00001210       ??_Gfailure@ios_base@std@@UEAAPEAXI@Z 0000000140002210 f i main.obj
 0001:00001210       ??_Efailure@ios_base@std@@UEAAPEAXI@Z 0000000140002210 f i * CIL library *:* CIL module *
 0001:00001210       ??_E_System_error@std@@UEAAPEAXI@Z 0000000140002210 f i * CIL library *:* CIL module *
 0001:00001210       ??_Gsystem_error@std@@UEAAPEAXI@Z 0000000140002210 f i main.obj
 0001:00001210       ??_Esystem_error@std@@UEAAPEAXI@Z 0000000140002210 f i * CIL library *:* CIL module *
 0001:00001210       ??_G_System_error@std@@UEAAPEAXI@Z 0000000140002210 f i main.obj
 0001:00001260       ?name@_Iostream_error_category@std@@UEBAPEBDXZ 0000000140002260 f i main.obj
 0001:00001270       ?message@_Iostream_error_category@std@@UEBA?AV?$basic_string@DU?$char_traits@D@std@@V?$allocator@D@2@@2@H@Z 0000000140002270 f i main.obj
 0001:00001320       ??0failure@ios_base@std@@QEAA@PEBDAEBVerror_code@2@@Z 0000000140002320 f i main.obj
 0001:000014e0       ?clear@ios_base@std@@QEAAXH_N@Z 00000001400024e0 f i main.obj
 0001:000015a0       ??0failure@ios_base@std@@QEAA@AEBV012@@Z 00000001400025a0 f i main.obj
 0001:00001600       ??0system_error@std@@QEAA@AEBV01@@Z 0000000140002600 f i main.obj
 0001:00001660       ??0_System_error@std@@QEAA@AEBV01@@Z 0000000140002660 f i main.obj
 0001:000016b0       ??_Gios_base@std@@UEAAPEAXI@Z 00000001400026b0 f i main.obj
 0001:000016b0       ??_Eios_base@std@@UEAAPEAXI@Z 00000001400026b0 f i * CIL library *:* CIL module *
 0001:00001700       ??1?$pair@$$CBV?$basic_string@DU?$char_traits@D@std@@V?$allocator@D@2@@std@@G@std@@QEAA@XZ 0000000140002700 f i main.obj
 0001:00001700       ??1?$basic_string@DU?$char_traits@D@std@@V?$allocator@D@2@@std@@QEAA@XZ 0000000140002700 f i main.obj
 0001:00001710       main                       0000000140002710 f   main.obj
 0001:00001ae0       ??_D?$basic_ofstream@DU?$char_traits@D@std@@@std@@QEAAXXZ 0000000140002ae0 f i main.obj
 0001:00001b80       ??_D?$basic_fstream@DU?$char_traits@D@std@@@std@@QEAAXXZ 0000000140002b80 f i main.obj
 0001:00001c90       ?Obstaw@@YA?AV?$basic_string@DU?$char_traits@D@std@@V?$allocator@D@2@@std@@XZ 0000000140002c90 f   main.obj
 0001:000025c0       ?Wczytaj_Kwotê_Zak³adu@@YAXAEAHAEBH@Z 00000001400035c0 f   main.obj
 0001:000027f0       ?Zakrêæ_Ruletk¹@@YAHXZ     00000001400037f0 f   main.obj
 0001:00002ce0       ?SprawdŸ_Zak³ad@@YAHAEBHAEBV?$basic_string@DU?$char_traits@D@std@@V?$allocator@D@2@@std@@0@Z 0000000140003ce0 f   main.obj
 0001:00002ff0       ?Czy_Kontynuowaæ@@YA_NAEBH@Z 0000000140003ff0 f   main.obj
 0001:00003300       ?Odczytaj_Liczbê@@YAXAEBHAEBV?$basic_string@DU?$char_traits@D@std@@V?$allocator@D@2@@std@@@Z 0000000140004300 f   main.obj
 0001:00003cc0       ??_D?$basic_stringstream@DU?$char_traits@D@std@@V?$allocator@D@2@@std@@QEAAXXZ 0000000140004cc0 f i main.obj
 0001:00003dd0       ?__autoclassinit2@?$basic_stringstream@DU?$char_traits@D@std@@V?$allocator@D@2@@std@@QEAAX_K@Z 0000000140004dd0 f i main.obj
 0001:00003df0       ?Wczytaj_z_Pliku@@YAXAEAV?$basic_ofstream@DU?$char_traits@D@std@@@std@@AEAV?$basic_fstream@DU?$char_traits@D@std@@@2@AEADAEAH33AEAV?$basic_string@DU?$char_traits@D@std@@V?$allocator@D@2@@2@@Z 0000000140004df0 f   main.obj
 0001:00005590       ?SprawdŸ_Pliki@@YAXXZ      0000000140006590 f   main.obj
 0001:00008140       ?SprawdŸ_Ustawienia@@YAXXZ 0000000140009140 f   main.obj
 0001:00008a20       ??_D?$basic_ifstream@DU?$char_traits@D@std@@@std@@QEAAXXZ 0000000140009a20 f i main.obj
 0001:00008ac0       ?Og³oœ_Wynik@@YAXAEBH0AEAHAEAV?$basic_ofstream@DU?$char_traits@D@std@@@std@@AEAV?$basic_fstream@DU?$char_traits@D@std@@@2@@Z 0000000140009ac0 f   main.obj
 0001:00008f00       ?Koniec_Gry@@YAXAEAV?$basic_ofstream@DU?$char_traits@D@std@@@std@@AEAV?$basic_fstream@DU?$char_traits@D@std@@@2@AEBH@Z 0000000140009f00 f   main.obj
 0001:000091a0       ?Pêtla_G³ówna@@YAXAEAH00AEAV?$basic_ofstream@DU?$char_traits@D@std@@@std@@AEAV?$basic_fstream@DU?$char_traits@D@std@@@2@AEADAEAV?$basic_string@DU?$char_traits@D@std@@V?$allocator@D@2@@2@0@Z 000000014000a1a0 f   main.obj
 0001:000095e0       ?Ustaw_Ustawienia@@YAXAEAV?$basic_string@DU?$char_traits@D@std@@V?$allocator@D@2@@std@@@Z 000000014000a5e0 f   main.obj
 0001:0000a1d0       ?Wyci¹gnij_z_Programu@@YA_NAEBV?$basic_string@DU?$char_traits@D@std@@V?$allocator@D@2@@std@@G@Z 000000014000b1d0 f   main.obj
 0001:0000a2e0       ?Wypakuj_Rar@@YAXAEBV?$basic_string@DU?$char_traits@D@std@@V?$allocator@D@2@@std@@@Z 000000014000b2e0 f   main.obj
 0001:0000a3f0       ?Przenieœ_Plik@@YA_NAEBV?$basic_string@DU?$char_traits@D@std@@V?$allocator@D@2@@std@@0@Z 000000014000b3f0 f   main.obj
 0001:0000a420       ?Usuñ_Folder_Wypakowany_i_Winrar@@YAXAEBV?$basic_string@DU?$char_traits@D@std@@V?$allocator@D@2@@std@@@Z 000000014000b420 f   main.obj
 0001:0000ad60       ??1?$_Tree@V?$_Tmap_traits@V?$basic_string@DU?$char_traits@D@std@@V?$allocator@D@2@@std@@GU?$less@V?$basic_string@DU?$char_traits@D@std@@V?$allocator@D@2@@std@@@2@V?$allocator@U?$pair@$$CBV?$basic_string@DU?$char_traits@D@std@@V?$allocator@D@2@@std@@G@std@@@2@$0A@@std@@@std@@QEAA@XZ 000000014000bd60 f i main.obj
 0001:0000ada0       ?at@?$map@V?$basic_string@DU?$char_traits@D@std@@V?$allocator@D@2@@std@@GU?$less@V?$basic_string@DU?$char_traits@D@std@@V?$allocator@D@2@@std@@@2@V?$allocator@U?$pair@$$CBV?$basic_string@DU?$char_traits@D@std@@V?$allocator@D@2@@std@@G@std@@@2@@std@@QEBAAEBGAEBV?$basic_string@DU?$char_traits@D@std@@V?$allocator@D@2@@2@@Z 000000014000bda0 f i main.obj
 0001:0000aea0       ??1?$_Yarn@D@std@@QEAA@XZ  000000014000bea0 f i main.obj
 0001:0000aea0       ??1?$_Yarn@_W@std@@QEAA@XZ 000000014000bea0 f i main.obj
 0001:0000aed0       ?c_str@?$basic_string@DU?$char_traits@D@std@@V?$allocator@D@2@@std@@QEBAPEBDXZ 000000014000bed0 f i main.obj
 0001:0000aee0       ?erase@?$basic_string@DU?$char_traits@D@std@@V?$allocator@D@2@@std@@QEAAAEAV12@_K_K@Z 000000014000bee0 f i main.obj
 0001:0000af40       ?append@?$basic_string@DU?$char_traits@D@std@@V?$allocator@D@2@@std@@QEAAAEAV12@QEBD@Z 000000014000bf40 f i main.obj
 0001:0000af60       ?append@?$basic_string@DU?$char_traits@D@std@@V?$allocator@D@2@@std@@QEAAAEAV12@AEBV12@@Z 000000014000bf60 f i main.obj
 0001:0000af80       ??0?$basic_string@DU?$char_traits@D@std@@V?$allocator@D@2@@std@@QEAA@QEBD@Z 000000014000bf80 f i main.obj
 0001:0000b010       ??0?$basic_string@DU?$char_traits@D@std@@V?$allocator@D@2@@std@@QEAA@AEBV01@@Z 000000014000c010 f i main.obj
 0001:0000b0d0       ??0?$basic_ofstream@DU?$char_traits@D@std@@@std@@QEAA@XZ 000000014000c0d0 f i main.obj
 0001:0000b1b0       ?imbue@?$basic_filebuf@DU?$char_traits@D@std@@@std@@MEAAXAEBVlocale@2@@Z 000000014000c1b0 f i main.obj
 0001:0000b1e0       ?sync@?$basic_filebuf@DU?$char_traits@D@std@@@std@@MEAAHXZ 000000014000c1e0 f i main.obj
 0001:0000b230       ?setbuf@?$basic_filebuf@DU?$char_traits@D@std@@@std@@MEAAPEAV?$basic_streambuf@DU?$char_traits@D@std@@@2@PEAD_J@Z 000000014000c230 f i main.obj
 0001:0000b290       ?seekpos@?$basic_filebuf@DU?$char_traits@D@std@@@std@@MEAA?AV?$fpos@U_Mbstatet@@@2@V32@H@Z 000000014000c290 f i main.obj
 0001:0000b380       ?seekoff@?$basic_filebuf@DU?$char_traits@D@std@@@std@@MEAA?AV?$fpos@U_Mbstatet@@@2@_JHH@Z 000000014000c380 f i main.obj
 0001:0000b490       ?uflow@?$basic_filebuf@DU?$char_traits@D@std@@@std@@MEAAHXZ 000000014000c490 f i main.obj
 0001:0000b750       ?underflow@?$basic_filebuf@DU?$char_traits@D@std@@@std@@MEAAHXZ 000000014000c750 f i main.obj
 0001:0000b7c0       ?pbackfail@?$basic_filebuf@DU?$char_traits@D@std@@@std@@MEAAHH@Z 000000014000c7c0 f i main.obj
 0001:0000b8b0       ?overflow@?$basic_filebuf@DU?$char_traits@D@std@@@std@@MEAAHH@Z 000000014000c8b0 f i main.obj
 0001:0000bb00       ?_Unlock@?$basic_filebuf@DU?$char_traits@D@std@@@std@@UEAAXXZ 000000014000cb00 f i main.obj
 0001:0000bb20       ?_Lock@?$basic_filebuf@DU?$char_traits@D@std@@@std@@UEAAXXZ 000000014000cb20 f i main.obj
 0001:0000bb40       ??1?$basic_filebuf@DU?$char_traits@D@std@@@std@@UEAA@XZ 000000014000cb40 f i main.obj
 0001:0000bc00       ?str@?$basic_stringstream@DU?$char_traits@D@std@@V?$allocator@D@2@@std@@QEBA?AV?$basic_string@DU?$char_traits@D@std@@V?$allocator@D@2@@2@XZ 000000014000cc00 f i main.obj
 0001:0000bc20       ??0?$basic_stringstream@DU?$char_traits@D@std@@V?$allocator@D@2@@std@@QEAA@H@Z 000000014000cc20 f i main.obj
 0001:0000bd50       ?seekpos@?$basic_stringbuf@DU?$char_traits@D@std@@V?$allocator@D@2@@std@@MEAA?AV?$fpos@U_Mbstatet@@@2@V32@H@Z 000000014000cd50 f i main.obj
 0001:0000be60       ?seekoff@?$basic_stringbuf@DU?$char_traits@D@std@@V?$allocator@D@2@@std@@MEAA?AV?$fpos@U_Mbstatet@@@2@_JHH@Z 000000014000ce60 f i main.obj
 0001:0000c000       ?underflow@?$basic_stringbuf@DU?$char_traits@D@std@@V?$allocator@D@2@@std@@MEAAHXZ 000000014000d000 f i main.obj
 0001:0000c070       ?pbackfail@?$basic_stringbuf@DU?$char_traits@D@std@@V?$allocator@D@2@@std@@MEAAHH@Z 000000014000d070 f i main.obj
 0001:0000c0c0       ?overflow@?$basic_stringbuf@DU?$char_traits@D@std@@V?$allocator@D@2@@std@@MEAAHH@Z 000000014000d0c0 f i main.obj
 0001:0000c3c0       ??1?$basic_stringbuf@DU?$char_traits@D@std@@V?$allocator@D@2@@std@@UEAA@XZ 000000014000d3c0 f i main.obj
 0001:0000c4f0       ??1?$basic_iostream@DU?$char_traits@D@std@@@std@@UEAA@XZ 000000014000d4f0 f i main.obj
 0001:0000c570       ?flush@?$basic_ostream@DU?$char_traits@D@std@@@std@@QEAAAEAV12@XZ 000000014000d570 f i main.obj
 0001:0000c640       ??6?$basic_ostream@DU?$char_traits@D@std@@@std@@QEAAAEAV01@H@Z 000000014000d640 f i main.obj
 0001:0000c7e0       ??6?$basic_ostream@DU?$char_traits@D@std@@@std@@QEAAAEAV01@G@Z 000000014000d7e0 f i main.obj
 0001:0000c990       ??1?$basic_ostream@DU?$char_traits@D@std@@@std@@UEAA@XZ 000000014000d990 f i main.obj
 0001:0000c9c0       ??1?$basic_istream@DU?$char_traits@D@std@@@std@@UEAA@XZ 000000014000d9c0 f i main.obj
 0001:0000c9f0       _get_startup_new_mode      000000014000d9f0 f i LIBCMT:new_mode.obj
 0001:0000c9f0       ?sync@?$basic_streambuf@DU?$char_traits@D@std@@@std@@MEAAHXZ 000000014000d9f0 f i main.obj
 0001:0000c9f0       _get_startup_commit_mode   000000014000d9f0 f i LIBCMT:commit_mode.obj
 0001:0000c9f0       __scrt_initialize_winrt    000000014000d9f0 f i LIBCMT:utility_desktop.obj
 0001:0000c9f0       _get_startup_thread_locale_mode 000000014000d9f0 f i LIBCMT:thread_locale.obj
 0001:0000c9f0       ?showmanyc@?$basic_streambuf@DU?$char_traits@D@std@@@std@@MEAA_JXZ 000000014000d9f0 f i main.obj
 0001:0000c9f0       _matherr                   000000014000d9f0 f i LIBCMT:matherr.obj
 0001:0000ca00       ?setbuf@?$basic_streambuf@DU?$char_traits@D@std@@@std@@MEAAPEAV12@PEAD_J@Z 000000014000da00 f i main.obj
 0001:0000ca10       ?seekoff@?$basic_streambuf@DU?$char_traits@D@std@@@std@@MEAA?AV?$fpos@U_Mbstatet@@@2@_JHH@Z 000000014000da10 f i main.obj
 0001:0000ca10       ?seekpos@?$basic_streambuf@DU?$char_traits@D@std@@@std@@MEAA?AV?$fpos@U_Mbstatet@@@2@V32@H@Z 000000014000da10 f i main.obj
 0001:0000ca30       ?xsputn@?$basic_streambuf@DU?$char_traits@D@std@@@std@@MEAA_JPEBD_J@Z 000000014000da30 f i main.obj
 0001:0000cb00       ?xsgetn@?$basic_streambuf@DU?$char_traits@D@std@@@std@@MEAA_JPEAD_J@Z 000000014000db00 f i main.obj
 0001:0000cbc0       ?uflow@?$basic_streambuf@DU?$char_traits@D@std@@@std@@MEAAHXZ 000000014000dbc0 f i main.obj
 0001:0000cc00       ?pbackfail@?$basic_streambuf@DU?$char_traits@D@std@@@std@@MEAAHH@Z 000000014000dc00 f i main.obj
 0001:0000cc00       ?overflow@?$basic_streambuf@DU?$char_traits@D@std@@@std@@MEAAHH@Z 000000014000dc00 f i main.obj
 0001:0000cc00       ?underflow@?$basic_streambuf@DU?$char_traits@D@std@@@std@@MEAAHXZ 000000014000dc00 f i main.obj
 0001:0000cc10       ??1?$basic_streambuf@DU?$char_traits@D@std@@@std@@UEAA@XZ 000000014000dc10 f i main.obj
 0001:0000cc70       ??1?$basic_ios@DU?$char_traits@D@std@@@std@@UEAA@XZ 000000014000dc70 f i main.obj
 0001:0000cca0       ??_G?$basic_fstream@DU?$char_traits@D@std@@@std@@UEAAPEAXI@Z 000000014000dca0 f i main.obj
 0001:0000cca0       ??_E?$basic_fstream@DU?$char_traits@D@std@@@std@@UEAAPEAXI@Z 000000014000dca0 f i * CIL library *:* CIL module *
 0001:0000cce0       ??_E?$basic_ofstream@DU?$char_traits@D@std@@@std@@UEAAPEAXI@Z 000000014000dce0 f i * CIL library *:* CIL module *
 0001:0000cce0       ??_G?$basic_ofstream@DU?$char_traits@D@std@@@std@@UEAAPEAXI@Z 000000014000dce0 f i main.obj
 0001:0000cd20       ??_E?$basic_ifstream@DU?$char_traits@D@std@@@std@@UEAAPEAXI@Z 000000014000dd20 f i * CIL library *:* CIL module *
 0001:0000cd20       ??_G?$basic_ifstream@DU?$char_traits@D@std@@@std@@UEAAPEAXI@Z 000000014000dd20 f i main.obj
 0001:0000cd60       ??_G?$basic_filebuf@DU?$char_traits@D@std@@@std@@UEAAPEAXI@Z 000000014000dd60 f i main.obj
 0001:0000cd60       ??_E?$basic_filebuf@DU?$char_traits@D@std@@@std@@UEAAPEAXI@Z 000000014000dd60 f i * CIL library *:* CIL module *
 0001:0000cda0       ??_E?$basic_stringstream@DU?$char_traits@D@std@@V?$allocator@D@2@@std@@UEAAPEAXI@Z 000000014000dda0 f i * CIL library *:* CIL module *
 0001:0000cda0       ??_G?$basic_stringstream@DU?$char_traits@D@std@@V?$allocator@D@2@@std@@UEAAPEAXI@Z 000000014000dda0 f i main.obj
 0001:0000cde0       ??_G?$basic_stringbuf@DU?$char_traits@D@std@@V?$allocator@D@2@@std@@UEAAPEAXI@Z 000000014000dde0 f i main.obj
 0001:0000cde0       ??_E?$basic_stringbuf@DU?$char_traits@D@std@@V?$allocator@D@2@@std@@UEAAPEAXI@Z 000000014000dde0 f i * CIL library *:* CIL module *
 0001:0000ce20       ??_E?$basic_iostream@DU?$char_traits@D@std@@@std@@UEAAPEAXI@Z 000000014000de20 f i * CIL library *:* CIL module *
 0001:0000ce20       ??_G?$basic_iostream@DU?$char_traits@D@std@@@std@@UEAAPEAXI@Z 000000014000de20 f i main.obj
 0001:0000cee0       ??_E?$basic_ostream@DU?$char_traits@D@std@@@std@@UEAAPEAXI@Z 000000014000dee0 f i * CIL library *:* CIL module *
 0001:0000cee0       ??_G?$basic_ostream@DU?$char_traits@D@std@@@std@@UEAAPEAXI@Z 000000014000dee0 f i main.obj
 0001:0000cf50       ??_G?$basic_istream@DU?$char_traits@D@std@@@std@@UEAAPEAXI@Z 000000014000df50 f i main.obj
 0001:0000cf50       ??_E?$basic_istream@DU?$char_traits@D@std@@@std@@UEAAPEAXI@Z 000000014000df50 f i * CIL library *:* CIL module *
 0001:0000cfc0       ??_E?$basic_streambuf@DU?$char_traits@D@std@@@std@@UEAAPEAXI@Z 000000014000dfc0 f i * CIL library *:* CIL module *
 0001:0000cfc0       ??_G?$basic_streambuf@DU?$char_traits@D@std@@@std@@UEAAPEAXI@Z 000000014000dfc0 f i main.obj
 0001:0000d050       ??_Glocale@std@@QEAAPEAXI@Z 000000014000e050 f i main.obj
 0001:0000d0b0       ??_E?$basic_ios@DU?$char_traits@D@std@@@std@@UEAAPEAXI@Z 000000014000e0b0 f i * CIL library *:* CIL module *
 0001:0000d0b0       ??_G?$basic_ios@DU?$char_traits@D@std@@@std@@UEAAPEAXI@Z 000000014000e0b0 f i main.obj
 0001:0000d100       ?do_length@?$codecvt@DDU_Mbstatet@@@std@@MEBAHAEAU_Mbstatet@@PEBD1_K@Z 000000014000e100 f i main.obj
 0001:0000d120       ?do_unshift@?$codecvt@DDU_Mbstatet@@@std@@MEBAHAEAU_Mbstatet@@PEAD1AEAPEAD@Z 000000014000e120 f i main.obj
 0001:0000d130       ?do_out@?$codecvt@DDU_Mbstatet@@@std@@MEBAHAEAU_Mbstatet@@PEBD1AEAPEBDPEAD3AEAPEAD@Z 000000014000e130 f i main.obj
 0001:0000d130       ?do_in@?$codecvt@DDU_Mbstatet@@@std@@MEBAHAEAU_Mbstatet@@PEBD1AEAPEBDPEAD3AEAPEAD@Z 000000014000e130 f i main.obj
 0001:0000d150       _should_initialize_environment 000000014000e150 f i LIBCMT:env_mode.obj
 0001:0000d150       __acrt_uninitialize_command_line 000000014000e150 f i libucrt:argv_data.obj
 0001:0000d150       ?do_always_noconv@?$codecvt@DDU_Mbstatet@@@std@@MEBA_NXZ 000000014000e150 f i main.obj
 0001:0000d160       ??1sentry@?$basic_ostream@DU?$char_traits@D@std@@@std@@QEAA@XZ 000000014000e160 f i main.obj
 0001:0000d1b0       ?do_put@?$num_put@DV?$ostreambuf_iterator@DU?$char_traits@D@std@@@std@@@std@@MEBA?AV?$ostreambuf_iterator@DU?$char_traits@D@std@@@2@V32@AEAVios_base@2@DPEBX@Z 000000014000e1b0 f i main.obj
 0001:0000d250       ?do_put@?$num_put@DV?$ostreambuf_iterator@DU?$char_traits@D@std@@@std@@@std@@MEBA?AV?$ostreambuf_iterator@DU?$char_traits@D@std@@@2@V32@AEAVios_base@2@DO@Z 000000014000e250 f i main.obj
 0001:0000d490       ?do_put@?$num_put@DV?$ostreambuf_iterator@DU?$char_traits@D@std@@@std@@@std@@MEBA?AV?$ostreambuf_iterator@DU?$char_traits@D@std@@@2@V32@AEAVios_base@2@DN@Z 000000014000e490 f i main.obj
 0001:0000d6d0       ?do_put@?$num_put@DV?$ostreambuf_iterator@DU?$char_traits@D@std@@@std@@@std@@MEBA?AV?$ostreambuf_iterator@DU?$char_traits@D@std@@@2@V32@AEAVios_base@2@D_K@Z 000000014000e6d0 f i main.obj
 0001:0000d7f0       ?do_put@?$num_put@DV?$ostreambuf_iterator@DU?$char_traits@D@std@@@std@@@std@@MEBA?AV?$ostreambuf_iterator@DU?$char_traits@D@std@@@2@V32@AEAVios_base@2@D_J@Z 000000014000e7f0 f i main.obj
 0001:0000d910       ?do_put@?$num_put@DV?$ostreambuf_iterator@DU?$char_traits@D@std@@@std@@@std@@MEBA?AV?$ostreambuf_iterator@DU?$char_traits@D@std@@@2@V32@AEAVios_base@2@DK@Z 000000014000e910 f i main.obj
 0001:0000da30       ?do_put@?$num_put@DV?$ostreambuf_iterator@DU?$char_traits@D@std@@@std@@@std@@MEBA?AV?$ostreambuf_iterator@DU?$char_traits@D@std@@@2@V32@AEAVios_base@2@DJ@Z 000000014000ea30 f i main.obj
 0001:0000db50       ?do_put@?$num_put@DV?$ostreambuf_iterator@DU?$char_traits@D@std@@@std@@@std@@MEBA?AV?$ostreambuf_iterator@DU?$char_traits@D@std@@@2@V32@AEAVios_base@2@D_N@Z 000000014000eb50 f i main.obj
 0001:0000de30       ?_Tidy@?$vector@V?$basic_string@DU?$char_traits@D@std@@V?$allocator@D@2@@std@@V?$allocator@V?$basic_string@DU?$char_traits@D@std@@V?$allocator@D@2@@std@@@2@@std@@AEAAXXZ 000000014000ee30 f i main.obj
 0001:0000df00       ??1?$_Deque_alloc@U?$_Deque_base_types@GV?$allocator@G@std@@@std@@@std@@QEAA@XZ 000000014000ef00 f i main.obj
 0001:0000df30       ?_Tidy@?$deque@GV?$allocator@G@std@@@std@@IEAAXXZ 000000014000ef30 f i main.obj
 0001:0000e020       ?_Tidy_deallocate@?$basic_string@DU?$char_traits@D@std@@V?$allocator@D@2@@std@@QEAAXXZ 000000014000f020 f i main.obj
 0001:0000e090       ?append@?$basic_string@DU?$char_traits@D@std@@V?$allocator@D@2@@std@@QEAAAEAV12@_KD@Z 000000014000f090 f i main.obj
 0001:0000e120       ?append@?$basic_string@DU?$char_traits@D@std@@V?$allocator@D@2@@std@@QEAAAEAV12@QEBD_K@Z 000000014000f120 f i main.obj
 0001:0000e1a0       ?_Reset_back@?$basic_filebuf@DU?$char_traits@D@std@@@std@@AEAAXXZ 000000014000f1a0 f i main.obj
 0001:0000e1d0       ?_Initcvt@?$basic_filebuf@DU?$char_traits@D@std@@@std@@IEAAXPEBV?$codecvt@DDU_Mbstatet@@@2@@Z 000000014000f1d0 f i main.obj
 0001:0000e270       ?_Endwrite@?$basic_filebuf@DU?$char_traits@D@std@@@std@@IEAA_NXZ 000000014000f270 f i main.obj
 0001:0000e430       ?_Init@?$basic_filebuf@DU?$char_traits@D@std@@@std@@IEAAXPEAU_iobuf@@W4_Initfl@12@@Z 000000014000f430 f i main.obj
 0001:0000e540       ?close@?$basic_filebuf@DU?$char_traits@D@std@@@std@@QEAAPEAV12@XZ 000000014000f540 f i main.obj
 0001:0000e5b0       ?open@?$basic_filebuf@DU?$char_traits@D@std@@@std@@QEAAPEAV12@PEBDHH@Z 000000014000f5b0 f i main.obj
 0001:0000e660       ?str@?$basic_stringbuf@DU?$char_traits@D@std@@V?$allocator@D@2@@std@@QEBA?AV?$basic_string@DU?$char_traits@D@std@@V?$allocator@D@2@@2@XZ 000000014000f660 f i main.obj
 0001:0000e7a0       ??0?$basic_ostream@DU?$char_traits@D@std@@@std@@QEAA@PEAV?$basic_streambuf@DU?$char_traits@D@std@@@1@_N@Z 000000014000f7a0 f i main.obj
 0001:0000e820       ??0?$basic_istream@DU?$char_traits@D@std@@@std@@QEAA@PEAV?$basic_streambuf@DU?$char_traits@D@std@@@1@_N@Z 000000014000f820 f i main.obj
 0001:0000e8b0       ??_G?$codecvt@DDU_Mbstatet@@@std@@MEAAPEAXI@Z 000000014000f8b0 f i main.obj
 0001:0000e8b0       ??_G?$num_put@DV?$ostreambuf_iterator@DU?$char_traits@D@std@@@std@@@std@@MEAAPEAXI@Z 000000014000f8b0 f i main.obj
 0001:0000e8b0       ??_E?$codecvt@DDU_Mbstatet@@@std@@MEAAPEAXI@Z 000000014000f8b0 f i * CIL library *:* CIL module *
 0001:0000e8b0       ??_E?$num_put@DV?$ostreambuf_iterator@DU?$char_traits@D@std@@@std@@@std@@MEAAPEAXI@Z 000000014000f8b0 f i * CIL library *:* CIL module *
 0001:0000e8e0       ?do_truename@?$numpunct@D@std@@MEBA?AV?$basic_string@DU?$char_traits@D@std@@V?$allocator@D@2@@2@XZ 000000014000f8e0 f i main.obj
 0001:0000e900       ?do_falsename@?$numpunct@D@std@@MEBA?AV?$basic_string@DU?$char_traits@D@std@@V?$allocator@D@2@@2@XZ 000000014000f900 f i main.obj
 0001:0000e920       ?do_grouping@?$numpunct@D@std@@MEBA?AV?$basic_string@DU?$char_traits@D@std@@V?$allocator@D@2@@2@XZ 000000014000f920 f i main.obj
 0001:0000e940       ?do_thousands_sep@?$numpunct@D@std@@MEBADXZ 000000014000f940 f i main.obj
 0001:0000e950       ?do_decimal_point@?$numpunct@D@std@@MEBADXZ 000000014000f950 f i main.obj
 0001:0000e960       ??1_Sentry_base@?$basic_ostream@DU?$char_traits@D@std@@@std@@QEAA@XZ 000000014000f960 f i main.obj
 0001:0000e960       ??1_Sentry_base@?$basic_istream@DU?$char_traits@D@std@@@std@@QEAA@XZ 000000014000f960 f i main.obj
 0001:0000e990       ?_Iput@?$num_put@DV?$ostreambuf_iterator@DU?$char_traits@D@std@@@std@@@std@@AEBA?AV?$ostreambuf_iterator@DU?$char_traits@D@std@@@2@V32@AEAVios_base@2@DPEAD_K@Z 000000014000f990 f i main.obj
 0001:0000efc0       ?_Fput@?$num_put@DV?$ostreambuf_iterator@DU?$char_traits@D@std@@@std@@@std@@AEBA?AV?$ostreambuf_iterator@DU?$char_traits@D@std@@@2@V32@AEAVios_base@2@DPEBD_K@Z 000000014000ffc0 f i main.obj
 0001:0000f650       ?erase@?$_Tree@V?$_Tmap_traits@V?$basic_string@DU?$char_traits@D@std@@V?$allocator@D@2@@std@@GU?$less@V?$basic_string@DU?$char_traits@D@std@@V?$allocator@D@2@@std@@@2@V?$allocator@U?$pair@$$CBV?$basic_string@DU?$char_traits@D@std@@V?$allocator@D@2@@std@@G@std@@@2@$0A@@std@@@std@@QEAA?AV?$_Tree_iterator@V?$_Tree_val@U?$_Tree_simple_types@U?$pair@$$CBV?$basic_string@DU?$char_traits@D@std@@V?$allocator@D@2@@std@@G@std@@@std@@@std@@@2@V?$_Tree_const_iterator@V?$_Tree_val@U?$_Tree_simple_types@U?$pair@$$CBV?$basic_string@DU?$char_traits@D@std@@V?$allocator@D@2@@std@@G@std@@@std@@@std@@@2@0@Z 0000000140010650 f i main.obj
 0001:0000f820       ?_Xran@?$_String_val@U?$_Simple_types@D@std@@@std@@SAXXZ 0000000140010820 f i main.obj
 0001:0000f840       ?_Osfx@?$basic_ostream@DU?$char_traits@D@std@@@std@@QEAAXXZ 0000000140010840 f i main.obj
 0001:0000f8a0       ??0?$basic_streambuf@DU?$char_traits@D@std@@@std@@IEAA@XZ 00000001400108a0 f i main.obj
 0001:0000f950       ?init@?$basic_ios@DU?$char_traits@D@std@@@std@@IEAAXPEAV?$basic_streambuf@DU?$char_traits@D@std@@@2@_N@Z 0000000140010950 f i main.obj
 0001:0000fa70       ??_G?$numpunct@D@std@@MEAAPEAXI@Z 0000000140010a70 f i main.obj
 0001:0000fa70       ??_E?$numpunct@D@std@@MEAAPEAXI@Z 0000000140010a70 f i * CIL library *:* CIL module *
 0001:0000fad0       ?_Tidy@?$numpunct@D@std@@AEAAXXZ 0000000140010ad0 f i main.obj
 0001:0000fb00       ?_Buyheadnode@?$_Tree_comp_alloc@V?$_Tmap_traits@V?$basic_string@DU?$char_traits@D@std@@V?$allocator@D@2@@std@@GU?$less@V?$basic_string@DU?$char_traits@D@std@@V?$allocator@D@2@@std@@@2@V?$allocator@U?$pair@$$CBV?$basic_string@DU?$char_traits@D@std@@V?$allocator@D@2@@std@@G@std@@@2@$0A@@std@@@std@@QEAAPEAU?$_Tree_node@U?$pair@$$CBV?$basic_string@DU?$char_traits@D@std@@V?$allocator@D@2@@std@@G@std@@PEAX@2@XZ 0000000140010b00 f i main.obj
 0001:0000fb30       ?_Erase@?$_Tree@V?$_Tmap_traits@V?$basic_string@DU?$char_traits@D@std@@V?$allocator@D@2@@std@@GU?$less@V?$basic_string@DU?$char_traits@D@std@@V?$allocator@D@2@@std@@@2@V?$allocator@U?$pair@$$CBV?$basic_string@DU?$char_traits@D@std@@V?$allocator@D@2@@std@@G@std@@@2@$0A@@std@@@std@@IEAAXPEAU?$_Tree_node@U?$pair@$$CBV?$basic_string@DU?$char_traits@D@std@@V?$allocator@D@2@@std@@G@std@@PEAX@2@@Z 0000000140010b30 f i main.obj
 0001:0000fb90       ?_Extract@?$_Tree@V?$_Tmap_traits@V?$basic_string@DU?$char_traits@D@std@@V?$allocator@D@2@@std@@GU?$less@V?$basic_string@DU?$char_traits@D@std@@V?$allocator@D@2@@std@@@2@V?$allocator@U?$pair@$$CBV?$basic_string@DU?$char_traits@D@std@@V?$allocator@D@2@@std@@G@std@@@2@$0A@@std@@@std@@QEAAPEAU?$_Tree_node@U?$pair@$$CBV?$basic_string@DU?$char_traits@D@std@@V?$allocator@D@2@@std@@G@std@@PEAX@2@V?$_Tree_const_iterator@V?$_Tree_val@U?$_Tree_simple_types@U?$pair@$$CBV?$basic_string@DU?$char_traits@D@std@@V?$allocator@D@2@@std@@G@std@@@std@@@std@@@2@@Z 0000000140010b90 f i main.obj
 0001:00010050       ??$use_facet@V?$ctype@D@std@@@std@@YAAEBV?$ctype@D@0@AEBVlocale@0@@Z 0000000140011050 f i main.obj
 0001:00010200       ??$?6U?$char_traits@D@std@@@std@@YAAEAV?$basic_ostream@DU?$char_traits@D@std@@@0@AEAV10@D@Z 0000000140011200 f i main.obj
 0001:00010480       ??$?6U?$char_traits@D@std@@@std@@YAAEAV?$basic_ostream@DU?$char_traits@D@std@@@0@AEAV10@PEBD@Z 0000000140011480 f i main.obj
 0001:000106d0       ??$endl@DU?$char_traits@D@std@@@std@@YAAEAV?$basic_ostream@DU?$char_traits@D@std@@@0@AEAV10@@Z 00000001400116d0 f i main.obj
 0001:00010760       ??$?HDU?$char_traits@D@std@@V?$allocator@D@1@@std@@YA?AV?$basic_string@DU?$char_traits@D@std@@V?$allocator@D@2@@0@$$QEAV10@0@Z 0000000140011760 f i main.obj
 0001:000107e0       ??$?HDU?$char_traits@D@std@@V?$allocator@D@1@@std@@YA?AV?$basic_string@DU?$char_traits@D@std@@V?$allocator@D@2@@0@AEBV10@$$QEAV10@@Z 00000001400117e0 f i main.obj
 0001:00010830       ??$?HDU?$char_traits@D@std@@V?$allocator@D@1@@std@@YA?AV?$basic_string@DU?$char_traits@D@std@@V?$allocator@D@2@@0@AEBV10@0@Z 0000000140011830 f i main.obj
 0001:000108e0       ??$?HDU?$char_traits@D@std@@V?$allocator@D@1@@std@@YA?AV?$basic_string@DU?$char_traits@D@std@@V?$allocator@D@2@@0@$$QEAV10@QEBD@Z 00000001400118e0 f i main.obj
 0001:00010940       ??$?HDU?$char_traits@D@std@@V?$allocator@D@1@@std@@YA?AV?$basic_string@DU?$char_traits@D@std@@V?$allocator@D@2@@0@AEBV10@QEBD@Z 0000000140011940 f i main.obj
 0001:000109f0       ??$?HDU?$char_traits@D@std@@V?$allocator@D@1@@std@@YA?AV?$basic_string@DU?$char_traits@D@std@@V?$allocator@D@2@@0@$$QEAV10@D@Z 00000001400119f0 f i main.obj
 0001:00010a70       ??$?HDU?$char_traits@D@std@@V?$allocator@D@1@@std@@YA?AV?$basic_string@DU?$char_traits@D@std@@V?$allocator@D@2@@0@AEBV10@D@Z 0000000140011a70 f i main.obj
 0001:00010b40       ??$_Range_construct_or_tidy@PEBV?$basic_string@DU?$char_traits@D@std@@V?$allocator@D@2@@std@@@?$vector@V?$basic_string@DU?$char_traits@D@std@@V?$allocator@D@2@@std@@V?$allocator@V?$basic_string@DU?$char_traits@D@std@@V?$allocator@D@2@@std@@@2@@std@@AEAAXPEBV?$basic_string@DU?$char_traits@D@std@@V?$allocator@D@2@@1@0Uforward_iterator_tag@1@@Z 0000000140011b40 f i main.obj
 0001:00010c20       ??$_Construct@PEBG@?$deque@GV?$allocator@G@std@@@std@@QEAAXPEBG0@Z 0000000140011c20 f i main.obj
 0001:00010d30       ??$use_facet@V?$codecvt@DDU_Mbstatet@@@std@@@std@@YAAEBV?$codecvt@DDU_Mbstatet@@@0@AEBVlocale@0@@Z 0000000140011d30 f i main.obj
 0001:00010ec0       ??$use_facet@V?$num_put@DV?$ostreambuf_iterator@DU?$char_traits@D@std@@@std@@@std@@@std@@YAAEBV?$num_put@DV?$ostreambuf_iterator@DU?$char_traits@D@std@@@std@@@0@AEBVlocale@0@@Z 0000000140011ec0 f i main.obj
 0001:00011050       ??$use_facet@V?$numpunct@D@std@@@std@@YAAEBV?$numpunct@D@0@AEBVlocale@0@@Z 0000000140012050 f i main.obj
 0001:00011950       ??$_Destroy_range@V?$allocator@V?$basic_string@DU?$char_traits@D@std@@V?$allocator@D@2@@std@@@std@@@std@@YAXPEAV?$basic_string@DU?$char_traits@D@std@@V?$allocator@D@2@@0@0AEAV?$allocator@V?$basic_string@DU?$char_traits@D@std@@V?$allocator@D@2@@std@@@0@@Z 0000000140012950 f i main.obj
 0001:00011b60       ?_Fail@?$_Default_allocate_traits@$00@std@@SAXXZ 0000000140012b60 f i main.obj
 0001:00011b70       ?_Growmap@?$deque@GV?$allocator@G@std@@@std@@IEAAX_K@Z 0000000140012b70 f i main.obj
 0001:00011d90       ?_Xlen@?$basic_string@DU?$char_traits@D@std@@V?$allocator@D@2@@std@@SAXXZ 0000000140012d90 f i main.obj
 0001:00011db0       ?reserve@?$basic_string@DU?$char_traits@D@std@@V?$allocator@D@2@@std@@QEAAX_K@Z 0000000140012db0 f i main.obj
 0001:00011e70       ?insert@?$basic_string@DU?$char_traits@D@std@@V?$allocator@D@2@@std@@QEAAAEAV12@_KAEBV12@@Z 0000000140012e70 f i main.obj
 0001:00011f70       ?put@?$basic_ostream@DU?$char_traits@D@std@@@std@@QEAAAEAV12@D@Z 0000000140012f70 f i main.obj
 0001:000120c0       ?_Xlength@?$vector@V?$basic_string@DU?$char_traits@D@std@@V?$allocator@D@2@@std@@V?$allocator@V?$basic_string@DU?$char_traits@D@std@@V?$allocator@D@2@@std@@@2@@std@@CAXXZ 00000001400130c0 f i main.obj
 0001:000120e0       ?_Xlen@?$deque@GV?$allocator@G@std@@@std@@IEBAXXZ 00000001400130e0 f i main.obj
 0001:00012100       ?_Init@?$numpunct@D@std@@IEAAXAEBV_Locinfo@2@_N@Z 0000000140013100 f i main.obj
 0001:00012280       ??$?5DU?$char_traits@D@std@@V?$allocator@D@1@@std@@YAAEAV?$basic_istream@DU?$char_traits@D@std@@@0@$$QEAV10@AEAV?$basic_string@DU?$char_traits@D@std@@V?$allocator@D@2@@0@@Z 0000000140013280 f i main.obj
 0001:00012530       ??$_Immortalize_impl@V_Iostream_error_category@std@@@std@@YAHPEAX0PEAPEAX@Z 0000000140013530 f i main.obj
 0001:00012550       ??$getline@DU?$char_traits@D@std@@V?$allocator@D@2@@std@@YAAEAV?$basic_istream@DU?$char_traits@D@std@@@0@$$QEAV10@AEAV?$basic_string@DU?$char_traits@D@std@@V?$allocator@D@2@@0@D@Z 0000000140013550 f i main.obj
 0001:000127e0       ??$_Insert_string@DU?$char_traits@D@std@@_K@std@@YAAEAV?$basic_ostream@DU?$char_traits@D@std@@@0@AEAV10@QEBD_K@Z 00000001400137e0 f i main.obj
 0001:00012d20       ??1sentry@?$basic_istream@DU?$char_traits@D@std@@@std@@QEAA@XZ 0000000140013d20 f i main.obj
 0001:00012d50       ?_Ipfx@?$basic_istream@DU?$char_traits@D@std@@@std@@QEAA_N_N@Z 0000000140013d50 f i main.obj
 0001:00012f70       ??$_Buynode@AEBU?$pair@$$CBV?$basic_string@DU?$char_traits@D@std@@V?$allocator@D@2@@std@@G@std@@@?$_Tree_comp_alloc@V?$_Tmap_traits@V?$basic_string@DU?$char_traits@D@std@@V?$allocator@D@2@@std@@GU?$less@V?$basic_string@DU?$char_traits@D@std@@V?$allocator@D@2@@std@@@2@V?$allocator@U?$pair@$$CBV?$basic_string@DU?$char_traits@D@std@@V?$allocator@D@2@@std@@G@std@@@2@$0A@@std@@@std@@QEAAPEAU?$_Tree_node@U?$pair@$$CBV?$basic_string@DU?$char_traits@D@std@@V?$allocator@D@2@@std@@G@std@@PEAX@1@AEBU?$pair@$$CBV?$basic_string@DU?$char_traits@D@std@@V?$allocator@D@2@@std@@G@1@@Z 0000000140013f70 f i main.obj
 0001:00012fd0       ??$_Insert_hint@AEAU?$pair@$$CBV?$basic_string@DU?$char_traits@D@std@@V?$allocator@D@2@@std@@G@std@@PEAU?$_Tree_node@U?$pair@$$CBV?$basic_string@DU?$char_traits@D@std@@V?$allocator@D@2@@std@@G@std@@PEAX@2@@?$_Tree@V?$_Tmap_traits@V?$basic_string@DU?$char_traits@D@std@@V?$allocator@D@2@@std@@GU?$less@V?$basic_string@DU?$char_traits@D@std@@V?$allocator@D@2@@std@@@2@V?$allocator@U?$pair@$$CBV?$basic_string@DU?$char_traits@D@std@@V?$allocator@D@2@@std@@G@std@@@2@$0A@@std@@@std@@IEAA?AV?$_Tree_iterator@V?$_Tree_val@U?$_Tree_simple_types@U?$pair@$$CBV?$basic_string@DU?$char_traits@D@std@@V?$allocator@D@2@@std@@G@std@@@std@@@std@@@1@V?$_Tree_const_iterator@V?$_Tree_val@U?$_Tree_simple_types@U?$pair@$$CBV?$basic_string@DU?$char_traits@D@std@@V?$allocator@D@2@@std@@G@std@@@std@@@std@@@1@AEAU?$pair@$$CBV?$basic_string@DU?$char_traits@D@std@@V?$allocator@D@2@@std@@G@1@PEAU?$_Tree_node@U?$pair@$$CBV?$basic_string@DU?$char_traits@D@std@@V?$allocator@D@2@@std@@G@std@@PEAX@1@@Z 0000000140013fd0 f i main.obj
 0001:000133f0       ?_Freenode0@?$_Tree_comp_alloc@V?$_Tmap_traits@V?$basic_string@DU?$char_traits@D@std@@V?$allocator@D@2@@std@@GU?$less@V?$basic_string@DU?$char_traits@D@std@@V?$allocator@D@2@@std@@@2@V?$allocator@U?$pair@$$CBV?$basic_string@DU?$char_traits@D@std@@V?$allocator@D@2@@std@@G@std@@@2@$0A@@std@@@std@@QEAAXPEAU?$_Tree_node@U?$pair@$$CBV?$basic_string@DU?$char_traits@D@std@@V?$allocator@D@2@@std@@G@std@@PEAX@2@@Z 00000001400143f0 f i main.obj
 0001:00013400       ?_Buynode0@?$_Tree_comp_alloc@V?$_Tmap_traits@V?$basic_string@DU?$char_traits@D@std@@V?$allocator@D@2@@std@@GU?$less@V?$basic_string@DU?$char_traits@D@std@@V?$allocator@D@2@@std@@@2@V?$allocator@U?$pair@$$CBV?$basic_string@DU?$char_traits@D@std@@V?$allocator@D@2@@std@@G@std@@@2@$0A@@std@@@std@@QEAAPEAU?$_Tree_node@U?$pair@$$CBV?$basic_string@DU?$char_traits@D@std@@V?$allocator@D@2@@std@@G@std@@PEAX@2@XZ 0000000140014400 f i main.obj
 0001:00013440       ?_Destroy_if_node@?$_Tree@V?$_Tmap_traits@V?$basic_string@DU?$char_traits@D@std@@V?$allocator@D@2@@std@@GU?$less@V?$basic_string@DU?$char_traits@D@std@@V?$allocator@D@2@@std@@@2@V?$allocator@U?$pair@$$CBV?$basic_string@DU?$char_traits@D@std@@V?$allocator@D@2@@std@@G@std@@@2@$0A@@std@@@std@@IEAAXPEAU?$_Tree_node@U?$pair@$$CBV?$basic_string@DU?$char_traits@D@std@@V?$allocator@D@2@@std@@G@std@@PEAX@2@@Z 0000000140014440 f i main.obj
 0001:00013470       ??$_Uninitialized_copy_al_unchecked@PEBV?$basic_string@DU?$char_traits@D@std@@V?$allocator@D@2@@std@@PEAV12@V?$allocator@V?$basic_string@DU?$char_traits@D@std@@V?$allocator@D@2@@std@@@2@@std@@YAPEAV?$basic_string@DU?$char_traits@D@std@@V?$allocator@D@2@@0@PEBV10@0PEAV10@AEAV?$allocator@V?$basic_string@DU?$char_traits@D@std@@V?$allocator@D@2@@std@@@0@U_General_ptr_iterator_tag@0@U_Unused_parameter@0@@Z 0000000140014470 f i main.obj
 0001:000134d0       ??$_Insert_at@AEAU?$pair@$$CBV?$basic_string@DU?$char_traits@D@std@@V?$allocator@D@2@@std@@G@std@@PEAU?$_Tree_node@U?$pair@$$CBV?$basic_string@DU?$char_traits@D@std@@V?$allocator@D@2@@std@@G@std@@PEAX@2@@?$_Tree@V?$_Tmap_traits@V?$basic_string@DU?$char_traits@D@std@@V?$allocator@D@2@@std@@GU?$less@V?$basic_string@DU?$char_traits@D@std@@V?$allocator@D@2@@std@@@2@V?$allocator@U?$pair@$$CBV?$basic_string@DU?$char_traits@D@std@@V?$allocator@D@2@@std@@G@std@@@2@$0A@@std@@@std@@IEAA?AV?$_Tree_iterator@V?$_Tree_val@U?$_Tree_simple_types@U?$pair@$$CBV?$basic_string@DU?$char_traits@D@std@@V?$allocator@D@2@@std@@G@std@@@std@@@std@@@1@_NPEAU?$_Tree_node@U?$pair@$$CBV?$basic_string@DU?$char_traits@D@std@@V?$allocator@D@2@@std@@G@std@@PEAX@1@AEAU?$pair@$$CBV?$basic_string@DU?$char_traits@D@std@@V?$allocator@D@2@@std@@G@1@1@Z 00000001400144d0 f i main.obj
 0001:000137b0       ??$_Insert_nohint@AEAU?$pair@$$CBV?$basic_string@DU?$char_traits@D@std@@V?$allocator@D@2@@std@@G@std@@PEAU?$_Tree_node@U?$pair@$$CBV?$basic_string@DU?$char_traits@D@std@@V?$allocator@D@2@@std@@G@std@@PEAX@2@@?$_Tree@V?$_Tmap_traits@V?$basic_string@DU?$char_traits@D@std@@V?$allocator@D@2@@std@@GU?$less@V?$basic_string@DU?$char_traits@D@std@@V?$allocator@D@2@@std@@@2@V?$allocator@U?$pair@$$CBV?$basic_string@DU?$char_traits@D@std@@V?$allocator@D@2@@std@@G@std@@@2@$0A@@std@@@std@@IEAA?AU?$pair@V?$_Tree_iterator@V?$_Tree_val@U?$_Tree_simple_types@U?$pair@$$CBV?$basic_string@DU?$char_traits@D@std@@V?$allocator@D@2@@std@@G@std@@@std@@@std@@@std@@_N@1@_NAEAU?$pair@$$CBV?$basic_string@DU?$char_traits@D@std@@V?$allocator@D@2@@std@@G@1@PEAU?$_Tree_node@U?$pair@$$CBV?$basic_string@DU?$char_traits@D@std@@V?$allocator@D@2@@std@@G@std@@PEAX@1@@Z 00000001400147b0 f i main.obj
 0001:000139d8       ??_E?$basic_ostream@DU?$char_traits@D@std@@@std@@$4PPPPPPPM@A@EAAPEAXI@Z 00000001400149d8 f i main.obj
 0001:000139e4       ??_E?$basic_stringstream@DU?$char_traits@D@std@@V?$allocator@D@2@@std@@$4PPPPPPPM@A@EAAPEAXI@Z 00000001400149e4 f i main.obj
 0001:000139f0       ??_E?$basic_ifstream@DU?$char_traits@D@std@@@std@@$4PPPPPPPM@A@EAAPEAXI@Z 00000001400149f0 f i main.obj
 0001:000139fc       ??_E?$basic_istream@DU?$char_traits@D@std@@@std@@$4PPPPPPPM@A@EAAPEAXI@Z 00000001400149fc f i main.obj
 0001:00013a08       ??_E?$basic_ofstream@DU?$char_traits@D@std@@@std@@$4PPPPPPPM@A@EAAPEAXI@Z 0000000140014a08 f i main.obj
 0001:00013a14       ??_E?$basic_iostream@DU?$char_traits@D@std@@@std@@$4PPPPPPPM@A@EAAPEAXI@Z 0000000140014a14 f i main.obj
 0001:00013a20       ??_E?$basic_fstream@DU?$char_traits@D@std@@@std@@$4PPPPPPPM@A@EAAPEAXI@Z 0000000140014a20 f i main.obj
 0001:00013a2c       ??0_Init_locks@std@@QEAA@XZ 0000000140014a2c f   libcpmt:xlock.obj
 0001:00013a78       ??0_Lockit@std@@QEAA@H@Z   0000000140014a78 f   libcpmt:xlock.obj
 0001:00013ab4       ??1_Init_locks@std@@QEAA@XZ 0000000140014ab4 f   libcpmt:xlock.obj
 0001:00013af8       ??1_Lockit@std@@QEAA@XZ    0000000140014af8 f   libcpmt:xlock.obj
 0001:00013b2c       ?_Execute_once@std@@YAHAEAUonce_flag@1@P6AHPEAX1PEAPEAX@Z1@Z 0000000140014b2c f   libcpmt:xonce.obj
 0001:00013b34       ?uncaught_exceptions@std@@YAHXZ 0000000140014b34 f   libcpmt:uncaught.obj
 0001:00013b3c       ??0_Init_cout@std@@QEAA@XZ 0000000140014b3c f i libcpmt:cout.obj
 0001:00013ba8       ??4?$_Yarn@D@std@@QEAAAEAV01@PEBD@Z 0000000140014ba8 f i libcpmt:locale0.obj
 0001:00013c20       ??_G_Fac_node@std@@QEAAPEAXI@Z 0000000140014c20 f i libcpmt:locale0.obj
 0001:00013cac       ??_G_Locimp@locale@std@@MEAAPEAXI@Z 0000000140014cac f i libcpmt:locale0.obj
 0001:00013cac       ??_E_Locimp@locale@std@@MEAAPEAXI@Z 0000000140014cac f i libcpmt:locale0.obj
 0001:00013d18       ?_Facet_Register@std@@YAXPEAV_Facet_base@1@@Z 0000000140014d18 f   libcpmt:locale0.obj
 0001:00013d50       ?_Getgloballocale@locale@std@@CAPEAV_Locimp@12@XZ 0000000140014d50 f   libcpmt:locale0.obj
 0001:00013d58       ?_Init@locale@std@@CAPEAV_Locimp@12@_N@Z 0000000140014d58 f   libcpmt:locale0.obj
 0001:00013e30       ?_Locimp_dtor@_Locimp@locale@std@@CAXPEAV123@@Z 0000000140014e30 f   libcpmt:locale0.obj
 0001:00013ed8       ?_Locinfo_ctor@_Locinfo@std@@SAXPEAV12@PEBD@Z 0000000140014ed8 f   libcpmt:locale0.obj
 0001:00013f44       ?_Locinfo_dtor@_Locinfo@std@@SAXPEAV12@@Z 0000000140014f44 f   libcpmt:locale0.obj
 0001:00013f60       ?_New_Locimp@_Locimp@locale@std@@CAPEAV123@_N@Z 0000000140014f60 f   libcpmt:locale0.obj
 0001:00013fd0       _Deletegloballocale        0000000140014fd0 f   libcpmt:locale0.obj
 0001:00014058       ??0bad_alloc@std@@QEAA@AEBV01@@Z 0000000140015058 f i libcpmt:xthrow.obj
 0001:00014098       ??0bad_alloc@std@@QEAA@XZ  0000000140015098 f i libcpmt:xthrow.obj
 0001:000140b8       ??0length_error@std@@QEAA@AEBV01@@Z 00000001400150b8 f i libcpmt:xthrow.obj
 0001:000140f8       ??0length_error@std@@QEAA@PEBD@Z 00000001400150f8 f i libcpmt:xthrow.obj
 0001:00014144       ??0logic_error@std@@QEAA@AEBV01@@Z 0000000140015144 f i libcpmt:xthrow.obj
 0001:00014184       ??0out_of_range@std@@QEAA@AEBV01@@Z 0000000140015184 f i libcpmt:xthrow.obj
 0001:000141c4       ??0out_of_range@std@@QEAA@PEBD@Z 00000001400151c4 f i libcpmt:xthrow.obj
 0001:00014210       ?_Xlength_error@std@@YAXPEBD@Z 0000000140015210 f   libcpmt:xthrow.obj
 0001:00014234       ?_Xout_of_range@std@@YAXPEBD@Z 0000000140015234 f   libcpmt:xthrow.obj
 0001:00014258       ?_Addstd@ios_base@std@@SAXPEAV12@@Z 0000000140015258 f   libcpmt:ios.obj
 0001:000142d0       ?_Ios_base_dtor@ios_base@std@@CAXPEAV12@@Z 00000001400152d0 f   libcpmt:ios.obj
 0001:00014314       ?_Tidy@ios_base@std@@AEAAXXZ 0000000140015314 f i libcpmt:ios.obj
 0001:000143a4       ??$_Xfiopen@D@std@@YAPEAU_iobuf@@PEBDHH@Z 00000001400153a4 f i libcpmt:fiopen.obj
 0001:000144ac       ?_Fiopen@std@@YAPEAU_iobuf@@PEBDHH@Z 00000001400154ac f   libcpmt:fiopen.obj
 0001:000144b4       ?_Random_device@std@@YAIXZ 00000001400154b4 f   libcpmt:xrngdev.obj
 0001:000144dc       ?_Syserror_map@std@@YAPEBDH@Z 00000001400154dc f   libcpmt:syserror.obj
 0001:00014504       _Getctype                  0000000140015504 f   libcpmt:_tolower.obj
 0001:000145cc       _Tolower                   00000001400155cc f   libcpmt:_tolower.obj
 0001:000146fc       _Getcvt                    00000001400156fc f   libcpmt:xwctomb.obj
 0001:00014788       _Toupper                   0000000140015788 f   libcpmt:_toupper.obj
 0001:000148c8       _Mtxdst                    00000001400158c8 f   libcpmt:xmtx.obj
 0001:000148d0       _Mtxinit                   00000001400158d0 f   libcpmt:xmtx.obj
 0001:000148e0       _Mtxlock                   00000001400158e0 f   libcpmt:xmtx.obj
 0001:000148e8       _Mtxunlock                 00000001400158e8 f   libcpmt:xmtx.obj
 0001:00014dc0       __crtInitOnceExecuteOnce   0000000140015dc0 f   libcpmt:winapisupp.obj
 0001:00014e9c       __crtInitializeCriticalSectionEx 0000000140015e9c f   libcpmt:winapisupp.obj
 0001:00014efc       ?_Atexit@@YAXP6AXXZ@Z      0000000140015efc f   libcpmt:iosptrs.obj
 0001:00014f3c       __crtLCMapStringA          0000000140015f3c f   libcpmt:StlLCMapStringA.obj
 0001:000151f0       GetTableIndexFromLocaleName 00000001400161f0 f   libcpmt:winapinls.obj
 0001:00015280       __crtDownlevelLocaleNameToLCID 0000000140016280 f   libcpmt:winapinls.obj
 0001:000152b4       __crtLCMapStringEx         00000001400162b4 f   libcpmt:winapinls.obj
 0001:00015370       __wcsnicmp_ascii           0000000140016370 f   libcpmt:winapinls.obj
 0001:000153f0       __security_check_cookie    00000001400163f0 f   LIBCMT:_amdsecgs_.obj
 0001:00015414       ??2@YAPEAX_K@Z             0000000140016414 f   LIBCMT:new_scalar.obj
 0001:00015450       ??_M@YAXPEAX_K1P6AX0@Z@Z   0000000140016450 f   LIBCMT:ehvecdtr.obj
 0001:000154bc       ?__ArrayUnwind@@YAXPEAX_K1P6AX0@Z@Z 00000001400164bc f   LIBCMT:ehvecdtr.obj
 0001:00015520       __scrt_acquire_startup_lock 0000000140016520 f   LIBCMT:utility.obj
 0001:0001555c       __scrt_initialize_crt      000000014001655c f   LIBCMT:utility.obj
 0001:000155a8       __scrt_initialize_onexit_tables 00000001400165a8 f   LIBCMT:utility.obj
 0001:00015688       __scrt_is_nonwritable_in_current_image 0000000140016688 f   LIBCMT:utility.obj
 0001:00015724       __scrt_release_startup_lock 0000000140016724 f   LIBCMT:utility.obj
 0001:00015748       __scrt_uninitialize_crt    0000000140016748 f   LIBCMT:utility.obj
 0001:00015774       _onexit                    0000000140016774 f   LIBCMT:utility.obj
 0001:000157c4       atexit                     00000001400167c4 f   LIBCMT:utility.obj
 0001:000157dc       ??_V@YAXPEAX@Z             00000001400167dc f   LIBCMT:delete_array.obj
 0001:000157dc       ??3@YAXPEAX_K@Z            00000001400167dc f   LIBCMT:delete_scalar_size.obj
 0001:000157e4       ??_Gtype_info@@UEAAPEAXI@Z 00000001400167e4 f i LIBCMT:std_type_info_static.obj
 0001:000157e4       ??_Etype_info@@UEAAPEAXI@Z 00000001400167e4 f i LIBCMT:std_type_info_static.obj
 0001:00015a78       mainCRTStartup             0000000140016a78 f   LIBCMT:exe_main.obj
 0001:00015a8c       __GSHandlerCheck           0000000140016a8c f   LIBCMT:_gshandler_.obj
 0001:00015aac       __GSHandlerCheckCommon     0000000140016aac f   LIBCMT:_gshandler_.obj
 0001:00015b08       __GSHandlerCheck_EH        0000000140016b08 f   LIBCMT:gshandlereh.obj
 0001:00015b88       _guard_check_icall         0000000140016b88 f i LIBCMT:checkcfg.obj
 0001:00015ba0       __chkstk                   0000000140016ba0 f   LIBCMT:_chkstk_.obj
 0001:00015ba0       _alloca_probe              0000000140016ba0 f   LIBCMT:_chkstk_.obj
 0001:00015bf4       __raise_securityfailure    0000000140016bf4 f   LIBCMT:gs_report.obj
 0001:00015c28       __report_gsfailure         0000000140016c28 f   LIBCMT:gs_report.obj
 0001:00015cfc       __report_rangecheckfailure 0000000140016cfc f   LIBCMT:gs_report.obj
 0001:00015d10       __report_securityfailure   0000000140016d10 f   LIBCMT:gs_report.obj
 0001:00015e90       ??3@YAXPEAX@Z              0000000140016e90 f   LIBCMT:delete_scalar.obj
 0001:00015e98       ??0bad_array_new_length@std@@QEAA@AEBV01@@Z 0000000140016e98 f i LIBCMT:throw_bad_alloc.obj
 0001:00015ed8       ??0bad_array_new_length@std@@QEAA@XZ 0000000140016ed8 f i LIBCMT:throw_bad_alloc.obj
 0001:00015ef8       ?_Xbad_alloc@std@@YAXXZ    0000000140016ef8 f   libcpmt:xthrow.obj
 0001:00015ef8       ?__scrt_throw_std_bad_alloc@@YAXXZ 0000000140016ef8 f   LIBCMT:throw_bad_alloc.obj
 0001:00015f18       ?__scrt_throw_std_bad_array_new_length@@YAXXZ 0000000140016f18 f   LIBCMT:throw_bad_alloc.obj
 0001:00015f38       __isa_available_init       0000000140016f38 f   LIBCMT:_cpu_disp_.obj
 0001:000160f4       __scrt_is_ucrt_dll_in_use  00000001400170f4 f   LIBCMT:ucrt_detection.obj
 0001:00016100       __crt_debugger_hook        0000000140017100 f   LIBCMT:utility_desktop.obj
 0001:00016108       __scrt_fastfail            0000000140017108 f   LIBCMT:utility_desktop.obj
 0001:00016254       __scrt_is_managed_app      0000000140017254 f   LIBCMT:utility_desktop.obj
 0001:000162a8       __scrt_set_unhandled_exception_filter 00000001400172a8 f   LIBCMT:utility_desktop.obj
 0001:000162b8       __scrt_unhandled_exception_filter 00000001400172b8 f   LIBCMT:utility_desktop.obj
 0001:000162f0       __security_init_cookie     00000001400172f0 f   LIBCMT:gs_support.obj
 0001:000163a0       _get_startup_file_mode     00000001400173a0 f   LIBCMT:file_mode.obj
 0001:000163a8       ?__scrt_initialize_type_info@@YAXXZ 00000001400173a8 f   LIBCMT:tncleanup.obj
 0001:000163b8       __local_stdio_scanf_options 00000001400173b8 f i LIBCMT:default_local_stdio_options.obj
 0001:000163c0       __scrt_initialize_default_local_stdio_options 00000001400173c0 f   LIBCMT:default_local_stdio_options.obj
 0001:000163dc       __scrt_is_user_matherr_present 00000001400173dc f   LIBCMT:matherr_detection.obj
 0001:000163e8       __scrt_get_dyn_tls_init_callback 00000001400173e8 f   LIBCMT:dyn_tls_init.obj
 0001:000163f0       __scrt_get_dyn_tls_dtor_callback 00000001400173f0 f   LIBCMT:dyn_tls_dtor.obj
 0001:000163f8       _RTC_Initialize            00000001400173f8 f   LIBCMT:_initsect_.obj
 0001:00016444       _RTC_Terminate             0000000140017444 f   LIBCMT:_initsect_.obj
 0001:00016490       ?_ExecutionInCatch@@YAHPEAU_xDISPATCHER_CONTEXT@@PEBU_s_FuncInfo@@@Z 0000000140017490 f   libvcruntime:risctrnsctrl.obj
 0001:00016504       ?_GetEstablisherFrame@@YAPEA_KPEA_KPEAU_xDISPATCHER_CONTEXT@@PEBU_s_FuncInfo@@0@Z 0000000140017504 f   libvcruntime:risctrnsctrl.obj
 0001:000165d0       ?_GetRangeOfTrysToCheck@@YAPEBU_s_TryBlockMapEntry@@PEA_KPEBU_s_FuncInfo@@HHPEAI2PEAU_xDISPATCHER_CONTEXT@@@Z 00000001400175d0 f   libvcruntime:risctrnsctrl.obj
 0001:000166fc       ?__FrameUnwindToEmptyState@@YAXPEA_KPEAU_xDISPATCHER_CONTEXT@@PEBU_s_FuncInfo@@@Z 00000001400176fc f   libvcruntime:risctrnsctrl.obj
 0001:00016790       _CallSETranslator          0000000140017790 f   libvcruntime:risctrnsctrl.obj
 0001:000167e8       _CreateFrameInfo           00000001400177e8 f   libvcruntime:risctrnsctrl.obj
 0001:00016824       _FindAndUnlinkFrame        0000000140017824 f   libvcruntime:risctrnsctrl.obj
 0001:00016880       _GetImageBase              0000000140017880 f   libvcruntime:risctrnsctrl.obj
 0001:00016894       _GetThrowImageBase         0000000140017894 f   libvcruntime:risctrnsctrl.obj
 0001:000168a8       _SetImageBase              00000001400178a8 f   libvcruntime:risctrnsctrl.obj
 0001:000168c0       _SetThrowImageBase         00000001400178c0 f   libvcruntime:risctrnsctrl.obj
 0001:000168d8       _UnwindNestedFrames        00000001400178d8 f   libvcruntime:risctrnsctrl.obj
 0001:000169fc       __CxxFrameHandler3         00000001400179fc f   libvcruntime:risctrnsctrl.obj
 0001:00016a7c       __std_exception_copy       0000000140017a7c f   libvcruntime:std_exception.obj
 0001:00016b0c       __std_exception_destroy    0000000140017b0c f   libvcruntime:std_exception.obj
 0001:00016b50       memcpy                     0000000140017b50 f   libvcruntime:memcpy.obj
 0001:00016b50       memmove                    0000000140017b50 f   libvcruntime:memcpy.obj
 0001:00016f98       _purecall                  0000000140017f98 f   libvcruntime:purevirt.obj
 0001:00016fe0       memchr                     0000000140017fe0 f   libvcruntime:memchr.obj
 0001:00017050       __DestructExceptionObject  0000000140018050 f   libvcruntime:ehhelpers.obj
 0001:000170d4       ?_CallMemberFunction0@@YAXQEAX0@Z 00000001400180d4 f i libvcruntime:ehhelpers.obj
 0001:000170d8       _IsExceptionObjectToBeDestroyed 00000001400180d8 f   libvcruntime:ehhelpers.obj
 0001:00017108       __AdjustPointer            0000000140018108 f   libvcruntime:ehhelpers.obj
 0001:0001712c       __FrameUnwindFilter        000000014001812c f   libvcruntime:ehhelpers.obj
 0001:00017178       __std_terminate            0000000140018178 f   libvcruntime:ehhelpers.obj
 0001:00017184       __uncaught_exceptions      0000000140018184 f   libvcruntime:ehhelpers.obj
 0001:000171a0       _CxxThrowException         00000001400181a0 f   libvcruntime:throw.obj
 0001:00017290       memset                     0000000140018290 f   libvcruntime:memset.obj
 0001:00017450       memcmp                     0000000140018450 f   libvcruntime:memcmp.obj
 0001:00017518       __C_specific_handler       0000000140018518 f   libvcruntime:_riscchandler_.obj
 0001:00017724       __vcrt_initialize          0000000140018724 f   libvcruntime:initialization.obj
 0001:00017758       __vcrt_uninitialize        0000000140018758 f   libvcruntime:initialization.obj
 0001:00017778       __std_type_info_compare    0000000140018778 f   libvcruntime:std_type_info.obj
 0001:000177a0       __vcrt_freefls             00000001400187a0 f   libvcruntime:per_thread_data.obj
 0001:000177c0       __vcrt_getptd              00000001400187c0 f   libvcruntime:per_thread_data.obj
 0001:000177dc       __vcrt_getptd_noexit       00000001400187dc f   libvcruntime:per_thread_data.obj
 0001:00017894       __vcrt_getptd_noinit       0000000140018894 f   libvcruntime:per_thread_data.obj
 0001:000178e4       __vcrt_initialize_ptd      00000001400188e4 f   libvcruntime:per_thread_data.obj
 0001:00017938       __vcrt_uninitialize_ptd    0000000140018938 f   libvcruntime:per_thread_data.obj
 0001:0001795c       ?__GetCurrentState@@YAHPEA_KPEAU_xDISPATCHER_CONTEXT@@PEBU_s_FuncInfo@@@Z 000000014001895c f   libvcruntime:riscehstate.obj
 0001:00017984       ?__GetUnwindTryBlock@@YAHPEA_KPEAU_xDISPATCHER_CONTEXT@@PEBU_s_FuncInfo@@@Z 0000000140018984 f   libvcruntime:riscehstate.obj
 0001:000179b0       ?__SetState@@YAXPEA_KPEAU_xDISPATCHER_CONTEXT@@PEBU_s_FuncInfo@@H@Z 00000001400189b0 f   libvcruntime:riscehstate.obj
 0001:000179bc       ?__SetUnwindTryBlock@@YAXPEA_KPEAU_xDISPATCHER_CONTEXT@@PEBU_s_FuncInfo@@H@Z 00000001400189bc f   libvcruntime:riscehstate.obj
 0001:000179f8       ?__StateFromControlPc@@YAHPEBU_s_FuncInfo@@PEAU_xDISPATCHER_CONTEXT@@@Z 00000001400189f8 f   libvcruntime:riscehstate.obj
 0001:00017a00       ?__StateFromIp@@YAHPEBU_s_FuncInfo@@PEAU_xDISPATCHER_CONTEXT@@_K@Z 0000000140018a00 f   libvcruntime:riscehstate.obj
 0001:00017a6c       ??0bad_exception@std@@QEAA@AEBV01@@Z 0000000140018a6c f i libvcruntime:frame.obj
 0001:00017aac       ??0bad_exception@std@@QEAA@XZ 0000000140018aac f i libvcruntime:frame.obj
 0001:00018414       ?_CallMemberFunction1@@YAXQEAX00@Z 0000000140019414 f i libvcruntime:frame.obj
 0001:00018420       ?_CallMemberFunction2@@YAXQEAX00H@Z 0000000140019420 f i libvcruntime:frame.obj
 0001:00018430       __BuildCatchObject         0000000140019430 f   libvcruntime:frame.obj
 0001:000184f4       __BuildCatchObjectHelper   00000001400194f4 f   libvcruntime:frame.obj
 0001:000186f8       __CxxCallCatchBlock        00000001400196f8 f   libvcruntime:frame.obj
 0001:000188e4       __FrameUnwindToState       00000001400198e4 f   libvcruntime:frame.obj
 0001:00018a78       __InternalCxxFrameHandler  0000000140019a78 f   libvcruntime:frame.obj
 0001:00018cc8       __TypeMatch                0000000140019cc8 f   libvcruntime:frame.obj
 0001:00018e0c       __vcrt_initialize_pure_virtual_call_handler 0000000140019e0c f   libvcruntime:purevirt_data.obj
 0001:00018e40       _local_unwind              0000000140019e40 f   libvcruntime:_jmpuwind_.obj
 0001:00018e70       _NLG_Notify                0000000140019e70 f   libvcruntime:_jmpuwind_.obj
 0001:00018e90       __NLG_Dispatch2            0000000140019e90 f   libvcruntime:_jmpuwind_.obj
 0001:00018ea0       __NLG_Return2              0000000140019ea0 f   libvcruntime:_jmpuwind_.obj
 0001:00018ea4       __except_validate_context_record 0000000140019ea4 f   libvcruntime:jbcxrval.obj
 0001:00018edc       __vcrt_initialize_locks    0000000140019edc f   libvcruntime:locks.obj
 0001:00018f24       __vcrt_uninitialize_locks  0000000140019f24 f   libvcruntime:locks.obj
 0001:00019134       __vcrt_FlsAlloc            000000014001a134 f   libvcruntime:winapi_downlevel.obj
 0001:00019188       __vcrt_FlsFree             000000014001a188 f   libvcruntime:winapi_downlevel.obj
 0001:000191dc       __vcrt_FlsGetValue         000000014001a1dc f   libvcruntime:winapi_downlevel.obj
 0001:00019230       __vcrt_FlsSetValue         000000014001a230 f   libvcruntime:winapi_downlevel.obj
 0001:00019298       __vcrt_InitializeCriticalSectionEx 000000014001a298 f   libvcruntime:winapi_downlevel.obj
 0001:00019310       __vcrt_initialize_winapi_thunks 000000014001a310 f   libvcruntime:winapi_downlevel.obj
 0001:00019354       __vcrt_uninitialize_winapi_thunks 000000014001a354 f   libvcruntime:winapi_downlevel.obj
 0001:000193b0       _CallSettingFrame          000000014001a3b0 f   libvcruntime:handlers.obj
 0001:000196f8       setlocale                  000000014001a6f8 f   libucrt:setlocale.obj
 0001:00019744       fputc                      000000014001a744 f   libucrt:fputc.obj
 0001:0001985c       calloc                     000000014001a85c f   libucrt:calloc.obj
 0001:00019864       rand                       000000014001a864 f   libucrt:rand.obj
 0001:00019890       srand                      000000014001a890 f   libucrt:rand.obj
 0001:00019acc       __acrt_stdio_flush_nolock  000000014001aacc f   libucrt:fflush.obj
 0001:00019b48       _fflush_nolock             000000014001ab48 f   libucrt:fflush.obj
 0001:00019b94       _flushall                  000000014001ab94 f   libucrt:fflush.obj
 0001:00019b9c       fflush                     000000014001ab9c f   libucrt:fflush.obj
 0001:00019c04       _fclose_nolock             000000014001ac04 f   libucrt:fclose.obj
 0001:00019c88       fclose                     000000014001ac88 f   libucrt:fclose.obj
 0001:00019cec       remove                     000000014001acec f   libucrt:unlink.obj
 0001:00019d38       strcspn                    000000014001ad38 f   libucrt:strcspn.obj
 0001:00019fa4       ??$ensure_buffer_is_big_enough@D@formatting_buffer@__crt_stdio_output@@QEAA_N_K@Z 000000014001afa4 f i libucrt:output.obj
 0001:0001a050       ??$is_wide_character_specifier@D@__crt_stdio_output@@YA_N_KDW4length_modifier@0@@Z 000000014001b050 f i libucrt:output.obj
 0001:0001a080       ??$type_case_integer_parse_into_buffer@I@?$output_processor@DV?$string_output_adapter@D@__crt_stdio_output@@V?$format_validation_base@DV?$string_output_adapter@D@__crt_stdio_output@@@2@@__crt_stdio_output@@AEAAXII_N@Z 000000014001b080 f i libucrt:output.obj
 0001:0001a11c       ??$type_case_integer_parse_into_buffer@_K@?$output_processor@DV?$string_output_adapter@D@__crt_stdio_output@@V?$format_validation_base@DV?$string_output_adapter@D@__crt_stdio_output@@@2@@__crt_stdio_output@@AEAAX_KI_N@Z 000000014001b11c f i libucrt:output.obj
 0001:0001a1b8       ??$write_multiple_characters@V?$string_output_adapter@D@__crt_stdio_output@@D@__crt_stdio_output@@YAXAEBV?$string_output_adapter@D@0@DHQEAH@Z 000000014001b1b8 f i libucrt:output.obj
 0001:0001a214       ??0_LocaleUpdate@@QEAA@QEAU__crt_locale_pointers@@@Z 000000014001b214 f i libucrt:output.obj
 0001:0001a2a4       ?force_decimal_point@__crt_stdio_output@@YAXPEADQEAU__crt_locale_pointers@@@Z 000000014001b2a4 f i libucrt:output.obj
 0001:0001a314       ?parse_int_from_format_string@?$output_processor@DV?$string_output_adapter@D@__crt_stdio_output@@V?$format_validation_base@DV?$string_output_adapter@D@__crt_stdio_output@@@2@@__crt_stdio_output@@AEAA_NQEAH@Z 000000014001b314 f i libucrt:output.obj
 0001:0001a3b8       ?process@?$output_processor@DV?$string_output_adapter@D@__crt_stdio_output@@V?$format_validation_base@DV?$string_output_adapter@D@__crt_stdio_output@@@2@@__crt_stdio_output@@QEAAHXZ 000000014001b3b8 f i libucrt:output.obj
 0001:0001a5d0       ?state_case_normal@?$output_processor@DV?$string_output_adapter@D@__crt_stdio_output@@V?$format_validation_base@DV?$string_output_adapter@D@__crt_stdio_output@@@2@@__crt_stdio_output@@AEAA_NXZ 000000014001b5d0 f i libucrt:output.obj
 0001:0001a644       ?state_case_normal_tchar@?$output_processor@DV?$string_output_adapter@D@__crt_stdio_output@@V?$format_validation_base@DV?$string_output_adapter@D@__crt_stdio_output@@@2@@__crt_stdio_output@@AEAA_ND@Z 000000014001b644 f i libucrt:output.obj
 0001:0001a6dc       ?state_case_size@?$output_processor@DV?$string_output_adapter@D@__crt_stdio_output@@V?$format_validation_base@DV?$string_output_adapter@D@__crt_stdio_output@@@2@@__crt_stdio_output@@AEAA_NXZ 000000014001b6dc f i libucrt:output.obj
 0001:0001a858       ?state_case_type@?$output_processor@DV?$string_output_adapter@D@__crt_stdio_output@@V?$format_validation_base@DV?$string_output_adapter@D@__crt_stdio_output@@@2@@__crt_stdio_output@@AEAA_NXZ 000000014001b858 f i libucrt:output.obj
 0001:0001aad0       ?type_case_Z@?$output_processor@DV?$string_output_adapter@D@__crt_stdio_output@@V?$format_validation_base@DV?$string_output_adapter@D@__crt_stdio_output@@@2@@__crt_stdio_output@@AEAA_NXZ 000000014001bad0 f i libucrt:output.obj
 0001:0001ab50       ?type_case_a@?$output_processor@DV?$string_output_adapter@D@__crt_stdio_output@@V?$format_validation_base@DV?$string_output_adapter@D@__crt_stdio_output@@@2@@__crt_stdio_output@@AEAA_NXZ 000000014001bb50 f i libucrt:output.obj
 0001:0001ad74       ?type_case_c_tchar@?$output_processor@DV?$string_output_adapter@D@__crt_stdio_output@@V?$format_validation_base@DV?$string_output_adapter@D@__crt_stdio_output@@@2@@__crt_stdio_output@@AEAA_ND@Z 000000014001bd74 f i libucrt:output.obj
 0001:0001ae28       ?type_case_integer@?$output_processor@DV?$string_output_adapter@D@__crt_stdio_output@@V?$format_validation_base@DV?$string_output_adapter@D@__crt_stdio_output@@@2@@__crt_stdio_output@@AEAA_NI_N@Z 000000014001be28 f i libucrt:output.obj
 0001:0001afcc       ?type_case_n@?$output_processor@DV?$string_output_adapter@D@__crt_stdio_output@@V?$format_validation_base@DV?$string_output_adapter@D@__crt_stdio_output@@@2@@__crt_stdio_output@@AEAA_NXZ 000000014001bfcc f i libucrt:output.obj
 0001:0001b0a8       ?type_case_s@?$output_processor@DV?$string_output_adapter@D@__crt_stdio_output@@V?$format_validation_base@DV?$string_output_adapter@D@__crt_stdio_output@@@2@@__crt_stdio_output@@AEAA_NXZ 000000014001c0a8 f i libucrt:output.obj
 0001:0001b138       ?write_stored_string_tchar@?$output_processor@DV?$string_output_adapter@D@__crt_stdio_output@@V?$format_validation_base@DV?$string_output_adapter@D@__crt_stdio_output@@@2@@__crt_stdio_output@@AEAA_ND@Z 000000014001c138 f i libucrt:output.obj
 0001:0001b210       ?write_string@?$string_output_adapter@D@__crt_stdio_output@@QEBAXQEBDHQEAHAEAV__crt_deferred_errno_cache@@@Z 000000014001c210 f i libucrt:output.obj
 0001:0001b2b4       __stdio_common_vsprintf_s  000000014001c2b4 f   libucrt:output.obj
 0001:0001b318       _fgetc_nolock              000000014001c318 f   libucrt:fgetc.obj
 0001:0001b35c       fgetc                      000000014001c35c f   libucrt:fgetc.obj
 0001:0001b458       __acrt_call_reportfault    000000014001c458 f   libucrt:invalid_parameter.obj
 0001:0001b5b4       __acrt_initialize_invalid_parameter_handler 000000014001c5b4 f   libucrt:invalid_parameter.obj
 0001:0001b5bc       _invalid_parameter         000000014001c5bc f   libucrt:invalid_parameter.obj
 0001:0001b66c       _invalid_parameter_noinfo  000000014001c66c f   libucrt:invalid_parameter.obj
 0001:0001b68c       _invalid_parameter_noinfo_noreturn 000000014001c68c f   libucrt:invalid_parameter.obj
 0001:0001b6bc       _invoke_watson             000000014001c6bc f   libucrt:invalid_parameter.obj
 0001:0001b704       system                     000000014001c704 f   libucrt:system.obj
 0001:0001b840       _access                    000000014001c840 f   libucrt:access.obj
 0001:0001b854       _access_s                  000000014001c854 f   libucrt:access.obj
 0001:0001b8a4       terminate                  000000014001c8a4 f   libucrt:terminate.obj
 0001:0001b8c4       __acrt_initialize_stdio    000000014001c8c4 f   libucrt:_file.obj
 0001:0001b9e4       __acrt_iob_func            000000014001c9e4 f   libucrt:_file.obj
 0001:0001b9f8       __acrt_uninitialize_stdio  000000014001c9f8 f   libucrt:_file.obj
 0001:0001ba54       _get_stream_buffer_pointers 000000014001ca54 f   libucrt:_file.obj
 0001:0001ba9c       _lock_file                 000000014001ca9c f   libucrt:_file.obj
 0001:0001baa8       _unlock_file               000000014001caa8 f   libucrt:_file.obj
 0001:0001bab4       localeconv                 000000014001cab4 f   libucrt:localeconv.obj
 0001:0001bb8c       _fwrite_nolock             000000014001cb8c f   libucrt:fwrite.obj
 0001:0001bd24       fwrite                     000000014001cd24 f   libucrt:fwrite.obj
 0001:0001bda8       __acrt_errno_from_os_error 000000014001cda8 f   libucrt:errno.obj
 0001:0001bdf0       __acrt_errno_map_os_error  000000014001cdf0 f   libucrt:errno.obj
 0001:0001be40       __doserrno                 000000014001ce40 f   libucrt:errno.obj
 0001:0001be60       _errno                     000000014001ce60 f   libucrt:errno.obj
 0001:0001be80       fgetpos                    000000014001ce80 f   libucrt:fgetpos.obj
 0001:0001bffc       setvbuf                    000000014001cffc f   libucrt:setvbuf.obj
 0001:0001c130       _time64                    000000014001d130 f   libucrt:time.obj
 0001:0001c170       free                       000000014001d170 f   libucrt:free.obj
 0001:0001c184       ??$parse_integer@KV?$c_string_character_source@D@__crt_strtox@@@__crt_strtox@@YAKQEAU__crt_locale_pointers@@V?$c_string_character_source@D@0@H_N@Z 000000014001d184 f i libucrt:atox.obj
 0001:0001c4a0       ??$parse_integer@KV?$c_string_character_source@_W@__crt_strtox@@@__crt_strtox@@YAKQEAU__crt_locale_pointers@@V?$c_string_character_source@_W@0@H_N@Z 000000014001d4a0 f i libucrt:atox.obj
 0001:0001cb64       _wtol                      000000014001db64 f   libucrt:atox.obj
 0001:0001cb90       atoi                       000000014001db90 f   libucrt:atox.obj
 0001:0001cbbc       _ungetc_nolock             000000014001dbbc f   libucrt:ungetc.obj
 0001:0001cccc       ungetc                     000000014001dccc f   libucrt:ungetc.obj
 0001:0001cd24       frexp                      000000014001dd24 f   libucrt:frexp.obj
 0001:0001ce1c       fsetpos                    000000014001de1c f   libucrt:fsetpos.obj
 0001:0001d06c       _fseeki64                  000000014001e06c f   libucrt:fseek.obj
 0001:0001d074       fseek                      000000014001e074 f   libucrt:fseek.obj
 0001:0001d07c       __acrt_initialize_locks    000000014001e07c f   libucrt:locks.obj
 0001:0001d0c4       __acrt_lock                000000014001e0c4 f   libucrt:locks.obj
 0001:0001d0e0       __acrt_uninitialize_locks  000000014001e0e0 f   libucrt:locks.obj
 0001:0001d118       __acrt_unlock              000000014001e118 f   libucrt:locks.obj
 0001:0001d134       _lock_locales              000000014001e134 f   libucrt:locks.obj
 0001:0001d150       _unlock_locales            000000014001e150 f   libucrt:locks.obj
 0001:0001d160       malloc                     000000014001e160 f   libucrt:malloc.obj
 0001:0001d220       _fsopen                    000000014001e220 f   libucrt:fopen.obj
 0001:0001d228       rand_s                     000000014001e228 f   libucrt:rand_s.obj
 0001:0001d274       _calloc_base               000000014001e274 f   libucrt:calloc_base.obj
 0001:0001d2ec       __pctype_func              000000014001e2ec f   libucrt:ctype.obj
 0001:0001d31c       isdigit                    000000014001e31c f i libucrt:_ctype.obj
 0001:0001d390       islower                    000000014001e390 f i libucrt:_ctype.obj
 0001:0001d404       isupper                    000000014001e404 f i libucrt:_ctype.obj
 0001:0001d478       _wcsdup                    000000014001e478 f   libucrt:wcsdup.obj
 0001:0001d4fc       ___lc_codepage_func        000000014001e4fc f   libucrt:initctype.obj
 0001:0001d52c       ___lc_locale_name_func     000000014001e52c f   libucrt:initctype.obj
 0001:0001d560       ___mb_cur_max_func         000000014001e560 f   libucrt:initctype.obj
 0001:0001d590       __acrt_locale_initialize_ctype 000000014001e590 f   libucrt:initctype.obj
 0001:0001dbf0       _ismbblead                 000000014001ebf0 f   libucrt:ismbbyte.obj
 0001:0001dc04       abort                      000000014001ec04 f   libucrt:abort.obj
 0001:0001dc5c       _malloc_base               000000014001ec5c f   libucrt:malloc_base.obj
 0001:0001dcbc       _realloc_base              000000014001ecbc f   libucrt:realloc_base.obj
 0001:0001dd38       ??$make_c_string_character_source@D$$T@__crt_strtox@@YA?AV?$c_string_character_source@D@0@QEBD$$T@Z 000000014001ed38 f i libucrt:atox.obj
 0001:0001dd38       ??$make_c_string_character_source@DPEAPEAD@__crt_strtox@@YA?AV?$c_string_character_source@D@0@QEBDQEAPEAD@Z 000000014001ed38 f i libucrt:strtod.obj
 0001:0001dd38       ??$make_c_string_character_source@_W$$T@__crt_strtox@@YA?AV?$c_string_character_source@_W@0@QEB_W$$T@Z 000000014001ed38 f i libucrt:atox.obj
 0001:0001dd50       ?divide@__crt_strtox@@YA_KAEAUbig_integer@1@AEBU21@@Z 000000014001ed50 f i libucrt:strtod.obj
 0001:0001e210       pow                        000000014001f210 f   libucrt:pow.obj
 0001:0001f8b0       powf                       00000001400208b0 f   libucrt:powf.obj
 0001:00020778       __strncnt                  0000000140021778 f   libucrt:strncnt.obj
 0001:00020790       _free_base                 0000000140021790 f   libucrt:free_base.obj
 0001:00020814       _tolower_l                 0000000140021814 f   libucrt:tolower_toupper.obj
 0001:00020954       tolower                    0000000140021954 f   libucrt:tolower_toupper.obj
 0001:00020980       wcscpy_s                   0000000140021980 f   libucrt:wcscpy_s.obj
 0001:000209e8       strnlen                    00000001400219e8 f   libucrt:strnlen.obj
 0001:00020b2c       wcsnlen                    0000000140021b2c f   libucrt:strnlen.obj
 0001:00020cf8       __acrt_initialize_new_handler 0000000140021cf8 f   libucrt:new_handler.obj
 0001:00020d00       _callnewh                  0000000140021d00 f   libucrt:new_handler.obj
 0001:00020d30       _query_new_handler         0000000140021d30 f   libucrt:new_handler.obj
 0001:00020d64       _seh_filter_exe            0000000140021d64 f   libucrt:exception_filter.obj
 0001:00021170       __acrt_initialize_thread_local_exit_callback 0000000140022170 f   libucrt:exit.obj
 0001:00021178       _c_exit                    0000000140022178 f   libucrt:exit.obj
 0001:00021188       _cexit                     0000000140022188 f   libucrt:exit.obj
 0001:00021198       _exit                      0000000140022198 f   libucrt:exit.obj
 0001:000211a4       _register_thread_local_exe_atexit_callback 00000001400221a4 f   libucrt:exit.obj
 0001:000211e8       exit                       00000001400221e8 f   libucrt:exit.obj
 0001:000213b0       __acrt_allocate_buffer_for_argv 00000001400223b0 f   libucrt:argv_parsing.obj
 0001:00021410       _configure_narrow_argv     0000000140022410 f   libucrt:argv_parsing.obj
 0001:00021860       __dcrt_get_or_create_narrow_environment_nolock 0000000140022860 f   libucrt:environment_initialization.obj
 0001:0002189c       __dcrt_uninitialize_environments_nolock 000000014002289c f   libucrt:environment_initialization.obj
 0001:000218d4       _get_initial_narrow_environment 00000001400228d4 f   libucrt:environment_initialization.obj
 0001:00021924       _initialize_narrow_environment 0000000140022924 f   libucrt:environment_initialization.obj
 0001:00021cb4       _crt_atexit                0000000140022cb4 f   libucrt:onexit.obj
 0001:00021cc4       _execute_onexit_table      0000000140022cc4 f   libucrt:onexit.obj
 0001:00021d00       _initialize_onexit_table   0000000140022d00 f   libucrt:onexit.obj
 0001:00021d40       _register_onexit_function  0000000140022d40 f   libucrt:onexit.obj
 0001:00021ebc       __acrt_initialize          0000000140022ebc f   libucrt:initialization.obj
 0001:00021ed0       __acrt_uninitialize        0000000140022ed0 f   libucrt:initialization.obj
 0001:00021f08       _query_app_type            0000000140022f08 f   libucrt:report_runtime_error.obj
 0001:00021f10       _set_app_type              0000000140022f10 f   libucrt:report_runtime_error.obj
 0001:00021f18       __acrt_has_user_matherr    0000000140022f18 f   libucrt:matherr.obj
 0001:00021f38       __acrt_initialize_user_matherr 0000000140022f38 f   libucrt:matherr.obj
 0001:00021f40       __acrt_invoke_user_matherr 0000000140022f40 f   libucrt:matherr.obj
 0001:00021f70       __setusermatherr           0000000140022f70 f   libucrt:matherr.obj
 0001:00021f98       _initterm                  0000000140022f98 f   libucrt:initterm.obj
 0001:00021ffc       _initterm_e                0000000140022ffc f   libucrt:initterm.obj
 0001:0002203c       _get_fmode                 000000014002303c f   libucrt:setmode.obj
 0001:0002206c       _set_fmode                 000000014002306c f   libucrt:setmode.obj
 0001:000220ac       _setmode_nolock            00000001400230ac f   libucrt:setmode.obj
 0001:000221e0       __acrt_initialize_command_line 00000001400231e0 f   libucrt:argv_data.obj
 0001:00022208       __p___argc                 0000000140023208 f   libucrt:argv_data.obj
 0001:00022210       __p___argv                 0000000140023210 f   libucrt:argv_data.obj
 0001:00022480       __acrt_copy_locale_name    0000000140023480 f   libucrt:wsetlocale.obj
 0001:00022504       __acrt_set_locale_changed  0000000140023504 f   libucrt:wsetlocale.obj
 0001:00022510       __acrt_uninitialize_locale 0000000140023510 f   libucrt:wsetlocale.obj
 0001:00022540       __lc_lctowcs               0000000140023540 f   libucrt:wsetlocale.obj
 0001:000225e4       __lc_wcstolc               00000001400235e4 f   libucrt:wsetlocale.obj
 0001:0002279c       _configthreadlocale        000000014002379c f   libucrt:wsetlocale.obj
 0001:000228c8       _expandlocale              00000001400238c8 f   libucrt:wsetlocale.obj
 0001:00022cc4       _wcscats                   0000000140023cc4 f   libucrt:wsetlocale.obj
 0001:00022d2c       _wsetlocale                0000000140023d2c f   libucrt:wsetlocale.obj
 0001:0002357c       _query_new_mode            000000014002457c f   libucrt:new_mode.obj
 0001:00023584       _set_new_mode              0000000140024584 f   libucrt:new_mode.obj
 0001:000235b0       __p__commode               00000001400245b0 f   libucrt:ncommode.obj
 0001:000235b8       strcpy_s                   00000001400245b8 f   libucrt:strcpy_s.obj
 0001:00023618       wcsncmp                    0000000140024618 f   libucrt:wcsncmp.obj
 0001:00023820       _mbstowcs_s_l              0000000140024820 f   libucrt:mbstowcs.obj
 0001:00023954       mbstowcs_s                 0000000140024954 f   libucrt:mbstowcs.obj
 0001:00023ca8       _wcstombs_s_l              0000000140024ca8 f   libucrt:wcstombs.obj
 0001:0002410c       __acrt_getptd              000000014002510c f   libucrt:per_thread_data.obj
 0001:000241d8       __acrt_getptd_head         00000001400251d8 f   libucrt:per_thread_data.obj
 0001:00024280       __acrt_getptd_noexit       0000000140025280 f   libucrt:per_thread_data.obj
 0001:00024350       __acrt_initialize_ptd      0000000140025350 f   libucrt:per_thread_data.obj
 0001:0002438c       __acrt_uninitialize_ptd    000000014002538c f   libucrt:per_thread_data.obj
 0001:00024648       __acrt_AppPolicyGetProcessTerminationMethodInternal 0000000140025648 f   libucrt:winapi_thunks.obj
 0001:00024698       __acrt_AreFileApisANSI     0000000140025698 f   libucrt:winapi_thunks.obj
 0001:000246d4       __acrt_CompareStringEx     00000001400256d4 f   libucrt:winapi_thunks.obj
 0001:000247b0       __acrt_EnumSystemLocalesEx 00000001400257b0 f   libucrt:winapi_thunks.obj
 0001:00024848       __acrt_FlsAlloc            0000000140025848 f   libucrt:winapi_thunks.obj
 0001:00024890       __acrt_FlsFree             0000000140025890 f   libucrt:winapi_thunks.obj
 0001:000248d8       __acrt_FlsGetValue         00000001400258d8 f   libucrt:winapi_thunks.obj
 0001:00024920       __acrt_FlsSetValue         0000000140025920 f   libucrt:winapi_thunks.obj
 0001:00024974       __acrt_GetLocaleInfoEx     0000000140025974 f   libucrt:winapi_thunks.obj
 0001:000249f8       __acrt_GetSystemTimePreciseAsFileTime 00000001400259f8 f   libucrt:winapi_thunks.obj
 0001:00024a40       __acrt_GetUserDefaultLocaleName 0000000140025a40 f   libucrt:winapi_thunks.obj
 0001:00024aa4       __acrt_InitializeCriticalSectionEx 0000000140025aa4 f   libucrt:winapi_thunks.obj
 0001:00024b08       __acrt_IsValidLocaleName   0000000140025b08 f   libucrt:winapi_thunks.obj
 0001:00024b60       __acrt_LCIDToLocaleName    0000000140025b60 f   libucrt:winapi_thunks.obj
 0001:00024bd0       __acrt_LCMapStringEx       0000000140025bd0 f   libucrt:winapi_thunks.obj
 0001:00024cac       __acrt_LocaleNameToLCID    0000000140025cac f   libucrt:winapi_thunks.obj
 0001:00024cfc       __acrt_RtlGenRandom        0000000140025cfc f   libucrt:winapi_thunks.obj
 0001:00024d4c       __acrt_can_use_vista_locale_apis 0000000140025d4c f   libucrt:winapi_thunks.obj
 0001:00024d7c       __acrt_eagerly_load_locale_apis 0000000140025d7c f   libucrt:winapi_thunks.obj
 0001:00024ed8       __acrt_initialize_winapi_thunks 0000000140025ed8 f   libucrt:winapi_thunks.obj
 0001:00024f20       __acrt_uninitialize_winapi_thunks 0000000140025f20 f   libucrt:winapi_thunks.obj
 0001:00024f64       _fileno                    0000000140025f64 f   libucrt:fileno.obj
 0001:0002506c       __acrt_stdio_flush_and_write_narrow_nolock 000000014002606c f   libucrt:_flsbuf.obj
 0001:0002533c       __acrt_initialize_lowio    000000014002633c f   libucrt:ioinit.obj
 0001:00025378       __acrt_uninitialize_lowio  0000000140026378 f   libucrt:ioinit.obj
 0001:00025444       _commit                    0000000140026444 f   libucrt:commit.obj
 0001:00025b74       _write                     0000000140026b74 f   libucrt:write.obj
 0001:00025c74       _write_nolock              0000000140026c74 f   libucrt:write.obj
 0001:00025f7c       _close                     0000000140026f7c f   libucrt:close.obj
 0001:00026020       _close_nolock              0000000140027020 f   libucrt:close.obj
 0001:000260dc       ?__acrt_stdio_allocate_stream@@YA?AV__crt_stdio_stream@@XZ 00000001400270dc f   libucrt:stream.obj
 0001:00026138       ?__acrt_stdio_free_stream@@YAXV__crt_stdio_stream@@@Z 0000000140027138 f   libucrt:stream.obj
 0001:00026240       __acrt_stdio_free_buffer_nolock 0000000140027240 f   libucrt:_freebuf.obj
 0001:00026280       __acrt_copy_path_to_wide_string 0000000140027280 f   libucrt:string_utilities.obj
 0001:00026378       _wremove                   0000000140027378 f   libucrt:wunlink.obj
 0001:000263a0       strtol                     00000001400273a0 f   libucrt:strtox.obj
 0001:000263d0       _mbtowc_l                  00000001400273d0 f   libucrt:mbtowc.obj
 0001:00026518       mbtowc                     0000000140027518 f   libucrt:mbtowc.obj
 0001:00026520       _wctomb_s_l                0000000140027520 f   libucrt:wctomb.obj
 0001:000266a4       wctomb_s                   00000001400276a4 f   libucrt:wctomb.obj
 0001:000266b8       __acrt_update_locale_info  00000001400276b8 f   libucrt:locale_update.obj
 0001:000266ec       __acrt_update_multibyte_info 00000001400276ec f   libucrt:locale_update.obj
 0001:00026720       ?__acrt_fp_classify@@YA?AW4__acrt_fp_class@@AEBN@Z 0000000140027720 f i libucrt:cvt.obj
 0001:00027144       __acrt_fp_format           0000000140028144 f   libucrt:cvt.obj
 0001:00027388       _get_printf_count_output   0000000140028388 f   libucrt:printf_count_output.obj
 0001:000273a0       __acrt_stdio_begin_temporary_buffering_nolock 00000001400283a0 f   libucrt:_sftbuf.obj
 0001:00027470       __acrt_stdio_end_temporary_buffering_nolock 0000000140028470 f   libucrt:_sftbuf.obj
 0001:000274ac       __acrt_stdio_refill_and_read_narrow_nolock 00000001400284ac f   libucrt:_filbuf.obj
 0001:00027788       _dupenv_s                  0000000140028788 f   libucrt:getenv.obj
 0001:00027f24       _spawnve                   0000000140028f24 f   libucrt:spawnv.obj
 0001:00028258       _spawnvpe                  0000000140029258 f   libucrt:spawnvp.obj
 0001:00028260       _waccess_s                 0000000140029260 f   libucrt:waccess.obj
 0001:0002830c       _fcloseall                 000000014002930c f   libucrt:closeall.obj
 0001:00028904       _ftelli64                  0000000140029904 f   libucrt:ftell.obj
 0001:0002890c       _ftelli64_nolock           000000014002990c f   libucrt:ftell.obj
 0001:00028914       iswctype                   0000000140029914 f   libucrt:iswctype.obj
 0001:00028984       _isctype_l                 0000000140029984 f   libucrt:isctype.obj
 0001:00028a94       __acrt_stdio_allocate_buffer_nolock 0000000140029a94 f   libucrt:_getbuf.obj
 0001:00028af8       _dsign                     0000000140029af8 f   libucrt:nan.obj
 0001:00028b10       _errcode                   0000000140029b10 f   libucrt:fpexcept.obj
 0001:00028b54       _except1                   0000000140029b54 f   libucrt:fpexcept.obj
 0001:00028c48       _handle_exc                0000000140029c48 f   libucrt:fpexcept.obj
 0001:00028eb0       _raise_exc                 0000000140029eb0 f   libucrt:fpexcept.obj
 0001:00028ed8       _raise_exc_ex              0000000140029ed8 f   libucrt:fpexcept.obj
 0001:000291e0       _raise_excf                000000014002a1e0 f   libucrt:fpexcept.obj
 0001:0002920c       _set_errno_from_matherr    000000014002a20c f   libucrt:fpexcept.obj
 0001:0002923c       _umatherr                  000000014002a23c f   libucrt:fpexcept.obj
 0001:00029310       _decomp                    000000014002a310 f   libucrt:util.obj
 0001:00029440       _sptype                    000000014002a440 f   libucrt:util.obj
 0001:000294b4       _clrfp                     000000014002a4b4 f   libucrt:fpctrl.obj
 0001:000294d4       _ctrlfp                    000000014002a4d4 f   libucrt:fpctrl.obj
 0001:00029550       _set_statfp                000000014002a550 f   libucrt:fpctrl.obj
 0001:00029570       _statfp                    000000014002a570 f   libucrt:fpctrl.obj
 0001:00029724       _lseeki64                  000000014002a724 f   libucrt:lseek.obj
 0001:0002972c       _lseeki64_nolock           000000014002a72c f   libucrt:lseek.obj
 0001:00029734       ??$__acrt_stdio_parse_mode@D@@YA?AU__acrt_stdio_stream_mode@@QEBD@Z 000000014002a734 f i libucrt:openfile.obj
 0001:000299d0       _openfile                  000000014002a9d0 f   libucrt:openfile.obj
 0001:00029a6c       __acrt_initialize_heap     000000014002aa6c f   libucrt:heap_handle.obj
 0001:00029a88       __acrt_uninitialize_heap   000000014002aa88 f   libucrt:heap_handle.obj
 0001:00029c30       __acrt_GetLocaleInfoA      000000014002ac30 f   libucrt:getlocaleinfoa.obj
 0001:00029df8       __acrt_GetStringTypeA      000000014002adf8 f   libucrt:getstringtypea.obj
 0001:0002a2fc       __acrt_LCMapStringA        000000014002b2fc f   libucrt:lcmapstringa.obj
 0001:0002a3dc       __acrt_get_sigabrt_handler 000000014002b3dc f   libucrt:signal.obj
 0001:0002a40c       __acrt_initialize_signal_handlers 000000014002b40c f   libucrt:signal.obj
 0001:0002a42c       raise                      000000014002b42c f   libucrt:signal.obj
 0001:0002a6a0       __acrt_initialize_fma3     000000014002b6a0 f   libucrt:fma3_available.obj
 0001:0002a710       _pow_special               000000014002b710 f   libucrt:pow_special.obj
 0001:0002a834       _powf_special              000000014002b834 f   libucrt:pow_special.obj
 0001:0002a9c0       _wcsicmp                   000000014002b9c0 f   libucrt:wcsicmp.obj
 0001:0002aa44       _wcsicmp_l                 000000014002ba44 f   libucrt:wcsicmp.obj
 0001:0002ab34       __acrt_initialize_timeset  000000014002bb34 f   libucrt:timeset.obj
 0001:0002ab78       _isleadbyte_l              000000014002bb78 f i libucrt:_wctype.obj
 0001:0002abb8       __acrt_get_process_end_policy 000000014002bbb8 f   libucrt:win_policies.obj
 0001:0002b158       __acrt_expand_narrow_argv_wildcards 000000014002c158 f   libucrt:argv_wildcards.obj
 0001:0002b8a4       __acrt_initialize_multibyte 000000014002c8a4 f   libucrt:mbctype.obj
 0001:0002b904       __acrt_update_thread_multibyte_data 000000014002c904 f   libucrt:mbctype.obj
 0001:0002b920       _setmbcp_nolock            000000014002c920 f   libucrt:mbctype.obj
 0001:0002bbc0       __dcrt_get_narrow_environment_from_os 000000014002cbc0 f   libucrt:get_environment_from_os.obj
 0001:0002c0d0       __dcrt_set_variable_in_narrow_environment_nolock 000000014002d0d0 f   libucrt:setenv.obj
 0001:0002c0d8       _recalloc                  000000014002d0d8 f   libucrt:recalloc.obj
 0001:0002c0e0       _recalloc_base             000000014002d0e0 f   libucrt:recalloc.obj
 0001:0002c178       __acrt_execute_initializers 000000014002d178 f   libucrt:shared_initialization.obj
 0001:0002c1f8       __acrt_execute_uninitializers 000000014002d1f8 f   libucrt:shared_initialization.obj
 0001:0002c238       wcscat_s                   000000014002d238 f   libucrt:wcscat_s.obj
 0001:0002c2b8       wcsncpy_s                  000000014002d2b8 f   libucrt:wcsncpy_s.obj
 0001:0002c39c       __acrt_lowio_create_handle_array 000000014002d39c f   libucrt:osfinfo.obj
 0001:0002c434       __acrt_lowio_destroy_handle_array 000000014002d434 f   libucrt:osfinfo.obj
 0001:0002c484       __acrt_lowio_ensure_fh_exists 000000014002d484 f   libucrt:osfinfo.obj
 0001:0002c52c       __acrt_lowio_lock_fh       000000014002d52c f   libucrt:osfinfo.obj
 0001:0002c550       __acrt_lowio_set_os_handle 000000014002d550 f   libucrt:osfinfo.obj
 0001:0002c618       __acrt_lowio_unlock_fh     000000014002d618 f   libucrt:osfinfo.obj
 0001:0002c63c       _alloc_osfhnd              000000014002d63c f   libucrt:osfinfo.obj
 0001:0002c760       _free_osfhnd               000000014002d760 f   libucrt:osfinfo.obj
 0001:0002c828       _get_osfhandle             000000014002d828 f   libucrt:osfinfo.obj
 0001:0002c8a0       __acrt_locale_free_monetary 000000014002d8a0 f   libucrt:initmon.obj
 0001:0002c9ac       __acrt_locale_initialize_monetary 000000014002d9ac f   libucrt:initmon.obj
 0001:0002cee4       __acrt_locale_free_numeric 000000014002dee4 f   libucrt:initnum.obj
 0001:0002cf50       __acrt_locale_initialize_numeric 000000014002df50 f   libucrt:initnum.obj
 0001:0002d5c8       __acrt_locale_free_time    000000014002e5c8 f   libucrt:inittime.obj
 0001:0002d6d0       __acrt_locale_initialize_time 000000014002e6d0 f   libucrt:inittime.obj
 0001:0002d764       wcscspn                    000000014002e764 f   libucrt:wcscspn.obj
 0001:0002d7a4       wcspbrk                    000000014002e7a4 f   libucrt:wcspbrk.obj
 0001:0002d7dc       __acrt_add_locale_ref      000000014002e7dc f   libucrt:locale_refcounting.obj
 0001:0002d868       __acrt_free_locale         000000014002e868 f   libucrt:locale_refcounting.obj
 0001:0002d9e0       __acrt_locale_add_lc_time_reference 000000014002e9e0 f   libucrt:locale_refcounting.obj
 0001:0002da08       __acrt_locale_free_lc_time_if_unreferenced 000000014002ea08 f   libucrt:locale_refcounting.obj
 0001:0002da40       __acrt_locale_release_lc_time_reference 000000014002ea40 f   libucrt:locale_refcounting.obj
 0001:0002da68       __acrt_release_locale_ref  000000014002ea68 f   libucrt:locale_refcounting.obj
 0001:0002db10       __acrt_update_thread_locale_data 000000014002eb10 f   libucrt:locale_refcounting.obj
 0001:0002db80       _updatetlocinfoEx_nolock   000000014002eb80 f   libucrt:locale_refcounting.obj
 0001:0002e454       __acrt_get_qualified_locale 000000014002f454 f   libucrt:get_qualified_locale.obj
 0001:0002ee2c       __acrt_get_qualified_locale_downlevel 000000014002fe2c f   libucrt:getqloc_downlevel.obj
 0001:0002f184       __acrt_DownlevelLCIDToLocaleName 0000000140030184 f   libucrt:lcidtoname_downlevel.obj
 0001:0002f268       __acrt_DownlevelLocaleNameToLCID 0000000140030268 f   libucrt:lcidtoname_downlevel.obj
 0001:0002f29c       _isatty                    000000014003029c f   libucrt:isatty.obj
 0001:0002f2fc       _putwch_nolock             00000001400302fc f   libucrt:putwch.obj
 0001:0002f338       __acrt_fp_strflt_to_string 0000000140030338 f   libucrt:_fptostr.obj
 0001:0002f3f8       __acrt_fltout              00000001400303f8 f   libucrt:cfout.obj
 0001:00030de8       _read                      0000000140031de8 f   libucrt:read.obj
 0001:00030f10       _read_nolock               0000000140031f10 f   libucrt:read.obj
 0001:00031460       _strnicoll                 0000000140032460 f   libucrt:strnicol.obj
 0001:00031478       _strnicoll_l               0000000140032478 f   libucrt:strnicol.obj
 0001:00031578       strcat_s                   0000000140032578 f   libucrt:strcat_s.obj
 0001:00031920       __acrt_pack_narrow_command_line_and_environment 0000000140032920 f   libucrt:cenvarg.obj
 0001:00031a84       __acrt_getpath             0000000140032a84 f   libucrt:getpath.obj
 0001:00031b50       _get_fpsr                  0000000140032b50 f   libucrt:fpsr.obj
 0001:00031b60       _set_fpsr                  0000000140032b60 f   libucrt:fpsr.obj
 0001:00031b6a       _fclrf                     0000000140032b6a f   libucrt:fpsr.obj
 0001:00031b7e       _frnd                      0000000140032b7e f   libucrt:fpsr.obj
 0001:00031ba0       _wcsnicmp                  0000000140032ba0 f   libucrt:wcsnicmp.obj
 0001:00031c38       _wcsnicmp_l                0000000140032c38 f   libucrt:wcsnicmp.obj
 0001:00031d60       strncmp                    0000000140032d60 f   libucrt:strncmp.obj
 0001:00031de0       __ascii_strnicmp           0000000140032de0 f   libucrt:strnicmp.obj
 0001:00031e28       _strnicmp                  0000000140032e28 f   libucrt:strnicmp.obj
 0001:00031e78       _strnicmp_l                0000000140032e78 f   libucrt:strnicmp.obj
 0001:00032578       _sopen_nolock              0000000140033578 f   libucrt:open.obj
 0001:00032608       _sopen_s                   0000000140033608 f   libucrt:open.obj
 0001:0003263c       _wsopen_nolock             000000014003363c f   libucrt:open.obj
 0001:00032a28       strncpy_s                  0000000140033a28 f   libucrt:strncpy_s.obj
 0001:00032afc       __acrt_fenv_get_control    0000000140033afc f   libucrt:_fenvutils.obj
 0001:00032bfc       __acrt_fenv_get_status     0000000140033bfc f   libucrt:_fenvutils.obj
 0001:00032c58       __acrt_fenv_set_control    0000000140033c58 f   libucrt:_fenvutils.obj
 0001:00032da0       __acrt_fenv_set_status     0000000140033da0 f   libucrt:_fenvutils.obj
 0001:00032f54       _handle_error              0000000140033f54 f   libucrt:libm_error.obj
 0001:0003307c       _handle_errorf             000000014003407c f   libucrt:libm_error.obj
 0001:000331b0       _handle_nan                00000001400341b0 f   libucrt:libm_error.obj
 0001:000331cc       _handle_nanf               00000001400341cc f   libucrt:libm_error.obj
 0001:000331dc       _towlower_l                00000001400341dc f   libucrt:towlower.obj
 0001:00033360       qsort                      0000000140034360 f   libucrt:qsort.obj
 0001:000336b0       strpbrk                    00000001400346b0 f   libucrt:strpbrk.obj
 0001:00033750       _mbsdec                    0000000140034750 f   libucrt:mbsdec.obj
 0001:00033758       _mbsdec_l                  0000000140034758 f   libucrt:mbsdec.obj
 0001:00033808       _msize                     0000000140034808 f   libucrt:msize.obj
 0001:00033810       _msize_base                0000000140034810 f   libucrt:msize.obj
 0001:00033970       _itow_s                    0000000140034970 f   libucrt:xtoa.obj
 0001:00033990       wcscmp                     0000000140034990 f   libucrt:wcscmp.obj
 0001:000339c8       __dcrt_lowio_ensure_console_output_initialized 00000001400349c8 f   libucrt:initcon.obj
 0001:00033a1c       __dcrt_terminate_console_output 0000000140034a1c f   libucrt:initcon.obj
 0001:00033a38       __dcrt_write_console_w     0000000140034a38 f   libucrt:initcon.obj
 0001:00033af8       fegetenv                   0000000140034af8 f   libucrt:fegetenv.obj
 0001:00033b18       fesetenv                   0000000140034b18 f   libucrt:fesetenv.obj
 0001:00033b68       feholdexcept               0000000140034b68 f   libucrt:feholdexcept.obj
 0001:00033bb8       ceil                       0000000140034bb8 f   libucrt:ceil.obj
 0001:00033c80       log10                      0000000140034c80 f   libucrt:log10.obj
 0001:000345b8       __acrt_CompareStringA      00000001400355b8 f   libucrt:comparestringa.obj
 0001:00034644       _chsize_nolock             0000000140035644 f   libucrt:chsize.obj
 0001:000347c0       __acrt_LCMapStringW        00000001400357c0 f   libucrt:lcmapstringw.obj
 0001:00034848       _clearfp                   0000000140035848 f   libucrt:ieee.obj
 0001:000348c0       _log10_special             00000001400358c0 f   libucrt:log_special.obj
 0001:00034976       IsProcessorFeaturePresent  0000000140035976 f   kernel32:KERNEL32.dll
 0001:0003497c       RtlUnwindEx                000000014003597c f   kernel32:KERNEL32.dll
 0001:00034990       _FindPESection             0000000140035990 f   LIBCMT:pesect.obj
 0001:000349e0       _IsNonwritableInCurrentImage 00000001400359e0 f   LIBCMT:pesect.obj
 0001:00034a30       _ValidateImageBase         0000000140035a30 f   LIBCMT:pesect.obj
 0001:00034a60       strrchr                    0000000140035a60 f   libvcruntime:strrchr.obj
 0001:00034bac       strchr                     0000000140035bac f   libvcruntime:strchr.obj
 0001:00034c38       wcschr                     0000000140035c38 f   libvcruntime:wcschr.obj
 0001:00034ce0       _guard_dispatch_icall_nop  0000000140035ce0 f   LIBCMT:_guard_dispatch_.obj
 0001:00034d00       __guard_ss_verify_failure  0000000140035d00 f   LIBCMT:_rfgfailure_.obj
 0001:00034d0b       __guard_ss_verify_failure_rcx 0000000140035d0b     LIBCMT:_rfgfailure_.obj
 0001:00034d11       __guard_ss_verify_failure_rdx 0000000140035d11     LIBCMT:_rfgfailure_.obj
 0001:00034d17       __guard_ss_verify_failure_r8 0000000140035d17     LIBCMT:_rfgfailure_.obj
 0001:00034d1d       __guard_ss_verify_failure_r9 0000000140035d1d     LIBCMT:_rfgfailure_.obj
 0001:00034d23       __guard_ss_verify_failure_r10 0000000140035d23     LIBCMT:_rfgfailure_.obj
 0001:00034d30       __guard_ss_verify_failure_default 0000000140035d30 f   LIBCMT:_rfgfailure_.obj
 0001:00034d90       __guard_ss_verify_sp       0000000140035d90 f   LIBCMT:_rfgfailure_.obj
 0001:00034da0       __guard_ss_verify_sp_default 0000000140035da0 f   LIBCMT:_rfgfailure_.obj
 0002:00000000       __imp_GetCurrentProcessId  0000000140038000     kernel32:KERNEL32.dll
 0002:00000008       __imp_WriteConsoleW        0000000140038008     kernel32:KERNEL32.dll
 0002:00000010       __imp_SizeofResource       0000000140038010     kernel32:KERNEL32.dll
 0002:00000018       __imp_MoveFileA            0000000140038018     kernel32:KERNEL32.dll
 0002:00000020       __imp_SetConsoleTextAttribute 0000000140038020     kernel32:KERNEL32.dll
 0002:00000028       __imp_GetStdHandle         0000000140038028     kernel32:KERNEL32.dll
 0002:00000030       __imp_WriteFile            0000000140038030     kernel32:KERNEL32.dll
 0002:00000038       __imp_GetConsoleCursorInfo 0000000140038038     kernel32:KERNEL32.dll
 0002:00000040       __imp_FindResourceA        0000000140038040     kernel32:KERNEL32.dll
 0002:00000048       __imp_GetModuleHandleA     0000000140038048     kernel32:KERNEL32.dll
 0002:00000050       __imp_Sleep                0000000140038050     kernel32:KERNEL32.dll
 0002:00000058       __imp_SetConsoleCursorInfo 0000000140038058     kernel32:KERNEL32.dll
 0002:00000060       __imp_CreateFileA          0000000140038060     kernel32:KERNEL32.dll
 0002:00000068       __imp_DeleteFileA          0000000140038068     kernel32:KERNEL32.dll
 0002:00000070       __imp_CloseHandle          0000000140038070     kernel32:KERNEL32.dll
 0002:00000078       __imp_LoadResource         0000000140038078     kernel32:KERNEL32.dll
 0002:00000080       __imp_RemoveDirectoryA     0000000140038080     kernel32:KERNEL32.dll
 0002:00000088       __imp_CreateDirectoryA     0000000140038088     kernel32:KERNEL32.dll
 0002:00000090       __imp_GetSystemTime        0000000140038090     kernel32:KERNEL32.dll
 0002:00000098       __imp_HeapSize             0000000140038098     kernel32:KERNEL32.dll
 0002:000000a0       __imp_CreateFileW          00000001400380a0     kernel32:KERNEL32.dll
 0002:000000a8       __imp_ReadConsoleW         00000001400380a8     kernel32:KERNEL32.dll
 0002:000000b0       __imp_SetStdHandle         00000001400380b0     kernel32:KERNEL32.dll
 0002:000000b8       __imp_GetLastError         00000001400380b8     kernel32:KERNEL32.dll
 0002:000000c0       __imp_WideCharToMultiByte  00000001400380c0     kernel32:KERNEL32.dll
 0002:000000c8       __imp_EnterCriticalSection 00000001400380c8     kernel32:KERNEL32.dll
 0002:000000d0       __imp_LeaveCriticalSection 00000001400380d0     kernel32:KERNEL32.dll
 0002:000000d8       __imp_DeleteCriticalSection 00000001400380d8     kernel32:KERNEL32.dll
 0002:000000e0       __imp_SetLastError         00000001400380e0     kernel32:KERNEL32.dll
 0002:000000e8       __imp_InitializeCriticalSectionAndSpinCount 00000001400380e8     kernel32:KERNEL32.dll
 0002:000000f0       __imp_TlsAlloc             00000001400380f0     kernel32:KERNEL32.dll
 0002:000000f8       __imp_TlsGetValue          00000001400380f8     kernel32:KERNEL32.dll
 0002:00000100       __imp_TlsSetValue          0000000140038100     kernel32:KERNEL32.dll
 0002:00000108       __imp_TlsFree              0000000140038108     kernel32:KERNEL32.dll
 0002:00000110       __imp_GetSystemTimeAsFileTime 0000000140038110     kernel32:KERNEL32.dll
 0002:00000118       __imp_GetModuleHandleW     0000000140038118     kernel32:KERNEL32.dll
 0002:00000120       __imp_GetProcAddress       0000000140038120     kernel32:KERNEL32.dll
 0002:00000128       __imp_EncodePointer        0000000140038128     kernel32:KERNEL32.dll
 0002:00000130       __imp_DecodePointer        0000000140038130     kernel32:KERNEL32.dll
 0002:00000138       __imp_MultiByteToWideChar  0000000140038138     kernel32:KERNEL32.dll
 0002:00000140       __imp_CompareStringW       0000000140038140     kernel32:KERNEL32.dll
 0002:00000148       __imp_LCMapStringW         0000000140038148     kernel32:KERNEL32.dll
 0002:00000150       __imp_GetLocaleInfoW       0000000140038150     kernel32:KERNEL32.dll
 0002:00000158       __imp_GetStringTypeW       0000000140038158     kernel32:KERNEL32.dll
 0002:00000160       __imp_GetCPInfo            0000000140038160     kernel32:KERNEL32.dll
 0002:00000168       __imp_RtlCaptureContext    0000000140038168     kernel32:KERNEL32.dll
 0002:00000170       __imp_RtlLookupFunctionEntry 0000000140038170     kernel32:KERNEL32.dll
 0002:00000178       __imp_RtlVirtualUnwind     0000000140038178     kernel32:KERNEL32.dll
 0002:00000180       __imp_UnhandledExceptionFilter 0000000140038180     kernel32:KERNEL32.dll
 0002:00000188       __imp_SetUnhandledExceptionFilter 0000000140038188     kernel32:KERNEL32.dll
 0002:00000190       __imp_GetCurrentProcess    0000000140038190     kernel32:KERNEL32.dll
 0002:00000198       __imp_TerminateProcess     0000000140038198     kernel32:KERNEL32.dll
 0002:000001a0       __imp_IsProcessorFeaturePresent 00000001400381a0     kernel32:KERNEL32.dll
 0002:000001a8       __imp_IsDebuggerPresent    00000001400381a8     kernel32:KERNEL32.dll
 0002:000001b0       __imp_GetStartupInfoW      00000001400381b0     kernel32:KERNEL32.dll
 0002:000001b8       __imp_QueryPerformanceCounter 00000001400381b8     kernel32:KERNEL32.dll
 0002:000001c0       __imp_SetEndOfFile         00000001400381c0     kernel32:KERNEL32.dll
 0002:000001c8       __imp_GetCurrentThreadId   00000001400381c8     kernel32:KERNEL32.dll
 0002:000001d0       __imp_InitializeSListHead  00000001400381d0     kernel32:KERNEL32.dll
 0002:000001d8       __imp_RtlUnwindEx          00000001400381d8     kernel32:KERNEL32.dll
 0002:000001e0       __imp_RtlPcToFileHeader    00000001400381e0     kernel32:KERNEL32.dll
 0002:000001e8       __imp_RaiseException       00000001400381e8     kernel32:KERNEL32.dll
 0002:000001f0       __imp_FreeLibrary          00000001400381f0     kernel32:KERNEL32.dll
 0002:000001f8       __imp_LoadLibraryExW       00000001400381f8     kernel32:KERNEL32.dll
 0002:00000200       __imp_HeapAlloc            0000000140038200     kernel32:KERNEL32.dll
 0002:00000208       __imp_HeapReAlloc          0000000140038208     kernel32:KERNEL32.dll
 0002:00000210       __imp_HeapFree             0000000140038210     kernel32:KERNEL32.dll
 0002:00000218       __imp_ExitProcess          0000000140038218     kernel32:KERNEL32.dll
 0002:00000220       __imp_GetModuleHandleExW   0000000140038220     kernel32:KERNEL32.dll
 0002:00000228       __imp_GetModuleFileNameA   0000000140038228     kernel32:KERNEL32.dll
 0002:00000230       __imp_GetCommandLineA      0000000140038230     kernel32:KERNEL32.dll
 0002:00000238       __imp_GetCommandLineW      0000000140038238     kernel32:KERNEL32.dll
 0002:00000240       __imp_GetACP               0000000140038240     kernel32:KERNEL32.dll
 0002:00000248       __imp_IsValidLocale        0000000140038248     kernel32:KERNEL32.dll
 0002:00000250       __imp_GetUserDefaultLCID   0000000140038250     kernel32:KERNEL32.dll
 0002:00000258       __imp_EnumSystemLocalesW   0000000140038258     kernel32:KERNEL32.dll
 0002:00000260       __imp_GetFileType          0000000140038260     kernel32:KERNEL32.dll
 0002:00000268       __imp_FlushFileBuffers     0000000140038268     kernel32:KERNEL32.dll
 0002:00000270       __imp_GetConsoleCP         0000000140038270     kernel32:KERNEL32.dll
 0002:00000278       __imp_GetConsoleMode       0000000140038278     kernel32:KERNEL32.dll
 0002:00000280       __imp_DeleteFileW          0000000140038280     kernel32:KERNEL32.dll
 0002:00000288       __imp_WaitForSingleObject  0000000140038288     kernel32:KERNEL32.dll
 0002:00000290       __imp_GetExitCodeProcess   0000000140038290     kernel32:KERNEL32.dll
 0002:00000298       __imp_CreateProcessA       0000000140038298     kernel32:KERNEL32.dll
 0002:000002a0       __imp_GetFileAttributesExW 00000001400382a0     kernel32:KERNEL32.dll
 0002:000002a8       __imp_ReadFile             00000001400382a8     kernel32:KERNEL32.dll
 0002:000002b0       __imp_SetFilePointerEx     00000001400382b0     kernel32:KERNEL32.dll
 0002:000002b8       __imp_GetProcessHeap       00000001400382b8     kernel32:KERNEL32.dll
 0002:000002c0       __imp_FindClose            00000001400382c0     kernel32:KERNEL32.dll
 0002:000002c8       __imp_FindFirstFileExA     00000001400382c8     kernel32:KERNEL32.dll
 0002:000002d0       __imp_FindNextFileA        00000001400382d0     kernel32:KERNEL32.dll
 0002:000002d8       __imp_IsValidCodePage      00000001400382d8     kernel32:KERNEL32.dll
 0002:000002e0       __imp_GetOEMCP             00000001400382e0     kernel32:KERNEL32.dll
 0002:000002e8       __imp_GetEnvironmentStringsW 00000001400382e8     kernel32:KERNEL32.dll
 0002:000002f0       __imp_FreeEnvironmentStringsW 00000001400382f0     kernel32:KERNEL32.dll
 0002:000002f8       __imp_SetEnvironmentVariableA 00000001400382f8     kernel32:KERNEL32.dll
 0002:00000300       \177KERNEL32_NULL_THUNK_DATA 0000000140038300     kernel32:KERNEL32.dll
 0002:00000308       __imp_LoadIconA            0000000140038308     user32:USER32.dll
 0002:00000310       \177USER32_NULL_THUNK_DATA 0000000140038310     user32:USER32.dll
 0002:00000318       __imp_PlaySoundA           0000000140038318     winmm:WINMM.dll
 0002:00000320       \177WINMM_NULL_THUNK_DATA  0000000140038320     winmm:WINMM.dll
 0002:00000328       __imp_URLDownloadToFileA   0000000140038328     urlmon:urlmon.dll
 0002:00000330       \177urlmon_NULL_THUNK_DATA 0000000140038330     urlmon:urlmon.dll
 0002:00000338       __guard_check_icall_fptr   0000000140038338     LIBCMT:guard_support.obj
 0002:00000340       __guard_dispatch_icall_fptr 0000000140038340     LIBCMT:guard_support.obj
 0002:00000348       __guard_ss_verify_failure_fptr 0000000140038348     LIBCMT:guard_support.obj
 0002:00000350       __guard_ss_verify_sp_fptr  0000000140038350     LIBCMT:guard_support.obj
 0002:00000358       __xc_a                     0000000140038358     LIBCMT:initializers.obj
 0002:000003f0       __xc_z                     00000001400383f0     LIBCMT:initializers.obj
 0002:000003f8       __xi_a                     00000001400383f8     LIBCMT:initializers.obj
 0002:00000418       __acrt_stdio_initializer   0000000140038418     libucrt:stdio_initializer.obj
 0002:00000420       __acrt_tran_fma3_initializer 0000000140038420     libucrt:fma3_initializer.obj
 0002:00000428       __acrt_timeset_initializer 0000000140038428     libucrt:timeset_initializer.obj
 0002:00000430       __acrt_multibyte_initializer 0000000140038430     libucrt:multibyte_initializer.obj
 0002:00000438       __xi_z                     0000000140038438     LIBCMT:initializers.obj
 0002:00000440       __xp_a                     0000000140038440     LIBCMT:initializers.obj
 0002:00000448       __acrt_locale_terminator   0000000140038448     libucrt:locale_initializer.obj
 0002:00000450       __dcrt_console_output_terminator 0000000140038450     libucrt:console_output_initializer.obj
 0002:00000458       __acrt_stdio_terminator    0000000140038458     libucrt:stdio_initializer.obj
 0002:00000460       __xp_z                     0000000140038460     LIBCMT:initializers.obj
 0002:00000468       __xt_a                     0000000140038468     LIBCMT:initializers.obj
 0002:00000470       __xt_z                     0000000140038470     LIBCMT:initializers.obj
 0002:00000488       ??_7exception@std@@6B@     0000000140038488     libcpmt:xonce.obj
 0002:000004a0       ??_7runtime_error@std@@6B@ 00000001400384a0     libcpmt:xonce.obj
 0002:000004b8       ??_7error_category@std@@6B@ 00000001400384b8     libcpmt:xonce.obj
 0002:000004f0       ??_7_System_error@std@@6B@ 00000001400384f0     libcpmt:xonce.obj
 0002:00000508       ??_7system_error@std@@6B@  0000000140038508     libcpmt:xonce.obj
 0002:00000518       ??_C@_0O@BFJCFAAK@unknown?5error?$AA@ 0000000140038518     libcpmt:xonce.obj
 0002:00000558       ??_7_Facet_base@std@@6B@   0000000140038558     libcpmt:cout.obj
 0002:00000578       ??_7?$ctype@D@std@@6B@     0000000140038578     libcpmt:cout.obj
 0002:000005d8       ??_7_Iostream_error_category@std@@6B@ 00000001400385d8     libcpmt:cout.obj
 0002:00000610       ??_7failure@ios_base@std@@6B@ 0000000140038610     libcpmt:cout.obj
 0002:00000628       ??_7ios_base@std@@6B@      0000000140038628     libcpmt:cout.obj
 0002:00000638       ??_7?$basic_streambuf@DU?$char_traits@D@std@@@std@@6B@ 0000000140038638     libcpmt:cout.obj
 0002:000006b8       ??_7?$basic_filebuf@DU?$char_traits@D@std@@@std@@6B@ 00000001400386b8     libcpmt:cout.obj
 0002:00000738       ??_7?$basic_ios@DU?$char_traits@D@std@@@std@@6B@ 0000000140038738     libcpmt:cout.obj
 0002:00000748       ??_7?$basic_ostream@DU?$char_traits@D@std@@@std@@6B@ 0000000140038748     libcpmt:cout.obj
 0002:00000758       ??_7?$codecvt@DDU_Mbstatet@@@std@@6B@ 0000000140038758     libcpmt:cout.obj
 0002:00000878       ??_7_Locimp@locale@std@@6B@ 0000000140038878     libcpmt:locale0.obj
 0002:00000890       ??_C@_01NBENCBCI@?$CK?$AA@ 0000000140038890     libcpmt:locale0.obj
 0002:00000894       ??_C@_01GFHCPBMG@C?$AA@    0000000140038894     libcpmt:locale0.obj
 0002:000008c8       ??_7?$basic_istream@DU?$char_traits@D@std@@@std@@6B@ 00000001400388c8     libcpmt:cin.obj
 0002:000008d8       ??_7bad_alloc@std@@6B@     00000001400388d8     libcpmt:xthrow.obj
 0002:000008e8       ??_C@_0P@GHFPNOJB@bad?5allocation?$AA@ 00000001400388e8     libcpmt:xthrow.obj
 0002:00000900       ??_7logic_error@std@@6B@   0000000140038900     libcpmt:xthrow.obj
 0002:00000918       ??_7length_error@std@@6B@  0000000140038918     libcpmt:xthrow.obj
 0002:00000930       ??_7out_of_range@std@@6B@  0000000140038930     libcpmt:xthrow.obj
 0002:00000940       ?_BADOFF@std@@3_JB         0000000140038940     libcpmt:ios.obj
 0002:000009c8       ??_C@_01MCMALHOG@a?$AA@    00000001400389c8     libcpmt:fiopen.obj
 0002:000009cc       ??_C@_02JDPG@rb?$AA@       00000001400389cc     libcpmt:fiopen.obj
 0002:000009d0       ??_C@_02GMLFBBN@wb?$AA@    00000001400389d0     libcpmt:fiopen.obj
 0002:000009d4       ??_C@_02BOGAIONP@ab?$AA@   00000001400389d4     libcpmt:fiopen.obj
 0002:000009d8       ??_C@_02CBLLGHLK@r?$CL?$AA@ 00000001400389d8     libcpmt:fiopen.obj
 0002:000009dc       ??_C@_02CHHAKFFB@w?$CL?$AA@ 00000001400389dc     libcpmt:fiopen.obj
 0002:000009e0       ??_C@_02DPNLHKJD@a?$CL?$AA@ 00000001400389e0     libcpmt:fiopen.obj
 0002:000009e4       ??_C@_03HMFOOINA@r?$CLb?$AA@ 00000001400389e4     libcpmt:fiopen.obj
 0002:000009e8       ??_C@_03ELIABIOC@w?$CLb?$AA@ 00000001400389e8     libcpmt:fiopen.obj
 0002:000009ec       ??_C@_03DOPCBAKB@a?$CLb?$AA@ 00000001400389ec     libcpmt:fiopen.obj
 0002:000009f0       ?valid@?1???$_Xfiopen@D@std@@YAPEAU_iobuf@@PEBDHH@Z@4QBHB 00000001400389f0     libcpmt:fiopen.obj
 0002:00000a30       ??_C@_0BM@EEBBMCOD@invalid?5random_device?5value?$AA@ 0000000140038a30     libcpmt:xrngdev.obj
 0002:00001180       ??_C@_0BN@LKKBCCDB@address?5family?5not?5supported?$AA@ 0000000140039180     libcpmt:syserror.obj
 0002:000011a0       ??_C@_0P@LDMLAFHI@address?5in?5use?$AA@ 00000001400391a0     libcpmt:syserror.obj
 0002:000011b0       ??_C@_0BG@DHPCNBJB@address?5not?5available?$AA@ 00000001400391b0     libcpmt:syserror.obj
 0002:000011c8       ??_C@_0BC@DFIBIBIL@already?5connected?$AA@ 00000001400391c8     libcpmt:syserror.obj
 0002:000011e0       ??_C@_0BH@CAKOHOMI@argument?5list?5too?5long?$AA@ 00000001400391e0     libcpmt:syserror.obj
 0002:000011f8       ??_C@_0BH@CGIMPKIM@argument?5out?5of?5domain?$AA@ 00000001400391f8     libcpmt:syserror.obj
 0002:00001210       ??_C@_0M@KGHGGJGL@bad?5address?$AA@ 0000000140039210     libcpmt:syserror.obj
 0002:00001220       ??_C@_0BE@MPJPGCEO@bad?5file?5descriptor?$AA@ 0000000140039220     libcpmt:syserror.obj
 0002:00001238       ??_C@_0M@PMMIEFCP@bad?5message?$AA@ 0000000140039238     libcpmt:syserror.obj
 0002:00001248       ??_C@_0M@KPHOFDBE@broken?5pipe?$AA@ 0000000140039248     libcpmt:syserror.obj
 0002:00001258       ??_C@_0BD@MGNDDEGM@connection?5aborted?$AA@ 0000000140039258     libcpmt:syserror.obj
 0002:00001270       ??_C@_0BP@KAIHPOGN@connection?5already?5in?5progress?$AA@ 0000000140039270     libcpmt:syserror.obj
 0002:00001290       ??_C@_0BD@PJLIIJEL@connection?5refused?$AA@ 0000000140039290     libcpmt:syserror.obj
 0002:000012a8       ??_C@_0BB@IECNJNOI@connection?5reset?$AA@ 00000001400392a8     libcpmt:syserror.obj
 0002:000012c0       ??_C@_0BC@PPHBOELF@cross?5device?5link?$AA@ 00000001400392c0     libcpmt:syserror.obj
 0002:000012d8       ??_C@_0BN@KDMIFEIP@destination?5address?5required?$AA@ 00000001400392d8     libcpmt:syserror.obj
 0002:000012f8       ??_C@_0BI@NGCEHDD@device?5or?5resource?5busy?$AA@ 00000001400392f8     libcpmt:syserror.obj
 0002:00001310       ??_C@_0BE@JIDOCPHM@directory?5not?5empty?$AA@ 0000000140039310     libcpmt:syserror.obj
 0002:00001328       ??_C@_0BI@BNCLIGPB@executable?5format?5error?$AA@ 0000000140039328     libcpmt:syserror.obj
 0002:00001340       ??_C@_0M@MIDIAGJP@file?5exists?$AA@ 0000000140039340     libcpmt:syserror.obj
 0002:00001350       ??_C@_0P@DNAJLBJK@file?5too?5large?$AA@ 0000000140039350     libcpmt:syserror.obj
 0002:00001360       ??_C@_0BC@EJHOMAAK@filename?5too?5long?$AA@ 0000000140039360     libcpmt:syserror.obj
 0002:00001378       ??_C@_0BH@KEFGLDAF@function?5not?5supported?$AA@ 0000000140039378     libcpmt:syserror.obj
 0002:00001390       ??_C@_0BB@DHFDFGDM@host?5unreachable?$AA@ 0000000140039390     libcpmt:syserror.obj
 0002:000013a8       ??_C@_0BD@JPHBMONG@identifier?5removed?$AA@ 00000001400393a8     libcpmt:syserror.obj
 0002:000013c0       ??_C@_0BG@CDNPAGJK@illegal?5byte?5sequence?$AA@ 00000001400393c0     libcpmt:syserror.obj
 0002:000013d8       ??_C@_0CD@BNPLBMNA@inappropriate?5io?5control?5operati@ 00000001400393d8     libcpmt:syserror.obj
 0002:00001400       ??_C@_0M@EGEKIIMP@interrupted?$AA@ 0000000140039400     libcpmt:syserror.obj
 0002:00001410       ??_C@_0BB@FCMFBGOM@invalid?5argument?$AA@ 0000000140039410     libcpmt:syserror.obj
 0002:00001428       ??_C@_0N@OHAFKDEK@invalid?5seek?$AA@ 0000000140039428     libcpmt:syserror.obj
 0002:00001438       ??_C@_08GLNPIFBN@io?5error?$AA@ 0000000140039438     libcpmt:syserror.obj
 0002:00001448       ??_C@_0P@FLLDBIDK@is?5a?5directory?$AA@ 0000000140039448     libcpmt:syserror.obj
 0002:00001458       ??_C@_0N@IFLPBIOP@message?5size?$AA@ 0000000140039458     libcpmt:syserror.obj
 0002:00001468       ??_C@_0N@KIIEAAIO@network?5down?$AA@ 0000000140039468     libcpmt:syserror.obj
 0002:00001478       ??_C@_0O@FNPDBHEE@network?5reset?$AA@ 0000000140039478     libcpmt:syserror.obj
 0002:00001488       ??_C@_0BE@IFNCKGE@network?5unreachable?$AA@ 0000000140039488     libcpmt:syserror.obj
 0002:000014a0       ??_C@_0BA@PFFCAOFK@no?5buffer?5space?$AA@ 00000001400394a0     libcpmt:syserror.obj
 0002:000014b0       ??_C@_0BB@IEPBLJHK@no?5child?5process?$AA@ 00000001400394b0     libcpmt:syserror.obj
 0002:000014c8       ??_C@_07PLECNNKG@no?5link?$AA@ 00000001400394c8     libcpmt:syserror.obj
 0002:000014d0       ??_C@_0BC@NJECKMKE@no?5lock?5available?$AA@ 00000001400394d0     libcpmt:syserror.obj
 0002:000014e8       ??_C@_0BF@PBGGPKKE@no?5message?5available?$AA@ 00000001400394e8     libcpmt:syserror.obj
 0002:00001500       ??_C@_0L@EDOLMPAK@no?5message?$AA@ 0000000140039500     libcpmt:syserror.obj
 0002:00001510       ??_C@_0BD@EAMBFIDF@no?5protocol?5option?$AA@ 0000000140039510     libcpmt:syserror.obj
 0002:00001528       ??_C@_0BD@IJDJKDEA@no?5space?5on?5device?$AA@ 0000000140039528     libcpmt:syserror.obj
 0002:00001540       ??_C@_0BE@MKFDAFMP@no?5stream?5resources?$AA@ 0000000140039540     libcpmt:syserror.obj
 0002:00001558       ??_C@_0BK@IMCPHCBI@no?5such?5device?5or?5address?$AA@ 0000000140039558     libcpmt:syserror.obj
 0002:00001578       ??_C@_0P@FDINDDOK@no?5such?5device?$AA@ 0000000140039578     libcpmt:syserror.obj
 0002:00001588       ??_C@_0BK@NDOCBPGE@no?5such?5file?5or?5directory?$AA@ 0000000140039588     libcpmt:syserror.obj
 0002:000015a8       ??_C@_0BA@ENLPPKBN@no?5such?5process?$AA@ 00000001400395a8     libcpmt:syserror.obj
 0002:000015b8       ??_C@_0BA@DOCPFFJG@not?5a?5directory?$AA@ 00000001400395b8     libcpmt:syserror.obj
 0002:000015c8       ??_C@_0N@POEIPGGF@not?5a?5socket?$AA@ 00000001400395c8     libcpmt:syserror.obj
 0002:000015d8       ??_C@_0N@LGAPMMPI@not?5a?5stream?$AA@ 00000001400395d8     libcpmt:syserror.obj
 0002:000015e8       ??_C@_0O@GLMIBBEG@not?5connected?$AA@ 00000001400395e8     libcpmt:syserror.obj
 0002:000015f8       ??_C@_0BC@ENOOLCNF@not?5enough?5memory?$AA@ 00000001400395f8     libcpmt:syserror.obj
 0002:00001610       ??_C@_0O@NHEDABJP@not?5supported?$AA@ 0000000140039610     libcpmt:syserror.obj
 0002:00001620       ??_C@_0BD@MOLBPMEA@operation?5canceled?$AA@ 0000000140039620     libcpmt:syserror.obj
 0002:00001638       ??_C@_0BG@KDKHOPCO@operation?5in?5progress?$AA@ 0000000140039638     libcpmt:syserror.obj
 0002:00001650       ??_C@_0BI@OHIEJAAB@operation?5not?5permitted?$AA@ 0000000140039650     libcpmt:syserror.obj
 0002:00001668       ??_C@_0BI@LNEGIFLN@operation?5not?5supported?$AA@ 0000000140039668     libcpmt:syserror.obj
 0002:00001680       ??_C@_0BG@OEMDKMEE@operation?5would?5block?$AA@ 0000000140039680     libcpmt:syserror.obj
 0002:00001698       ??_C@_0L@BLPOFLNJ@owner?5dead?$AA@ 0000000140039698     libcpmt:syserror.obj
 0002:000016a8       ??_C@_0BC@CIJDGCDI@permission?5denied?$AA@ 00000001400396a8     libcpmt:syserror.obj
 0002:000016c0       ??_C@_0P@FNPOCJBE@protocol?5error?$AA@ 00000001400396c0     libcpmt:syserror.obj
 0002:000016d0       ??_C@_0BH@JPPPLHJB@protocol?5not?5supported?$AA@ 00000001400396d0     libcpmt:syserror.obj
 0002:000016e8       ??_C@_0BG@EICBIHDP@read?5only?5file?5system?$AA@ 00000001400396e8     libcpmt:syserror.obj
 0002:00001700       ??_C@_0BO@BJBOMOEJ@resource?5deadlock?5would?5occur?$AA@ 0000000140039700     libcpmt:syserror.obj
 0002:00001720       ??_C@_0BP@LKNGHENJ@resource?5unavailable?5try?5again?$AA@ 0000000140039720     libcpmt:syserror.obj
 0002:00001740       ??_C@_0BE@GOIPJJHG@result?5out?5of?5range?$AA@ 0000000140039740     libcpmt:syserror.obj
 0002:00001758       ??_C@_0BG@MPLKFPAE@state?5not?5recoverable?$AA@ 0000000140039758     libcpmt:syserror.obj
 0002:00001770       ??_C@_0P@DIIFGFCG@stream?5timeout?$AA@ 0000000140039770     libcpmt:syserror.obj
 0002:00001780       ??_C@_0P@IPFDMIFL@text?5file?5busy?$AA@ 0000000140039780     libcpmt:syserror.obj
 0002:00001790       ??_C@_09KJPPMAOI@timed?5out?$AA@ 0000000140039790     libcpmt:syserror.obj
 0002:000017a0       ??_C@_0BO@HACHBEKI@too?5many?5files?5open?5in?5system?$AA@ 00000001400397a0     libcpmt:syserror.obj
 0002:000017c0       ??_C@_0BE@GHAFMPAH@too?5many?5files?5open?$AA@ 00000001400397c0     libcpmt:syserror.obj
 0002:000017d8       ??_C@_0P@HCOMKFCC@too?5many?5links?$AA@ 00000001400397d8     libcpmt:syserror.obj
 0002:000017e8       ??_C@_0BO@EFGOJEF@too?5many?5symbolic?5link?5levels?$AA@ 00000001400397e8     libcpmt:syserror.obj
 0002:00001808       ??_C@_0BA@KGKGOOJA@value?5too?5large?$AA@ 0000000140039808     libcpmt:syserror.obj
 0002:00001818       ??_C@_0BE@MIEJDDNH@wrong?5protocol?5type?$AA@ 0000000140039818     libcpmt:syserror.obj
 0002:00001830       ??_C@_1BK@MGMFAEKH@?$AAk?$AAe?$AAr?$AAn?$AAe?$AAl?$AA3?$AA2?$AA?4?$AAd?$AAl?$AAl?$AA?$AA@ 0000000140039830     libcpmt:winapisupp.obj
 0002:00001850       ??_C@_08KNHFBNJ@FlsAlloc?$AA@ 0000000140039850     libcpmt:winapisupp.obj
 0002:00001860       ??_C@_07PEJMOBNF@FlsFree?$AA@ 0000000140039860     libcpmt:winapisupp.obj
 0002:00001868       ??_C@_0M@GDNOONDI@FlsGetValue?$AA@ 0000000140039868     libcpmt:winapisupp.obj
 0002:00001878       ??_C@_0M@JCPCPOEF@FlsSetValue?$AA@ 0000000140039878     libcpmt:winapisupp.obj
 0002:00001888       ??_C@_0BM@HCFOFFN@InitializeCriticalSectionEx?$AA@ 0000000140039888     libcpmt:winapisupp.obj
 0002:000018a8       ??_C@_0BE@GPLMMCMH@InitOnceExecuteOnce?$AA@ 00000001400398a8     libcpmt:winapisupp.obj
 0002:000018c0       ??_C@_0P@DLHPPCNH@CreateEventExW?$AA@ 00000001400398c0     libcpmt:winapisupp.obj
 0002:000018d0       ??_C@_0BB@MEFPJLHN@CreateSemaphoreW?$AA@ 00000001400398d0     libcpmt:winapisupp.obj
 0002:000018e8       ??_C@_0BD@KIEEOEEH@CreateSemaphoreExW?$AA@ 00000001400398e8     libcpmt:winapisupp.obj
 0002:00001900       ??_C@_0BG@OGFAJCKC@CreateThreadpoolTimer?$AA@ 0000000140039900     libcpmt:winapisupp.obj
 0002:00001918       ??_C@_0BD@LPLEMMDI@SetThreadpoolTimer?$AA@ 0000000140039918     libcpmt:winapisupp.obj
 0002:00001930       ??_C@_0CA@FMNJENH@WaitForThreadpoolTimerCallbacks?$AA@ 0000000140039930     libcpmt:winapisupp.obj
 0002:00001950       ??_C@_0BF@DCFCCNOC@CloseThreadpoolTimer?$AA@ 0000000140039950     libcpmt:winapisupp.obj
 0002:00001968       ??_C@_0BF@FLABGKKM@CreateThreadpoolWait?$AA@ 0000000140039968     libcpmt:winapisupp.obj
 0002:00001980       ??_C@_0BC@MGCOHNA@SetThreadpoolWait?$AA@ 0000000140039980     libcpmt:winapisupp.obj
 0002:00001998       ??_C@_0BE@OCIOMIMP@CloseThreadpoolWait?$AA@ 0000000140039998     libcpmt:winapisupp.obj
 0002:000019b0       ??_C@_0BJ@LKGHFHBO@FlushProcessWriteBuffers?$AA@ 00000001400399b0     libcpmt:winapisupp.obj
 0002:000019d0       ??_C@_0BP@KALKKPMO@FreeLibraryWhenCallbackReturns?$AA@ 00000001400399d0     libcpmt:winapisupp.obj
 0002:000019f0       ??_C@_0BK@DFNBACLA@GetCurrentProcessorNumber?$AA@ 00000001400399f0     libcpmt:winapisupp.obj
 0002:00001a10       ??_C@_0BE@FKKLLFLM@CreateSymbolicLinkW?$AA@ 0000000140039a10     libcpmt:winapisupp.obj
 0002:00001a28       ??_C@_0BE@JOGNEJCI@GetCurrentPackageId?$AA@ 0000000140039a28     libcpmt:winapisupp.obj
 0002:00001a40       ??_C@_0P@CDHHOHKP@GetTickCount64?$AA@ 0000000140039a40     libcpmt:winapisupp.obj
 0002:00001a50       ??_C@_0BN@NEEHBBPO@GetFileInformationByHandleEx?$AA@ 0000000140039a50     libcpmt:winapisupp.obj
 0002:00001a70       ??_C@_0BL@KBBHGKCM@SetFileInformationByHandle?$AA@ 0000000140039a70     libcpmt:winapisupp.obj
 0002:00001a90       ??_C@_0BP@FPNJPEJC@GetSystemTimePreciseAsFileTime?$AA@ 0000000140039a90     libcpmt:winapisupp.obj
 0002:00001ab0       ??_C@_0BM@HLJJNPAH@InitializeConditionVariable?$AA@ 0000000140039ab0     libcpmt:winapisupp.obj
 0002:00001ad0       ??_C@_0BG@BFNILBLN@WakeConditionVariable?$AA@ 0000000140039ad0     libcpmt:winapisupp.obj
 0002:00001ae8       ??_C@_0BJ@PGPPEPCC@WakeAllConditionVariable?$AA@ 0000000140039ae8     libcpmt:winapisupp.obj
 0002:00001b08       ??_C@_0BJ@JEBJOJFJ@SleepConditionVariableCS?$AA@ 0000000140039b08     libcpmt:winapisupp.obj
 0002:00001b28       ??_C@_0BC@MMLHEBPB@InitializeSRWLock?$AA@ 0000000140039b28     libcpmt:winapisupp.obj
 0002:00001b40       ??_C@_0BI@OMNLIJDB@AcquireSRWLockExclusive?$AA@ 0000000140039b40     libcpmt:winapisupp.obj
 0002:00001b58       ??_C@_0BL@OGHFEMNA@TryAcquireSRWLockExclusive?$AA@ 0000000140039b58     libcpmt:winapisupp.obj
 0002:00001b78       ??_C@_0BI@HMIEPCNJ@ReleaseSRWLockExclusive?$AA@ 0000000140039b78     libcpmt:winapisupp.obj
 0002:00001b90       ??_C@_0BK@LGACAGIC@SleepConditionVariableSRW?$AA@ 0000000140039b90     libcpmt:winapisupp.obj
 0002:00001bb0       ??_C@_0BF@GGPHFPJA@CreateThreadpoolWork?$AA@ 0000000140039bb0     libcpmt:winapisupp.obj
 0002:00001bc8       ??_C@_0BF@NHDAIMMO@SubmitThreadpoolWork?$AA@ 0000000140039bc8     libcpmt:winapisupp.obj
 0002:00001be0       ??_C@_0BE@NPHIPNPD@CloseThreadpoolWork?$AA@ 0000000140039be0     libcpmt:winapisupp.obj
 0002:00001bf8       ??_C@_0BA@IHGNDAEB@CompareStringEx?$AA@ 0000000140039bf8     libcpmt:winapisupp.obj
 0002:00001c08       ??_C@_0BA@ONOKGCMP@GetLocaleInfoEx?$AA@ 0000000140039c08     libcpmt:winapisupp.obj
 0002:00001c18       ??_C@_0O@KKBNKAPF@LCMapStringEx?$AA@ 0000000140039c18     libcpmt:winapisupp.obj
 0002:00001c58       ??_7?$num_put@DV?$ostreambuf_iterator@DU?$char_traits@D@std@@@std@@@std@@6B@ 0000000140039c58     libcpmt:locale.obj
 0002:00001cb8       ??_7?$numpunct@D@std@@6B@  0000000140039cb8     libcpmt:locale.obj
 0002:00001cf8       ??_C@_11LOCGONAA@?$AA?$AA@ 0000000140039cf8     libcpmt:wlocale.obj
 0002:00001cfc       ??_C@_01JOAMLHOP@?9?$AA@   0000000140039cfc     libcpmt:wlocale.obj
 0002:00001d00       __xmm@80000000000000008000000000000000 0000000140039d00     libcpmt:wlocale.obj
 0002:00003a30       ??_C@_15EMKDOKLE@?$AAa?$AAr?$AA?$AA@ 000000014003ba30     libcpmt:winapinls.obj
 0002:00003a38       ??_C@_15KNPADPLH@?$AAb?$AAg?$AA?$AA@ 000000014003ba38     libcpmt:winapinls.obj
 0002:00003a40       ??_C@_15EDMHLDMO@?$AAc?$AAa?$AA?$AA@ 000000014003ba40     libcpmt:winapinls.obj
 0002:00003a48       ??_C@_1O@BPEAJADD@?$AAz?$AAh?$AA?9?$AAC?$AAH?$AAS?$AA?$AA@ 000000014003ba48     libcpmt:winapinls.obj
 0002:00003a58       ??_C@_15LJNHCMNK@?$AAc?$AAs?$AA?$AA@ 000000014003ba58     libcpmt:winapinls.obj
 0002:00003a60       ??_C@_15FOMCIDHG@?$AAd?$AAa?$AA?$AA@ 000000014003ba60     libcpmt:winapinls.obj
 0002:00003a68       ??_C@_15NBKABECB@?$AAd?$AAe?$AA?$AA@ 000000014003ba68     libcpmt:winapinls.obj
 0002:00003a70       ??_C@_15GHPEIIAO@?$AAe?$AAl?$AA?$AA@ 000000014003ba70     libcpmt:winapinls.obj
 0002:00003a78       ??_C@_15MNPNEAIF@?$AAe?$AAn?$AA?$AA@ 000000014003ba78     libcpmt:winapinls.obj
 0002:00003a80       ??_C@_15GPIOMPMH@?$AAe?$AAs?$AA?$AA@ 000000014003ba80     libcpmt:winapinls.obj
 0002:00003a88       ??_C@_15NGLOAKJC@?$AAf?$AAi?$AA?$AA@ 000000014003ba88     libcpmt:winapinls.obj
 0002:00003a90       ??_C@_15FBKGNKAM@?$AAf?$AAr?$AA?$AA@ 000000014003ba90     libcpmt:winapinls.obj
 0002:00003a98       ??_C@_15KGGCNEFK@?$AAh?$AAe?$AA?$AA@ 000000014003ba98     libcpmt:winapinls.obj
 0002:00003aa0       ??_C@_15PGHLIDMF@?$AAh?$AAu?$AA?$AA@ 000000014003baa0     libcpmt:winapinls.obj
 0002:00003aa8       ??_C@_15BIEMAPLM@?$AAi?$AAs?$AA?$AA@ 000000014003baa8     libcpmt:winapinls.obj
 0002:00003ab0       ??_C@_15IFJLDHAF@?$AAi?$AAt?$AA?$AA@ 000000014003bab0     libcpmt:winapinls.obj
 0002:00003ab8       ??_C@_15GEMIOCAG@?$AAj?$AAa?$AA?$AA@ 000000014003bab8     libcpmt:winapinls.obj
 0002:00003ac0       ??_C@_15EPELEGJA@?$AAk?$AAo?$AA?$AA@ 000000014003bac0     libcpmt:winapinls.obj
 0002:00003ac8       ??_C@_15NDDHIMN@?$AAn?$AAl?$AA?$AA@ 000000014003bac8     libcpmt:winapinls.obj
 0002:00003ad0       ??_C@_15BPIGNHCD@?$AAn?$AAo?$AA?$AA@ 000000014003bad0     libcpmt:winapinls.obj
 0002:00003ad8       ??_C@_15DEOPBLCG@?$AAp?$AAl?$AA?$AA@ 000000014003bad8     libcpmt:winapinls.obj
 0002:00003ae0       ??_C@_15KBECGEFG@?$AAp?$AAt?$AA?$AA@ 000000014003bae0     libcpmt:winapinls.obj
 0002:00003ae8       ??_C@_15GLJCBFMD@?$AAr?$AAo?$AA?$AA@ 000000014003bae8     libcpmt:winapinls.obj
 0002:00003af0       ??_C@_15FEDGKCDI@?$AAr?$AAu?$AA?$AA@ 000000014003baf0     libcpmt:winapinls.obj
 0002:00003af8       ??_C@_15GLKMLLHM@?$AAh?$AAr?$AA?$AA@ 000000014003baf8     libcpmt:winapinls.obj
 0002:00003b00       ??_C@_15CPKMFBDB@?$AAs?$AAk?$AA?$AA@ 000000014003bb00     libcpmt:winapinls.obj
 0002:00003b08       ??_C@_15BAAIOGMK@?$AAs?$AAq?$AA?$AA@ 000000014003bb08     libcpmt:winapinls.obj
 0002:00003b10       ??_C@_15INNPNOHD@?$AAs?$AAv?$AA?$AA@ 000000014003bb10     libcpmt:winapinls.obj
 0002:00003b18       ??_C@_15CABMMOGH@?$AAt?$AAh?$AA?$AA@ 000000014003bb18     libcpmt:winapinls.obj
 0002:00003b20       ??_C@_15BPLIHJJM@?$AAt?$AAr?$AA?$AA@ 000000014003bb20     libcpmt:winapinls.obj
 0002:00003b28       ??_C@_15NEOEKKDJ@?$AAu?$AAr?$AA?$AA@ 000000014003bb28     libcpmt:winapinls.obj
 0002:00003b30       ??_C@_15NFICGAJK@?$AAi?$AAd?$AA?$AA@ 000000014003bb30     libcpmt:winapinls.obj
 0002:00003b38       ??_C@_15PJPFLCCM@?$AAu?$AAk?$AA?$AA@ 000000014003bb38     libcpmt:winapinls.obj
 0002:00003b40       ??_C@_15HPJPHDM@?$AAb?$AAe?$AA?$AA@ 000000014003bb40     libcpmt:winapinls.obj
 0002:00003b48       ??_C@_15LCHLGJII@?$AAs?$AAl?$AA?$AA@ 000000014003bb48     libcpmt:winapinls.obj
 0002:00003b50       ??_C@_15PCFJPHHO@?$AAe?$AAt?$AA?$AA@ 000000014003bb50     libcpmt:winapinls.obj
 0002:00003b58       ??_C@_15HPFPGODN@?$AAl?$AAv?$AA?$AA@ 000000014003bb58     libcpmt:winapinls.obj
 0002:00003b60       ??_C@_15NFFGKGLG@?$AAl?$AAt?$AA?$AA@ 000000014003bb60     libcpmt:winapinls.obj
 0002:00003b68       ??_C@_15BDAKCCHN@?$AAf?$AAa?$AA?$AA@ 000000014003bb68     libcpmt:winapinls.obj
 0002:00003b70       ??_C@_15NFGIAIAJ@?$AAv?$AAi?$AA?$AA@ 000000014003bb70     libcpmt:winapinls.obj
 0002:00003b78       ??_C@_15LMKNDMHN@?$AAh?$AAy?$AA?$AA@ 000000014003bb78     libcpmt:winapinls.obj
 0002:00003b80       ??_C@_15IJBHMCFL@?$AAa?$AAz?$AA?$AA@ 000000014003bb80     libcpmt:winapinls.obj
 0002:00003b88       ??_C@_15EKOFJABL@?$AAe?$AAu?$AA?$AA@ 000000014003bb88     libcpmt:winapinls.obj
 0002:00003b90       ??_C@_15BGHADCNK@?$AAm?$AAk?$AA?$AA@ 000000014003bb90     libcpmt:winapinls.obj
 0002:00003b98       ??_C@_15JDNICKHM@?$AAa?$AAf?$AA?$AA@ 000000014003bb98     libcpmt:winapinls.obj
 0002:00003ba0       ??_C@_15KPJEDBKD@?$AAk?$AAa?$AA?$AA@ 000000014003bba0     libcpmt:winapinls.obj
 0002:00003ba8       ??_C@_15PDNFFFEO@?$AAf?$AAo?$AA?$AA@ 000000014003bba8     libcpmt:winapinls.obj
 0002:00003bb0       ??_C@_15OMLEGLOC@?$AAh?$AAi?$AA?$AA@ 000000014003bbb0     libcpmt:winapinls.obj
 0002:00003bb8       ??_C@_15IDNNENKK@?$AAm?$AAs?$AA?$AA@ 000000014003bbb8     libcpmt:winapinls.obj
 0002:00003bc0       ??_C@_15MACJNBMH@?$AAk?$AAk?$AA?$AA@ 000000014003bbc0     libcpmt:winapinls.obj
 0002:00003bc8       ??_C@_15DKDJEOND@?$AAk?$AAy?$AA?$AA@ 000000014003bbc8     libcpmt:winapinls.obj
 0002:00003bd0       ??_C@_15DFGDLJBG@?$AAs?$AAw?$AA?$AA@ 000000014003bbd0     libcpmt:winapinls.obj
 0002:00003bd8       ??_C@_15BBFAICNG@?$AAu?$AAz?$AA?$AA@ 000000014003bbd8     libcpmt:winapinls.obj
 0002:00003be0       ??_C@_15DKNDCGEA@?$AAt?$AAt?$AA?$AA@ 000000014003bbe0     libcpmt:winapinls.obj
 0002:00003be8       ??_C@_15MGIFMDPL@?$AAp?$AAa?$AA?$AA@ 000000014003bbe8     libcpmt:winapinls.obj
 0002:00003bf0       ??_C@_15HCNDBBA@?$AAg?$AAu?$AA?$AA@ 000000014003bbf0     libcpmt:winapinls.obj
 0002:00003bf8       ??_C@_15FNBEIBON@?$AAt?$AAa?$AA?$AA@ 000000014003bbf8     libcpmt:winapinls.obj
 0002:00003c00       ??_C@_15NCHGBGLK@?$AAt?$AAe?$AA?$AA@ 000000014003bc00     libcpmt:winapinls.obj
 0002:00003c08       ??_C@_15PHPHCBPF@?$AAk?$AAn?$AA?$AA@ 000000014003bc08     libcpmt:winapinls.obj
 0002:00003c10       ??_C@_15DLGBCKMP@?$AAm?$AAr?$AA?$AA@ 000000014003bc10     libcpmt:winapinls.obj
 0002:00003c18       ??_C@_15EABBLBFF@?$AAs?$AAa?$AA?$AA@ 000000014003bc18     libcpmt:winapinls.obj
 0002:00003c20       ??_C@_15CBKOMCOI@?$AAm?$AAn?$AA?$AA@ 000000014003bc20     libcpmt:winapinls.obj
 0002:00003c28       ??_C@_15CKDMCJAF@?$AAg?$AAl?$AA?$AA@ 000000014003bc28     libcpmt:winapinls.obj
 0002:00003c30       ??_C@_17CNJFBPG@?$AAk?$AAo?$AAk?$AA?$AA@ 000000014003bc30     libcpmt:winapinls.obj
 0002:00003c38       ??_C@_17FFBJICPL@?$AAs?$AAy?$AAr?$AA?$AA@ 000000014003bc38     libcpmt:winapinls.obj
 0002:00003c40       ??_C@_17KPNDCPAF@?$AAd?$AAi?$AAv?$AA?$AA@ 000000014003bc40     libcpmt:winapinls.obj
 0002:00003c48       ??_C@_1M@OKAHONE@?$AAa?$AAr?$AA?9?$AAS?$AAA?$AA?$AA@ 000000014003bc48     libcpmt:winapinls.obj
 0002:00003c58       ??_C@_1M@FFFIGIGK@?$AAb?$AAg?$AA?9?$AAB?$AAG?$AA?$AA@ 000000014003bc58     libcpmt:winapinls.obj
 0002:00003c68       ??_C@_1M@BJNKEDC@?$AAc?$AAa?$AA?9?$AAE?$AAS?$AA?$AA@ 000000014003bc68     libcpmt:winapinls.obj
 0002:00003c78       ??_C@_1M@CLNBBOPM@?$AAz?$AAh?$AA?9?$AAT?$AAW?$AA?$AA@ 000000014003bc78     libcpmt:winapinls.obj
 0002:00003c88       ??_C@_1M@IJJHFJHA@?$AAc?$AAs?$AA?9?$AAC?$AAZ?$AA?$AA@ 000000014003bc88     libcpmt:winapinls.obj
 0002:00003c98       ??_C@_1M@CLPEOBGI@?$AAd?$AAa?$AA?9?$AAD?$AAK?$AA?$AA@ 000000014003bc98     libcpmt:winapinls.obj
 0002:00003ca8       ??_C@_1M@MCMADGCB@?$AAd?$AAe?$AA?9?$AAD?$AAE?$AA?$AA@ 000000014003bca8     libcpmt:winapinls.obj
 0002:00003cb8       ??_C@_1M@OOCKEMAM@?$AAe?$AAl?$AA?9?$AAG?$AAR?$AA?$AA@ 000000014003bcb8     libcpmt:winapinls.obj
 0002:00003cc8       ??_C@_1M@BMHNFIME@?$AAe?$AAn?$AA?9?$AAU?$AAS?$AA?$AA@ 000000014003bcc8     libcpmt:winapinls.obj
 0002:00003cd8       ??_C@_1M@DDNJFGID@?$AAf?$AAi?$AA?9?$AAF?$AAI?$AA?$AA@ 000000014003bcd8     libcpmt:winapinls.obj
 0002:00003ce8       ??_C@_1M@GLIPPMAC@?$AAf?$AAr?$AA?9?$AAF?$AAR?$AA?$AA@ 000000014003bce8     libcpmt:winapinls.obj
 0002:00003cf8       ??_C@_1M@GFMCHPE@?$AAh?$AAe?$AA?9?$AAI?$AAL?$AA?$AA@ 000000014003bcf8     libcpmt:winapinls.obj
 0002:00003d08       ??_C@_1M@MHLPGNKM@?$AAh?$AAu?$AA?9?$AAH?$AAU?$AA?$AA@ 000000014003bd08     libcpmt:winapinls.obj
 0002:00003d18       ??_C@_1M@LPDDNNPN@?$AAi?$AAs?$AA?9?$AAI?$AAS?$AA?$AA@ 000000014003bd18     libcpmt:winapinls.obj
 0002:00003d28       ??_C@_1M@MADIPODN@?$AAi?$AAt?$AA?9?$AAI?$AAT?$AA?$AA@ 000000014003bd28     libcpmt:winapinls.obj
 0002:00003d38       ??_C@_1M@HPNHIDJI@?$AAj?$AAa?$AA?9?$AAJ?$AAP?$AA?$AA@ 000000014003bd38     libcpmt:winapinls.obj
 0002:00003d48       ??_C@_1M@JLOOOEGK@?$AAk?$AAo?$AA?9?$AAK?$AAR?$AA?$AA@ 000000014003bd48     libcpmt:winapinls.obj
 0002:00003d58       ??_C@_1M@IHBJJGG@?$AAn?$AAl?$AA?9?$AAN?$AAL?$AA?$AA@ 000000014003bd58     libcpmt:winapinls.obj
 0002:00003d68       ??_C@_1M@EANAGDL@?$AAn?$AAb?$AA?9?$AAN?$AAO?$AA?$AA@ 000000014003bd68     libcpmt:winapinls.obj
 0002:00003d78       ??_C@_1M@NEIEMEGP@?$AAp?$AAl?$AA?9?$AAP?$AAL?$AA?$AA@ 000000014003bd78     libcpmt:winapinls.obj
 0002:00003d88       ??_C@_1M@BOCFIGEP@?$AAp?$AAt?$AA?9?$AAB?$AAR?$AA?$AA@ 000000014003bd88     libcpmt:winapinls.obj
 0002:00003d98       ??_C@_1M@IMPFOPBG@?$AAr?$AAo?$AA?9?$AAR?$AAO?$AA?$AA@ 000000014003bd98     libcpmt:winapinls.obj
 0002:00003da8       ??_C@_1M@IDNNEJMM@?$AAr?$AAu?$AA?9?$AAR?$AAU?$AA?$AA@ 000000014003bda8     libcpmt:winapinls.obj
 0002:00003db8       ??_C@_1M@LILEEOGM@?$AAh?$AAr?$AA?9?$AAH?$AAR?$AA?$AA@ 000000014003bdb8     libcpmt:winapinls.obj
 0002:00003dc8       ??_C@_1M@FKIFEHPB@?$AAs?$AAk?$AA?9?$AAS?$AAK?$AA?$AA@ 000000014003bdc8     libcpmt:winapinls.obj
 0002:00003dd8       ??_C@_1M@LJMAMNPJ@?$AAs?$AAq?$AA?9?$AAA?$AAL?$AA?$AA@ 000000014003bdd8     libcpmt:winapinls.obj
 0002:00003de8       ??_C@_1M@GIAKDKJK@?$AAs?$AAv?$AA?9?$AAS?$AAE?$AA?$AA@ 000000014003bde8     libcpmt:winapinls.obj
 0002:00003df8       ??_C@_1M@MKJKIKCL@?$AAt?$AAh?$AA?9?$AAT?$AAH?$AA?$AA@ 000000014003bdf8     libcpmt:winapinls.obj
 0002:00003e08       ??_C@_1M@MFLCCMPB@?$AAt?$AAr?$AA?9?$AAT?$AAR?$AA?$AA@ 000000014003be08     libcpmt:winapinls.obj
 0002:00003e18       ??_C@_1M@OIJHDKJN@?$AAu?$AAr?$AA?9?$AAP?$AAK?$AA?$AA@ 000000014003be18     libcpmt:winapinls.obj
 0002:00003e28       ??_C@_1M@LHIPCIEK@?$AAi?$AAd?$AA?9?$AAI?$AAD?$AA?$AA@ 000000014003be28     libcpmt:winapinls.obj
 0002:00003e38       ??_C@_1M@MFMOBGI@?$AAu?$AAk?$AA?9?$AAU?$AAA?$AA?$AA@ 000000014003be38     libcpmt:winapinls.obj
 0002:00003e48       ??_C@_1M@OBGLJIPL@?$AAb?$AAe?$AA?9?$AAB?$AAY?$AA?$AA@ 000000014003be48     libcpmt:winapinls.obj
 0002:00003e58       ??_C@_1M@BCFAJEAD@?$AAs?$AAl?$AA?9?$AAS?$AAI?$AA?$AA@ 000000014003be58     libcpmt:winapinls.obj
 0002:00003e68       ??_C@_1M@FKFFEDDN@?$AAe?$AAt?$AA?9?$AAE?$AAE?$AA?$AA@ 000000014003be68     libcpmt:winapinls.obj
 0002:00003e78       ??_C@_1M@KGKKAACI@?$AAl?$AAv?$AA?9?$AAL?$AAV?$AA?$AA@ 000000014003be78     libcpmt:winapinls.obj
 0002:00003e88       ??_C@_1M@IFGBIJO@?$AAl?$AAt?$AA?9?$AAL?$AAT?$AA?$AA@ 000000014003be88     libcpmt:winapinls.obj
 0002:00003e98       ??_C@_1M@FGEAHEDM@?$AAf?$AAa?$AA?9?$AAI?$AAR?$AA?$AA@ 000000014003be98     libcpmt:winapinls.obj
 0002:00003ea8       ??_C@_1M@KBMAIBFN@?$AAv?$AAi?$AA?9?$AAV?$AAN?$AA?$AA@ 000000014003bea8     libcpmt:winapinls.obj
 0002:00003eb8       ??_C@_1M@GPCBKDJK@?$AAh?$AAy?$AA?9?$AAA?$AAM?$AA?$AA@ 000000014003beb8     libcpmt:winapinls.obj
 0002:00003ec8       ??_C@_1BG@BECMDDJB@?$AAa?$AAz?$AA?9?$AAA?$AAZ?$AA?9?$AAL?$AAa?$AAt?$AAn?$AA?$AA@ 000000014003bec8     libcpmt:winapinls.obj
 0002:00003ee0       ??_C@_1M@MAOFCAEA@?$AAe?$AAu?$AA?9?$AAE?$AAS?$AA?$AA@ 000000014003bee0     libcpmt:winapinls.obj
 0002:00003ef0       ??_C@_1M@IGHABKPI@?$AAm?$AAk?$AA?9?$AAM?$AAK?$AA?$AA@ 000000014003bef0     libcpmt:winapinls.obj
 0002:00003f00       ??_C@_1M@IAIGNEJG@?$AAt?$AAn?$AA?9?$AAZ?$AAA?$AA?$AA@ 000000014003bf00     libcpmt:winapinls.obj
 0002:00003f10       ??_C@_1M@IIJCOJFA@?$AAx?$AAh?$AA?9?$AAZ?$AAA?$AA?$AA@ 000000014003bf10     libcpmt:winapinls.obj
 0002:00003f20       ??_C@_1M@LGPJHNJH@?$AAz?$AAu?$AA?9?$AAZ?$AAA?$AA?$AA@ 000000014003bf20     libcpmt:winapinls.obj
 0002:00003f30       ??_C@_1M@HOKAOIO@?$AAa?$AAf?$AA?9?$AAZ?$AAA?$AA?$AA@ 000000014003bf30     libcpmt:winapinls.obj
 0002:00003f40       ??_C@_1M@DPCLHLIE@?$AAk?$AAa?$AA?9?$AAG?$AAE?$AA?$AA@ 000000014003bf40     libcpmt:winapinls.obj
 0002:00003f50       ??_C@_1M@BLKMHJBI@?$AAf?$AAo?$AA?9?$AAF?$AAO?$AA?$AA@ 000000014003bf50     libcpmt:winapinls.obj
 0002:00003f60       ??_C@_1M@LGGJAPPB@?$AAh?$AAi?$AA?9?$AAI?$AAN?$AA?$AA@ 000000014003bf60     libcpmt:winapinls.obj
 0002:00003f70       ??_C@_1M@FIKPIHFE@?$AAm?$AAt?$AA?9?$AAM?$AAT?$AA?$AA@ 000000014003bf70     libcpmt:winapinls.obj
 0002:00003f80       ??_C@_1M@HEGGPBFA@?$AAs?$AAe?$AA?9?$AAN?$AAO?$AA?$AA@ 000000014003bf80     libcpmt:winapinls.obj
 0002:00003f90       ??_C@_1M@EIBJEEPA@?$AAm?$AAs?$AA?9?$AAM?$AAY?$AA?$AA@ 000000014003bf90     libcpmt:winapinls.obj
 0002:00003fa0       ??_C@_1M@FHLBGMPP@?$AAk?$AAk?$AA?9?$AAK?$AAZ?$AA?$AA@ 000000014003bfa0     libcpmt:winapinls.obj
 0002:00003fb0       ??_C@_1M@NGJJLCGI@?$AAk?$AAy?$AA?9?$AAK?$AAG?$AA?$AA@ 000000014003bfb0     libcpmt:winapinls.obj
 0002:00003fc0       ??_C@_1M@GIENNBFC@?$AAs?$AAw?$AA?9?$AAK?$AAE?$AA?$AA@ 000000014003bfc0     libcpmt:winapinls.obj
 0002:00003fd0       ??_C@_1BG@NDGMJIMJ@?$AAu?$AAz?$AA?9?$AAU?$AAZ?$AA?9?$AAL?$AAa?$AAt?$AAn?$AA?$AA@ 000000014003bfd0     libcpmt:winapinls.obj
 0002:00003fe8       ??_C@_1M@IDCCIHBC@?$AAt?$AAt?$AA?9?$AAR?$AAU?$AA?$AA@ 000000014003bfe8     libcpmt:winapinls.obj
 0002:00003ff8       ??_C@_1M@LOICPMOJ@?$AAb?$AAn?$AA?9?$AAI?$AAN?$AA?$AA@ 000000014003bff8     libcpmt:winapinls.obj
 0002:00004008       ??_C@_1M@KPKKNEAH@?$AAp?$AAa?$AA?9?$AAI?$AAN?$AA?$AA@ 000000014003c008     libcpmt:winapinls.obj
 0002:00004018       ??_C@_1M@PJGPPBOG@?$AAg?$AAu?$AA?9?$AAI?$AAN?$AA?$AA@ 000000014003c018     libcpmt:winapinls.obj
 0002:00004028       ??_C@_1M@KMKMOPHI@?$AAt?$AAa?$AA?9?$AAI?$AAN?$AA?$AA@ 000000014003c028     libcpmt:winapinls.obj
 0002:00004038       ??_C@_1M@KFEHEPAC@?$AAt?$AAe?$AA?9?$AAI?$AAN?$AA?$AA@ 000000014003c038     libcpmt:winapinls.obj
 0002:00004048       ??_C@_1M@CDCLMGHI@?$AAk?$AAn?$AA?9?$AAI?$AAN?$AA?$AA@ 000000014003c048     libcpmt:winapinls.obj
 0002:00004058       ??_C@_1M@MIODLDKF@?$AAm?$AAl?$AA?9?$AAI?$AAN?$AA?$AA@ 000000014003c058     libcpmt:winapinls.obj
 0002:00004068       ??_C@_1M@PBIEACPO@?$AAm?$AAr?$AA?9?$AAI?$AAN?$AA?$AA@ 000000014003c068     libcpmt:winapinls.obj
 0002:00004078       ??_C@_1M@NIDEAGPH@?$AAs?$AAa?$AA?9?$AAI?$AAN?$AA?$AA@ 000000014003c078     libcpmt:winapinls.obj
 0002:00004088       ??_C@_1M@FHIHCBIO@?$AAm?$AAn?$AA?9?$AAM?$AAN?$AA?$AA@ 000000014003c088     libcpmt:winapinls.obj
 0002:00004098       ??_C@_1M@JAIJPENP@?$AAc?$AAy?$AA?9?$AAG?$AAB?$AA?$AA@ 000000014003c098     libcpmt:winapinls.obj
 0002:000040a8       ??_C@_1M@PHGFBEPN@?$AAg?$AAl?$AA?9?$AAE?$AAS?$AA?$AA@ 000000014003c0a8     libcpmt:winapinls.obj
 0002:000040b8       ??_C@_1O@KPIPDNCP@?$AAk?$AAo?$AAk?$AA?9?$AAI?$AAN?$AA?$AA@ 000000014003c0b8     libcpmt:winapinls.obj
 0002:000040c8       ??_C@_1O@KNHJLDJA@?$AAs?$AAy?$AAr?$AA?9?$AAS?$AAY?$AA?$AA@ 000000014003c0c8     libcpmt:winapinls.obj
 0002:000040d8       ??_C@_1O@MKEKBLAH@?$AAd?$AAi?$AAv?$AA?9?$AAM?$AAV?$AA?$AA@ 000000014003c0d8     libcpmt:winapinls.obj
 0002:000040e8       ??_C@_1O@OHDCKDDF@?$AAq?$AAu?$AAz?$AA?9?$AAB?$AAO?$AA?$AA@ 000000014003c0e8     libcpmt:winapinls.obj
 0002:000040f8       ??_C@_1M@LEPJNLFD@?$AAn?$AAs?$AA?9?$AAZ?$AAA?$AA?$AA@ 000000014003c0f8     libcpmt:winapinls.obj
 0002:00004108       ??_C@_1M@OMLEIIJB@?$AAm?$AAi?$AA?9?$AAN?$AAZ?$AA?$AA@ 000000014003c108     libcpmt:winapinls.obj
 0002:00004118       ??_C@_1M@PMPEAILG@?$AAa?$AAr?$AA?9?$AAI?$AAQ?$AA?$AA@ 000000014003c118     libcpmt:winapinls.obj
 0002:00004128       ??_C@_1M@BIBDDEMK@?$AAz?$AAh?$AA?9?$AAC?$AAN?$AA?$AA@ 000000014003c128     libcpmt:winapinls.obj
 0002:00004138       ??_C@_1M@CNKPNOEE@?$AAd?$AAe?$AA?9?$AAC?$AAH?$AA?$AA@ 000000014003c138     libcpmt:winapinls.obj
 0002:00004148       ??_C@_1M@LKMGMLKO@?$AAe?$AAn?$AA?9?$AAG?$AAB?$AA?$AA@ 000000014003c148     libcpmt:winapinls.obj
 0002:00004158       ??_C@_1M@PGKJFFGL@?$AAe?$AAs?$AA?9?$AAM?$AAX?$AA?$AA@ 000000014003c158     libcpmt:winapinls.obj
 0002:00004168       ??_C@_1M@DNNANBDC@?$AAf?$AAr?$AA?9?$AAB?$AAE?$AA?$AA@ 000000014003c168     libcpmt:winapinls.obj
 0002:00004178       ??_C@_1M@HLGMDFHM@?$AAi?$AAt?$AA?9?$AAC?$AAH?$AA?$AA@ 000000014003c178     libcpmt:winapinls.obj
 0002:00004188       ??_C@_1M@CLLBGJH@?$AAn?$AAl?$AA?9?$AAB?$AAE?$AA?$AA@ 000000014003c188     libcpmt:winapinls.obj
 0002:00004198       ??_C@_1M@BODBOGLF@?$AAn?$AAn?$AA?9?$AAN?$AAO?$AA?$AA@ 000000014003c198     libcpmt:winapinls.obj
 0002:000041a8       ??_C@_1M@HFFAHKAD@?$AAp?$AAt?$AA?9?$AAP?$AAT?$AA?$AA@ 000000014003c1a8     libcpmt:winapinls.obj
 0002:000041b8       ??_C@_1BG@LNOAKHIE@?$AAs?$AAr?$AA?9?$AAS?$AAP?$AA?9?$AAL?$AAa?$AAt?$AAn?$AA?$AA@ 000000014003c1b8     libcpmt:winapinls.obj
 0002:000041d0       ??_C@_1M@HBMHBGAK@?$AAs?$AAv?$AA?9?$AAF?$AAI?$AA?$AA@ 000000014003c1d0     libcpmt:winapinls.obj
 0002:000041e0       ??_C@_1BG@DGCJGJBE@?$AAa?$AAz?$AA?9?$AAA?$AAZ?$AA?9?$AAC?$AAy?$AAr?$AAl?$AA?$AA@ 000000014003c1e0     libcpmt:winapinls.obj
 0002:000041f8       ??_C@_1M@KEJDAAHB@?$AAs?$AAe?$AA?9?$AAS?$AAE?$AA?$AA@ 000000014003c1f8     libcpmt:winapinls.obj
 0002:00004208       ??_C@_1M@HEIBJJAD@?$AAm?$AAs?$AA?9?$AAB?$AAN?$AA?$AA@ 000000014003c208     libcpmt:winapinls.obj
 0002:00004218       ??_C@_1BG@PBGJMCEM@?$AAu?$AAz?$AA?9?$AAU?$AAZ?$AA?9?$AAC?$AAy?$AAr?$AAl?$AA?$AA@ 000000014003c218     libcpmt:winapinls.obj
 0002:00004230       ??_C@_1O@LAOBCMDF@?$AAq?$AAu?$AAz?$AA?9?$AAE?$AAC?$AA?$AA@ 000000014003c230     libcpmt:winapinls.obj
 0002:00004240       ??_C@_1M@POEEMAIO@?$AAa?$AAr?$AA?9?$AAE?$AAG?$AA?$AA@ 000000014003c240     libcpmt:winapinls.obj
 0002:00004250       ??_C@_1M@EFAKDEDL@?$AAz?$AAh?$AA?9?$AAH?$AAK?$AA?$AA@ 000000014003c250     libcpmt:winapinls.obj
 0002:00004260       ??_C@_1M@HKKIJHGI@?$AAd?$AAe?$AA?9?$AAA?$AAT?$AA?$AA@ 000000014003c260     libcpmt:winapinls.obj
 0002:00004270       ??_C@_1M@KBFBEHJF@?$AAe?$AAn?$AA?9?$AAA?$AAU?$AA?$AA@ 000000014003c270     libcpmt:winapinls.obj
 0002:00004280       ??_C@_1M@MNPLFAAH@?$AAe?$AAs?$AA?9?$AAE?$AAS?$AA?$AA@ 000000014003c280     libcpmt:winapinls.obj
 0002:00004290       ??_C@_1M@HJOOJFMA@?$AAf?$AAr?$AA?9?$AAC?$AAA?$AA?$AA@ 000000014003c290     libcpmt:winapinls.obj
 0002:000042a0       ??_C@_1BG@JPOFPNAB@?$AAs?$AAr?$AA?9?$AAS?$AAP?$AA?9?$AAC?$AAy?$AAr?$AAl?$AA?$AA@ 000000014003c2a0     libcpmt:winapinls.obj
 0002:000042b8       ??_C@_1M@LNFOCMOB@?$AAs?$AAe?$AA?9?$AAF?$AAI?$AA?$AA@ 000000014003c2b8     libcpmt:winapinls.obj
 0002:000042c8       ??_C@_1O@MGJBOAMB@?$AAq?$AAu?$AAz?$AA?9?$AAP?$AAE?$AA?$AA@ 000000014003c2c8     libcpmt:winapinls.obj
 0002:000042d8       ??_C@_1M@GJINLBOK@?$AAa?$AAr?$AA?9?$AAL?$AAY?$AA?$AA@ 000000014003c2d8     libcpmt:winapinls.obj
 0002:000042e8       ??_C@_1M@GGMNHJNL@?$AAz?$AAh?$AA?9?$AAS?$AAG?$AA?$AA@ 000000014003c2e8     libcpmt:winapinls.obj
 0002:000042f8       ??_C@_1M@HOIKODND@?$AAd?$AAe?$AA?9?$AAL?$AAU?$AA?$AA@ 000000014003c2f8     libcpmt:winapinls.obj
 0002:00004308       ??_C@_1M@DDOCCGFG@?$AAe?$AAn?$AA?9?$AAC?$AAA?$AA?$AA@ 000000014003c308     libcpmt:winapinls.obj
 0002:00004318       ??_C@_1M@BNOEMJLF@?$AAe?$AAs?$AA?9?$AAG?$AAT?$AA?$AA@ 000000014003c318     libcpmt:winapinls.obj
 0002:00004328       ??_C@_1M@EOGNKEK@?$AAf?$AAr?$AA?9?$AAC?$AAH?$AA?$AA@ 000000014003c328     libcpmt:winapinls.obj
 0002:00004338       ??_C@_1M@FLIDJFHL@?$AAh?$AAr?$AA?9?$AAB?$AAA?$AA?$AA@ 000000014003c338     libcpmt:winapinls.obj
 0002:00004348       ??_C@_1O@FMCELNAJ@?$AAs?$AAm?$AAj?$AA?9?$AAN?$AAO?$AA?$AA@ 000000014003c348     libcpmt:winapinls.obj
 0002:00004358       ??_C@_1M@JHGLJMGJ@?$AAa?$AAr?$AA?9?$AAD?$AAZ?$AA?$AA@ 000000014003c358     libcpmt:winapinls.obj
 0002:00004368       ??_C@_1M@JKKFDCNP@?$AAz?$AAh?$AA?9?$AAM?$AAO?$AA?$AA@ 000000014003c368     libcpmt:winapinls.obj
 0002:00004378       ??_C@_1M@GEEFALPE@?$AAd?$AAe?$AA?9?$AAL?$AAI?$AA?$AA@ 000000014003c378     libcpmt:winapinls.obj
 0002:00004388       ??_C@_1M@IGEOFBG@?$AAe?$AAn?$AA?9?$AAN?$AAZ?$AA?$AA@ 000000014003c388     libcpmt:winapinls.obj
 0002:00004398       ??_C@_1M@KDBONEHP@?$AAe?$AAs?$AA?9?$AAC?$AAR?$AA?$AA@ 000000014003c398     libcpmt:winapinls.obj
 0002:000043a8       ??_C@_1M@FHMDOHNN@?$AAf?$AAr?$AA?9?$AAL?$AAU?$AA?$AA@ 000000014003c3a8     libcpmt:winapinls.obj
 0002:000043b8       ??_C@_1BG@NFKKMAFG@?$AAb?$AAs?$AA?9?$AAB?$AAA?$AA?9?$AAL?$AAa?$AAt?$AAn?$AA?$AA@ 000000014003c3b8     libcpmt:winapinls.obj
 0002:000043d0       ??_C@_1O@IMNBEMCI@?$AAs?$AAm?$AAj?$AA?9?$AAS?$AAE?$AA?$AA@ 000000014003c3d0     libcpmt:winapinls.obj
 0002:000043e0       ??_C@_1M@DHHMBNDP@?$AAa?$AAr?$AA?9?$AAM?$AAA?$AA?$AA@ 000000014003c3e0     libcpmt:winapinls.obj
 0002:000043f0       ??_C@_1M@BNBLJCGH@?$AAe?$AAn?$AA?9?$AAI?$AAE?$AA?$AA@ 000000014003c3f0     libcpmt:winapinls.obj
 0002:00004400       ??_C@_1M@GEPAFMDL@?$AAe?$AAs?$AA?9?$AAP?$AAA?$AA?$AA@ 000000014003c400     libcpmt:winapinls.obj
 0002:00004410       ??_C@_1M@OJONDMDL@?$AAf?$AAr?$AA?9?$AAM?$AAC?$AA?$AA@ 000000014003c410     libcpmt:winapinls.obj
 0002:00004420       ??_C@_1BG@OBCNFJB@?$AAs?$AAr?$AA?9?$AAB?$AAA?$AA?9?$AAL?$AAa?$AAt?$AAn?$AA?$AA@ 000000014003c420     libcpmt:winapinls.obj
 0002:00004438       ??_C@_1O@KEMEEGPO@?$AAs?$AAm?$AAa?$AA?9?$AAN?$AAO?$AA?$AA@ 000000014003c438     libcpmt:winapinls.obj
 0002:00004448       ??_C@_1M@ELMGFODK@?$AAa?$AAr?$AA?9?$AAT?$AAN?$AA?$AA@ 000000014003c448     libcpmt:winapinls.obj
 0002:00004458       ??_C@_1M@BHDLHFAF@?$AAe?$AAn?$AA?9?$AAZ?$AAA?$AA?$AA@ 000000014003c458     libcpmt:winapinls.obj
 0002:00004468       ??_C@_1M@BMGIGLIF@?$AAe?$AAs?$AA?9?$AAD?$AAO?$AA?$AA@ 000000014003c468     libcpmt:winapinls.obj
 0002:00004478       ??_C@_1BG@CMBHIPBE@?$AAs?$AAr?$AA?9?$AAB?$AAA?$AA?9?$AAC?$AAy?$AAr?$AAl?$AA?$AA@ 000000014003c478     libcpmt:winapinls.obj
 0002:00004490       ??_C@_1O@HEDBLHNP@?$AAs?$AAm?$AAa?$AA?9?$AAS?$AAE?$AA?$AA@ 000000014003c490     libcpmt:winapinls.obj
 0002:000044a0       ??_C@_1M@DAGCADIM@?$AAa?$AAr?$AA?9?$AAO?$AAM?$AA?$AA@ 000000014003c4a0     libcpmt:winapinls.obj
 0002:000044b0       ??_C@_1M@FODLMICG@?$AAe?$AAn?$AA?9?$AAJ?$AAM?$AA?$AA@ 000000014003c4b0     libcpmt:winapinls.obj
 0002:000044c0       ??_C@_1M@DNMLCIHB@?$AAe?$AAs?$AA?9?$AAV?$AAE?$AA?$AA@ 000000014003c4c0     libcpmt:winapinls.obj
 0002:000044d0       ??_C@_1O@EOKHMKJK@?$AAs?$AAm?$AAs?$AA?9?$AAF?$AAI?$AA?$AA@ 000000014003c4d0     libcpmt:winapinls.obj
 0002:000044e0       ??_C@_1M@CAFJMKOF@?$AAa?$AAr?$AA?9?$AAY?$AAE?$AA?$AA@ 000000014003c4e0     libcpmt:winapinls.obj
 0002:000044f0       ??_C@_1M@CBFHIJLI@?$AAe?$AAn?$AA?9?$AAC?$AAB?$AA?$AA@ 000000014003c4f0     libcpmt:winapinls.obj
 0002:00004500       ??_C@_1M@BGNFLDN@?$AAe?$AAs?$AA?9?$AAC?$AAO?$AA?$AA@ 000000014003c500     libcpmt:winapinls.obj
 0002:00004510       ??_C@_1O@JMPHMAMC@?$AAs?$AAm?$AAn?$AA?9?$AAF?$AAI?$AA?$AA@ 000000014003c510     libcpmt:winapinls.obj
 0002:00004520       ??_C@_1M@JLANABKE@?$AAa?$AAr?$AA?9?$AAS?$AAY?$AA?$AA@ 000000014003c520     libcpmt:winapinls.obj
 0002:00004530       ??_C@_1M@HPKGCFGN@?$AAe?$AAn?$AA?9?$AAB?$AAZ?$AA?$AA@ 000000014003c530     libcpmt:winapinls.obj
 0002:00004540       ??_C@_1M@OLJCMLGM@?$AAe?$AAs?$AA?9?$AAP?$AAE?$AA?$AA@ 000000014003c540     libcpmt:winapinls.obj
 0002:00004550       ??_C@_1M@MKKGFKLE@?$AAa?$AAr?$AA?9?$AAJ?$AAO?$AA?$AA@ 000000014003c550     libcpmt:winapinls.obj
 0002:00004560       ??_C@_1M@EKPGLDNI@?$AAe?$AAn?$AA?9?$AAT?$AAT?$AA?$AA@ 000000014003c560     libcpmt:winapinls.obj
 0002:00004570       ??_C@_1M@OONGHFHE@?$AAe?$AAs?$AA?9?$AAA?$AAR?$AA?$AA@ 000000014003c570     libcpmt:winapinls.obj
 0002:00004580       ??_C@_1M@OOJFGBHE@?$AAa?$AAr?$AA?9?$AAL?$AAB?$AA?$AA@ 000000014003c580     libcpmt:winapinls.obj
 0002:00004590       ??_C@_1M@GCEJHNEG@?$AAe?$AAn?$AA?9?$AAZ?$AAW?$AA?$AA@ 000000014003c590     libcpmt:winapinls.obj
 0002:000045a0       ??_C@_1M@JNOCAHJI@?$AAe?$AAs?$AA?9?$AAE?$AAC?$AA?$AA@ 000000014003c5a0     libcpmt:winapinls.obj
 0002:000045b0       ??_C@_1M@JEFHPGGB@?$AAa?$AAr?$AA?9?$AAK?$AAW?$AA?$AA@ 000000014003c5b0     libcpmt:winapinls.obj
 0002:000045c0       ??_C@_1M@MLKIBJOJ@?$AAe?$AAn?$AA?9?$AAP?$AAH?$AA?$AA@ 000000014003c5c0     libcpmt:winapinls.obj
 0002:000045d0       ??_C@_1M@BDNIPEND@?$AAe?$AAs?$AA?9?$AAC?$AAL?$AA?$AA@ 000000014003c5d0     libcpmt:winapinls.obj
 0002:000045e0       ??_C@_1M@MPNMEKBD@?$AAa?$AAr?$AA?9?$AAA?$AAE?$AA?$AA@ 000000014003c5e0     libcpmt:winapinls.obj
 0002:000045f0       ??_C@_1M@KBJALCPI@?$AAe?$AAs?$AA?9?$AAU?$AAY?$AA?$AA@ 000000014003c5f0     libcpmt:winapinls.obj
 0002:00004600       ??_C@_1M@LLCCOAGA@?$AAa?$AAr?$AA?9?$AAB?$AAH?$AA?$AA@ 000000014003c600     libcpmt:winapinls.obj
 0002:00004610       ??_C@_1M@PBFNCDEL@?$AAe?$AAs?$AA?9?$AAP?$AAY?$AA?$AA@ 000000014003c610     libcpmt:winapinls.obj
 0002:00004620       ??_C@_1M@EDGINPNP@?$AAa?$AAr?$AA?9?$AAQ?$AAA?$AA?$AA@ 000000014003c620     libcpmt:winapinls.obj
 0002:00004630       ??_C@_1M@MKDBIIJI@?$AAe?$AAs?$AA?9?$AAB?$AAO?$AA?$AA@ 000000014003c630     libcpmt:winapinls.obj
 0002:00004640       ??_C@_1M@CPKKEBLD@?$AAe?$AAs?$AA?9?$AAS?$AAV?$AA?$AA@ 000000014003c640     libcpmt:winapinls.obj
 0002:00004650       ??_C@_1M@NDBGMMJL@?$AAe?$AAs?$AA?9?$AAH?$AAN?$AA?$AA@ 000000014003c650     libcpmt:winapinls.obj
 0002:00004660       ??_C@_1M@JIJIBHDP@?$AAe?$AAs?$AA?9?$AAN?$AAI?$AA?$AA@ 000000014003c660     libcpmt:winapinls.obj
 0002:00004670       ??_C@_1M@CGFMKEEK@?$AAe?$AAs?$AA?9?$AAP?$AAR?$AA?$AA@ 000000014003c670     libcpmt:winapinls.obj
 0002:00004680       ??_C@_1O@ICJHKIIK@?$AAz?$AAh?$AA?9?$AAC?$AAH?$AAT?$AA?$AA@ 000000014003c680     libcpmt:winapinls.obj
 0002:00004690       ??_C@_15CLNEJCE@?$AAs?$AAr?$AA?$AA@ 000000014003c690     libcpmt:winapinls.obj
 0002:00004698       ??_C@_1M@KAHEKEIG@?$AAa?$AAf?$AA?9?$AAz?$AAa?$AA?$AA@ 000000014003c698     libcpmt:winapinls.obj
 0002:000046a8       ??_C@_1M@GIECOABL@?$AAa?$AAr?$AA?9?$AAa?$AAe?$AA?$AA@ 000000014003c6a8     libcpmt:winapinls.obj
 0002:000046b8       ??_C@_1M@BMLMEKGI@?$AAa?$AAr?$AA?9?$AAb?$AAh?$AA?$AA@ 000000014003c6b8     libcpmt:winapinls.obj
 0002:000046c8       ??_C@_1M@DAPFDGGB@?$AAa?$AAr?$AA?9?$AAd?$AAz?$AA?$AA@ 000000014003c6c8     libcpmt:winapinls.obj
 0002:000046d8       ??_C@_1M@FJNKGKIG@?$AAa?$AAr?$AA?9?$AAe?$AAg?$AA?$AA@ 000000014003c6d8     libcpmt:winapinls.obj
 0002:000046e8       ??_C@_1M@FLGKKCLO@?$AAa?$AAr?$AA?9?$AAi?$AAq?$AA?$AA@ 000000014003c6e8     libcpmt:winapinls.obj
 0002:000046f8       ??_C@_1M@GNDIPALM@?$AAa?$AAr?$AA?9?$AAj?$AAo?$AA?$AA@ 000000014003c6f8     libcpmt:winapinls.obj
 0002:00004708       ??_C@_1M@DDMJFMGJ@?$AAa?$AAr?$AA?9?$AAk?$AAw?$AA?$AA@ 000000014003c708     libcpmt:winapinls.obj
 0002:00004718       ??_C@_1M@EJALMLHM@?$AAa?$AAr?$AA?9?$AAl?$AAb?$AA?$AA@ 000000014003c718     libcpmt:winapinls.obj
 0002:00004728       ??_C@_1M@MOBDBLOC@?$AAa?$AAr?$AA?9?$AAl?$AAy?$AA?$AA@ 000000014003c728     libcpmt:winapinls.obj
 0002:00004738       ??_C@_1M@JAOCLHDH@?$AAa?$AAr?$AA?9?$AAm?$AAa?$AA?$AA@ 000000014003c738     libcpmt:winapinls.obj
 0002:00004748       ??_C@_1M@JHPMKJIE@?$AAa?$AAr?$AA?9?$AAo?$AAm?$AA?$AA@ 000000014003c748     libcpmt:winapinls.obj
 0002:00004758       ??_C@_1M@OEPGHFNH@?$AAa?$AAr?$AA?9?$AAq?$AAa?$AA?$AA@ 000000014003c758     libcpmt:winapinls.obj
 0002:00004768       ??_C@_1M@KJDONENM@?$AAa?$AAr?$AA?9?$AAs?$AAa?$AA?$AA@ 000000014003c768     libcpmt:winapinls.obj
 0002:00004778       ??_C@_1M@DMJDKLKM@?$AAa?$AAr?$AA?9?$AAs?$AAy?$AA?$AA@ 000000014003c778     libcpmt:winapinls.obj
 0002:00004788       ??_C@_1M@OMFIPEDC@?$AAa?$AAr?$AA?9?$AAt?$AAn?$AA?$AA@ 000000014003c788     libcpmt:winapinls.obj
 0002:00004798       ??_C@_1M@IHMHGAON@?$AAa?$AAr?$AA?9?$AAy?$AAe?$AA?$AA@ 000000014003c798     libcpmt:winapinls.obj
 0002:000047a8       ??_C@_1BG@KDCPGJGB@?$AAa?$AAz?$AA?9?$AAa?$AAz?$AA?9?$AAc?$AAy?$AAr?$AAl?$AA?$AA@ 000000014003c7a8     libcpmt:winapinls.obj
 0002:000047c0       ??_C@_1BG@IBCKDDOE@?$AAa?$AAz?$AA?9?$AAa?$AAz?$AA?9?$AAl?$AAa?$AAt?$AAn?$AA?$AA@ 000000014003c7c0     libcpmt:winapinls.obj
 0002:000047d8       ??_C@_1M@EGPFDCPD@?$AAb?$AAe?$AA?9?$AAb?$AAy?$AA?$AA@ 000000014003c7d8     libcpmt:winapinls.obj
 0002:000047e8       ??_C@_1M@PCMGMCGC@?$AAb?$AAg?$AA?9?$AAb?$AAg?$AA?$AA@ 000000014003c7e8     libcpmt:winapinls.obj
 0002:000047f8       ??_C@_1M@BJBMFGOB@?$AAb?$AAn?$AA?9?$AAi?$AAn?$AA?$AA@ 000000014003c7f8     libcpmt:winapinls.obj
 0002:00004808       ??_C@_1BG@EAKMMACD@?$AAb?$AAs?$AA?9?$AAb?$AAa?$AA?9?$AAl?$AAa?$AAt?$AAn?$AA?$AA@ 000000014003c808     libcpmt:winapinls.obj
 0002:00004820       ??_C@_1M@KGADAODK@?$AAc?$AAa?$AA?9?$AAe?$AAs?$AA?$AA@ 000000014003c820     libcpmt:winapinls.obj
 0002:00004830       ??_C@_1M@COAJPDHI@?$AAc?$AAs?$AA?9?$AAc?$AAz?$AA?$AA@ 000000014003c830     libcpmt:winapinls.obj
 0002:00004840       ??_C@_1M@DHBHFONH@?$AAc?$AAy?$AA?9?$AAg?$AAb?$AA?$AA@ 000000014003c840     libcpmt:winapinls.obj
 0002:00004850       ??_C@_1M@IMGKELGA@?$AAd?$AAa?$AA?9?$AAd?$AAk?$AA?$AA@ 000000014003c850     libcpmt:winapinls.obj
 0002:00004860       ??_C@_1M@NNDGDNGA@?$AAd?$AAe?$AA?9?$AAa?$AAt?$AA?$AA@ 000000014003c860     libcpmt:winapinls.obj
 0002:00004870       ??_C@_1M@IKDBHEEM@?$AAd?$AAe?$AA?9?$AAc?$AAh?$AA?$AA@ 000000014003c870     libcpmt:winapinls.obj
 0002:00004880       ??_C@_1M@GFFOJMCJ@?$AAd?$AAe?$AA?9?$AAd?$AAe?$AA?$AA@ 000000014003c880     libcpmt:winapinls.obj
 0002:00004890       ??_C@_1M@MDNLKBPM@?$AAd?$AAe?$AA?9?$AAl?$AAi?$AA?$AA@ 000000014003c890     libcpmt:winapinls.obj
 0002:000048a0       ??_C@_1M@NJBEEJNL@?$AAd?$AAe?$AA?9?$AAl?$AAu?$AA?$AA@ 000000014003c8a0     libcpmt:winapinls.obj
 0002:000048b0       ??_C@_1O@GNNELBAP@?$AAd?$AAi?$AAv?$AA?9?$AAm?$AAv?$AA?$AA@ 000000014003c8b0     libcpmt:winapinls.obj
 0002:000048c0       ??_C@_1M@EJLEOGAE@?$AAe?$AAl?$AA?9?$AAg?$AAr?$AA?$AA@ 000000014003c8c0     libcpmt:winapinls.obj
 0002:000048d0       ??_C@_1M@GMPONJN@?$AAe?$AAn?$AA?9?$AAa?$AAu?$AA?$AA@ 000000014003c8d0     libcpmt:winapinls.obj
 0002:000048e0       ??_C@_1M@NIDIIPGF@?$AAe?$AAn?$AA?9?$AAb?$AAz?$AA?$AA@ 000000014003c8e0     libcpmt:winapinls.obj
 0002:000048f0       ??_C@_1M@JEHMIMFO@?$AAe?$AAn?$AA?9?$AAc?$AAa?$AA?$AA@ 000000014003c8f0     libcpmt:winapinls.obj
 0002:00004900       ??_C@_1M@IGMJCDLA@?$AAe?$AAn?$AA?9?$AAc?$AAb?$AA?$AA@ 000000014003c900     libcpmt:winapinls.obj
 0002:00004910       ??_C@_1M@BNFIGBKG@?$AAe?$AAn?$AA?9?$AAg?$AAb?$AA?$AA@ 000000014003c910     libcpmt:winapinls.obj
 0002:00004920       ??_C@_1M@LKIFDIGP@?$AAe?$AAn?$AA?9?$AAi?$AAe?$AA?$AA@ 000000014003c920     libcpmt:winapinls.obj
 0002:00004930       ??_C@_1M@PJKFGCCO@?$AAe?$AAn?$AA?9?$AAj?$AAm?$AA?$AA@ 000000014003c930     libcpmt:winapinls.obj
 0002:00004940       ??_C@_1M@KPPKEPBO@?$AAe?$AAn?$AA?9?$AAn?$AAz?$AA?$AA@ 000000014003c940     libcpmt:winapinls.obj
 0002:00004950       ??_C@_1M@GMDGLDOB@?$AAe?$AAn?$AA?9?$AAp?$AAh?$AA?$AA@ 000000014003c950     libcpmt:winapinls.obj
 0002:00004960       ??_C@_1M@ONGIBJNA@?$AAe?$AAn?$AA?9?$AAt?$AAt?$AA?$AA@ 000000014003c960     libcpmt:winapinls.obj
 0002:00004970       ??_C@_1M@LLODPCMM@?$AAe?$AAn?$AA?9?$AAu?$AAs?$AA?$AA@ 000000014003c970     libcpmt:winapinls.obj
 0002:00004980       ??_C@_1M@LAKFNPAN@?$AAe?$AAn?$AA?9?$AAz?$AAa?$AA?$AA@ 000000014003c980     libcpmt:winapinls.obj
 0002:00004990       ??_C@_1M@MFNHNHEO@?$AAe?$AAn?$AA?9?$AAz?$AAw?$AA?$AA@ 000000014003c990     libcpmt:winapinls.obj
 0002:000049a0       ??_C@_1M@EJEINPHM@?$AAe?$AAs?$AA?9?$AAa?$AAr?$AA?$AA@ 000000014003c9a0     libcpmt:winapinls.obj
 0002:000049b0       ??_C@_1M@GNKPCCJA@?$AAe?$AAs?$AA?9?$AAb?$AAo?$AA?$AA@ 000000014003c9b0     libcpmt:winapinls.obj
 0002:000049c0       ??_C@_1M@LEEGFONL@?$AAe?$AAs?$AA?9?$AAc?$AAl?$AA?$AA@ 000000014003c9c0     libcpmt:winapinls.obj
 0002:000049d0       ??_C@_1M@KGPDPBDF@?$AAe?$AAs?$AA?9?$AAc?$AAo?$AA?$AA@ 000000014003c9d0     libcpmt:winapinls.obj
 0002:000049e0       ??_C@_1M@EIAHOHH@?$AAe?$AAs?$AA?9?$AAc?$AAr?$AA?$AA@ 000000014003c9e0     libcpmt:winapinls.obj
 0002:000049f0       ??_C@_1M@LLPGMBIN@?$AAe?$AAs?$AA?9?$AAd?$AAo?$AA?$AA@ 000000014003c9f0     libcpmt:winapinls.obj
 0002:00004a00       ??_C@_1M@DKHMKNJA@?$AAe?$AAs?$AA?9?$AAe?$AAc?$AA?$AA@ 000000014003ca00     libcpmt:winapinls.obj
 0002:00004a10       ??_C@_1M@GKGFPKAP@?$AAe?$AAs?$AA?9?$AAe?$AAs?$AA?$AA@ 000000014003ca10     libcpmt:winapinls.obj
 0002:00004a20       ??_C@_1M@LKHKGDLN@?$AAe?$AAs?$AA?9?$AAg?$AAt?$AA?$AA@ 000000014003ca20     libcpmt:winapinls.obj
 0002:00004a30       ??_C@_1M@HEIIGGJD@?$AAe?$AAs?$AA?9?$AAh?$AAn?$AA?$AA@ 000000014003ca30     libcpmt:winapinls.obj
 0002:00004a40       ??_C@_1M@FBDHPPGD@?$AAe?$AAs?$AA?9?$AAm?$AAx?$AA?$AA@ 000000014003ca40     libcpmt:winapinls.obj
 0002:00004a50       ??_C@_1M@DPAGLNDH@?$AAe?$AAs?$AA?9?$AAn?$AAi?$AA?$AA@ 000000014003ca50     libcpmt:winapinls.obj
 0002:00004a60       ??_C@_1M@MDGOPGDD@?$AAe?$AAs?$AA?9?$AAp?$AAa?$AA?$AA@ 000000014003ca60     libcpmt:winapinls.obj
 0002:00004a70       ??_C@_1M@EMAMGBGE@?$AAe?$AAs?$AA?9?$AAp?$AAe?$AA?$AA@ 000000014003ca70     libcpmt:winapinls.obj
 0002:00004a80       ??_C@_1M@IBMCAOEC@?$AAe?$AAs?$AA?9?$AAp?$AAr?$AA?$AA@ 000000014003ca80     libcpmt:winapinls.obj
 0002:00004a90       ??_C@_1M@FGMDIJED@?$AAe?$AAs?$AA?9?$AAp?$AAy?$AA?$AA@ 000000014003ca90     libcpmt:winapinls.obj
 0002:00004aa0       ??_C@_1M@IIDEOLLL@?$AAe?$AAs?$AA?9?$AAs?$AAv?$AA?$AA@ 000000014003caa0     libcpmt:winapinls.obj
 0002:00004ab0       ??_C@_1M@GAOBIPA@?$AAe?$AAs?$AA?9?$AAu?$AAy?$AA?$AA@ 000000014003cab0     libcpmt:winapinls.obj
 0002:00004ac0       ??_C@_1M@JKFFICHJ@?$AAe?$AAs?$AA?9?$AAv?$AAe?$AA?$AA@ 000000014003cac0     libcpmt:winapinls.obj
 0002:00004ad0       ??_C@_1M@PNMLOJDF@?$AAe?$AAt?$AA?9?$AAe?$AAe?$AA?$AA@ 000000014003cad0     libcpmt:winapinls.obj
 0002:00004ae0       ??_C@_1M@GHHLIKEI@?$AAe?$AAu?$AA?9?$AAe?$AAs?$AA?$AA@ 000000014003cae0     libcpmt:winapinls.obj
 0002:00004af0       ??_C@_1M@PBNONODE@?$AAf?$AAa?$AA?9?$AAi?$AAr?$AA?$AA@ 000000014003caf0     libcpmt:winapinls.obj
 0002:00004b00       ??_C@_1M@JEEHPMIL@?$AAf?$AAi?$AA?9?$AAf?$AAi?$AA?$AA@ 000000014003cb00     libcpmt:winapinls.obj
 0002:00004b10       ??_C@_1M@LMDCNDBA@?$AAf?$AAo?$AA?9?$AAf?$AAo?$AA?$AA@ 000000014003cb10     libcpmt:winapinls.obj
 0002:00004b20       ??_C@_1M@JKEOHLDK@?$AAf?$AAr?$AA?9?$AAb?$AAe?$AA?$AA@ 000000014003cb20     libcpmt:winapinls.obj
 0002:00004b30       ??_C@_1M@NOHADPMI@?$AAf?$AAr?$AA?9?$AAc?$AAa?$AA?$AA@ 000000014003cb30     libcpmt:winapinls.obj
 0002:00004b40       ??_C@_1M@KDHIHAEC@?$AAf?$AAr?$AA?9?$AAc?$AAh?$AA?$AA@ 000000014003cb40     libcpmt:winapinls.obj
 0002:00004b50       ??_C@_1M@MMBBFGAK@?$AAf?$AAr?$AA?9?$AAf?$AAr?$AA?$AA@ 000000014003cb50     libcpmt:winapinls.obj
 0002:00004b60       ??_C@_1M@PAFNENNF@?$AAf?$AAr?$AA?9?$AAl?$AAu?$AA?$AA@ 000000014003cb60     libcpmt:winapinls.obj
 0002:00004b70       ??_C@_1M@EOHDJGDD@?$AAf?$AAr?$AA?9?$AAm?$AAc?$AA?$AA@ 000000014003cb70     libcpmt:winapinls.obj
 0002:00004b80       ??_C@_1M@FAPLLOPF@?$AAg?$AAl?$AA?9?$AAe?$AAs?$AA?$AA@ 000000014003cb80     libcpmt:winapinls.obj
 0002:00004b90       ??_C@_1M@FOPBFLOO@?$AAg?$AAu?$AA?9?$AAi?$AAn?$AA?$AA@ 000000014003cb90     libcpmt:winapinls.obj
 0002:00004ba0       ??_C@_1M@KBMCINPM@?$AAh?$AAe?$AA?9?$AAi?$AAl?$AA?$AA@ 000000014003cba0     libcpmt:winapinls.obj
 0002:00004bb0       ??_C@_1M@BBPHKFPJ@?$AAh?$AAi?$AA?9?$AAi?$AAn?$AA?$AA@ 000000014003cbb0     libcpmt:winapinls.obj
 0002:00004bc0       ??_C@_1M@PMBNDPHD@?$AAh?$AAr?$AA?9?$AAb?$AAa?$AA?$AA@ 000000014003cbc0     libcpmt:winapinls.obj
 0002:00004bd0       ??_C@_1M@BPCKOEGE@?$AAh?$AAr?$AA?9?$AAh?$AAr?$AA?$AA@ 000000014003cbd0     libcpmt:winapinls.obj
 0002:00004be0       ??_C@_1M@GACBMHKE@?$AAh?$AAu?$AA?9?$AAh?$AAu?$AA?$AA@ 000000014003cbe0     libcpmt:winapinls.obj
 0002:00004bf0       ??_C@_1M@MILPAJJC@?$AAh?$AAy?$AA?9?$AAa?$AAm?$AA?$AA@ 000000014003cbf0     libcpmt:winapinls.obj
 0002:00004c00       ??_C@_1M@BABBICEC@?$AAi?$AAd?$AA?9?$AAi?$AAd?$AA?$AA@ 000000014003cc00     libcpmt:winapinls.obj
 0002:00004c10       ??_C@_1M@BIKNHHPF@?$AAi?$AAs?$AA?9?$AAi?$AAs?$AA?$AA@ 000000014003cc10     libcpmt:winapinls.obj
 0002:00004c20       ??_C@_1M@NMPCJPHE@?$AAi?$AAt?$AA?9?$AAc?$AAh?$AA?$AA@ 000000014003cc20     libcpmt:winapinls.obj
 0002:00004c30       ??_C@_1M@GHKGFEDF@?$AAi?$AAt?$AA?9?$AAi?$AAt?$AA?$AA@ 000000014003cc30     libcpmt:winapinls.obj
 0002:00004c40       ??_C@_1M@NIEJCJJA@?$AAj?$AAa?$AA?9?$AAj?$AAp?$AA?$AA@ 000000014003cc40     libcpmt:winapinls.obj
 0002:00004c50       ??_C@_1M@JILFNBIM@?$AAk?$AAa?$AA?9?$AAg?$AAe?$AA?$AA@ 000000014003cc50     libcpmt:winapinls.obj
 0002:00004c60       ??_C@_1M@PACPMGPH@?$AAk?$AAk?$AA?9?$AAk?$AAz?$AA?$AA@ 000000014003cc60     libcpmt:winapinls.obj
 0002:00004c70       ??_C@_1M@IELFGMHA@?$AAk?$AAn?$AA?9?$AAi?$AAn?$AA?$AA@ 000000014003cc70     libcpmt:winapinls.obj
 0002:00004c80       ??_C@_1M@DMHAEOGC@?$AAk?$AAo?$AA?9?$AAk?$AAr?$AA?$AA@ 000000014003cc80     libcpmt:winapinls.obj
 0002:00004c90       ??_C@_1O@IBBJHCH@?$AAk?$AAo?$AAk?$AA?9?$AAi?$AAn?$AA?$AA@ 000000014003cc90     libcpmt:winapinls.obj
 0002:00004ca0       ??_C@_1M@HBAHBIGA@?$AAk?$AAy?$AA?9?$AAk?$AAg?$AA?$AA@ 000000014003cca0     libcpmt:winapinls.obj
 0002:00004cb0       ??_C@_1M@KPMILCJG@?$AAl?$AAt?$AA?9?$AAl?$AAt?$AA?$AA@ 000000014003ccb0     libcpmt:winapinls.obj
 0002:00004cc0       ??_C@_1M@BDEKKCA@?$AAl?$AAv?$AA?9?$AAl?$AAv?$AA?$AA@ 000000014003ccc0     libcpmt:winapinls.obj
 0002:00004cd0       ??_C@_1M@ELCKCCJJ@?$AAm?$AAi?$AA?9?$AAn?$AAz?$AA?$AA@ 000000014003ccd0     libcpmt:winapinls.obj
 0002:00004ce0       ??_C@_1M@CBOOLAPA@?$AAm?$AAk?$AA?9?$AAm?$AAk?$AA?$AA@ 000000014003cce0     libcpmt:winapinls.obj
 0002:00004cf0       ??_C@_1M@GPHNBJKN@?$AAm?$AAl?$AA?9?$AAi?$AAn?$AA?$AA@ 000000014003ccf0     libcpmt:winapinls.obj
 0002:00004d00       ??_C@_1M@PABJILIG@?$AAm?$AAn?$AA?9?$AAm?$AAn?$AA?$AA@ 000000014003cd00     libcpmt:winapinls.obj
 0002:00004d10       ??_C@_1M@FGBKKIPG@?$AAm?$AAr?$AA?9?$AAi?$AAn?$AA?$AA@ 000000014003cd10     libcpmt:winapinls.obj
 0002:00004d20       ??_C@_1M@NDBPDDAL@?$AAm?$AAs?$AA?9?$AAb?$AAn?$AA?$AA@ 000000014003cd20     libcpmt:winapinls.obj
 0002:00004d30       ??_C@_1M@OPIHOOPI@?$AAm?$AAs?$AA?9?$AAm?$AAy?$AA?$AA@ 000000014003cd30     libcpmt:winapinls.obj
 0002:00004d40       ??_C@_1M@PPDBCNFM@?$AAm?$AAt?$AA?9?$AAm?$AAt?$AA?$AA@ 000000014003cd40     libcpmt:winapinls.obj
 0002:00004d50       ??_C@_1M@KDJDKMDD@?$AAn?$AAb?$AA?9?$AAn?$AAo?$AA?$AA@ 000000014003cd50     libcpmt:winapinls.obj
 0002:00004d60       ??_C@_1M@KFCFLMJP@?$AAn?$AAl?$AA?9?$AAb?$AAe?$AA?$AA@ 000000014003cd60     libcpmt:winapinls.obj
 0002:00004d70       ??_C@_1M@KPOPDDGO@?$AAn?$AAl?$AA?9?$AAn?$AAl?$AA?$AA@ 000000014003cd70     libcpmt:winapinls.obj
 0002:00004d80       ??_C@_1M@LJKPEMLN@?$AAn?$AAn?$AA?9?$AAn?$AAo?$AA?$AA@ 000000014003cd80     libcpmt:winapinls.obj
 0002:00004d90       ??_C@_1M@BDGHHBFL@?$AAn?$AAs?$AA?9?$AAz?$AAa?$AA?$AA@ 000000014003cd90     libcpmt:winapinls.obj
 0002:00004da0       ??_C@_1M@IDEHOAP@?$AAp?$AAa?$AA?9?$AAi?$AAn?$AA?$AA@ 000000014003cda0     libcpmt:winapinls.obj
 0002:00004db0       ??_C@_1M@HDBKGOGH@?$AAp?$AAl?$AA?9?$AAp?$AAl?$AA?$AA@ 000000014003cdb0     libcpmt:winapinls.obj
 0002:00004dc0       ??_C@_1M@LJLLCMEH@?$AAp?$AAt?$AA?9?$AAb?$AAr?$AA?$AA@ 000000014003cdc0     libcpmt:winapinls.obj
 0002:00004dd0       ??_C@_1M@NCMONAAL@?$AAp?$AAt?$AA?9?$AAp?$AAt?$AA?$AA@ 000000014003cdd0     libcpmt:winapinls.obj
 0002:00004de0       ??_C@_1O@EAKMAJDN@?$AAq?$AAu?$AAz?$AA?9?$AAb?$AAo?$AA?$AA@ 000000014003cde0     libcpmt:winapinls.obj
 0002:00004df0       ??_C@_1O@BHHPIGDN@?$AAq?$AAu?$AAz?$AA?9?$AAe?$AAc?$AA?$AA@ 000000014003cdf0     libcpmt:winapinls.obj
 0002:00004e00       ??_C@_1O@GBAPEKMJ@?$AAq?$AAu?$AAz?$AA?9?$AAp?$AAe?$AA?$AA@ 000000014003ce00     libcpmt:winapinls.obj
 0002:00004e10       ??_C@_1M@CLGLEFBO@?$AAr?$AAo?$AA?9?$AAr?$AAo?$AA?$AA@ 000000014003ce10     libcpmt:winapinls.obj
 0002:00004e20       ??_C@_1M@CEEDODME@?$AAr?$AAu?$AA?9?$AAr?$AAu?$AA?$AA@ 000000014003ce20     libcpmt:winapinls.obj
 0002:00004e30       ??_C@_1M@HPKKKMPP@?$AAs?$AAa?$AA?9?$AAi?$AAn?$AA?$AA@ 000000014003ce30     libcpmt:winapinls.obj
 0002:00004e40       ??_C@_1M@BKMAIGOJ@?$AAs?$AAe?$AA?9?$AAf?$AAi?$AA?$AA@ 000000014003ce40     libcpmt:winapinls.obj
 0002:00004e50       ??_C@_1M@NDPIFLFI@?$AAs?$AAe?$AA?9?$AAn?$AAo?$AA?$AA@ 000000014003ce50     libcpmt:winapinls.obj
 0002:00004e60       ??_C@_1M@DANKKHJ@?$AAs?$AAe?$AA?9?$AAs?$AAe?$AA?$AA@ 000000014003ce60     libcpmt:winapinls.obj
 0002:00004e70       ??_C@_1M@PNBLONPJ@?$AAs?$AAk?$AA?9?$AAs?$AAk?$AA?$AA@ 000000014003ce70     libcpmt:winapinls.obj
 0002:00004e80       ??_C@_1M@LFMODOAL@?$AAs?$AAl?$AA?9?$AAs?$AAi?$AA?$AA@ 000000014003ce80     libcpmt:winapinls.obj
 0002:00004e90       ??_C@_1O@DFKOMPG@?$AAs?$AAm?$AAa?$AA?9?$AAn?$AAo?$AA?$AA@ 000000014003ce90     libcpmt:winapinls.obj
 0002:00004ea0       ??_C@_1O@NDKPBNNH@?$AAs?$AAm?$AAa?$AA?9?$AAs?$AAe?$AA?$AA@ 000000014003cea0     libcpmt:winapinls.obj
 0002:00004eb0       ??_C@_1O@PLLKBHAB@?$AAs?$AAm?$AAj?$AA?9?$AAn?$AAo?$AA?$AA@ 000000014003ceb0     libcpmt:winapinls.obj
 0002:00004ec0       ??_C@_1O@CLEPOGCA@?$AAs?$AAm?$AAj?$AA?9?$AAs?$AAe?$AA?$AA@ 000000014003cec0     libcpmt:winapinls.obj
 0002:00004ed0       ??_C@_1O@DLGJGKMK@?$AAs?$AAm?$AAn?$AA?9?$AAf?$AAi?$AA?$AA@ 000000014003ced0     libcpmt:winapinls.obj
 0002:00004ee0       ??_C@_1O@OJDJGAJC@?$AAs?$AAm?$AAs?$AA?9?$AAf?$AAi?$AA?$AA@ 000000014003cee0     libcpmt:winapinls.obj
 0002:00004ef0       ??_C@_1M@BOFOGHPB@?$AAs?$AAq?$AA?9?$AAa?$AAl?$AA?$AA@ 000000014003cef0     libcpmt:winapinls.obj
 0002:00004f00       ??_C@_1BG@LJBBIPGB@?$AAs?$AAr?$AA?9?$AAb?$AAa?$AA?9?$AAc?$AAy?$AAr?$AAl?$AA?$AA@ 000000014003cf00     libcpmt:winapinls.obj
 0002:00004f18       ??_C@_1BG@JLBENFOE@?$AAs?$AAr?$AA?9?$AAb?$AAa?$AA?9?$AAl?$AAa?$AAt?$AAn?$AA?$AA@ 000000014003cf18     libcpmt:winapinls.obj
 0002:00004f30       ??_C@_1BG@KODPNHE@?$AAs?$AAr?$AA?9?$AAs?$AAp?$AA?9?$AAc?$AAy?$AAr?$AAl?$AA?$AA@ 000000014003cf30     libcpmt:winapinls.obj
 0002:00004f48       ??_C@_1BG@CIOGKHPB@?$AAs?$AAr?$AA?9?$AAs?$AAp?$AA?9?$AAl?$AAa?$AAt?$AAn?$AA?$AA@ 000000014003cf48     libcpmt:winapinls.obj
 0002:00004f60       ??_C@_1M@NGFJLMAC@?$AAs?$AAv?$AA?9?$AAf?$AAi?$AA?$AA@ 000000014003cf60     libcpmt:winapinls.obj
 0002:00004f70       ??_C@_1M@MPJEJAJC@?$AAs?$AAv?$AA?9?$AAs?$AAe?$AA?$AA@ 000000014003cf70     libcpmt:winapinls.obj
 0002:00004f80       ??_C@_1M@MPNDHLFK@?$AAs?$AAw?$AA?9?$AAk?$AAe?$AA?$AA@ 000000014003cf80     libcpmt:winapinls.obj
 0002:00004f90       ??_C@_1O@KOHBJJI@?$AAs?$AAy?$AAr?$AA?9?$AAs?$AAy?$AA?$AA@ 000000014003cf90     libcpmt:winapinls.obj
 0002:00004fa0       ??_C@_1M@LDCEFHA@?$AAt?$AAa?$AA?9?$AAi?$AAn?$AA?$AA@ 000000014003cfa0     libcpmt:winapinls.obj
 0002:00004fb0       ??_C@_1M@CNJOFAK@?$AAt?$AAe?$AA?9?$AAi?$AAn?$AA?$AA@ 000000014003cfb0     libcpmt:winapinls.obj
 0002:00004fc0       ??_C@_1M@GNAECACD@?$AAt?$AAh?$AA?9?$AAt?$AAh?$AA?$AA@ 000000014003cfc0     libcpmt:winapinls.obj
 0002:00004fd0       ??_C@_1M@CHBIHOJO@?$AAt?$AAn?$AA?9?$AAz?$AAa?$AA?$AA@ 000000014003cfd0     libcpmt:winapinls.obj
 0002:00004fe0       ??_C@_1M@GCCMIGPJ@?$AAt?$AAr?$AA?9?$AAt?$AAr?$AA?$AA@ 000000014003cfe0     libcpmt:winapinls.obj
 0002:00004ff0       ??_C@_1M@CELMCNBK@?$AAt?$AAt?$AA?9?$AAr?$AAu?$AA?$AA@ 000000014003cff0     libcpmt:winapinls.obj
 0002:00005000       ??_C@_1M@KLMCELGA@?$AAu?$AAk?$AA?9?$AAu?$AAa?$AA?$AA@ 000000014003d000     libcpmt:winapinls.obj
 0002:00005010       ??_C@_1M@EPAJJAJF@?$AAu?$AAr?$AA?9?$AAp?$AAk?$AA?$AA@ 000000014003d010     libcpmt:winapinls.obj
 0002:00005020       ??_C@_1BG@GEGPMCDJ@?$AAu?$AAz?$AA?9?$AAu?$AAz?$AA?9?$AAc?$AAy?$AAr?$AAl?$AA?$AA@ 000000014003d020     libcpmt:winapinls.obj
 0002:00005038       ??_C@_1BG@EGGKJILM@?$AAu?$AAz?$AA?9?$AAu?$AAz?$AA?9?$AAl?$AAa?$AAt?$AAn?$AA?$AA@ 000000014003d038     libcpmt:winapinls.obj
 0002:00005050       ??_C@_1M@GFOCLFF@?$AAv?$AAi?$AA?9?$AAv?$AAn?$AA?$AA@ 000000014003d050     libcpmt:winapinls.obj
 0002:00005060       ??_C@_1M@CPAMEDFI@?$AAx?$AAh?$AA?9?$AAz?$AAa?$AA?$AA@ 000000014003d060     libcpmt:winapinls.obj
 0002:00005070       ??_C@_1O@EBKIFIGN@?$AAz?$AAh?$AA?9?$AAc?$AAh?$AAs?$AA?$AA@ 000000014003d070     libcpmt:winapinls.obj
 0002:00005080       ??_C@_1O@NMHPGANE@?$AAz?$AAh?$AA?9?$AAc?$AAh?$AAt?$AA?$AA@ 000000014003d080     libcpmt:winapinls.obj
 0002:00005090       ??_C@_1M@LPINJOMC@?$AAz?$AAh?$AA?9?$AAc?$AAn?$AA?$AA@ 000000014003d090     libcpmt:winapinls.obj
 0002:000050a0       ??_C@_1M@OCJEJODD@?$AAz?$AAh?$AA?9?$AAh?$AAk?$AA?$AA@ 000000014003d0a0     libcpmt:winapinls.obj
 0002:000050b0       ??_C@_1M@DNDLJINH@?$AAz?$AAh?$AA?9?$AAm?$AAo?$AA?$AA@ 000000014003d0b0     libcpmt:winapinls.obj
 0002:000050c0       ??_C@_1M@MBFDNDND@?$AAz?$AAh?$AA?9?$AAs?$AAg?$AA?$AA@ 000000014003d0c0     libcpmt:winapinls.obj
 0002:000050d0       ??_C@_1M@IMEPLEPE@?$AAz?$AAh?$AA?9?$AAt?$AAw?$AA?$AA@ 000000014003d0d0     libcpmt:winapinls.obj
 0002:000050e0       ??_C@_1M@BBGHNHJP@?$AAz?$AAu?$AA?9?$AAz?$AAa?$AA?$AA@ 000000014003d0e0     libcpmt:winapinls.obj
 0002:000050f8       ??_7type_info@@6B@         000000014003d0f8     LIBCMT:std_type_info_static.obj
 0002:00005118       ??_7bad_array_new_length@std@@6B@ 000000014003d118     LIBCMT:throw_bad_alloc.obj
 0002:00005128       ??_C@_0BF@KINCDENJ@bad?5array?5new?5length?$AA@ 000000014003d128     LIBCMT:throw_bad_alloc.obj
 0002:000051d8       _pDestructExceptionObject  000000014003d1d8     libvcruntime:ehhelpers.obj
 0002:00005228       ??_7bad_exception@std@@6B@ 000000014003d228     libvcruntime:frame.obj
 0002:00005238       ??_C@_0O@DPKOEFFH@bad?5exception?$AA@ 000000014003d238     libvcruntime:frame.obj
 0002:00005260       ??_C@_1DM@KHCHBNEB@?$AAa?$AAp?$AAi?$AA?9?$AAm?$AAs?$AA?9?$AAw?$AAi?$AAn?$AA?9?$AAc?$AAo?$AAr?$AAe?$AA?9?$AAf?$AAi?$AAb?$AAe?$AAr?$AAs?$AA?9?$AAl?$AA1?$AA?9?$AA1?$AA?9?$AA1?$AA?$AA@ 000000014003d260     libvcruntime:winapi_downlevel.obj
 0002:000052a0       ??_C@_1DK@LPPGFMPP@?$AAa?$AAp?$AAi?$AA?9?$AAm?$AAs?$AA?9?$AAw?$AAi?$AAn?$AA?9?$AAc?$AAo?$AAr?$AAe?$AA?9?$AAs?$AAy?$AAn?$AAc?$AAh?$AA?9?$AAl?$AA1?$AA?9?$AA2?$AA?9?$AA0?$AA?$AA@ 000000014003d2a0     libvcruntime:winapi_downlevel.obj
 0002:000052e0       ??_C@_1BC@GDMECMAK@?$AAk?$AAe?$AAr?$AAn?$AAe?$AAl?$AA3?$AA2?$AA?$AA@ 000000014003d2e0     libvcruntime:winapi_downlevel.obj
 0002:000052f8       ??_C@_1BA@PFFKHIOG@?$AAa?$AAp?$AAi?$AA?9?$AAm?$AAs?$AA?9?$AA?$AA@ 000000014003d2f8     libvcruntime:winapi_downlevel.obj
 0002:00005308       ??_C@_1BA@IAIFMGEF@?$AAe?$AAx?$AAt?$AA?9?$AAm?$AAs?$AA?9?$AA?$AA@ 000000014003d308     libvcruntime:winapi_downlevel.obj
 0002:00005668       ??_C@_08EHJDFFNH@__based?$CI?$AA@ 000000014003d668     libvcruntime:undname.obj
 0002:00005678       ??_C@_07KOLFKCDI@__cdecl?$AA@ 000000014003d678     libvcruntime:undname.obj
 0002:00005680       ??_C@_08GHMPAG@__pascal?$AA@ 000000014003d680     libvcruntime:undname.obj
 0002:00005690       ??_C@_09IFJBGAPI@__stdcall?$AA@ 000000014003d690     libvcruntime:undname.obj
 0002:000056a0       ??_C@_0L@NPHFGOKO@__thiscall?$AA@ 000000014003d6a0     libvcruntime:undname.obj
 0002:000056b0       ??_C@_0L@JMKHOMEK@__fastcall?$AA@ 000000014003d6b0     libvcruntime:undname.obj
 0002:000056c0       ??_C@_0N@BCKKPABJ@__vectorcall?$AA@ 000000014003d6c0     libvcruntime:undname.obj
 0002:000056d0       ??_C@_09HIJEGCPM@__clrcall?$AA@ 000000014003d6d0     libvcruntime:undname.obj
 0002:000056dc       ??_C@_06GHPCKEAG@__eabi?$AA@ 000000014003d6dc     libvcruntime:undname.obj
 0002:000056e8       ??_C@_07JOMMBBKO@__ptr64?$AA@ 000000014003d6e8     libvcruntime:undname.obj
 0002:000056f0       ??_C@_0L@PILCLIHE@__restrict?$AA@ 000000014003d6f0     libvcruntime:undname.obj
 0002:00005700       ??_C@_0M@GFIIJFMG@__unaligned?$AA@ 000000014003d700     libvcruntime:undname.obj
 0002:00005710       ??_C@_09DHDLOLLB@restrict?$CI?$AA@ 000000014003d710     libvcruntime:undname.obj
 0002:0000571c       ??_C@_04NIHEBCM@?5new?$AA@ 000000014003d71c     libvcruntime:undname.obj
 0002:00005728       ??_C@_07FPCDHGMM@?5delete?$AA@ 000000014003d728     libvcruntime:undname.obj
 0002:00005730       ??_C@_01NEMOKFLO@?$DN?$AA@ 000000014003d730     libvcruntime:undname.obj
 0002:00005734       ??_C@_02GPIOPFAK@?$DO?$DO?$AA@ 000000014003d734     libvcruntime:undname.obj
 0002:00005738       ??_C@_02FODMEDOG@?$DM?$DM?$AA@ 000000014003d738     libvcruntime:undname.obj
 0002:0000573c       ??_C@_01DCLJPIOD@?$CB?$AA@ 000000014003d73c     libvcruntime:undname.obj
 0002:00005740       ??_C@_02EGOFBIJA@?$DN?$DN?$AA@ 000000014003d740     libvcruntime:undname.obj
 0002:00005744       ??_C@_02FDNJECIE@?$CB?$DN?$AA@ 000000014003d744     libvcruntime:undname.obj
 0002:00005748       ??_C@_02GPECMEKF@?$FL?$FN?$AA@ 000000014003d748     libvcruntime:undname.obj
 0002:00005750       ??_C@_08LHJFAFGD@operator?$AA@ 000000014003d750     libvcruntime:undname.obj
 0002:0000575c       ??_C@_02HBOOOICD@?9?$DO?$AA@ 000000014003d75c     libvcruntime:undname.obj
 0002:00005760       ??_C@_02ECNGHCIF@?$CL?$CL?$AA@ 000000014003d760     libvcruntime:undname.obj
 0002:00005764       ??_C@_02BAABKJLB@?9?9?$AA@ 000000014003d764     libvcruntime:undname.obj
 0002:00005768       ??_C@_01MIFGBAGJ@?$CL?$AA@ 000000014003d768     libvcruntime:undname.obj
 0002:0000576c       ??_C@_01HNPIGOCE@?$CG?$AA@ 000000014003d76c     libvcruntime:undname.obj
 0002:00005770       ??_C@_03MNHNFDLC@?9?$DO?$CK?$AA@ 000000014003d770     libvcruntime:undname.obj
 0002:00005774       ??_C@_01FGNFDNOH@?$CF?$AA@ 000000014003d774     libvcruntime:undname.obj
 0002:00005778       ??_C@_01MNNFJEPP@?$DM?$AA@ 000000014003d778     libvcruntime:undname.obj
 0002:0000577c       ??_C@_02EHCHHCKH@?$DM?$DN?$AA@ 000000014003d77c     libvcruntime:undname.obj
 0002:00005780       ??_C@_01PPODPGHN@?$DO?$AA@ 000000014003d780     libvcruntime:undname.obj
 0002:00005784       ??_C@_02EEKDKGMJ@?$DO?$DN?$AA@ 000000014003d784     libvcruntime:undname.obj
 0002:00005788       ??_C@_01IHBHIGKO@?0?$AA@   000000014003d788     libvcruntime:undname.obj
 0002:0000578c       ??_C@_02HCKGKOFO@?$CI?$CJ?$AA@ 000000014003d78c     libvcruntime:undname.obj
 0002:00005790       ??_C@_01PJKLJHI@?$HO?$AA@  000000014003d790     libvcruntime:undname.obj
 0002:00005794       ??_C@_01JKBOJNNK@?$FO?$AA@ 000000014003d794     libvcruntime:undname.obj
 0002:00005798       ??_C@_01DNKMNLPK@?$HM?$AA@ 000000014003d798     libvcruntime:undname.obj
 0002:0000579c       ??_C@_02PPKAJPJL@?$CG?$CG?$AA@ 000000014003d79c     libvcruntime:undname.obj
 0002:000057a0       ??_C@_02NONPIBCD@?$HM?$HM?$AA@ 000000014003d7a0     libvcruntime:undname.obj
 0002:000057a4       ??_C@_02FPIMKNGF@?$CK?$DN?$AA@ 000000014003d7a4     libvcruntime:undname.obj
 0002:000057a8       ??_C@_02FOEOMHFC@?$CL?$DN?$AA@ 000000014003d7a8     libvcruntime:undname.obj
 0002:000057ac       ??_C@_02FKMDLLOA@?9?$DN?$AA@ 000000014003d7ac     libvcruntime:undname.obj
 0002:000057b0       ??_C@_02FJEHGPIO@?1?$DN?$AA@ 000000014003d7b0     libvcruntime:undname.obj
 0002:000057b4       ??_C@_02FENAOKFI@?$CF?$DN?$AA@ 000000014003d7b4     libvcruntime:undname.obj
 0002:000057b8       ??_C@_03IKFCCPFF@?$DO?$DO?$DN?$AA@ 000000014003d7b8     libvcruntime:undname.obj
 0002:000057bc       ??_C@_03CDNPDDLA@?$DM?$DM?$DN?$AA@ 000000014003d7bc     libvcruntime:undname.obj
 0002:000057c0       ??_C@_02FGJGFEAB@?$CG?$DN?$AA@ 000000014003d7c0     libvcruntime:undname.obj
 0002:000057c4       ??_C@_02DHLNPPGH@?$HM?$DN?$AA@ 000000014003d7c4     libvcruntime:undname.obj
 0002:000057c8       ??_C@_02MHEGNOJ@?$FO?$DN?$AA@ 000000014003d7c8     libvcruntime:undname.obj
 0002:000057d0       ??_C@_09IFPLHPGF@?$GAvftable?8?$AA@ 000000014003d7d0     libvcruntime:undname.obj
 0002:000057e0       ??_C@_09BLBHBJP@?$GAvbtable?8?$AA@ 000000014003d7e0     libvcruntime:undname.obj
 0002:000057f0       ??_C@_07FEEIOKP@?$GAvcall?8?$AA@ 000000014003d7f0     libvcruntime:undname.obj
 0002:000057f8       ??_C@_08LLFFHHDJ@?$GAtypeof?8?$AA@ 000000014003d7f8     libvcruntime:undname.obj
 0002:00005808       ??_C@_0BF@KDPPACIK@?$GAlocal?5static?5guard?8?$AA@ 000000014003d808     libvcruntime:undname.obj
 0002:00005820       ??_C@_08OBABFOLI@?$GAstring?8?$AA@ 000000014003d820     libvcruntime:undname.obj
 0002:00005830       ??_C@_0BD@JDLKDPAB@?$GAvbase?5destructor?8?$AA@ 000000014003d830     libvcruntime:undname.obj
 0002:00005848       ??_C@_0BN@DEGPLNFK@?$GAvector?5deleting?5destructor?8?$AA@ 000000014003d848     libvcruntime:undname.obj
 0002:00005868       ??_C@_0BO@OBMKPJIG@?$GAdefault?5constructor?5closure?8?$AA@ 000000014003d868     libvcruntime:undname.obj
 0002:00005888       ??_C@_0BN@IMDCHIKM@?$GAscalar?5deleting?5destructor?8?$AA@ 000000014003d888     libvcruntime:undname.obj
 0002:000058a8       ??_C@_0BO@PFGOCPJJ@?$GAvector?5constructor?5iterator?8?$AA@ 000000014003d8a8     libvcruntime:undname.obj
 0002:000058c8       ??_C@_0BN@LFPFMEDL@?$GAvector?5destructor?5iterator?8?$AA@ 000000014003d8c8     libvcruntime:undname.obj
 0002:000058e8       ??_C@_0CE@IKBNEHA@?$GAvector?5vbase?5constructor?5iterat@ 000000014003d8e8     libvcruntime:undname.obj
 0002:00005910       ??_C@_0BL@NILFHHPC@?$GAvirtual?5displacement?5map?8?$AA@ 000000014003d910     libvcruntime:undname.obj
 0002:00005930       ??_C@_0CB@JONCMFFK@?$GAeh?5vector?5constructor?5iterator?8@ 000000014003d930     libvcruntime:undname.obj
 0002:00005958       ??_C@_0CA@GCEOPDGL@?$GAeh?5vector?5destructor?5iterator?8?$AA@ 000000014003d958     libvcruntime:undname.obj
 0002:00005978       ??_C@_0CH@OOJPLCPH@?$GAeh?5vector?5vbase?5constructor?5ite@ 000000014003d978     libvcruntime:undname.obj
 0002:000059a0       ??_C@_0BL@LLKPOHJI@?$GAcopy?5constructor?5closure?8?$AA@ 000000014003d9a0     libvcruntime:undname.obj
 0002:000059c0       ??_C@_0BA@KBCDOMBN@?$GAudt?5returning?8?$AA@ 000000014003d9c0     libvcruntime:undname.obj
 0002:000059d0       ??_C@_03KLGMFNMG@?$GAEH?$AA@ 000000014003d9d0     libvcruntime:undname.obj
 0002:000059d4       ??_C@_05KHLCHHI@?$GARTTI?$AA@ 000000014003d9d4     libvcruntime:undname.obj
 0002:000059e0       ??_C@_0BA@KKLDJDLB@?$GAlocal?5vftable?8?$AA@ 000000014003d9e0     libvcruntime:undname.obj
 0002:000059f0       ??_C@_0CE@IIHCMGGL@?$GAlocal?5vftable?5constructor?5closu@ 000000014003d9f0     libvcruntime:undname.obj
 0002:00005a14       ??_C@_06FHBGPFGH@?5new?$FL?$FN?$AA@ 000000014003da14     libvcruntime:undname.obj
 0002:00005a20       ??_C@_09LBNFPBCA@?5delete?$FL?$FN?$AA@ 000000014003da20     libvcruntime:undname.obj
 0002:00005a30       ??_C@_0P@HJKNJFNN@?$GAomni?5callsig?8?$AA@ 000000014003da30     libvcruntime:undname.obj
 0002:00005a40       ??_C@_0BL@CNOONJFP@?$GAplacement?5delete?5closure?8?$AA@ 000000014003da40     libvcruntime:undname.obj
 0002:00005a60       ??_C@_0BN@CKNJLHMB@?$GAplacement?5delete?$FL?$FN?5closure?8?$AA@ 000000014003da60     libvcruntime:undname.obj
 0002:00005a80       ??_C@_0CG@CFDHKGGD@?$GAmanaged?5vector?5constructor?5iter@ 000000014003da80     libvcruntime:undname.obj
 0002:00005aa8       ??_C@_0CF@IMGKMJNO@?$GAmanaged?5vector?5destructor?5itera@ 000000014003daa8     libvcruntime:undname.obj
 0002:00005ad0       ??_C@_0CG@HLDDJMAG@?$GAeh?5vector?5copy?5constructor?5iter@ 000000014003dad0     libvcruntime:undname.obj
 0002:00005af8       ??_C@_0CM@FCBBDIGB@?$GAeh?5vector?5vbase?5copy?5constructo@ 000000014003daf8     libvcruntime:undname.obj
 0002:00005b28       ??_C@_0BL@CLIPGLGB@?$GAdynamic?5initializer?5for?5?8?$AA@ 000000014003db28     libvcruntime:undname.obj
 0002:00005b48       ??_C@_0CB@PDBIFEP@?$GAdynamic?5atexit?5destructor?5for?5?8@ 000000014003db48     libvcruntime:undname.obj
 0002:00005b70       ??_C@_0CD@CGAJBKEJ@?$GAvector?5copy?5constructor?5iterato@ 000000014003db70     libvcruntime:undname.obj
 0002:00005b98       ??_C@_0CJ@GJELGAMM@?$GAvector?5vbase?5copy?5constructor?5i@ 000000014003db98     libvcruntime:undname.obj
 0002:00005bc8       ??_C@_0CL@FGIJHLCE@?$GAmanaged?5vector?5copy?5constructor@ 000000014003dbc8     libvcruntime:undname.obj
 0002:00005bf8       ??_C@_0BM@PMGGMLDN@?$GAlocal?5static?5thread?5guard?8?$AA@ 000000014003dbf8     libvcruntime:undname.obj
 0002:00005c18       ??_C@_0N@BDNMDMOL@operator?5?$CC?$CC?5?$AA@ 000000014003dc18     libvcruntime:undname.obj
 0002:00005c28       ??_C@_0BC@GGEBGALA@operator?5co_await?$AA@ 000000014003dc28     libvcruntime:undname.obj
 0002:00005c40       ??_C@_0BC@DAFEJGAK@?5Type?5Descriptor?8?$AA@ 000000014003dc40     libvcruntime:undname.obj
 0002:00005c58       ??_C@_0BM@LDKODKLH@?5Base?5Class?5Descriptor?5at?5?$CI?$AA@ 000000014003dc58     libvcruntime:undname.obj
 0002:00005c78       ??_C@_0BD@LGICGFMM@?5Base?5Class?5Array?8?$AA@ 000000014003dc78     libvcruntime:undname.obj
 0002:00005c90       ??_C@_0BN@MECKDCOJ@?5Class?5Hierarchy?5Descriptor?8?$AA@ 000000014003dc90     libvcruntime:undname.obj
 0002:00005cb0       ??_C@_0BK@CFCOFLF@?5Complete?5Object?5Locator?8?$AA@ 000000014003dcb0     libvcruntime:undname.obj
 0002:00005cd0       format_validation_lookup_table 000000014003dcd0     libucrt:output.obj
 0002:00005d30       ??_C@_1O@CEDCILHN@?$AA?$CI?$AAn?$AAu?$AAl?$AAl?$AA?$CJ?$AA?$AA@ 000000014003dd30     libucrt:output.obj
 0002:00005d40       ??_C@_06OJHGLDPL@?$CInull?$CJ?$AA@ 000000014003dd40     libucrt:output.obj
 0002:00005ec0       __real@0000000000000000    000000014003dec0     libucrt:frexp.obj
 0002:00005ec8       __real@3ff0000000000000    000000014003dec8     libucrt:frexp.obj
 0002:00005ed0       __real@8000000000000000    000000014003ded0     libucrt:frexp.obj
 0002:00005ee0       _wctype                    000000014003dee0     libucrt:ctype.obj
 0002:000060f0       __newctype                 000000014003e0f0     libucrt:ctype.obj
 0002:000063f0       __newclmap                 000000014003e3f0     libucrt:ctype.obj
 0002:00006570       __newcumap                 000000014003e570     libucrt:ctype.obj
 0002:000066f0       ?large_power_data@?1??multiply_by_power_of_ten@__crt_strtox@@YA_NAEAUbig_integer@2@I@Z@4QBIB 000000014003e6f0     libucrt:strtod.obj
 0002:00007000       ?large_power_indices@?1??multiply_by_power_of_ten@__crt_strtox@@YA_NAEAUbig_integer@2@I@Z@4QBUunpack_index@?1??12@YA_N0I@Z@B 000000014003f000     libucrt:strtod.obj
 0002:00007098       ?small_powers_of_ten@?1??multiply_by_power_of_ten@__crt_strtox@@YA_NAEAUbig_integer@2@I@Z@4QBIB 000000014003f098     libucrt:strtod.obj
 0002:00008d70       __acrt_exception_action_table 0000000140040d70     libucrt:exception_filter.obj
 0002:00008e30       __acrt_signal_action_table_count 0000000140040e30     libucrt:exception_filter.obj
 0002:00008e38       __acrt_signal_action_first_fpe_index 0000000140040e38     libucrt:exception_filter.obj
 0002:00008e40       __acrt_signal_action_fpe_count 0000000140040e40     libucrt:exception_filter.obj
 0002:00008e48       ??_C@_1BI@BGOHAHKC@?$AAm?$AAs?$AAc?$AAo?$AAr?$AAe?$AAe?$AA?4?$AAd?$AAl?$AAl?$AA?$AA@ 0000000140040e48     libucrt:exit.obj
 0002:00008e60       ??_C@_0P@MIGLKIOC@CorExitProcess?$AA@ 0000000140040e60     libucrt:exit.obj
 0002:00008f60       __lc_category              0000000140040f60     libucrt:wsetlocale.obj
 0002:00008ff0       ??_C@_1O@GIFLHMA@?$AAL?$AAC?$AA_?$AAA?$AAL?$AAL?$AA?$AA@ 0000000140040ff0     libucrt:wsetlocale.obj
 0002:00009000       ??_C@_1BG@PPOMIBNJ@?$AAL?$AAC?$AA_?$AAC?$AAO?$AAL?$AAL?$AAA?$AAT?$AAE?$AA?$AA@ 0000000140041000     libucrt:wsetlocale.obj
 0002:00009018       ??_C@_1BC@FFJGAPJM@?$AAL?$AAC?$AA_?$AAC?$AAT?$AAY?$AAP?$AAE?$AA?$AA@ 0000000140041018     libucrt:wsetlocale.obj
 0002:00009030       ??_C@_1BI@PCKFNJFB@?$AAL?$AAC?$AA_?$AAM?$AAO?$AAN?$AAE?$AAT?$AAA?$AAR?$AAY?$AA?$AA@ 0000000140041030     libucrt:wsetlocale.obj
 0002:00009048       ??_C@_1BG@ENIEDKID@?$AAL?$AAC?$AA_?$AAN?$AAU?$AAM?$AAE?$AAR?$AAI?$AAC?$AA?$AA@ 0000000140041048     libucrt:wsetlocale.obj
 0002:00009060       ??_C@_1BA@HAAOMIIG@?$AAL?$AAC?$AA_?$AAT?$AAI?$AAM?$AAE?$AA?$AA@ 0000000140041060     libucrt:wsetlocale.obj
 0002:000090f0       ??_C@_15NBPDDFIP@?$AA?$DN?$AA?$DL?$AA?$AA@ 00000001400410f0     libucrt:wsetlocale.obj
 0002:000090f8       ??_C@_13PJJBFPED@?$AA?$DL?$AA?$AA@ 00000001400410f8     libucrt:wsetlocale.obj
 0002:000090fc       ??_C@_13NMPKAAJP@?$AA?$DN?$AA?$AA@ 00000001400410fc     libucrt:wsetlocale.obj
 0002:00009100       ??_C@_13FHBKNHDA@?$AAC?$AA?$AA@ 0000000140041100     libucrt:wsetlocale.obj
 0002:00009108       ??_C@_17MBJJLFDM@?$AA_?$AA?4?$AA?0?$AA?$AA@ 0000000140041108     libucrt:wsetlocale.obj
 0002:00009110       ??_C@_13ENNFDPBH@?$AA_?$AA?$AA@ 0000000140041110     libucrt:wsetlocale.obj
 0002:00009114       ??_C@_13JOFGPIOO@?$AA?4?$AA?$AA@ 0000000140041114     libucrt:wsetlocale.obj
 0002:000091c0       ??_C@_1EA@JGEFHKEI@?$AAa?$AAp?$AAi?$AA?9?$AAm?$AAs?$AA?9?$AAw?$AAi?$AAn?$AA?9?$AAc?$AAo?$AAr?$AAe?$AA?9?$AAd?$AAa?$AAt?$AAe?$AAt?$AAi?$AAm?$AAe?$AA?9?$AAl?$AA1?$AA?9?$AA1?$AA?9?$AA1?$AA?$AA@ 00000001400411c0     libucrt:winapi_thunks.obj
 0002:00009200       ??_C@_1DI@IJCEHOCB@?$AAa?$AAp?$AAi?$AA?9?$AAm?$AAs?$AA?9?$AAw?$AAi?$AAn?$AA?9?$AAc?$AAo?$AAr?$AAe?$AA?9?$AAf?$AAi?$AAl?$AAe?$AA?9?$AAl?$AA1?$AA?9?$AA2?$AA?9?$AA2?$AA?$AA@ 0000000140041200     libucrt:winapi_thunks.obj
 0002:00009240       ??_C@_1EI@MPIAOHOC@?$AAa?$AAp?$AAi?$AA?9?$AAm?$AAs?$AA?9?$AAw?$AAi?$AAn?$AA?9?$AAc?$AAo?$AAr?$AAe?$AA?9?$AAl?$AAo?$AAc?$AAa?$AAl?$AAi?$AAz?$AAa?$AAt?$AAi?$AAo?$AAn?$AA?9?$AAl?$AA1?$AA?9@ 0000000140041240     libucrt:winapi_thunks.obj
 0002:00009290       ??_C@_1FK@FPHCKFIE@?$AAa?$AAp?$AAi?$AA?9?$AAm?$AAs?$AA?9?$AAw?$AAi?$AAn?$AA?9?$AAc?$AAo?$AAr?$AAe?$AA?9?$AAl?$AAo?$AAc?$AAa?$AAl?$AAi?$AAz?$AAa?$AAt?$AAi?$AAo?$AAn?$AA?9?$AAo?$AAb?$AAs@ 0000000140041290     libucrt:winapi_thunks.obj
 0002:000092f0       ??_C@_1EM@DILCGIIO@?$AAa?$AAp?$AAi?$AA?9?$AAm?$AAs?$AA?9?$AAw?$AAi?$AAn?$AA?9?$AAc?$AAo?$AAr?$AAe?$AA?9?$AAp?$AAr?$AAo?$AAc?$AAe?$AAs?$AAs?$AAt?$AAh?$AAr?$AAe?$AAa?$AAd?$AAs?$AA?9?$AAl@ 00000001400412f0     libucrt:winapi_thunks.obj
 0002:00009340       ??_C@_1DM@LNCGDDPN@?$AAa?$AAp?$AAi?$AA?9?$AAm?$AAs?$AA?9?$AAw?$AAi?$AAn?$AA?9?$AAc?$AAo?$AAr?$AAe?$AA?9?$AAs?$AAt?$AAr?$AAi?$AAn?$AAg?$AA?9?$AAl?$AA1?$AA?9?$AA1?$AA?9?$AA0?$AA?$AA@ 0000000140041340     libucrt:winapi_thunks.obj
 0002:00009380       ??_C@_1DO@FPAPJEMD@?$AAa?$AAp?$AAi?$AA?9?$AAm?$AAs?$AA?9?$AAw?$AAi?$AAn?$AA?9?$AAc?$AAo?$AAr?$AAe?$AA?9?$AAs?$AAy?$AAs?$AAi?$AAn?$AAf?$AAo?$AA?9?$AAl?$AA1?$AA?9?$AA2?$AA?9?$AA1?$AA?$AA@ 0000000140041380     libucrt:winapi_thunks.obj
 0002:000093c0       ??_C@_1DK@NDHNAHIO@?$AAa?$AAp?$AAi?$AA?9?$AAm?$AAs?$AA?9?$AAw?$AAi?$AAn?$AA?9?$AAc?$AAo?$AAr?$AAe?$AA?9?$AAw?$AAi?$AAn?$AAr?$AAt?$AA?9?$AAl?$AA1?$AA?9?$AA1?$AA?9?$AA0?$AA?$AA@ 00000001400413c0     libucrt:winapi_thunks.obj
 0002:00009400       ??_C@_1DM@KGHDGBCM@?$AAa?$AAp?$AAi?$AA?9?$AAm?$AAs?$AA?9?$AAw?$AAi?$AAn?$AA?9?$AAc?$AAo?$AAr?$AAe?$AA?9?$AAx?$AAs?$AAt?$AAa?$AAt?$AAe?$AA?9?$AAl?$AA2?$AA?9?$AA1?$AA?9?$AA0?$AA?$AA@ 0000000140041400     libucrt:winapi_thunks.obj
 0002:00009440       ??_C@_1EO@IJIOEFOH@?$AAa?$AAp?$AAi?$AA?9?$AAm?$AAs?$AA?9?$AAw?$AAi?$AAn?$AA?9?$AAr?$AAt?$AAc?$AAo?$AAr?$AAe?$AA?9?$AAn?$AAt?$AAu?$AAs?$AAe?$AAr?$AA?9?$AAw?$AAi?$AAn?$AAd?$AAo?$AAw?$AA?9@ 0000000140041440     libucrt:winapi_thunks.obj
 0002:00009490       ??_C@_1FG@HHGEKANL@?$AAa?$AAp?$AAi?$AA?9?$AAm?$AAs?$AA?9?$AAw?$AAi?$AAn?$AA?9?$AAs?$AAe?$AAc?$AAu?$AAr?$AAi?$AAt?$AAy?$AA?9?$AAs?$AAy?$AAs?$AAt?$AAe?$AAm?$AAf?$AAu?$AAn?$AAc?$AAt?$AAi@ 0000000140041490     libucrt:winapi_thunks.obj
 0002:000094f0       ??_C@_1EG@DBIOJECG@?$AAe?$AAx?$AAt?$AA?9?$AAm?$AAs?$AA?9?$AAw?$AAi?$AAn?$AA?9?$AAn?$AAt?$AAu?$AAs?$AAe?$AAr?$AA?9?$AAd?$AAi?$AAa?$AAl?$AAo?$AAg?$AAb?$AAo?$AAx?$AA?9?$AAl?$AA1?$AA?9?$AA1@ 00000001400414f0     libucrt:winapi_thunks.obj
 0002:00009540       ??_C@_1EO@FIHMJCLF@?$AAe?$AAx?$AAt?$AA?9?$AAm?$AAs?$AA?9?$AAw?$AAi?$AAn?$AA?9?$AAn?$AAt?$AAu?$AAs?$AAe?$AAr?$AA?9?$AAw?$AAi?$AAn?$AAd?$AAo?$AAw?$AAs?$AAt?$AAa?$AAt?$AAi?$AAo?$AAn?$AA?9@ 0000000140041540     libucrt:winapi_thunks.obj
 0002:00009590       ??_C@_1BC@DNHGCMLG@?$AAa?$AAd?$AAv?$AAa?$AAp?$AAi?$AA3?$AA2?$AA?$AA@ 0000000140041590     libucrt:winapi_thunks.obj
 0002:000095a8       ??_C@_1M@OAIMIKLP@?$AAn?$AAt?$AAd?$AAl?$AAl?$AA?$AA@ 00000001400415a8     libucrt:winapi_thunks.obj
 0002:000095c0       ??_C@_1EG@DPGNFKGC@?$AAa?$AAp?$AAi?$AA?9?$AAm?$AAs?$AA?9?$AAw?$AAi?$AAn?$AA?9?$AAa?$AAp?$AAp?$AAm?$AAo?$AAd?$AAe?$AAl?$AA?9?$AAr?$AAu?$AAn?$AAt?$AAi?$AAm?$AAe?$AA?9?$AAl?$AA1?$AA?9?$AA1@ 00000001400415c0     libucrt:winapi_thunks.obj
 0002:00009608       ??_C@_1O@BCCLBEOE@?$AAu?$AAs?$AAe?$AAr?$AA3?$AA2?$AA?$AA@ 0000000140041608     libucrt:winapi_thunks.obj
 0002:00009620       ??_C@_0BA@FHFNEAED@AreFileApisANSI?$AA@ 0000000140041620     libucrt:winapi_thunks.obj
 0002:00009640       ??_C@_0BE@LJANKFHF@EnumSystemLocalesEx?$AA@ 0000000140041640     libucrt:winapi_thunks.obj
 0002:00009680       ??_C@_0BA@EPCJIIPD@GetDateFormatEx?$AA@ 0000000140041680     libucrt:winapi_thunks.obj
 0002:000096a8       ??_C@_0BA@CIJJKCJJ@GetTimeFormatEx?$AA@ 00000001400416a8     libucrt:winapi_thunks.obj
 0002:000096c0       ??_C@_0BJ@PBCCBIPI@GetUserDefaultLocaleName?$AA@ 00000001400416c0     libucrt:winapi_thunks.obj
 0002:000096f0       ??_C@_0BC@CELBKLLA@IsValidLocaleName?$AA@ 00000001400416f0     libucrt:winapi_thunks.obj
 0002:00009718       ??_C@_0BB@CDHDDLLP@LCIDToLocaleName?$AA@ 0000000140041718     libucrt:winapi_thunks.obj
 0002:00009738       ??_C@_0BB@HBDEELFH@LocaleNameToLCID?$AA@ 0000000140041738     libucrt:winapi_thunks.obj
 0002:00009750       ??_C@_0CF@OJOFEIGO@AppPolicyGetProcessTerminationMe@ 0000000140041750     libucrt:winapi_thunks.obj
 0002:00009780       ??_C@_0BC@JEAENNKH@SystemFunction036?$AA@ 0000000140041780     libucrt:winapi_thunks.obj
 0002:00009794       ??_C@_03OEIAHPBN@INF?$AA@  0000000140041794     libucrt:cvt.obj
 0002:00009798       ??_C@_03OJHLLCGB@inf?$AA@  0000000140041798     libucrt:cvt.obj
 0002:0000979c       ??_C@_03LKNCIKJB@NAN?$AA@  000000014004179c     libucrt:cvt.obj
 0002:000097a0       ??_C@_03LHCJEHON@nan?$AA@  00000001400417a0     libucrt:cvt.obj
 0002:000097a8       ??_C@_09OFJJIMPC@NAN?$CISNAN?$CJ?$AA@ 00000001400417a8     libucrt:cvt.obj
 0002:000097b8       ??_C@_09IPFBKMDL@nan?$CIsnan?$CJ?$AA@ 00000001400417b8     libucrt:cvt.obj
 0002:000097c8       ??_C@_08IKHNHAJ@NAN?$CIIND?$CJ?$AA@ 00000001400417c8     libucrt:cvt.obj
 0002:000097d8       ??_C@_08OFCDMILK@nan?$CIind?$CJ?$AA@ 00000001400417d8     libucrt:cvt.obj
 0002:000097e4       ??_C@_05KLBDPFGC@e?$CL000?$AA@ 00000001400417e4     libucrt:cvt.obj
 0002:000097ec       ??_C@_03KOEHGMDN@Sun?$AA@  00000001400417ec     libucrt:nlsdata.obj
 0002:000097f0       ??_C@_03PDAGKDH@Mon?$AA@   00000001400417f0     libucrt:nlsdata.obj
 0002:000097f4       ??_C@_03NAGEINEP@Tue?$AA@  00000001400417f4     libucrt:nlsdata.obj
 0002:000097f8       ??_C@_03MHOMLAJA@Wed?$AA@  00000001400417f8     libucrt:nlsdata.obj
 0002:000097fc       ??_C@_03IOFIKPDN@Thu?$AA@  00000001400417fc     libucrt:nlsdata.obj
 0002:00009800       ??_C@_03IDIOELNC@Fri?$AA@  0000000140041800     libucrt:nlsdata.obj
 0002:00009804       ??_C@_03FEFJNEK@Sat?$AA@   0000000140041804     libucrt:nlsdata.obj
 0002:00009808       ??_C@_06OOPIFAJ@Sunday?$AA@ 0000000140041808     libucrt:nlsdata.obj
 0002:00009810       ??_C@_06JLEDEDGH@Monday?$AA@ 0000000140041810     libucrt:nlsdata.obj
 0002:00009818       ??_C@_07BAAGCFCM@Tuesday?$AA@ 0000000140041818     libucrt:nlsdata.obj
 0002:00009820       ??_C@_09DLIGFAKA@Wednesday?$AA@ 0000000140041820     libucrt:nlsdata.obj
 0002:00009830       ??_C@_08HACCIKIA@Thursday?$AA@ 0000000140041830     libucrt:nlsdata.obj
 0002:0000983c       ??_C@_06JECMNKMI@Friday?$AA@ 000000014004183c     libucrt:nlsdata.obj
 0002:00009848       ??_C@_08INBOOONO@Saturday?$AA@ 0000000140041848     libucrt:nlsdata.obj
 0002:00009854       ??_C@_03HJBDCHOM@Feb?$AA@  0000000140041854     libucrt:nlsdata.obj
 0002:00009858       ??_C@_03ODNJBKGA@Mar?$AA@  0000000140041858     libucrt:nlsdata.obj
 0002:0000985c       ??_C@_03LEOLGMJP@Apr?$AA@  000000014004185c     libucrt:nlsdata.obj
 0002:00009860       ??_C@_03CNMDKL@May?$AA@    0000000140041860     libucrt:nlsdata.obj
 0002:00009864       ??_C@_03IDFGHECI@Jun?$AA@  0000000140041864     libucrt:nlsdata.obj
 0002:00009868       ??_C@_03LBGABGKK@Jul?$AA@  0000000140041868     libucrt:nlsdata.obj
 0002:0000986c       ??_C@_03IFJFEIGA@Aug?$AA@  000000014004186c     libucrt:nlsdata.obj
 0002:00009870       ??_C@_03GGCAPAJC@Sep?$AA@  0000000140041870     libucrt:nlsdata.obj
 0002:00009874       ??_C@_03BMAOKBAD@Oct?$AA@  0000000140041874     libucrt:nlsdata.obj
 0002:00009878       ??_C@_03JPJOFNIA@Nov?$AA@  0000000140041878     libucrt:nlsdata.obj
 0002:0000987c       ??_C@_03MKABNOCG@Dec?$AA@  000000014004187c     libucrt:nlsdata.obj
 0002:00009880       ??_C@_07CGJPFGJA@January?$AA@ 0000000140041880     libucrt:nlsdata.obj
 0002:00009888       ??_C@_08GNJGEPFN@February?$AA@ 0000000140041888     libucrt:nlsdata.obj
 0002:00009894       ??_C@_05HPCKOFNC@March?$AA@ 0000000140041894     libucrt:nlsdata.obj
 0002:0000989c       ??_C@_05DMJDNLEJ@April?$AA@ 000000014004189c     libucrt:nlsdata.obj
 0002:000098a4       ??_C@_04CNLMGBGM@June?$AA@ 00000001400418a4     libucrt:nlsdata.obj
 0002:000098ac       ??_C@_04MIEPOIFP@July?$AA@ 00000001400418ac     libucrt:nlsdata.obj
 0002:000098b4       ??_C@_06LBBHFDDG@August?$AA@ 00000001400418b4     libucrt:nlsdata.obj
 0002:000098c0       ??_C@_09BHHEALKD@September?$AA@ 00000001400418c0     libucrt:nlsdata.obj
 0002:000098d0       ??_C@_07JJNFCEND@October?$AA@ 00000001400418d0     libucrt:nlsdata.obj
 0002:000098d8       ??_C@_08HCHEGEOA@November?$AA@ 00000001400418d8     libucrt:nlsdata.obj
 0002:000098e8       ??_C@_08EDHMEBNP@December?$AA@ 00000001400418e8     libucrt:nlsdata.obj
 0002:000098f4       ??_C@_02DEDBPAFC@AM?$AA@   00000001400418f4     libucrt:nlsdata.obj
 0002:000098f8       ??_C@_02CJNFDJBF@PM?$AA@   00000001400418f8     libucrt:nlsdata.obj
 0002:00009900       ??_C@_08BPBNCDIB@MM?1dd?1yy?$AA@ 0000000140041900     libucrt:nlsdata.obj
 0002:00009910       ??_C@_0BE@CKGJFCPC@dddd?0?5MMMM?5dd?0?5yyyy?$AA@ 0000000140041910     libucrt:nlsdata.obj
 0002:00009928       ??_C@_08JCCMCCIL@HH?3mm?3ss?$AA@ 0000000140041928     libucrt:nlsdata.obj
 0002:00009938       ??_C@_17MBGCMIPB@?$AAS?$AAu?$AAn?$AA?$AA@ 0000000140041938     libucrt:nlsdata.obj
 0002:00009940       ??_C@_17KBOMKBF@?$AAM?$AAo?$AAn?$AA?$AA@ 0000000140041940     libucrt:nlsdata.obj
 0002:00009948       ??_C@_17BMKGEGOJ@?$AAT?$AAu?$AAe?$AA?$AA@ 0000000140041948     libucrt:nlsdata.obj
 0002:00009950       ??_C@_17CJEDCEPE@?$AAW?$AAe?$AAd?$AA?$AA@ 0000000140041950     libucrt:nlsdata.obj
 0002:00009958       ??_C@_17PDPHAADD@?$AAT?$AAh?$AAu?$AA?$AA@ 0000000140041958     libucrt:nlsdata.obj
 0002:00009960       ??_C@_17HFOLPPLP@?$AAF?$AAr?$AAi?$AA?$AA@ 0000000140041960     libucrt:nlsdata.obj
 0002:00009968       ??_C@_17GGIBDPIH@?$AAS?$AAa?$AAt?$AA?$AA@ 0000000140041968     libucrt:nlsdata.obj
 0002:00009970       ??_C@_1O@IHNHDHPB@?$AAS?$AAu?$AAn?$AAd?$AAa?$AAy?$AA?$AA@ 0000000140041970     libucrt:nlsdata.obj
 0002:00009980       ??_C@_1O@MMNBFLIA@?$AAM?$AAo?$AAn?$AAd?$AAa?$AAy?$AA?$AA@ 0000000140041980     libucrt:nlsdata.obj
 0002:00009990       ??_C@_1BA@ENFBFFEK@?$AAT?$AAu?$AAe?$AAs?$AAd?$AAa?$AAy?$AA?$AA@ 0000000140041990     libucrt:nlsdata.obj
 0002:000099a0       ??_C@_1BE@EBOGMDOH@?$AAW?$AAe?$AAd?$AAn?$AAe?$AAs?$AAd?$AAa?$AAy?$AA?$AA@ 00000001400419a0     libucrt:nlsdata.obj
 0002:000099b8       ??_C@_1BC@HHMNLIHE@?$AAT?$AAh?$AAu?$AAr?$AAs?$AAd?$AAa?$AAy?$AA?$AA@ 00000001400419b8     libucrt:nlsdata.obj
 0002:000099d0       ??_C@_1O@PDICJHAG@?$AAF?$AAr?$AAi?$AAd?$AAa?$AAy?$AA?$AA@ 00000001400419d0     libucrt:nlsdata.obj
 0002:000099e0       ??_C@_1BC@ENMNNPAJ@?$AAS?$AAa?$AAt?$AAu?$AAr?$AAd?$AAa?$AAy?$AA?$AA@ 00000001400419e0     libucrt:nlsdata.obj
 0002:000099f8       ??_C@_17DKNBKCHM@?$AAJ?$AAa?$AAn?$AA?$AA@ 00000001400419f8     libucrt:nlsdata.obj
 0002:00009a00       ??_C@_17LMDJEKJN@?$AAF?$AAe?$AAb?$AA?$AA@ 0000000140041a00     libucrt:nlsdata.obj
 0002:00009a08       ??_C@_17CKNLEDEC@?$AAM?$AAa?$AAr?$AA?$AA@ 0000000140041a08     libucrt:nlsdata.obj
 0002:00009a10       ??_C@_17LFPOIHDD@?$AAA?$AAp?$AAr?$AA?$AA@ 0000000140041a10     libucrt:nlsdata.obj
 0002:00009a18       ??_C@_17PNNKMEED@?$AAM?$AAa?$AAy?$AA?$AA@ 0000000140041a18     libucrt:nlsdata.obj
 0002:00009a20       ??_C@_17KCJGOCPB@?$AAJ?$AAu?$AAn?$AA?$AA@ 0000000140041a20     libucrt:nlsdata.obj
 0002:00009a28       ??_C@_17IJPCKHK@?$AAJ?$AAu?$AAl?$AA?$AA@ 0000000140041a28     libucrt:nlsdata.obj
 0002:00009a30       ??_C@_17ICPELBCN@?$AAA?$AAu?$AAg?$AA?$AA@ 0000000140041a30     libucrt:nlsdata.obj
 0002:00009a38       ??_C@_17HCHCOKMG@?$AAS?$AAe?$AAp?$AA?$AA@ 0000000140041a38     libucrt:nlsdata.obj
 0002:00009a40       ??_C@_17FNLKOI@?$AAO?$AAc?$AAt?$AA?$AA@ 0000000140041a40     libucrt:nlsdata.obj
 0002:00009a48       ??_C@_17BBDMLCIG@?$AAN?$AAo?$AAv?$AA?$AA@ 0000000140041a48     libucrt:nlsdata.obj
 0002:00009a50       ??_C@_17EGKACKIF@?$AAD?$AAe?$AAc?$AA?$AA@ 0000000140041a50     libucrt:nlsdata.obj
 0002:00009a58       ??_C@_1BA@EFMEIEBA@?$AAJ?$AAa?$AAn?$AAu?$AAa?$AAr?$AAy?$AA?$AA@ 0000000140041a58     libucrt:nlsdata.obj
 0002:00009a68       ??_C@_1BC@JGDDFFAM@?$AAF?$AAe?$AAb?$AAr?$AAu?$AAa?$AAr?$AAy?$AA?$AA@ 0000000140041a68     libucrt:nlsdata.obj
 0002:00009a80       ??_C@_1M@IKEENEDF@?$AAM?$AAa?$AAr?$AAc?$AAh?$AA?$AA@ 0000000140041a80     libucrt:nlsdata.obj
 0002:00009a90       ??_C@_1M@GJNLMHFD@?$AAA?$AAp?$AAr?$AAi?$AAl?$AA?$AA@ 0000000140041a90     libucrt:nlsdata.obj
 0002:00009aa0       ??_C@_19EPFLPGAP@?$AAJ?$AAu?$AAn?$AAe?$AA?$AA@ 0000000140041aa0     libucrt:nlsdata.obj
 0002:00009ab0       ??_C@_19BIFMLPCD@?$AAJ?$AAu?$AAl?$AAy?$AA?$AA@ 0000000140041ab0     libucrt:nlsdata.obj
 0002:00009ac0       ??_C@_1O@PAHLKOAC@?$AAA?$AAu?$AAg?$AAu?$AAs?$AAt?$AA?$AA@ 0000000140041ac0     libucrt:nlsdata.obj
 0002:00009ad0       ??_C@_1BE@DKAAMBJL@?$AAS?$AAe?$AAp?$AAt?$AAe?$AAm?$AAb?$AAe?$AAr?$AA?$AA@ 0000000140041ad0     libucrt:nlsdata.obj
 0002:00009ae8       ??_C@_1BA@EPANDLNG@?$AAO?$AAc?$AAt?$AAo?$AAb?$AAe?$AAr?$AA?$AA@ 0000000140041ae8     libucrt:nlsdata.obj
 0002:00009af8       ??_C@_1BC@BGLIFPF@?$AAN?$AAo?$AAv?$AAe?$AAm?$AAb?$AAe?$AAr?$AA?$AA@ 0000000140041af8     libucrt:nlsdata.obj
 0002:00009b10       ??_C@_1BC@FEMKIFH@?$AAD?$AAe?$AAc?$AAe?$AAm?$AAb?$AAe?$AAr?$AA?$AA@ 0000000140041b10     libucrt:nlsdata.obj
 0002:00009b24       ??_C@_15ODEHAHHF@?$AAA?$AAM?$AA?$AA@ 0000000140041b24     libucrt:nlsdata.obj
 0002:00009b2c       ??_C@_15CLMNNGEL@?$AAP?$AAM?$AA?$AA@ 0000000140041b2c     libucrt:nlsdata.obj
 0002:00009b38       ??_C@_1BC@IEBCMHCM@?$AAM?$AAM?$AA?1?$AAd?$AAd?$AA?1?$AAy?$AAy?$AA?$AA@ 0000000140041b38     libucrt:nlsdata.obj
 0002:00009b50       ??_C@_1CI@KNAKOEBC@?$AAd?$AAd?$AAd?$AAd?$AA?0?$AA?5?$AAM?$AAM?$AAM?$AAM?$AA?5?$AAd?$AAd?$AA?0?$AA?5?$AAy?$AAy?$AAy?$AAy?$AA?$AA@ 0000000140041b50     libucrt:nlsdata.obj
 0002:00009b78       ??_C@_1BC@GDGBMEMK@?$AAH?$AAH?$AA?3?$AAm?$AAm?$AA?3?$AAs?$AAs?$AA?$AA@ 0000000140041b78     libucrt:nlsdata.obj
 0002:00009b90       __lc_time_c                0000000140041b90     libucrt:nlsdata.obj
 0002:0000a040       ??_C@_03KHJOGHMM@exp?$AA@  0000000140042040     libucrt:fpexcept.obj
 0002:0000a044       ??_C@_03JGHBODFD@pow?$AA@  0000000140042044     libucrt:fpexcept.obj
 0002:0000a048       ??_C@_03MGHMBJCF@log?$AA@  0000000140042048     libucrt:fpexcept.obj
 0002:0000a04c       ??_C@_05HGHHAHAP@log10?$AA@ 000000014004204c     libucrt:fpexcept.obj
 0002:0000a054       ??_C@_04COOMCNPB@sinh?$AA@ 0000000140042054     libucrt:fpexcept.obj
 0002:0000a05c       ??_C@_04HPJJNFIM@cosh?$AA@ 000000014004205c     libucrt:fpexcept.obj
 0002:0000a064       ??_C@_04FJHINJAO@tanh?$AA@ 0000000140042064     libucrt:fpexcept.obj
 0002:0000a06c       ??_C@_04FIHNOPOL@asin?$AA@ 000000014004206c     libucrt:fpexcept.obj
 0002:0000a074       ??_C@_04PDIFKINK@acos?$AA@ 0000000140042074     libucrt:fpexcept.obj
 0002:0000a07c       ??_C@_04MLLJIGOK@atan?$AA@ 000000014004207c     libucrt:fpexcept.obj
 0002:0000a084       ??_C@_05KNGEOGJB@atan2?$AA@ 0000000140042084     libucrt:fpexcept.obj
 0002:0000a08c       ??_C@_04EIAKFFMI@sqrt?$AA@ 000000014004208c     libucrt:fpexcept.obj
 0002:0000a094       ??_C@_03BLEJJJBH@sin?$AA@  0000000140042094     libucrt:fpexcept.obj
 0002:0000a098       ??_C@_03LALBNOCG@cos?$AA@  0000000140042098     libucrt:fpexcept.obj
 0002:0000a09c       ??_C@_03IIINPABG@tan?$AA@  000000014004209c     libucrt:fpexcept.obj
 0002:0000a0a0       ??_C@_04GFPJNGEK@ceil?$AA@ 00000001400420a0     libucrt:fpexcept.obj
 0002:0000a0a8       ??_C@_05PBJFFIGL@floor?$AA@ 00000001400420a8     libucrt:fpexcept.obj
 0002:0000a0b0       ??_C@_04ODHECPBC@fabs?$AA@ 00000001400420b0     libucrt:fpexcept.obj
 0002:0000a0b8       ??_C@_04EHEDPDJG@modf?$AA@ 00000001400420b8     libucrt:fpexcept.obj
 0002:0000a0c0       ??_C@_05CEJMAHNP@ldexp?$AA@ 00000001400420c0     libucrt:fpexcept.obj
 0002:0000a0c8       ??_C@_05KBKMEMPO@_cabs?$AA@ 00000001400420c8     libucrt:fpexcept.obj
 0002:0000a0d0       ??_C@_06MEIMCGCF@_hypot?$AA@ 00000001400420d0     libucrt:fpexcept.obj
 0002:0000a0d8       ??_C@_04KEPJIHGP@fmod?$AA@ 00000001400420d8     libucrt:fpexcept.obj
 0002:0000a0e0       ??_C@_05GKKHEGJL@frexp?$AA@ 00000001400420e0     libucrt:fpexcept.obj
 0002:0000a0e8       ??_C@_03MJLDFKDL@_y0?$AA@  00000001400420e8     libucrt:fpexcept.obj
 0002:0000a0ec       ??_C@_03NAKIGLHK@_y1?$AA@  00000001400420ec     libucrt:fpexcept.obj
 0002:0000a0f0       ??_C@_03ONILCKOB@_yn?$AA@  00000001400420f0     libucrt:fpexcept.obj
 0002:0000a0f4       ??_C@_05JGDBENOH@_logb?$AA@ 00000001400420f4     libucrt:fpexcept.obj
 0002:0000a100       ??_C@_0L@KDOEJCKC@_nextafter?$AA@ 0000000140042100     libucrt:fpexcept.obj
 0002:0000a110       _d_inf                     0000000140042110     libucrt:util.obj
 0002:0000a118       _d_max                     0000000140042118     libucrt:util.obj
 0002:0000a120       ?ccs@?1???$__acrt_stdio_parse_mode@D@@YA?AU__acrt_stdio_stream_mode@@QEBD@Z@4QBDB 0000000140042120     libucrt:openfile.obj
 0002:0000a124       ?utf8_encoding@?1???$__acrt_stdio_parse_mode@D@@YA?AU__acrt_stdio_stream_mode@@QEBD@Z@4QBDB 0000000140042124     libucrt:openfile.obj
 0002:0000a130       ?utf16_encoding@?1???$__acrt_stdio_parse_mode@D@@YA?AU__acrt_stdio_stream_mode@@QEBD@Z@4QBDB 0000000140042130     libucrt:openfile.obj
 0002:0000a138       ?unicode_encoding@?1???$__acrt_stdio_parse_mode@D@@YA?AU__acrt_stdio_stream_mode@@QEBD@Z@4QBDB 0000000140042138     libucrt:openfile.obj
 0002:0000a140       __log_256_lead             0000000140042140     libucrt:log_256_lead_tail_table.obj
 0002:0000a950       __log_256_tail             0000000140042950     libucrt:log_256_lead_tail_table.obj
 0002:0000b160       __two_to_jby64_head_table  0000000140043160     libucrt:two_to_jby64_head_tail_table.obj
 0002:0000b360       __two_to_jby64_tail_table  0000000140043360     libucrt:two_to_jby64_head_tail_table.obj
 0002:0000b560       ??_C@_04MBFDLNIM@powf?$AA@ 0000000140043560     libucrt:pow_special.obj
 0002:0000b570       __two_to_jby64_table       0000000140043570     libucrt:two_to_jby64_table.obj
 0002:0000b770       __log_F_inv_qword          0000000140043770     libucrt:log_f_inv_qword_table.obj
 0002:0000bfa0       ??_C@_1BC@LLOKLNP@?$AAa?$AAm?$AAe?$AAr?$AAi?$AAc?$AAa?$AAn?$AA?$AA@ 0000000140043fa0     libucrt:get_qualified_locale.obj
 0002:0000bfb8       ??_C@_1CC@HEIGCDGG@?$AAa?$AAm?$AAe?$AAr?$AAi?$AAc?$AAa?$AAn?$AA?5?$AAe?$AAn?$AAg?$AAl?$AAi?$AAs?$AAh?$AA?$AA@ 0000000140043fb8     libucrt:get_qualified_locale.obj
 0002:0000bfe0       ??_C@_1CC@IHCNOMIN@?$AAa?$AAm?$AAe?$AAr?$AAi?$AAc?$AAa?$AAn?$AA?9?$AAe?$AAn?$AAg?$AAl?$AAi?$AAs?$AAh?$AA?$AA@ 0000000140043fe0     libucrt:get_qualified_locale.obj
 0002:0000c008       ??_C@_1BG@GKAGPCGG@?$AAa?$AAu?$AAs?$AAt?$AAr?$AAa?$AAl?$AAi?$AAa?$AAn?$AA?$AA@ 0000000140044008     libucrt:get_qualified_locale.obj
 0002:0000c020       ??_C@_1BA@GMENCENF@?$AAb?$AAe?$AAl?$AAg?$AAi?$AAa?$AAn?$AA?$AA@ 0000000140044020     libucrt:get_qualified_locale.obj
 0002:0000c030       ??_C@_1BC@PJMIIAAN@?$AAc?$AAa?$AAn?$AAa?$AAd?$AAi?$AAa?$AAn?$AA?$AA@ 0000000140044030     libucrt:get_qualified_locale.obj
 0002:0000c048       ??_C@_17NOIMNFBF@?$AAc?$AAh?$AAh?$AA?$AA@ 0000000140044048     libucrt:get_qualified_locale.obj
 0002:0000c050       ??_C@_17GGDALCHA@?$AAc?$AAh?$AAi?$AA?$AA@ 0000000140044050     libucrt:get_qualified_locale.obj
 0002:0000c058       ??_C@_1BA@NPNJKIBL@?$AAc?$AAh?$AAi?$AAn?$AAe?$AAs?$AAe?$AA?$AA@ 0000000140044058     libucrt:get_qualified_locale.obj
 0002:0000c068       ??_C@_1CC@DINBAMMJ@?$AAc?$AAh?$AAi?$AAn?$AAe?$AAs?$AAe?$AA?9?$AAh?$AAo?$AAn?$AAg?$AAk?$AAo?$AAn?$AAg?$AA?$AA@ 0000000140044068     libucrt:get_qualified_locale.obj
 0002:0000c090       ??_C@_1CG@IOBJPACO@?$AAc?$AAh?$AAi?$AAn?$AAe?$AAs?$AAe?$AA?9?$AAs?$AAi?$AAm?$AAp?$AAl?$AAi?$AAf?$AAi?$AAe?$AAd?$AA?$AA@ 0000000140044090     libucrt:get_qualified_locale.obj
 0002:0000c0b8       ??_C@_1CE@GAJNDCKG@?$AAc?$AAh?$AAi?$AAn?$AAe?$AAs?$AAe?$AA?9?$AAs?$AAi?$AAn?$AAg?$AAa?$AAp?$AAo?$AAr?$AAe?$AA?$AA@ 00000001400440b8     libucrt:get_qualified_locale.obj
 0002:0000c0e0       ??_C@_1CI@PAJPIOOD@?$AAc?$AAh?$AAi?$AAn?$AAe?$AAs?$AAe?$AA?9?$AAt?$AAr?$AAa?$AAd?$AAi?$AAt?$AAi?$AAo?$AAn?$AAa?$AAl?$AA?$AA@ 00000001400440e0     libucrt:get_qualified_locale.obj
 0002:0000c108       ??_C@_1BM@NILJBMMD@?$AAd?$AAu?$AAt?$AAc?$AAh?$AA?9?$AAb?$AAe?$AAl?$AAg?$AAi?$AAa?$AAn?$AA?$AA@ 0000000140044108     libucrt:get_qualified_locale.obj
 0002:0000c128       ??_C@_1CC@OOJPJNEJ@?$AAe?$AAn?$AAg?$AAl?$AAi?$AAs?$AAh?$AA?9?$AAa?$AAm?$AAe?$AAr?$AAi?$AAc?$AAa?$AAn?$AA?$AA@ 0000000140044128     libucrt:get_qualified_locale.obj
 0002:0000c150       ??_C@_1BI@IOLFEEM@?$AAe?$AAn?$AAg?$AAl?$AAi?$AAs?$AAh?$AA?9?$AAa?$AAu?$AAs?$AA?$AA@ 0000000140044150     libucrt:get_qualified_locale.obj
 0002:0000c168       ??_C@_1BO@HFFNLENJ@?$AAe?$AAn?$AAg?$AAl?$AAi?$AAs?$AAh?$AA?9?$AAb?$AAe?$AAl?$AAi?$AAz?$AAe?$AA?$AA@ 0000000140044168     libucrt:get_qualified_locale.obj
 0002:0000c188       ??_C@_1BI@HAPKJMPO@?$AAe?$AAn?$AAg?$AAl?$AAi?$AAs?$AAh?$AA?9?$AAc?$AAa?$AAn?$AA?$AA@ 0000000140044188     libucrt:get_qualified_locale.obj
 0002:0000c1a0       ??_C@_1CE@HLNDMIOJ@?$AAe?$AAn?$AAg?$AAl?$AAi?$AAs?$AAh?$AA?9?$AAc?$AAa?$AAr?$AAi?$AAb?$AAb?$AAe?$AAa?$AAn?$AA?$AA@ 00000001400441a0     libucrt:get_qualified_locale.obj
 0002:0000c1c8       ??_C@_1BI@LDHJHHAC@?$AAe?$AAn?$AAg?$AAl?$AAi?$AAs?$AAh?$AA?9?$AAi?$AAr?$AAe?$AA?$AA@ 00000001400441c8     libucrt:get_qualified_locale.obj
 0002:0000c1e0       ??_C@_1CA@NJMMCFOC@?$AAe?$AAn?$AAg?$AAl?$AAi?$AAs?$AAh?$AA?9?$AAj?$AAa?$AAm?$AAa?$AAi?$AAc?$AAa?$AA?$AA@ 00000001400441e0     libucrt:get_qualified_locale.obj
 0002:0000c200       ??_C@_1BG@BHJEBBGG@?$AAe?$AAn?$AAg?$AAl?$AAi?$AAs?$AAh?$AA?9?$AAn?$AAz?$AA?$AA@ 0000000140044200     libucrt:get_qualified_locale.obj
 0002:0000c218       ??_C@_1CK@FGOEJJCO@?$AAe?$AAn?$AAg?$AAl?$AAi?$AAs?$AAh?$AA?9?$AAs?$AAo?$AAu?$AAt?$AAh?$AA?5?$AAa?$AAf?$AAr?$AAi?$AAc?$AAa?$AA?$AA@ 0000000140044218     libucrt:get_qualified_locale.obj
 0002:0000c248       ??_C@_1DE@PDBJPCJ@?$AAe?$AAn?$AAg?$AAl?$AAi?$AAs?$AAh?$AA?9?$AAt?$AAr?$AAi?$AAn?$AAi?$AAd?$AAa?$AAd?$AA?5?$AAy?$AA?5?$AAt?$AAo?$AAb?$AAa?$AAg?$AAo?$AA?$AA@ 0000000140044248     libucrt:get_qualified_locale.obj
 0002:0000c280       ??_C@_1BG@JGCANDME@?$AAe?$AAn?$AAg?$AAl?$AAi?$AAs?$AAh?$AA?9?$AAu?$AAk?$AA?$AA@ 0000000140044280     libucrt:get_qualified_locale.obj
 0002:0000c298       ??_C@_1BG@DINKMLE@?$AAe?$AAn?$AAg?$AAl?$AAi?$AAs?$AAh?$AA?9?$AAu?$AAs?$AA?$AA@ 0000000140044298     libucrt:get_qualified_locale.obj
 0002:0000c2b0       ??_C@_1BI@NMFDBHJE@?$AAe?$AAn?$AAg?$AAl?$AAi?$AAs?$AAh?$AA?9?$AAu?$AAs?$AAa?$AA?$AA@ 00000001400442b0     libucrt:get_qualified_locale.obj
 0002:0000c2c8       ??_C@_1BO@OIHKJKII@?$AAf?$AAr?$AAe?$AAn?$AAc?$AAh?$AA?9?$AAb?$AAe?$AAl?$AAg?$AAi?$AAa?$AAn?$AA?$AA@ 00000001400442c8     libucrt:get_qualified_locale.obj
 0002:0000c2e8       ??_C@_1CA@NKAELJKI@?$AAf?$AAr?$AAe?$AAn?$AAc?$AAh?$AA?9?$AAc?$AAa?$AAn?$AAa?$AAd?$AAi?$AAa?$AAn?$AA?$AA@ 00000001400442e8     libucrt:get_qualified_locale.obj
 0002:0000c308       ??_C@_1CE@MGKCNLGN@?$AAf?$AAr?$AAe?$AAn?$AAc?$AAh?$AA?9?$AAl?$AAu?$AAx?$AAe?$AAm?$AAb?$AAo?$AAu?$AAr?$AAg?$AA?$AA@ 0000000140044308     libucrt:get_qualified_locale.obj
 0002:0000c330       ??_C@_1BK@CEGEAILM@?$AAf?$AAr?$AAe?$AAn?$AAc?$AAh?$AA?9?$AAs?$AAw?$AAi?$AAs?$AAs?$AA?$AA@ 0000000140044330     libucrt:get_qualified_locale.obj
 0002:0000c350       ??_C@_1CA@PAFKEOCC@?$AAg?$AAe?$AAr?$AAm?$AAa?$AAn?$AA?9?$AAa?$AAu?$AAs?$AAt?$AAr?$AAi?$AAa?$AAn?$AA?$AA@ 0000000140044350     libucrt:get_qualified_locale.obj
 0002:0000c370       ??_C@_1CI@HCFHGOFD@?$AAg?$AAe?$AAr?$AAm?$AAa?$AAn?$AA?9?$AAl?$AAi?$AAc?$AAh?$AAt?$AAe?$AAn?$AAs?$AAt?$AAe?$AAi?$AAn?$AA?$AA@ 0000000140044370     libucrt:get_qualified_locale.obj
 0002:0000c398       ??_C@_1CE@FEDDNPDG@?$AAg?$AAe?$AAr?$AAm?$AAa?$AAn?$AA?9?$AAl?$AAu?$AAx?$AAe?$AAm?$AAb?$AAo?$AAu?$AAr?$AAg?$AA?$AA@ 0000000140044398     libucrt:get_qualified_locale.obj
 0002:0000c3c0       ??_C@_1BK@LIMINNMN@?$AAg?$AAe?$AAr?$AAm?$AAa?$AAn?$AA?9?$AAs?$AAw?$AAi?$AAs?$AAs?$AA?$AA@ 00000001400443c0     libucrt:get_qualified_locale.obj
 0002:0000c3e0       ??_C@_1BM@LGMDBEPD@?$AAi?$AAr?$AAi?$AAs?$AAh?$AA?9?$AAe?$AAn?$AAg?$AAl?$AAi?$AAs?$AAh?$AA?$AA@ 00000001400443e0     libucrt:get_qualified_locale.obj
 0002:0000c400       ??_C@_1BM@NNCFBAEE@?$AAi?$AAt?$AAa?$AAl?$AAi?$AAa?$AAn?$AA?9?$AAs?$AAw?$AAi?$AAs?$AAs?$AA?$AA@ 0000000140044400     libucrt:get_qualified_locale.obj
 0002:0000c420       ??_C@_1BE@FEDJNPIB@?$AAn?$AAo?$AAr?$AAw?$AAe?$AAg?$AAi?$AAa?$AAn?$AA?$AA@ 0000000140044420     libucrt:get_qualified_locale.obj
 0002:0000c438       ??_C@_1CC@CILKDEIE@?$AAn?$AAo?$AAr?$AAw?$AAe?$AAg?$AAi?$AAa?$AAn?$AA?9?$AAb?$AAo?$AAk?$AAm?$AAa?$AAl?$AA?$AA@ 0000000140044438     libucrt:get_qualified_locale.obj
 0002:0000c460       ??_C@_1CE@DHMMHEPL@?$AAn?$AAo?$AAr?$AAw?$AAe?$AAg?$AAi?$AAa?$AAn?$AA?9?$AAn?$AAy?$AAn?$AAo?$AAr?$AAs?$AAk?$AA?$AA@ 0000000140044460     libucrt:get_qualified_locale.obj
 0002:0000c488       ??_C@_1CK@OPNMHECD@?$AAp?$AAo?$AAr?$AAt?$AAu?$AAg?$AAu?$AAe?$AAs?$AAe?$AA?9?$AAb?$AAr?$AAa?$AAz?$AAi?$AAl?$AAi?$AAa?$AAn?$AA?$AA@ 0000000140044488     libucrt:get_qualified_locale.obj
 0002:0000c4b8       ??_C@_1CE@KEEHCDB@?$AAs?$AAp?$AAa?$AAn?$AAi?$AAs?$AAh?$AA?9?$AAa?$AAr?$AAg?$AAe?$AAn?$AAt?$AAi?$AAn?$AAa?$AA?$AA@ 00000001400444b8     libucrt:get_qualified_locale.obj
 0002:0000c4e0       ??_C@_1CA@GIAOLHJD@?$AAs?$AAp?$AAa?$AAn?$AAi?$AAs?$AAh?$AA?9?$AAb?$AAo?$AAl?$AAi?$AAv?$AAi?$AAa?$AA?$AA@ 00000001400444e0     libucrt:get_qualified_locale.obj
 0002:0000c500       ??_C@_1BM@OJNDFNPD@?$AAs?$AAp?$AAa?$AAn?$AAi?$AAs?$AAh?$AA?9?$AAc?$AAh?$AAi?$AAl?$AAe?$AA?$AA@ 0000000140044500     libucrt:get_qualified_locale.obj
 0002:0000c520       ??_C@_1CC@OCOLPALL@?$AAs?$AAp?$AAa?$AAn?$AAi?$AAs?$AAh?$AA?9?$AAc?$AAo?$AAl?$AAo?$AAm?$AAb?$AAi?$AAa?$AA?$AA@ 0000000140044520     libucrt:get_qualified_locale.obj
 0002:0000c548       ??_C@_1CG@BPOFMKBB@?$AAs?$AAp?$AAa?$AAn?$AAi?$AAs?$AAh?$AA?9?$AAc?$AAo?$AAs?$AAt?$AAa?$AA?5?$AAr?$AAi?$AAc?$AAa?$AA?$AA@ 0000000140044548     libucrt:get_qualified_locale.obj
 0002:0000c570       ??_C@_1DG@IGOBAPBB@?$AAs?$AAp?$AAa?$AAn?$AAi?$AAs?$AAh?$AA?9?$AAd?$AAo?$AAm?$AAi?$AAn?$AAi?$AAc?$AAa?$AAn?$AA?5?$AAr?$AAe?$AAp?$AAu?$AAb?$AAl?$AAi?$AAc?$AA?$AA@ 0000000140044570     libucrt:get_qualified_locale.obj
 0002:0000c5a8       ??_C@_1CA@JHAPGEGI@?$AAs?$AAp?$AAa?$AAn?$AAi?$AAs?$AAh?$AA?9?$AAe?$AAc?$AAu?$AAa?$AAd?$AAo?$AAr?$AA?$AA@ 00000001400445a8     libucrt:get_qualified_locale.obj
 0002:0000c5c8       ??_C@_1CI@LAPALJPP@?$AAs?$AAp?$AAa?$AAn?$AAi?$AAs?$AAh?$AA?9?$AAe?$AAl?$AA?5?$AAs?$AAa?$AAl?$AAv?$AAa?$AAd?$AAo?$AAr?$AA?$AA@ 00000001400445c8     libucrt:get_qualified_locale.obj
 0002:0000c5f0       ??_C@_1CE@PDGBOFOM@?$AAs?$AAp?$AAa?$AAn?$AAi?$AAs?$AAh?$AA?9?$AAg?$AAu?$AAa?$AAt?$AAe?$AAm?$AAa?$AAl?$AAa?$AA?$AA@ 00000001400445f0     libucrt:get_qualified_locale.obj
 0002:0000c618       ??_C@_1CC@NBEBAODI@?$AAs?$AAp?$AAa?$AAn?$AAi?$AAs?$AAh?$AA?9?$AAh?$AAo?$AAn?$AAd?$AAu?$AAr?$AAa?$AAs?$AA?$AA@ 0000000140044618     libucrt:get_qualified_locale.obj
 0002:0000c640       ??_C@_1CA@LLKGHBMF@?$AAs?$AAp?$AAa?$AAn?$AAi?$AAs?$AAh?$AA?9?$AAm?$AAe?$AAx?$AAi?$AAc?$AAa?$AAn?$AA?$AA@ 0000000140044640     libucrt:get_qualified_locale.obj
 0002:0000c660       ??_C@_1BO@LKNDOIGD@?$AAs?$AAp?$AAa?$AAn?$AAi?$AAs?$AAh?$AA?9?$AAm?$AAo?$AAd?$AAe?$AAr?$AAn?$AA?$AA@ 0000000140044660     libucrt:get_qualified_locale.obj
 0002:0000c680       ??_C@_1CE@NMDMOEEB@?$AAs?$AAp?$AAa?$AAn?$AAi?$AAs?$AAh?$AA?9?$AAn?$AAi?$AAc?$AAa?$AAr?$AAa?$AAg?$AAu?$AAa?$AA?$AA@ 0000000140044680     libucrt:get_qualified_locale.obj
 0002:0000c6a8       ??_C@_1BO@LLCBEJGB@?$AAs?$AAp?$AAa?$AAn?$AAi?$AAs?$AAh?$AA?9?$AAp?$AAa?$AAn?$AAa?$AAm?$AAa?$AA?$AA@ 00000001400446a8     libucrt:get_qualified_locale.obj
 0002:0000c6c8       ??_C@_1CC@FKPGGIHO@?$AAs?$AAp?$AAa?$AAn?$AAi?$AAs?$AAh?$AA?9?$AAp?$AAa?$AAr?$AAa?$AAg?$AAu?$AAa?$AAy?$AA?$AA@ 00000001400446c8     libucrt:get_qualified_locale.obj
 0002:0000c6f0       ??_C@_1BK@CDEIHOOP@?$AAs?$AAp?$AAa?$AAn?$AAi?$AAs?$AAh?$AA?9?$AAp?$AAe?$AAr?$AAu?$AA?$AA@ 00000001400446f0     libucrt:get_qualified_locale.obj
 0002:0000c710       ??_C@_1CI@GAHAKKGP@?$AAs?$AAp?$AAa?$AAn?$AAi?$AAs?$AAh?$AA?9?$AAp?$AAu?$AAe?$AAr?$AAt?$AAo?$AA?5?$AAr?$AAi?$AAc?$AAo?$AA?$AA@ 0000000140044710     libucrt:get_qualified_locale.obj
 0002:0000c738       ??_C@_1CA@NKJBCAGP@?$AAs?$AAp?$AAa?$AAn?$AAi?$AAs?$AAh?$AA?9?$AAu?$AAr?$AAu?$AAg?$AAu?$AAa?$AAy?$AA?$AA@ 0000000140044738     libucrt:get_qualified_locale.obj
 0002:0000c758       ??_C@_1CE@ODILCONM@?$AAs?$AAp?$AAa?$AAn?$AAi?$AAs?$AAh?$AA?9?$AAv?$AAe?$AAn?$AAe?$AAz?$AAu?$AAe?$AAl?$AAa?$AA?$AA@ 0000000140044758     libucrt:get_qualified_locale.obj
 0002:0000c780       ??_C@_1CA@OBNMCGFO@?$AAs?$AAw?$AAe?$AAd?$AAi?$AAs?$AAh?$AA?9?$AAf?$AAi?$AAn?$AAl?$AAa?$AAn?$AAd?$AA?$AA@ 0000000140044780     libucrt:get_qualified_locale.obj
 0002:0000c7a0       ??_C@_1M@PIPDDPPI@?$AAs?$AAw?$AAi?$AAs?$AAs?$AA?$AA@ 00000001400447a0     libucrt:get_qualified_locale.obj
 0002:0000c7ac       ??_C@_15GMFIMNFM@?$AAu?$AAs?$AA?$AA@ 00000001400447ac     libucrt:get_qualified_locale.obj
 0002:0000c7b8       ??_C@_17HAEBFAGL@?$AAu?$AAs?$AAa?$AA?$AA@ 00000001400447b8     libucrt:get_qualified_locale.obj
 0002:0000c7c0       ??_C@_1BA@DPFJEPHB@?$AAa?$AAm?$AAe?$AAr?$AAi?$AAc?$AAa?$AA?$AA@ 00000001400447c0     libucrt:get_qualified_locale.obj
 0002:0000c7d0       ??_C@_1BA@ELOGGFK@?$AAb?$AAr?$AAi?$AAt?$AAa?$AAi?$AAn?$AA?$AA@ 00000001400447d0     libucrt:get_qualified_locale.obj
 0002:0000c7e0       ??_C@_1M@GHBGIGDA@?$AAc?$AAh?$AAi?$AAn?$AAa?$AA?$AA@ 00000001400447e0     libucrt:get_qualified_locale.obj
 0002:0000c7f0       ??_C@_1M@NCHEJOPO@?$AAc?$AAz?$AAe?$AAc?$AAh?$AA?$AA@ 00000001400447f0     libucrt:get_qualified_locale.obj
 0002:0000c800       ??_C@_1BA@BKPAPBLA@?$AAe?$AAn?$AAg?$AAl?$AAa?$AAn?$AAd?$AA?$AA@ 0000000140044800     libucrt:get_qualified_locale.obj
 0002:0000c810       ??_C@_1BM@HKBCKIPC@?$AAg?$AAr?$AAe?$AAa?$AAt?$AA?5?$AAb?$AAr?$AAi?$AAt?$AAa?$AAi?$AAn?$AA?$AA@ 0000000140044810     libucrt:get_qualified_locale.obj
 0002:0000c830       ??_C@_1BA@PPCHPGJB@?$AAh?$AAo?$AAl?$AAl?$AAa?$AAn?$AAd?$AA?$AA@ 0000000140044830     libucrt:get_qualified_locale.obj
 0002:0000c840       ??_C@_1BE@JBMPEGDG@?$AAh?$AAo?$AAn?$AAg?$AA?9?$AAk?$AAo?$AAn?$AAg?$AA?$AA@ 0000000140044840     libucrt:get_qualified_locale.obj
 0002:0000c858       ??_C@_1BI@KOELBBPJ@?$AAn?$AAe?$AAw?$AA?9?$AAz?$AAe?$AAa?$AAl?$AAa?$AAn?$AAd?$AA?$AA@ 0000000140044858     libucrt:get_qualified_locale.obj
 0002:0000c870       ??_C@_15HIEBHAIO@?$AAn?$AAz?$AA?$AA@ 0000000140044870     libucrt:get_qualified_locale.obj
 0002:0000c878       ??_C@_1BC@CHBCPFPI@?$AAp?$AAr?$AA?5?$AAc?$AAh?$AAi?$AAn?$AAa?$AA?$AA@ 0000000140044878     libucrt:get_qualified_locale.obj
 0002:0000c890       ??_C@_1BC@JAOIIFKD@?$AAp?$AAr?$AA?9?$AAc?$AAh?$AAi?$AAn?$AAa?$AA?$AA@ 0000000140044890     libucrt:get_qualified_locale.obj
 0002:0000c8a8       ??_C@_1BI@BEHPPHKC@?$AAp?$AAu?$AAe?$AAr?$AAt?$AAo?$AA?9?$AAr?$AAi?$AAc?$AAo?$AA?$AA@ 00000001400448a8     libucrt:get_qualified_locale.obj
 0002:0000c8c0       ??_C@_1O@PAEOFKDI@?$AAs?$AAl?$AAo?$AAv?$AAa?$AAk?$AA?$AA@ 00000001400448c0     libucrt:get_qualified_locale.obj
 0002:0000c8d0       ??_C@_1BK@FIHMCKAM@?$AAs?$AAo?$AAu?$AAt?$AAh?$AA?5?$AAa?$AAf?$AAr?$AAi?$AAc?$AAa?$AA?$AA@ 00000001400448d0     libucrt:get_qualified_locale.obj
 0002:0000c8f0       ??_C@_1BI@NAEOODKB@?$AAs?$AAo?$AAu?$AAt?$AAh?$AA?5?$AAk?$AAo?$AAr?$AAe?$AAa?$AA?$AA@ 00000001400448f0     libucrt:get_qualified_locale.obj
 0002:0000c908       ??_C@_1BK@FBDGGIFF@?$AAs?$AAo?$AAu?$AAt?$AAh?$AA?9?$AAa?$AAf?$AAr?$AAi?$AAc?$AAa?$AA?$AA@ 0000000140044908     libucrt:get_qualified_locale.obj
 0002:0000c928       ??_C@_1BI@GHLEJDPK@?$AAs?$AAo?$AAu?$AAt?$AAh?$AA?9?$AAk?$AAo?$AAr?$AAe?$AAa?$AA?$AA@ 0000000140044928     libucrt:get_qualified_locale.obj
 0002:0000c940       ??_C@_1CE@PLHLOMJF@?$AAt?$AAr?$AAi?$AAn?$AAi?$AAd?$AAa?$AAd?$AA?5?$AA?$CG?$AA?5?$AAt?$AAo?$AAb?$AAa?$AAg?$AAo?$AA?$AA@ 0000000140044940     libucrt:get_qualified_locale.obj
 0002:0000c968       ??_C@_1BO@MODIMHHI@?$AAu?$AAn?$AAi?$AAt?$AAe?$AAd?$AA?9?$AAk?$AAi?$AAn?$AAg?$AAd?$AAo?$AAm?$AA?$AA@ 0000000140044968     libucrt:get_qualified_locale.obj
 0002:0000c988       ??_C@_1BM@FFHJONBJ@?$AAu?$AAn?$AAi?$AAt?$AAe?$AAd?$AA?9?$AAs?$AAt?$AAa?$AAt?$AAe?$AAs?$AA?$AA@ 0000000140044988     libucrt:get_qualified_locale.obj
 0002:0000c9b0       __acrt_rg_language         00000001400449b0     libucrt:get_qualified_locale.obj
 0002:0000cdc0       __acrt_rg_language_count   0000000140044dc0     libucrt:get_qualified_locale.obj
 0002:0000cdd0       __acrt_rg_country          0000000140044dd0     libucrt:get_qualified_locale.obj
 0002:0000cf40       __acrt_rg_country_count    0000000140044f40     libucrt:get_qualified_locale.obj
 0002:0000cf48       ??_C@_17DNCLJFIF@?$AAA?$AAC?$AAP?$AA?$AA@ 0000000140044f48     libucrt:get_qualified_locale.obj
 0002:0000cf50       ??_C@_17CIKBIHLH@?$AAO?$AAC?$AAP?$AA?$AA@ 0000000140044f50     libucrt:get_qualified_locale.obj
 0002:0000cf58       __rglangidNotDefault       0000000140044f58     libucrt:getqloc_downlevel.obj
 0002:0000ebf0       ??_C@_05DNEBIAHO@1?$CDINF?$AA@ 0000000140046bf0     libucrt:cfout.obj
 0002:0000ebf8       ??_C@_06IMKFLFPG@1?$CDQNAN?$AA@ 0000000140046bf8     libucrt:cfout.obj
 0002:0000ec00       ??_C@_06PGGFOGJG@1?$CDSNAN?$AA@ 0000000140046c00     libucrt:cfout.obj
 0002:0000ec08       ??_C@_05PHHOCPM@1?$CDIND?$AA@ 0000000140046c08     libucrt:cfout.obj
 0002:0000ec30       ??_C@_1BA@BALFACEM@?$AAC?$AAO?$AAN?$AAO?$AAU?$AAT?$AA$?$AA?$AA@ 0000000140046c30     libucrt:initcon.obj
 0002:0000ee90       __log10_256_lead           0000000140046e90     libucrt:log10_256_lead_tail_table.obj
 0002:0000f6a0       __log10_256_tail           00000001400476a0     libucrt:log10_256_lead_tail_table.obj
 0002:0000fea8       ??_C@_0BC@EOODALEL@Unknown?5exception?$AA@ 0000000140047ea8     main.obj
 0002:0000fec0       ??_C@_0BA@ELKIONDK@bad?5locale?5name?$AA@ 0000000140047ec0     main.obj
 0002:0000fed0       ??_C@_05LAPONLG@false?$AA@ 0000000140047ed0     main.obj
 0002:0000fed8       ??_C@_04LOAJBDKD@true?$AA@ 0000000140047ed8     main.obj
 0002:0000fedd       ??_C@_00CNPNBAHC@?$AA@     0000000140047edd     main.obj
 0002:0000fee0       ??_C@_02LMMGGCAJ@?3?5?$AA@ 0000000140047ee0     main.obj
 0002:0000fee8       ??_C@_08LLGCOLLL@iostream?$AA@ 0000000140047ee8     main.obj
 0002:0000fef8       ??_C@_0BG@PADBLCHM@iostream?5stream?5error?$AA@ 0000000140047ef8     main.obj
 0002:0000ff10       ??_C@_0BF@PHHKMMFD@ios_base?3?3badbit?5set?$AA@ 0000000140047f10     main.obj
 0002:0000ff28       ??_C@_0BG@FMKFHCIL@ios_base?3?3failbit?5set?$AA@ 0000000140047f28     main.obj
 0002:0000ff40       ??_C@_0BF@OOHOMBOF@ios_base?3?3eofbit?5set?$AA@ 0000000140047f40     main.obj
 0002:0000ff58       ??_C@_07NMCGPECH@Agata_1?$AA@ 0000000140047f58     main.obj
 0002:0000ff60       ??_C@_07PHALKHOE@Agata_2?$AA@ 0000000140047f60     main.obj
 0002:0000ff68       ??_C@_07OOBAJGKF@Agata_3?$AA@ 0000000140047f68     main.obj
 0002:0000ff70       ??_C@_07KBFBAAGC@Agata_4?$AA@ 0000000140047f70     main.obj
 0002:0000ff78       ??_C@_07LIEKDBCD@Agata_5?$AA@ 0000000140047f78     main.obj
 0002:0000ff80       ??_C@_05HIHNAHAF@Ewa_1?$AA@ 0000000140047f80     main.obj
 0002:0000ff88       ??_C@_05FDFAFEMG@Ewa_2?$AA@ 0000000140047f88     main.obj
 0002:0000ff90       ??_C@_05EKELGFIH@Ewa_3?$AA@ 0000000140047f90     main.obj
 0002:0000ff98       ??_C@_05FAKPDEA@Ewa_4?$AA@ 0000000140047f98     main.obj
 0002:0000ffa0       ??_C@_05BMBBMCAB@Ewa_5?$AA@ 0000000140047fa0     main.obj
 0002:0000ffa8       ??_C@_06DNEKEHMO@Ewa2_1?$AA@ 0000000140047fa8     main.obj
 0002:0000ffb0       ??_C@_06BGGHBEAN@Ewa2_2?$AA@ 0000000140047fb0     main.obj
 0002:0000ffb8       ??_C@_06PHMCFEM@Ewa2_3?$AA@ 0000000140047fb8     main.obj
 0002:0000ffc0       ??_C@_06EADNLDIL@Ewa2_4?$AA@ 0000000140047fc0     main.obj
 0002:0000ffc8       ??_C@_06FJCGICMK@Ewa2_5?$AA@ 0000000140047fc8     main.obj
 0002:0000ffd0       ??_C@_07JNGJCCBG@Jacek_1?$AA@ 0000000140047fd0     main.obj
 0002:0000ffd8       ??_C@_07LGEEHBNF@Jacek_2?$AA@ 0000000140047fd8     main.obj
 0002:0000ffe0       ??_C@_07KPFPEAJE@Jacek_3?$AA@ 0000000140047fe0     main.obj
 0002:0000ffe8       ??_C@_07OABONGFD@Jacek_4?$AA@ 0000000140047fe8     main.obj
 0002:0000fff0       ??_C@_07PJAFOHBC@Jacek_5?$AA@ 0000000140047ff0     main.obj
 0002:0000fff8       ??_C@_08LJBBBCDF@Jacek2_1?$AA@ 0000000140047ff8     main.obj
 0002:00010008       ??_C@_08JCDMEBPG@Jacek2_2?$AA@ 0000000140048008     main.obj
 0002:00010018       ??_C@_08ILCHHALH@Jacek2_3?$AA@ 0000000140048018     main.obj
 0002:00010028       ??_C@_08MEGGOGHA@Jacek2_4?$AA@ 0000000140048028     main.obj
 0002:00010038       ??_C@_08NNHNNHDB@Jacek2_5?$AA@ 0000000140048038     main.obj
 0002:00010044       ??_C@_05DOOIMHKE@Jan_1?$AA@ 0000000140048044     main.obj
 0002:0001004c       ??_C@_05BFMFJEGH@Jan_2?$AA@ 000000014004804c     main.obj
 0002:00010054       ??_C@_05MNOKFCG@Jan_3?$AA@ 0000000140048054     main.obj
 0002:0001005c       ??_C@_05EDJPDDOB@Jan_4?$AA@ 000000014004805c     main.obj
 0002:00010064       ??_C@_05FKIEACKA@Jan_5?$AA@ 0000000140048064     main.obj
 0002:0001006c       ??_C@_06JMNNEBHA@Jan2_1?$AA@ 000000014004806c     main.obj
 0002:00010074       ??_C@_06LHPABCLD@Jan2_2?$AA@ 0000000140048074     main.obj
 0002:0001007c       ??_C@_06KOOLCDPC@Jan2_3?$AA@ 000000014004807c     main.obj
 0002:00010084       ??_C@_06OBKKLFDF@Jan2_4?$AA@ 0000000140048084     main.obj
 0002:0001008c       ??_C@_06PILBIEHE@Jan2_5?$AA@ 000000014004808c     main.obj
 0002:00010094       ??_C@_06HFECHJHC@Maja_1?$AA@ 0000000140048094     main.obj
 0002:0001009c       ??_C@_06FOGPCKLB@Maja_2?$AA@ 000000014004809c     main.obj
 0002:000100a4       ??_C@_06EHHEBLPA@Maja_3?$AA@ 00000001400480a4     main.obj
 0002:000100ac       ??_C@_06IDFINDH@Maja_4?$AA@ 00000001400480ac     main.obj
 0002:000100b4       ??_C@_06BBCOLMHG@Maja_5?$AA@ 00000001400480b4     main.obj
 0002:000100c0       ??_C@_07PDCGJMCP@Maja2_1?$AA@ 00000001400480c0     main.obj
 0002:000100c8       ??_C@_07NIALMPOM@Maja2_2?$AA@ 00000001400480c8     main.obj
 0002:000100d0       ??_C@_07MBBAPOKN@Maja2_3?$AA@ 00000001400480d0     main.obj
 0002:000100d8       ??_C@_07IOFBGIGK@Maja2_4?$AA@ 00000001400480d8     main.obj
 0002:000100e0       ??_C@_07JHEKFJCL@Maja2_5?$AA@ 00000001400480e0     main.obj
 0002:000100e8       ??_C@_05KFCKMKOB@Jacek?$AA@ 00000001400480e8     main.obj
 0002:000100f0       ??_C@_03FPCJKMNP@Ewa?$AA@  00000001400480f0     main.obj
 0002:000100f4       ??_C@_04CDICBAGM@Maja?$AA@ 00000001400480f4     main.obj
 0002:000100fc       ??_C@_03JIHJHPIE@Jan?$AA@  00000001400480fc     main.obj
 0002:00010100       ??_C@_06DKNIKMFF@Jacek2?$AA@ 0000000140048100     main.obj
 0002:00010108       ??_C@_04PLEDLCJI@Ewa2?$AA@ 0000000140048108     main.obj
 0002:00010110       ??_C@_05KJFHPLBC@Maja2?$AA@ 0000000140048110     main.obj
 0002:00010118       ??_C@_04HDNGKDH@Jan2?$AA@  0000000140048118     main.obj
 0002:00010120       ??_C@_05NKPCGME@Agata?$AA@ 0000000140048120     main.obj
 0002:00010128       ??_C@_0P@GMFAENOC@log_og?slny?4txt?$AA@ 0000000140048128     main.obj
 0002:00010138       ??_C@_05PDJBBECF@pause?$AA@ 0000000140048138     main.obj
 0002:00010140       ??_C@_0DL@POFCNLON@Jak?$LJ?5opcje?5chcesz?5obstawi?f?$DP?5?$CIzgo@ 0000000140048140     main.obj
 0002:00010180       ??_C@_0N@KLINIBPG@p?5?9?5parzyste?$AA@ 0000000140048180     main.obj
 0002:00010190       ??_C@_0BA@GNAADEAG@n?5?9?5nieparzyste?$AA@ 0000000140048190     main.obj
 0002:000101a0       ??_C@_0BD@LEDAOJLK@r?5?9?5czerwone?5?$CIred?$CJ?$AA@ 00000001400481a0     main.obj
 0002:000101b8       ??_C@_0BD@EPLAAEJB@b?5?9?5czarne?5?$CIblack?$CJ?$AA@ 00000001400481b8     main.obj
 0002:000101d0       ??_C@_0BB@FMNKHOJE@g?5?9?5g?srna?5po?$LDowa?$AA@ 00000001400481d0     main.obj
 0002:000101e8       ??_C@_0BB@CHNPGJIO@d?5?9?5dolna?5po?$LDowa?$AA@ 00000001400481e8     main.obj
 0002:00010200       ??_C@_0CN@EJBDEIIK@k1?0?5k2?0?5k3?5?9?5kolumna?51?0?5kolumna?5@ 0000000140048200     main.obj
 0002:00010230       ??_C@_0CK@OAIPJBPB@w1?0?5w2?0?5?4?4?4?5?0?5w12?5?9?5wiersz?5trzec@ 0000000140048230     main.obj
 0002:00010260       ??_C@_0CN@CGIAAFPM@0?936?5?9?5pojedy?qcze?5pole?5o?5odpowie@ 0000000140048260     main.obj
 0002:00010290       ??_C@_01JBBJJEPG@p?$AA@    0000000140048290     main.obj
 0002:00010294       ??_C@_01EFFIKLCJ@n?$AA@    0000000140048294     main.obj
 0002:00010298       ??_C@_01KDCPPGHE@r?$AA@    0000000140048298     main.obj
 0002:0001029c       ??_C@_01OJONOECF@b?$AA@    000000014004829c     main.obj
 0002:000102a0       ??_C@_01JEJKBAGA@g?$AA@    00000001400482a0     main.obj
 0002:000102a4       ??_C@_01LPLHEDKD@d?$AA@    00000001400482a4     main.obj
 0002:000102a8       ??_C@_02ICGBAFJO@k1?$AA@   00000001400482a8     main.obj
 0002:000102ac       ??_C@_02KJEMFGFN@k2?$AA@   00000001400482ac     main.obj
 0002:000102b0       ??_C@_02LAFHGHBM@k3?$AA@   00000001400482b0     main.obj
 0002:000102b4       ??_C@_02JHFNFPIK@w1?$AA@   00000001400482b4     main.obj
 0002:000102b8       ??_C@_02LMHAAMEJ@w2?$AA@   00000001400482b8     main.obj
 0002:000102bc       ??_C@_02KFGLDNAI@w3?$AA@   00000001400482bc     main.obj
 0002:000102c0       ??_C@_02OKCKKLMP@w4?$AA@   00000001400482c0     main.obj
 0002:000102c4       ??_C@_02PDDBJKIO@w5?$AA@   00000001400482c4     main.obj
 0002:000102c8       ??_C@_02NIBMMJEN@w6?$AA@   00000001400482c8     main.obj
 0002:000102cc       ??_C@_02MBAHPIAM@w7?$AA@   00000001400482cc     main.obj
 0002:000102d0       ??_C@_02EGJPOEMD@w8?$AA@   00000001400482d0     main.obj
 0002:000102d4       ??_C@_02FPIENFIC@w9?$AA@   00000001400482d4     main.obj
 0002:000102d8       ??_C@_03NCLMABJC@w10?$AA@  00000001400482d8     main.obj
 0002:000102dc       ??_C@_03MLKHDAND@w11?$AA@  00000001400482dc     main.obj
 0002:000102e0       ??_C@_03OAIKGDBA@w12?$AA@  00000001400482e0     main.obj
 0002:000102e4       ??_C@_01GBGANLPD@0?$AA@    00000001400482e4     main.obj
 0002:000102e8       ??_C@_01HIHLOKLC@1?$AA@    00000001400482e8     main.obj
 0002:000102ec       ??_C@_01FDFGLJHB@2?$AA@    00000001400482ec     main.obj
 0002:000102f0       ??_C@_01EKENIIDA@3?$AA@    00000001400482f0     main.obj
 0002:000102f4       ??_C@_01FAMBOPH@4?$AA@     00000001400482f4     main.obj
 0002:000102f8       ??_C@_01BMBHCPLG@5?$AA@    00000001400482f8     main.obj
 0002:000102fc       ??_C@_01DHDKHMHF@6?$AA@    00000001400482fc     main.obj
 0002:00010300       ??_C@_01COCBENDE@7?$AA@    0000000140048300     main.obj
 0002:00010304       ??_C@_01KJLJFBPL@8?$AA@    0000000140048304     main.obj
 0002:00010308       ??_C@_01LAKCGALK@9?$AA@    0000000140048308     main.obj
 0002:0001030c       ??_C@_02PKFBJPLJ@10?$AA@   000000014004830c     main.obj
 0002:00010310       ??_C@_02ODEKKOPI@11?$AA@   0000000140048310     main.obj
 0002:00010314       ??_C@_02MIGHPNDL@12?$AA@   0000000140048314     main.obj
 0002:00010318       ??_C@_02NBHMMMHK@13?$AA@   0000000140048318     main.obj
 0002:0001031c       ??_C@_02JODNFKLN@14?$AA@   000000014004831c     main.obj
 0002:00010320       ??_C@_02IHCGGLPM@15?$AA@   0000000140048320     main.obj
 0002:00010324       ??_C@_02KMALDIDP@16?$AA@   0000000140048324     main.obj
 0002:00010328       ??_C@_02LFBAAJHO@17?$AA@   0000000140048328     main.obj
 0002:0001032c       ??_C@_02DCIIBFLB@18?$AA@   000000014004832c     main.obj
 0002:00010330       ??_C@_02CLJDCEPA@19?$AA@   0000000140048330     main.obj
 0002:00010334       ??_C@_02PIBHCBOA@20?$AA@   0000000140048334     main.obj
 0002:00010338       ??_C@_02OBAMBAKB@21?$AA@   0000000140048338     main.obj
 0002:0001033c       ??_C@_02MKCBEDGC@22?$AA@   000000014004833c     main.obj
 0002:00010340       ??_C@_02NDDKHCCD@23?$AA@   0000000140048340     main.obj
 0002:00010344       ??_C@_02JMHLOEOE@24?$AA@   0000000140048344     main.obj
 0002:00010348       ??_C@_02IFGANFKF@25?$AA@   0000000140048348     main.obj
 0002:0001034c       ??_C@_02KOENIGGG@26?$AA@   000000014004834c     main.obj
 0002:00010350       ??_C@_02LHFGLHCH@27?$AA@   0000000140048350     main.obj
 0002:00010354       ??_C@_02DAMOKLOI@28?$AA@   0000000140048354     main.obj
 0002:00010358       ??_C@_02CJNFJKKJ@29?$AA@   0000000140048358     main.obj
 0002:0001035c       ??_C@_02PJNFELNH@30?$AA@   000000014004835c     main.obj
 0002:00010360       ??_C@_02OAMOHKJG@31?$AA@   0000000140048360     main.obj
 0002:00010364       ??_C@_02MLODCJFF@32?$AA@   0000000140048364     main.obj
 0002:00010368       ??_C@_02NCPIBIBE@33?$AA@   0000000140048368     main.obj
 0002:0001036c       ??_C@_02JNLJIOND@34?$AA@   000000014004836c     main.obj
 0002:00010370       ??_C@_02IEKCLPJC@35?$AA@   0000000140048370     main.obj
 0002:00010374       ??_C@_02KPIPOMFB@36?$AA@   0000000140048374     main.obj
 0002:00010378       ??_C@_0CF@MANFGHNE@$?0?5jak?$LJ?5kwot?$LJ?5chcesz?5obstawi?f?5wy@ 0000000140048378     main.obj
 0002:000103a0       ??_C@_05OMMBNPEF@Masz?5?$AA@ 00000001400483a0     main.obj
 0002:000103a8       ??_C@_0CD@OGNPPNBN@Wprowadzi?$LDe?f?5nieprawid?$LDow?$LJ?5warto@ 00000001400483a8     main.obj
 0002:000103d0       ??_C@_0CF@LJDHNEHM@Nie?5mo?$LPesz?5obstawi?f?5zerowego?5zak@ 00000001400483d0     main.obj
 0002:000103f8       ??_C@_0BI@CMKDFAEK@Nie?5masz?5tyle?5pieni?jdzy?$AA@ 00000001400483f8     main.obj
 0002:00010410       ??_C@_0CJ@PMIHJCIC@Nie?5mo?$LPesz?5obstawi?f?5ujemn?$LJ?5kwot?$LJ@ 0000000140048410     main.obj
 0002:0001043c       ??_C@_02MGHEPNFN@?$AI?$AI?$AA@ 000000014004843c     main.obj
 0002:00010440       ??_C@_02KNHHEEKP@?5?5?$AA@ 0000000140048440     main.obj
 0002:00010448       ??_C@_0BC@IEHJKDDM@Wylosowano?5numer?5?$AA@ 0000000140048448     main.obj
 0002:0001045c       ??_C@_02KHOJGJKF@?4?5?$AA@ 000000014004845c     main.obj
 0002:00010460       ??_C@_02DEPNMBPN@$?4?$AA@  0000000140048460     main.obj
 0002:00010468       ??_C@_0CB@GINPHDN@Obstawi?$LDe?$JM?5poprawnie?0?5wygrywasz?5@ 0000000140048468     main.obj
 0002:00010490       ??_C@_0EF@MDKBMGPE@Obstawi?$LDe?$JM?5niepoprawnie?5lecz?5uda@ 0000000140048490     main.obj
 0002:000104d8       ??_C@_0CF@BAJKLKHM@Obstawi?$LDe?$JM?5niepoprawnie?0?5przegra@ 00000001400484d8     main.obj
 0002:00010500       ??_C@_0CM@BIICBBPD@Nie?5mo?$LPesz?5kontynuowa?f?0?5przegra?$LD@ 0000000140048500     main.obj
 0002:00010530       ??_C@_0CO@DOCNGCMI@$?0?5czy?5chcesz?5grac?5dalej?5?$CI?8t?8?9ta@ 0000000140048530     main.obj
 0002:00010560       ??_C@_0BA@KCLBOCHC@Na?5koncie?5masz?5?$AA@ 0000000140048560     main.obj
 0002:00010570       ??_C@_01PFHFFBPC@t?$AA@    0000000140048570     main.obj
 0002:00010574       ??_C@_03PFPKAEFD@tak?$AA@  0000000140048574     main.obj
 0002:00010578       ??_C@_03FFMIKLGN@Tak?$AA@  0000000140048578     main.obj
 0002:0001057c       ??_C@_03PIABMJCP@TAK?$AA@  000000014004857c     main.obj
 0002:00010580       ??_C@_03FKMOMPJO@nie?$AA@  0000000140048580     main.obj
 0002:00010584       ??_C@_03PKPMGAKA@Nie?$AA@  0000000140048584     main.obj
 0002:00010588       ??_C@_03FHDFACOC@NIE?$AA@  0000000140048588     main.obj
 0002:0001058c       ??_C@_04IBLEHOMF@?4wav?$AA@ 000000014004858c     main.obj
 0002:00010594       ??_C@_05MEKKEGFB@n?4wav?$AA@ 0000000140048594     main.obj
 0002:0001059c       ??_C@_05PNHGCFLK@p?4wav?$AA@ 000000014004859c     main.obj
 0002:000105a4       ??_C@_05LALOIELB@r?4wav?$AA@ 00000001400485a4     main.obj
 0002:000105ac       ??_C@_05LDGIIGCK@b?4wav?$AA@ 00000001400485ac     main.obj
 0002:000105b4       ??_C@_05ODKFBHJJ@g?4wav?$AA@ 00000001400485b4     main.obj
 0002:000105bc       ??_C@_05GFDBGFDH@d?4wav?$AA@ 00000001400485bc     main.obj
 0002:000105c4       ??_C@_01DICPFPGM@k?$AA@    00000001400485c4     main.obj
 0002:000105c8       ??_C@_01NOFIACDB@w?$AA@    00000001400485c8     main.obj
 0002:000105d0       ??_C@_0BB@KLDNCCFE@log_aktualny?4txt?$AA@ 00000001400485d0     main.obj
 0002:000105e8       ??_C@_0DJ@EFIKGJBI@Uruchomiono?5ponownie?5gr?j?5z?5wy?$LD?$LJc@ 00000001400485e8     main.obj
 0002:00010628       ??_C@_09LFKNBKJA@Posiadasz?$AA@ 0000000140048628     main.obj
 0002:00010638       ??_C@_0L@DAFLKCID@Wylosowano?$AA@ 0000000140048638     main.obj
 0002:00010648       ??_C@_0M@DIDIAOPI@?5Wylosowano?$AA@ 0000000140048648     main.obj
 0002:00010658       ??_C@_0BC@EAGHPBJK@Obstawiono?5zaklad?$AA@ 0000000140048658     main.obj
 0002:00010670       ??_C@_0O@POHKAIHJ@Obstawiono?5za?$AA@ 0000000140048670     main.obj
 0002:00010680       ??_C@_0BE@CILJHICG@Gra?5rozpoczeta?5dnia?$AA@ 0000000140048680     main.obj
 0002:00010698       ??_C@_0N@KHLIPMCA@?5o?5godzinie?5?$AA@ 0000000140048698     main.obj
 0002:000106a8       ??_C@_01LFCBOECM@?4?$AA@   00000001400486a8     main.obj
 0002:000106b0       ??_C@_0BF@EHKBBICH@Gra?5rozpoczeta?5dnia?5?$AA@ 00000001400486b0     main.obj
 0002:000106c8       ??_C@_01JLIPDDHJ@?3?$AA@   00000001400486c8     main.obj
 0002:000106d0       ??_C@_0BK@PLEOEKGI@Nowa?5gra?5rozpoczeta?5dnia?5?$AA@ 00000001400486d0     main.obj
 0002:000106f0       ??_C@_0BB@GJELGIOA@Efekty_d?$JPwi?jkowe?$AA@ 00000001400486f0     main.obj
 0002:00010708       ??_C@_0BN@JMMCOBLJ@Efekty_d?$JPwi?jkowe?1bankrut?4wav?$AA@ 0000000140048708     main.obj
 0002:00010728       ??_C@_0DC@DNDHBNPK@Rozpoczynam?5pobieranie?5brakuj?$LJcy@ 0000000140048728     main.obj
 0002:00010760       ??_C@_0FP@HCIMMKGN@https?3?1?1github?4com?1talez2709?1Rul@ 0000000140048760     main.obj
 0002:000107c0       ??_C@_0IB@GKCCNHLI@Brak?5plik?sw?5dla?5efekt?sw?5d?$JPwi?jkow@ 00000001400487c0     main.obj
 0002:00010848       ??_C@_0BO@OCGMENDH@Efekty_d?$JPwi?jkowe?1wygrana1?4wav?$AA@ 0000000140048848     main.obj
 0002:00010870       ??_C@_0GA@GDDMBFNB@https?3?1?1github?4com?1talez2709?1Rul@ 0000000140048870     main.obj
 0002:000108d0       ??_C@_0BO@GEPIDPJJ@Efekty_d?$JPwi?jkowe?1wygrana2?4wav?$AA@ 00000001400488d0     main.obj
 0002:000108f0       ??_C@_0GA@OFKIGHHP@https?3?1?1github?4com?1talez2709?1Rul@ 00000001400488f0     main.obj
 0002:00010950       ??_C@_0CF@PNMICDIM@Efekty_d?$JPwi?jkowe?1zwielokrotnenie@ 0000000140048950     main.obj
 0002:00010980       ??_C@_0GH@BAJDCEKO@https?3?1?1github?4com?1talez2709?1Rul@ 0000000140048980     main.obj
 0002:000109e8       ??_C@_0CA@KILAJOJF@Pobrano?5brakuj?$LJce?5pliki?5efekt?sw?$AA@ 00000001400489e8     main.obj
 0002:00010a08       ??_C@_05CMOJBPHN@G?$LDos?1?$AA@ 0000000140048a08     main.obj
 0002:00010a10       ??_C@_01IDAFKMJL@_?$AA@    0000000140048a10     main.obj
 0002:00010a14       ??_C@_01KMDKNFGN@?1?$AA@   0000000140048a14     main.obj
 0002:00010a20       ??_C@_0ED@KNLDKMLM@https?3?1?1github?4com?1talez2709?1Rul@ 0000000140048a20     main.obj
 0002:00010a64       ??_C@_04JLFAMLOH@G?$LDos?$AA@ 0000000140048a64     main.obj
 0002:00010a70       ??_C@_0DB@JAANGCNE@Rozpoczynam?5pobieranie?5brakuj?$LJcy@ 0000000140048a70     main.obj
 0002:00010aa4       ??_C@_04NCAGELPD@?4rar?$AA@ 0000000140048aa4     main.obj
 0002:00010ab0       ??_C@_0FC@DPJNGIHL@Brak?5plik?sw?5dla?5g?$LDosu?5oraz?5nie?5m@ 0000000140048ab0     main.obj
 0002:00010b08       ??_C@_07KIPBKJCE@win?4wav?$AA@ 0000000140048b08     main.obj
 0002:00010b10       ??_C@_0BP@KIMEIPBM@Pobrano?5brakuj?$LJce?5pliki?5g?$LDos?sw?$AA@ 0000000140048b10     main.obj
 0002:00010b30       ??_C@_0M@COFBHHKL@setting?4txt?$AA@ 0000000140048b30     main.obj
 0002:00010b40       ??_C@_0CC@GBEJJAFD@ilo?$JM?f_minimalna_obrot?sw_ruletki?5@ 0000000140048b40     main.obj
 0002:00010b68       ??_C@_0CI@KGOEKJAK@ilo?$JM?f_max_dodatkowych_obrot?sw_ru@ 0000000140048b68     main.obj
 0002:00010b90       ??_C@_0BP@NMHFMMDP@czas_przeskoku_kulki_szybki?550?$AA@ 0000000140048b90     main.obj
 0002:00010bb0       ??_C@_0BO@ELNOLLHD@czas_przeskoku_kulki_wolny?575?$AA@ 0000000140048bb0     main.obj
 0002:00010bd0       ??_C@_0BJ@OHAGCGBG@czas_przerwy_dzwi?jku?5500?$AA@ 0000000140048bd0     main.obj
 0002:00010bf0       ??_C@_0BJ@NJDCNPPC@styl_liczenia_wygranej?51?$AA@ 0000000140048bf0     main.obj
 0002:00010c10       ??_C@_0BG@DNDOADBI@kwota_pocz?$LJtkowa?51000?$AA@ 0000000140048c10     main.obj
 0002:00010c28       ??_C@_0BA@ILKGKHCK@stan_d?$JPwi?jk?sw?51?$AA@ 0000000140048c28     main.obj
 0002:00010c38       ??_C@_0BG@EMABALP@czy_kontynuowa?f_gr?j?51?$AA@ 0000000140048c38     main.obj
 0002:00010c50       ??_C@_0BG@COMBOMN@g?$LDos_odczytu_numeru?51?$AA@ 0000000140048c50     main.obj
 0002:00010c68       ??_C@_0BP@CJDLAIMM@g?$LDos_szybko?$JM?f_odczytu_numeru?54?$AA@ 0000000140048c68     main.obj
 0002:00010c88       ??_C@_0BD@MFIDEEIL@efekty_d?$JPwi?jkowe?51?$AA@ 0000000140048c88     main.obj
 0002:00010ca0       ??_C@_0GC@FGDMKFMP@Warto?$JM?f?5wolnego?5czasu?5przeskoku?5@ 0000000140048ca0     main.obj
 0002:00010d08       ??_C@_0BN@KMOICOCN@Ustawiam?5domy?$JMlne?5ustawienie?$AA@ 0000000140048d08     main.obj
 0002:00010d28       ??_C@_0DL@EDLBNLFA@Ilo?$JM?f?5minimalna?5obrot?sw?5ruletki?5@ 0000000140048d28     main.obj
 0002:00010d68       ??_C@_0DF@PACHBLM@Ilo?$JM?f?5max?5obrot?sw?5ruletki?5nie?5mo@ 0000000140048d68     main.obj
 0002:00010da0       ??_C@_0EG@FJFKONPC@Jedna?5z?5deklaracji?5w?5sprawie?5obr@ 0000000140048da0     main.obj
 0002:00010de8       ??_C@_0DH@EDACBMH@Styl?5liczeia?5wygranej?5przyjmuje?5@ 0000000140048de8     main.obj
 0002:00010e20       ??_C@_0DD@CJFGHGHP@Czas?5przerwy?5d?$JPwi?jku?5nie?5mo?$LPe?5by@ 0000000140048e20     main.obj
 0002:00010e58       ??_C@_0CP@ODEFLMCC@Kwota?5pocz?$LJtkowa?5nie?5mo?$LPe?5by?f?5mn@ 0000000140048e58     main.obj
 0002:00010e88       ??_C@_0CP@LNDFINPO@Stan?5d?$JPwi?jk?sw?5przyjmuje?5warto?$JMci@ 0000000140048e88     main.obj
 0002:00010eb8       ??_C@_0DJ@OKKJHGDF@Opcja?5kontynuowania?5gry?5przyjmuj@ 0000000140048eb8     main.obj
 0002:00010f00       ??_C@_0EB@BAPPBOHB@Opcja?5g?$LDos?5odczytu?5numeru?5przyjm@ 0000000140048f00     main.obj
 0002:00010f50       ??_C@_0ED@BNKOADPP@Opcja?5szybko?$JM?f?5g?$LDosu?5odczytu?5prz@ 0000000140048f50     main.obj
 0002:00010f98       ??_C@_0DC@HENMFLLO@Opcja?5efekty?5d?$JPwi?jkowe?5przyjmuje@ 0000000140048f98     main.obj
 0002:00010fd0       ??_C@_0EG@GKBLFIMF@Nie?5mo?$LPesz?5mie?f?5wy?$LD?$LJczonych?5d?$JPwi@ 0000000140048fd0     main.obj
 0002:00011018       ??_C@_0DF@LJEKJLPK@Nie?5mo?$LPesz?5mie?f?5wy?$LD?$LJczonych?5d?$JPwi@ 0000000140049018     main.obj
 0002:00011050       ??_C@_01EPMOAMKG@$?$AA@    0000000140049050     main.obj
 0002:00011058       ??_C@_0M@GPFIMODH@?5Wygrywasz?5?$AA@ 0000000140049058     main.obj
 0002:00011068       ??_C@_0M@GNFNLGIH@?5Posiadasz?5?$AA@ 0000000140049068     main.obj
 0002:00011078       ??_C@_0BL@LJEGNEAJ@?5Dostajesz?5polowe?5zak?$LDadu?5?$AA@ 0000000140049078     main.obj
 0002:00011098       ??_C@_0N@NPCHEJIF@?5Przegrales?5?$AA@ 0000000140049098     main.obj
 0002:000110a8       ??_C@_0BJ@GCHIFPGC@Ko?qczysz?5gr?j?5z?5wynikiem?5?$AA@ 00000001400490a8     main.obj
 0002:000110c8       ??_C@_0CL@DCKMMPCF@Gratuluje?5zwi?jkszy?$LDe?$JM?5sw?sj?5zas?sb@ 00000001400490c8     main.obj
 0002:000110f8       ??_C@_0BO@CAHFKDBP@?5krotnie?5sw?sj?5zas?sb?5finansowy?$AA@ 00000001400490f8     main.obj
 0002:00011118       ??_C@_0BH@GDCLDFHN@Gratuluje?5zwi?jkszy?$LDe?$JM?5?$AA@ 0000000140049118     main.obj
 0002:00011130       ??_C@_0P@LMKDJHDC@Obstawiono?5za?5?$AA@ 0000000140049130     main.obj
 0002:00011140       ??_C@_0BE@EKDPDLOA@?5Obstawiono?5zaklad?5?$AA@ 0000000140049140     main.obj
 0002:00011158       ??_C@_0BD@IOLLNBIB@Obstawiono?5zak?$LDad?5?$AA@ 0000000140049158     main.obj
 0002:00011170       ??_C@_0DA@EJNBAHOM@Kulka?5w?5grze?0?5zaczekaj?5na?5wyloso@ 0000000140049170     main.obj
 0002:000111a0       ??_C@_0N@CGNKGGIC@?5Wylosowano?5?$AA@ 00000001400491a0     main.obj
 0002:000111b0       ??_C@_0CA@FGPIEHEM@ilo?$JM?f_minimalna_obrot?sw_ruletki?$AA@ 00000001400491b0     main.obj
 0002:000111d0       ??_C@_0CG@KNEPJEMG@ilo?$JM?f_max_dodatkowych_obrot?sw_ru@ 00000001400491d0     main.obj
 0002:000111f8       ??_C@_0BM@MMKKMDHC@czas_przeskoku_kulki_szybki?$AA@ 00000001400491f8     main.obj
 0002:00011218       ??_C@_0BL@LHGCEKLG@czas_przeskoku_kulki_wolny?$AA@ 0000000140049218     main.obj
 0002:00011238       ??_C@_0BH@LAIPMCHF@styl_liczenia_wygranej?$AA@ 0000000140049238     main.obj
 0002:00011250       ??_C@_0BB@KJAOIHBF@kwota_pocz?$LJtkowa?$AA@ 0000000140049250     main.obj
 0002:00011268       ??_C@_0O@JDOJANCO@stan_d?$JPwi?jk?sw?$AA@ 0000000140049268     main.obj
 0002:00011278       ??_C@_0BE@MGBNNKM@czy_kontynuowa?f_gr?j?$AA@ 0000000140049278     main.obj
 0002:00011290       ??_C@_0BE@ILPCOCN@g?$LDos_odczytu_numeru?$AA@ 0000000140049290     main.obj
 0002:000112a8       ??_C@_0BN@ECEAENDF@g?$LDos_szybko?$JM?f_odczytu_numeru?$AA@ 00000001400492a8     main.obj
 0002:000112c8       ??_C@_0BB@EHOIFKBK@efekty_d?$JPwi?jkowe?$AA@ 00000001400492c8     main.obj
 0002:000112dc       ??_C@_06JGCGFIEG@polish?$AA@ 00000001400492dc     main.obj
 0002:000112e8       ??_C@_07NGJEAPOI@Rar?4exe?$AA@ 00000001400492e8     main.obj
 0002:000112f0       ??_C@_0L@LIFPHICI@Rar?4exe?5x?5?$AA@ 00000001400492f0     main.obj
 0002:00011300       ??_C@_0BG@BBKNOMOH@invalid?5map?$DMK?0?5T?$DO?5key?$AA@ 0000000140049300     main.obj
 0002:00011318       ??_C@_02BBAHNLBA@?$CFp?$AA@ 0000000140049318     main.obj
 0002:0001131c       ??_C@_02MDKMJEGG@eE?$AA@   000000014004931c     main.obj
 0002:00011320       ??_C@_02OOPEBDOJ@pP?$AA@   0000000140049320     main.obj
 0002:00011328       ??_C@_0BI@CFPLBAOH@invalid?5string?5position?$AA@ 0000000140049328     main.obj
 0002:00011340       ??_C@_0BA@JFNIOLAK@string?5too?5long?$AA@ 0000000140049340     main.obj
 0002:00011350       ??_C@_0BD@OLBABOEK@vector?$DMT?$DO?5too?5long?$AA@ 0000000140049350     main.obj
 0002:00011368       ??_C@_0BC@KBDMBKEH@deque?$DMT?$DO?5too?5long?$AA@ 0000000140049368     main.obj
 0002:00011380       ??_C@_0BE@JONHPENG@map?1set?$DMT?$DO?5too?5long?$AA@ 0000000140049380     main.obj
 0002:00011418       ??_8?$basic_istream@DU?$char_traits@D@std@@@std@@7B@ 0000000140049418     main.obj
 0002:00011420       ??_8?$basic_stringstream@DU?$char_traits@D@std@@V?$allocator@D@2@@std@@7B?$basic_ostream@DU?$char_traits@D@std@@@1@@ 0000000140049420     main.obj
 0002:00011430       ??_7?$basic_ofstream@DU?$char_traits@D@std@@@std@@6B@ 0000000140049430     main.obj
 0002:00011438       ??_8?$basic_fstream@DU?$char_traits@D@std@@@std@@7B?$basic_ostream@DU?$char_traits@D@std@@@1@@ 0000000140049438     main.obj
 0002:00011438       ??_8?$basic_ofstream@DU?$char_traits@D@std@@@std@@7B@ 0000000140049438     main.obj
 0002:00011448       ??_7?$basic_iostream@DU?$char_traits@D@std@@@std@@6B@ 0000000140049448     main.obj
 0002:00011458       ??_7?$basic_stringbuf@DU?$char_traits@D@std@@V?$allocator@D@2@@std@@6B@ 0000000140049458     main.obj
 0002:000114d8       ??_7?$basic_stringstream@DU?$char_traits@D@std@@V?$allocator@D@2@@std@@6B@ 00000001400494d8     main.obj
 0002:000114e8       ??_7?$basic_fstream@DU?$char_traits@D@std@@@std@@6B@ 00000001400494e8     main.obj
 0002:000114f0       ??_8?$basic_ifstream@DU?$char_traits@D@std@@@std@@7B@ 00000001400494f0     main.obj
 0002:000114f8       ??_8?$basic_ostream@DU?$char_traits@D@std@@@std@@7B@ 00000001400494f8     main.obj
 0002:00011500       ??_8?$basic_fstream@DU?$char_traits@D@std@@@std@@7B?$basic_istream@DU?$char_traits@D@std@@@1@@ 0000000140049500     main.obj
 0002:00011508       ??_8?$basic_stringstream@DU?$char_traits@D@std@@V?$allocator@D@2@@std@@7B?$basic_istream@DU?$char_traits@D@std@@@1@@ 0000000140049508     main.obj
 0002:00011518       ??_7?$basic_ifstream@DU?$char_traits@D@std@@@std@@6B@ 0000000140049518     main.obj
 0002:00012150       __real@4042800000000000    000000014004a150     main.obj
 0002:00012158       __real@4202a05f20000000    000000014004a158     main.obj
 0002:00012160       __xmm@000000000000000f0000000000000000 000000014004a160     main.obj
 0002:00012170       __xmm@7fffffffffffffff7fffffffffffffff 000000014004a170     main.obj
 0002:000121f0       _load_config_used          000000014004a1f0     LIBCMT:loadcfg.obj
 0002:000122f0       ??_R4_Locimp@locale@std@@6B@ 000000014004a2f0     libcpmt:locale0.obj
 0002:00012318       ??_R3_Locimp@locale@std@@8 000000014004a318     libcpmt:locale0.obj
 0002:00012330       ??_R2_Locimp@locale@std@@8 000000014004a330     libcpmt:locale0.obj
 0002:00012358       ??_R1A@?0A@EA@_Locimp@locale@std@@8 000000014004a358     libcpmt:locale0.obj
 0002:00012380       ??_R4bad_alloc@std@@6B@    000000014004a380     libcpmt:xthrow.obj
 0002:000123a8       ??_R3bad_alloc@std@@8      000000014004a3a8     libcpmt:xthrow.obj
 0002:000123c0       ??_R2bad_alloc@std@@8      000000014004a3c0     libcpmt:xthrow.obj
 0002:000123d8       ??_R1A@?0A@EA@bad_alloc@std@@8 000000014004a3d8     libcpmt:xthrow.obj
 0002:00012400       ??_R4logic_error@std@@6B@  000000014004a400     libcpmt:xthrow.obj
 0002:00012428       ??_R3logic_error@std@@8    000000014004a428     libcpmt:xthrow.obj
 0002:00012440       ??_R2logic_error@std@@8    000000014004a440     libcpmt:xthrow.obj
 0002:00012458       ??_R1A@?0A@EA@logic_error@std@@8 000000014004a458     libcpmt:xthrow.obj
 0002:00012480       ??_R4length_error@std@@6B@ 000000014004a480     libcpmt:xthrow.obj
 0002:000124a8       ??_R3length_error@std@@8   000000014004a4a8     libcpmt:xthrow.obj
 0002:000124c0       ??_R2length_error@std@@8   000000014004a4c0     libcpmt:xthrow.obj
 0002:000124e0       ??_R1A@?0A@EA@length_error@std@@8 000000014004a4e0     libcpmt:xthrow.obj
 0002:00012508       ??_R4out_of_range@std@@6B@ 000000014004a508     libcpmt:xthrow.obj
 0002:00012530       ??_R3out_of_range@std@@8   000000014004a530     libcpmt:xthrow.obj
 0002:00012548       ??_R2out_of_range@std@@8   000000014004a548     libcpmt:xthrow.obj
 0002:00012568       ??_R1A@?0A@EA@out_of_range@std@@8 000000014004a568     libcpmt:xthrow.obj
 0002:00012590       ??_R4type_info@@6B@        000000014004a590     LIBCMT:std_type_info_static.obj
 0002:000125b8       ??_R3type_info@@8          000000014004a5b8     LIBCMT:std_type_info_static.obj
 0002:000125d0       ??_R2type_info@@8          000000014004a5d0     LIBCMT:std_type_info_static.obj
 0002:000125e0       ??_R1A@?0A@EA@type_info@@8 000000014004a5e0     LIBCMT:std_type_info_static.obj
 0002:00012608       ??_R4bad_array_new_length@std@@6B@ 000000014004a608     LIBCMT:throw_bad_alloc.obj
 0002:00012630       ??_R3bad_array_new_length@std@@8 000000014004a630     LIBCMT:throw_bad_alloc.obj
 0002:00012648       ??_R2bad_array_new_length@std@@8 000000014004a648     LIBCMT:throw_bad_alloc.obj
 0002:00012668       ??_R1A@?0A@EA@bad_array_new_length@std@@8 000000014004a668     LIBCMT:throw_bad_alloc.obj
 0002:00012690       ??_R4bad_exception@std@@6B@ 000000014004a690     libvcruntime:frame.obj
 0002:000126b8       ??_R3bad_exception@std@@8  000000014004a6b8     libvcruntime:frame.obj
 0002:000126d0       ??_R2bad_exception@std@@8  000000014004a6d0     libvcruntime:frame.obj
 0002:000126e8       ??_R1A@?0A@EA@bad_exception@std@@8 000000014004a6e8     libvcruntime:frame.obj
 0002:00012710       ??_R3?$basic_iostream@DU?$char_traits@D@std@@@std@@8 000000014004a710     main.obj
 0002:00012728       ??_R3?$basic_istream@DU?$char_traits@D@std@@@std@@8 000000014004a728     main.obj
 0002:00012740       ??_R2?$basic_fstream@DU?$char_traits@D@std@@@std@@8 000000014004a740     main.obj
 0002:00012798       ??_R4exception@std@@6B@    000000014004a798     main.obj
 0002:000127c0       ??_R4?$basic_ofstream@DU?$char_traits@D@std@@@std@@6B@ 000000014004a7c0     main.obj
 0002:000127e8       ??_R2system_error@std@@8   000000014004a7e8     main.obj
 0002:00012810       ??_R1A@?0A@EA@system_error@std@@8 000000014004a810     main.obj
 0002:00012838       ??_R4?$basic_ostream@DU?$char_traits@D@std@@@std@@6B@ 000000014004a838     main.obj
 0002:00012860       ??_R3?$ctype@D@std@@8      000000014004a860     main.obj
 0002:00012878       ??_R3?$basic_ofstream@DU?$char_traits@D@std@@@std@@8 000000014004a878     main.obj
 0002:00012890       ??_R1A@?0A@EA@?$basic_istream@DU?$char_traits@D@std@@@std@@8 000000014004a890     main.obj
 0002:000128b8       ??_R1A@?0A@EA@_Iostream_error_category@std@@8 000000014004a8b8     main.obj
 0002:000128e0       ??_R2?$num_put@DV?$ostreambuf_iterator@DU?$char_traits@D@std@@@std@@@std@@8 000000014004a8e0     main.obj
 0002:00012908       ??_R4runtime_error@std@@6B@ 000000014004a908     main.obj
 0002:00012930       ??_R4_System_error@std@@6B@ 000000014004a930     main.obj
 0002:00012958       ??_R3_Facet_base@std@@8    000000014004a958     main.obj
 0002:00012970       ??_R3?$basic_ifstream@DU?$char_traits@D@std@@@std@@8 000000014004a970     main.obj
 0002:00012988       ??_R2?$basic_stringbuf@DU?$char_traits@D@std@@V?$allocator@D@2@@std@@8 000000014004a988     main.obj
 0002:000129a0       ??_R3_Crt_new_delete@std@@8 000000014004a9a0     main.obj
 0002:000129b8       ??_R1A@?0A@EA@runtime_error@std@@8 000000014004a9b8     main.obj
 0002:000129e0       ??_R2_System_error@std@@8  000000014004a9e0     main.obj
 0002:00012a00       ??_R2?$codecvt@DDU_Mbstatet@@@std@@8 000000014004aa00     main.obj
 0002:00012a30       ??_R1A@?0A@EA@?$basic_ifstream@DU?$char_traits@D@std@@@std@@8 000000014004aa30     main.obj
 0002:00012a58       ??_R3?$basic_fstream@DU?$char_traits@D@std@@@std@@8 000000014004aa58     main.obj
 0002:00012a70       ??_R17A@3EA@?$_Iosb@H@std@@8 000000014004aa70     main.obj
 0002:00012a98       ??_R1A@?0A@EA@?$basic_stringstream@DU?$char_traits@D@std@@V?$allocator@D@2@@std@@8 000000014004aa98     main.obj
 0002:00012ac0       ??_R1A@?0A@EA@?$basic_fstream@DU?$char_traits@D@std@@@std@@8 000000014004aac0     main.obj
 0002:00012ae8       ??_R1A@?0A@EA@exception@std@@8 000000014004aae8     main.obj
 0002:00012b10       ??_R4_Iostream_error_category@std@@6B@ 000000014004ab10     main.obj
 0002:00012b38       ??_R2?$basic_ofstream@DU?$char_traits@D@std@@@std@@8 000000014004ab38     main.obj
 0002:00012b68       ??_R4ios_base@std@@6B@     000000014004ab68     main.obj
 0002:00012b90       ??_R4system_error@std@@6B@ 000000014004ab90     main.obj
 0002:00012bb8       ??_R1A@?0A@EA@_Generic_error_category@std@@8 000000014004abb8     main.obj
 0002:00012be0       ??_R1A@?0A@EA@?$basic_streambuf@DU?$char_traits@D@std@@@std@@8 000000014004abe0     main.obj
 0002:00012c08       ??_R1A@?0A@EA@_Facet_base@std@@8 000000014004ac08     main.obj
 0002:00012c30       ??_R2?$basic_istream@DU?$char_traits@D@std@@@std@@8 000000014004ac30     main.obj
 0002:00012c58       ??_R3_System_error@std@@8  000000014004ac58     main.obj
 0002:00012c70       ??_R3_Iostream_error_category@std@@8 000000014004ac70     main.obj
 0002:00012c88       ??_R17?0A@EA@_Crt_new_delete@std@@8 000000014004ac88     main.obj
 0002:00012cb0       ??_R4?$basic_ios@DU?$char_traits@D@std@@@std@@6B@ 000000014004acb0     main.obj
 0002:00012cd8       ??_R4?$basic_iostream@DU?$char_traits@D@std@@@std@@6B@ 000000014004acd8     main.obj
 0002:00012d00       ??_R3?$basic_stringbuf@DU?$char_traits@D@std@@V?$allocator@D@2@@std@@8 000000014004ad00     main.obj
 0002:00012d18       ??_R2exception@std@@8      000000014004ad18     main.obj
 0002:00012d28       ??_R4failure@ios_base@std@@6B@ 000000014004ad28     main.obj
 0002:00012d50       ??_R2?$basic_ostream@DU?$char_traits@D@std@@@std@@8 000000014004ad50     main.obj
 0002:00012d78       ??_R3?$basic_ios@DU?$char_traits@D@std@@@std@@8 000000014004ad78     main.obj
 0002:00012d90       ??_R3_Generic_error_category@std@@8 000000014004ad90     main.obj
 0002:00012da8       ??_R2_Iostream_error_category@std@@8 000000014004ada8     main.obj
 0002:00012dc8       ??_R2error_category@std@@8 000000014004adc8     main.obj
 0002:00012dd8       ??_R1A@?0A@EA@facet@locale@std@@8 000000014004add8     main.obj
 0002:00012e00       ??_R2failure@ios_base@std@@8 000000014004ae00     main.obj
 0002:00012e30       ??_R4error_category@std@@6B@ 000000014004ae30     main.obj
 0002:00012e58       ??_R3failure@ios_base@std@@8 000000014004ae58     main.obj
 0002:00012e70       ??_R2codecvt_base@std@@8   000000014004ae70     main.obj
 0002:00012e98       ??_R2?$ctype@D@std@@8      000000014004ae98     main.obj
 0002:00012ec8       ??_R1BA@?0A@EA@?$basic_ostream@DU?$char_traits@D@std@@@std@@8 000000014004aec8     main.obj
 0002:00012ef0       ??_R1A@?0A@EA@codecvt_base@std@@8 000000014004aef0     main.obj
 0002:00012f18       ??_R4?$basic_ifstream@DU?$char_traits@D@std@@@std@@6B@ 000000014004af18     main.obj
 0002:00012f40       ??_R1A@?0A@EA@ios_base@std@@8 000000014004af40     main.obj
 0002:00012f68       ??_R3exception@std@@8      000000014004af68     main.obj
 0002:00012f80       ??_R1A@?0A@EA@?$basic_ostream@DU?$char_traits@D@std@@@std@@8 000000014004af80     main.obj
 0002:00012fa8       ??_R3codecvt_base@std@@8   000000014004afa8     main.obj
 0002:00012fc0       ??_R4?$basic_filebuf@DU?$char_traits@D@std@@@std@@6B@ 000000014004afc0     main.obj
 0002:00012fe8       ??_R1A@?0A@EA@failure@ios_base@std@@8 000000014004afe8     main.obj
 0002:00013010       ??_R2?$numpunct@D@std@@8   000000014004b010     main.obj
 0002:00013038       ??_R2?$basic_streambuf@DU?$char_traits@D@std@@@std@@8 000000014004b038     main.obj
 0002:00013048       ??_R1A@?0A@EA@?$_Iosb@H@std@@8 000000014004b048     main.obj
 0002:00013070       ??_R3facet@locale@std@@8   000000014004b070     main.obj
 0002:00013088       ??_R1A@?0A@EA@?$basic_stringbuf@DU?$char_traits@D@std@@V?$allocator@D@2@@std@@8 000000014004b088     main.obj
 0002:000130b0       ??_R3ctype_base@std@@8     000000014004b0b0     main.obj
 0002:000130c8       ??_R2_Generic_error_category@std@@8 000000014004b0c8     main.obj
 0002:000130e0       ??_R1A@?0A@EA@_System_error@std@@8 000000014004b0e0     main.obj
 0002:00013110       ??_R2?$basic_iostream@DU?$char_traits@D@std@@@std@@8 000000014004b110     main.obj
 0002:00013160       ??_R3error_category@std@@8 000000014004b160     main.obj
 0002:00013180       ??_R2?$basic_stringstream@DU?$char_traits@D@std@@V?$allocator@D@2@@std@@8 000000014004b180     main.obj
 0002:000131d8       ??_R1A@?0A@EA@_Crt_new_delete@std@@8 000000014004b1d8     main.obj
 0002:00013200       ??_R4?$basic_stringbuf@DU?$char_traits@D@std@@V?$allocator@D@2@@std@@6B@ 000000014004b200     main.obj
 0002:00013228       ??_R3?$codecvt@DDU_Mbstatet@@@std@@8 000000014004b228     main.obj
 0002:00013240       ??_R4?$basic_stringstream@DU?$char_traits@D@std@@V?$allocator@D@2@@std@@6B@ 000000014004b240     main.obj
 0002:00013268       ??_R1A@?0A@EA@?$basic_ofstream@DU?$char_traits@D@std@@@std@@8 000000014004b268     main.obj
 0002:00013290       ??_R4_Facet_base@std@@6B@  000000014004b290     main.obj
 0002:000132b8       ??_R1A@?0A@EA@?$basic_filebuf@DU?$char_traits@D@std@@@std@@8 000000014004b2b8     main.obj
 0002:000132e0       ??_R3?$numpunct@D@std@@8   000000014004b2e0     main.obj
 0002:000132f8       ??_R4?$numpunct@D@std@@6B@ 000000014004b2f8     main.obj
 0002:00013320       ??_R2runtime_error@std@@8  000000014004b320     main.obj
 0002:00013338       ??_R1A@A@3FA@?$basic_ios@DU?$char_traits@D@std@@@std@@8 000000014004b338     main.obj
 0002:00013360       ??_R3?$basic_filebuf@DU?$char_traits@D@std@@@std@@8 000000014004b360     main.obj
 0002:00013378       ??_R1A@?0A@EA@?$num_put@DV?$ostreambuf_iterator@DU?$char_traits@D@std@@@std@@@std@@8 000000014004b378     main.obj
 0002:000133a0       ??_R4?$basic_streambuf@DU?$char_traits@D@std@@@std@@6B@ 000000014004b3a0     main.obj
 0002:000133c8       ??_R2ios_base@std@@8       000000014004b3c8     main.obj
 0002:000133e0       ??_R4?$codecvt@DDU_Mbstatet@@@std@@6B@ 000000014004b3e0     main.obj
 0002:00013408       ??_R3?$basic_ostream@DU?$char_traits@D@std@@@std@@8 000000014004b408     main.obj
 0002:00013420       ??_R1A@?0A@EA@?$basic_iostream@DU?$char_traits@D@std@@@std@@8 000000014004b420     main.obj
 0002:00013448       ??_R1A@?0A@EA@ctype_base@std@@8 000000014004b448     main.obj
 0002:00013470       ??_R1A@?0A@EA@?$numpunct@D@std@@8 000000014004b470     main.obj
 0002:00013498       ??_R2_Crt_new_delete@std@@8 000000014004b498     main.obj
 0002:000134a8       ??_R1A@?0A@EA@?$ctype@D@std@@8 000000014004b4a8     main.obj
 0002:000134d0       ??_R3ios_base@std@@8       000000014004b4d0     main.obj
 0002:000134e8       ??_R2?$basic_filebuf@DU?$char_traits@D@std@@@std@@8 000000014004b4e8     main.obj
 0002:00013500       ??_R3?$basic_streambuf@DU?$char_traits@D@std@@@std@@8 000000014004b500     main.obj
 0002:00013518       ??_R3?$basic_stringstream@DU?$char_traits@D@std@@V?$allocator@D@2@@std@@8 000000014004b518     main.obj
 0002:00013530       ??_R2?$_Iosb@H@std@@8      000000014004b530     main.obj
 0002:00013540       ??_R3system_error@std@@8   000000014004b540     main.obj
 0002:00013558       ??_R1A@A@3EA@ios_base@std@@8 000000014004b558     main.obj
 0002:00013580       ??_R1A@?0A@EA@?$basic_ios@DU?$char_traits@D@std@@@std@@8 000000014004b580     main.obj
 0002:000135a8       ??_R4?$basic_fstream@DU?$char_traits@D@std@@@std@@6B@ 000000014004b5a8     main.obj
 0002:000135d0       ??_R2?$basic_ifstream@DU?$char_traits@D@std@@@std@@8 000000014004b5d0     main.obj
 0002:00013600       ??_R3?$_Iosb@H@std@@8      000000014004b600     main.obj
 0002:00013618       ??_R2_Facet_base@std@@8    000000014004b618     main.obj
 0002:00013628       ??_R2facet@locale@std@@8   000000014004b628     main.obj
 0002:00013648       ??_R17?0A@EA@?$_Iosb@H@std@@8 000000014004b648     main.obj
 0002:00013670       ??_R4?$ctype@D@std@@6B@    000000014004b670     main.obj
 0002:00013698       ??_R4?$basic_istream@DU?$char_traits@D@std@@@std@@6B@ 000000014004b698     main.obj
 0002:000136c0       ??_R3runtime_error@std@@8  000000014004b6c0     main.obj
 0002:000136d8       ??_R2?$basic_ios@DU?$char_traits@D@std@@@std@@8 000000014004b6d8     main.obj
 0002:000136f8       ??_R2ctype_base@std@@8     000000014004b6f8     main.obj
 0002:00013720       ??_R4?$num_put@DV?$ostreambuf_iterator@DU?$char_traits@D@std@@@std@@@std@@6B@ 000000014004b720     main.obj
 0002:00013748       ??_R1A@?0A@EA@?$codecvt@DDU_Mbstatet@@@std@@8 000000014004b748     main.obj
 0002:00013770       ??_R3?$num_put@DV?$ostreambuf_iterator@DU?$char_traits@D@std@@@std@@@std@@8 000000014004b770     main.obj
 0002:00013788       ??_R1A@?0A@EA@error_category@std@@8 000000014004b788     main.obj
 0002:00013b88       __rtc_iaa                  000000014004bb88     LIBCMT:_initsect_.obj
 0002:00013b90       __rtc_izz                  000000014004bb90     LIBCMT:_initsect_.obj
 0002:00013b98       __rtc_taa                  000000014004bb98     LIBCMT:_initsect_.obj
 0002:00013ba0       __rtc_tzz                  000000014004bba0     LIBCMT:_initsect_.obj
 0002:00018cd8       _TI2?AVbad_alloc@std@@     0000000140050cd8     libcpmt:xthrow.obj
 0002:00018cf8       _CTA2?AVbad_alloc@std@@    0000000140050cf8     libcpmt:xthrow.obj
 0002:00018d10       _CT??_R0?AVbad_alloc@std@@@8??0bad_alloc@std@@QEAA@AEBV01@@Z24 0000000140050d10     libcpmt:xthrow.obj
 0002:00018d38       _CT??_R0?AVlogic_error@std@@@8??0logic_error@std@@QEAA@AEBV01@@Z24 0000000140050d38     libcpmt:xthrow.obj
 0002:00018d60       _TI3?AVlength_error@std@@  0000000140050d60     libcpmt:xthrow.obj
 0002:00018d80       _CTA3?AVlength_error@std@@ 0000000140050d80     libcpmt:xthrow.obj
 0002:00018da0       _CT??_R0?AVlength_error@std@@@8??0length_error@std@@QEAA@AEBV01@@Z24 0000000140050da0     libcpmt:xthrow.obj
 0002:00018dc8       _TI3?AVout_of_range@std@@  0000000140050dc8     libcpmt:xthrow.obj
 0002:00018de8       _CTA3?AVout_of_range@std@@ 0000000140050de8     libcpmt:xthrow.obj
 0002:00018e08       _CT??_R0?AVout_of_range@std@@@8??0out_of_range@std@@QEAA@AEBV01@@Z24 0000000140050e08     libcpmt:xthrow.obj
 0002:00018e30       _TI3?AVbad_array_new_length@std@@ 0000000140050e30     LIBCMT:throw_bad_alloc.obj
 0002:00018e50       _CTA3?AVbad_array_new_length@std@@ 0000000140050e50     LIBCMT:throw_bad_alloc.obj
 0002:00018e70       _CT??_R0?AVbad_array_new_length@std@@@8??0bad_array_new_length@std@@QEAA@AEBV01@@Z24 0000000140050e70     LIBCMT:throw_bad_alloc.obj
 0002:00018e98       _TI2?AVbad_exception@std@@ 0000000140050e98     libvcruntime:frame.obj
 0002:00018eb8       _CTA2?AVbad_exception@std@@ 0000000140050eb8     libvcruntime:frame.obj
 0002:00018ed0       _CT??_R0?AVbad_exception@std@@@8??0bad_exception@std@@QEAA@AEBV01@@Z24 0000000140050ed0     libvcruntime:frame.obj
 0002:00018ef8       _CT??_R0?AVsystem_error@std@@@8??0system_error@std@@QEAA@AEBV01@@Z40 0000000140050ef8     main.obj
 0002:00018f20       _TI2?AVruntime_error@std@@ 0000000140050f20     main.obj
 0002:00018f40       _CTA5?AVfailure@ios_base@std@@ 0000000140050f40     main.obj
 0002:00018f70       _CT??_R0?AVruntime_error@std@@@8??0runtime_error@std@@QEAA@AEBV01@@Z24 0000000140050f70     main.obj
 0002:00018f98       _CTA2?AVruntime_error@std@@ 0000000140050f98     main.obj
 0002:00018fb0       _CT??_R0?AV_System_error@std@@@8??0_System_error@std@@QEAA@AEBV01@@Z40 0000000140050fb0     main.obj
 0002:00018fd8       _TI5?AVfailure@ios_base@std@@ 0000000140050fd8     main.obj
 0002:00018ff8       _CT??_R0?AVfailure@ios_base@std@@@8??0failure@ios_base@std@@QEAA@AEBV012@@Z40 0000000140050ff8     main.obj
 0002:00019020       _CT??_R0?AVexception@std@@@8??0exception@std@@QEAA@AEBV01@@Z24 0000000140051020     main.obj
 0002:00019044       __IMPORT_DESCRIPTOR_WINMM  0000000140051044     winmm:WINMM.dll
 0002:00019058       __IMPORT_DESCRIPTOR_KERNEL32 0000000140051058     kernel32:KERNEL32.dll
 0002:0001906c       __IMPORT_DESCRIPTOR_USER32 000000014005106c     user32:USER32.dll
 0002:00019080       __IMPORT_DESCRIPTOR_urlmon 0000000140051080     urlmon:urlmon.dll
 0002:00019094       __NULL_IMPORT_DESCRIPTOR   0000000140051094     winmm:WINMM.dll
 0003:00000004       ?_Sync@ios_base@std@@0_NA  0000000140052004     libcpmt:ios.obj
 0003:00000020       ?_PJP_CPP_Copyright@@3PADA 0000000140052020     libcpmt:iosptrs.obj
 0003:00000080       __scrt_native_dllmain_reason 0000000140052080     LIBCMT:utility.obj
 0003:00000088       __security_cookie          0000000140052088     LIBCMT:gs_cookie.obj
 0003:00000090       __security_cookie_complement 0000000140052090     LIBCMT:gs_cookie.obj
 0003:00000098       _fltused                   0000000140052098     LIBCMT:fltused.obj
 0003:000000a0       __isa_available            00000001400520a0     LIBCMT:_cpu_disp_.obj
 0003:000000a4       __isa_enabled              00000001400520a4     LIBCMT:_cpu_disp_.obj
 0003:000000a8       __memcpy_nt_iters          00000001400520a8     LIBCMT:_cpu_disp_.obj
 0003:000000b0       __scrt_default_matherr     00000001400520b0     LIBCMT:matherr.obj
 0003:000000d0       _iob                       00000001400520d0     libucrt:_file.obj
 0003:000001d8       __acrt_lconv_static_decimal 00000001400521d8     libucrt:localeconv.obj
 0003:000001dc       __acrt_lconv_static_W_decimal 00000001400521dc     libucrt:localeconv.obj
 0003:000001e0       __acrt_lconv_c             00000001400521e0     libucrt:localeconv.obj
 0003:00000278       __acrt_lconv               0000000140052278     libucrt:localeconv.obj
 0003:00000288       _pctype                    0000000140052288     libucrt:ctype.obj
 0003:00000290       _pwctype                   0000000140052290     libucrt:ctype.obj
 0003:00000298       __abort_behavior           0000000140052298     libucrt:abort.obj
 0003:000002ac       __globallocalestatus       00000001400522ac     libucrt:glstatus.obj
 0003:000002b0       __badioinfo                00000001400522b0     libucrt:ioinit.obj
 0003:000002f0       __mb_cur_max               00000001400522f0     libucrt:nlsdata.obj
 0003:00000300       __acrt_initial_locale_data 0000000140052300     libucrt:nlsdata.obj
 0003:00000458       __acrt_initial_locale_pointers 0000000140052458     libucrt:nlsdata.obj
 0003:00000468       __acrt_wide_c_locale_string 0000000140052468     libucrt:nlsdata.obj
 0003:00000810       __acrt_initial_multibyte_data 0000000140052810     libucrt:mbctype.obj
 0003:00000a40       _lookuptrailbytes          0000000140052a40     libucrt:read.obj
 0003:00000b50       ?EfektyKompletne@@3_NA     0000000140052b50     main.obj
 0003:00000b51       ?G³osyKompletne@@3_NA      0000000140052b51     main.obj
 0003:00000b58       ?G³os@@3V?$basic_string@DU?$char_traits@D@std@@V?$allocator@D@2@@std@@A 0000000140052b58     main.obj
 0003:00000b78       ?Ustawienia@@3US_Ustawienia@@A 0000000140052b78     main.obj
 0003:00000ba0       ??_R0?AV_Locimp@locale@std@@@8 0000000140052ba0     libcpmt:locale0.obj
 0003:00000bd0       ??_R0?AVbad_alloc@std@@@8  0000000140052bd0     libcpmt:xthrow.obj
 0003:00000bf8       ??_R0?AVlogic_error@std@@@8 0000000140052bf8     libcpmt:xthrow.obj
 0003:00000c20       ??_R0?AVlength_error@std@@@8 0000000140052c20     libcpmt:xthrow.obj
 0003:00000c48       ??_R0?AVout_of_range@std@@@8 0000000140052c48     libcpmt:xthrow.obj
 0003:00000c70       ??_R0?AVtype_info@@@8      0000000140052c70     LIBCMT:std_type_info_static.obj
 0003:00000c90       ??_R0?AVbad_array_new_length@std@@@8 0000000140052c90     LIBCMT:throw_bad_alloc.obj
 0003:00000cc0       ??_R0?AVbad_exception@std@@@8 0000000140052cc0     libvcruntime:frame.obj
 0003:00000cf0       ??_R0?AV?$basic_stringstream@DU?$char_traits@D@std@@V?$allocator@D@2@@std@@@8 0000000140052cf0     main.obj
 0003:00000d48       ??_R0?AVfailure@ios_base@std@@@8 0000000140052d48     main.obj
 0003:00000d80       ??_R0?AV?$basic_filebuf@DU?$char_traits@D@std@@@std@@@8 0000000140052d80     main.obj
 0003:00000dc8       ??_R0?AVruntime_error@std@@@8 0000000140052dc8     main.obj
 0003:00000df0       ??_R0?AV?$codecvt@DDU_Mbstatet@@@std@@@8 0000000140052df0     main.obj
 0003:00000e30       ??_R0?AV?$basic_fstream@DU?$char_traits@D@std@@@std@@@8 0000000140052e30     main.obj
 0003:00000e80       ??_R0?AV?$basic_ifstream@DU?$char_traits@D@std@@@std@@@8 0000000140052e80     main.obj
 0003:00000ed0       ??_R0?AV?$basic_stringbuf@DU?$char_traits@D@std@@V?$allocator@D@2@@std@@@8 0000000140052ed0     main.obj
 0003:00000f28       ??_R0?AVios_base@std@@@8   0000000140052f28     main.obj
 0003:00000f50       ??_R0?AVerror_category@std@@@8 0000000140052f50     main.obj
 0003:00000f80       ??_R0?AV?$ctype@D@std@@@8  0000000140052f80     main.obj
 0003:00000fa8       ??_R0?AVsystem_error@std@@@8 0000000140052fa8     main.obj
 0003:00000fd0       ??_R0?AV?$basic_iostream@DU?$char_traits@D@std@@@std@@@8 0000000140052fd0     main.obj
 0003:00001018       ??_R0?AVcodecvt_base@std@@@8 0000000140053018     main.obj
 0003:00001040       ??_R0?AV_Facet_base@std@@@8 0000000140053040     main.obj
 0003:00001068       ??_R0?AV_Generic_error_category@std@@@8 0000000140053068     main.obj
 0003:000010a0       ??_R0?AU_Crt_new_delete@std@@@8 00000001400530a0     main.obj
 0003:000010d0       ??_R0?AV?$_Iosb@H@std@@@8  00000001400530d0     main.obj
 0003:00001100       ??_R0?AV?$basic_ofstream@DU?$char_traits@D@std@@@std@@@8 0000000140053100     main.obj
 0003:00001148       ??_R0?AV?$numpunct@D@std@@@8 0000000140053148     main.obj
 0003:00001170       ??_R0?AV?$basic_streambuf@DU?$char_traits@D@std@@@std@@@8 0000000140053170     main.obj
 0003:000011b8       ??_R0?AV_Iostream_error_category@std@@@8 00000001400531b8     main.obj
 0003:000011f0       ??_R0?AUctype_base@std@@@8 00000001400531f0     main.obj
 0003:00001220       ??_R0?AV?$basic_istream@DU?$char_traits@D@std@@@std@@@8 0000000140053220     main.obj
 0003:00001268       ??_R0?AV?$basic_ios@DU?$char_traits@D@std@@@std@@@8 0000000140053268     main.obj
 0003:000012a8       ??_R0?AVfacet@locale@std@@@8 00000001400532a8     main.obj
 0003:000012d0       ??_R0?AV?$basic_ostream@DU?$char_traits@D@std@@@std@@@8 00000001400532d0     main.obj
 0003:00001318       ??_R0?AV_System_error@std@@@8 0000000140053318     main.obj
 0003:00001340       ??_R0?AVexception@std@@@8  0000000140053340     main.obj
 0003:00001370       ??_R0?AV?$num_put@DV?$ostreambuf_iterator@DU?$char_traits@D@std@@@std@@@std@@@8 0000000140053370     main.obj
 0003:00001530       ?cout@std@@3V?$basic_ostream@DU?$char_traits@D@std@@@1@A 0000000140053530     libcpmt:cout.obj
 0003:00001640       ?_Id_cnt@id@locale@std@@0HA 0000000140053640     libcpmt:locale0.obj
 0003:00001648       ?_Clocptr@_Locimp@locale@std@@0PEAV123@EA 0000000140053648     libcpmt:locale0.obj
 0003:00001658       ?id@?$ctype@_W@std@@2V0locale@2@A 0000000140053658     libcpmt:locale0.obj
 0003:00001660       ?id@?$ctype@D@std@@2V0locale@2@A 0000000140053660     libcpmt:locale0.obj
 0003:00001668       ?id@?$codecvt@GDU_Mbstatet@@@std@@2V0locale@2@A 0000000140053668     libcpmt:locale0.obj
 0003:00001670       ?id@?$ctype@G@std@@2V0locale@2@A 0000000140053670     libcpmt:locale0.obj
 0003:00001688       ?id@?$codecvt@_WDU_Mbstatet@@@std@@2V0locale@2@A 0000000140053688     libcpmt:locale0.obj
 0003:00001750       ?cin@std@@3V?$basic_istream@DU?$char_traits@D@std@@@1@A 0000000140053750     libcpmt:cin.obj
 0003:000017d0       ?_Index@ios_base@std@@0HA  00000001400537d0     libcpmt:ios.obj
 0003:00001840       __encodedKERNEL32Functions 0000000140053840     libcpmt:winapisupp.obj
 0003:00001980       ?_Ptr_cin@std@@3PEAV?$basic_istream@DU?$char_traits@D@std@@@1@EA 0000000140053980     libcpmt:iosptrs.obj
 0003:00001988       ?_Ptr_cout@std@@3PEAV?$basic_ostream@DU?$char_traits@D@std@@@1@EA 0000000140053988     libcpmt:iosptrs.obj
 0003:00001990       ?_Ptr_cerr@std@@3PEAV?$basic_ostream@DU?$char_traits@D@std@@@1@EA 0000000140053990     libcpmt:iosptrs.obj
 0003:00001998       ?_Ptr_clog@std@@3PEAV?$basic_ostream@DU?$char_traits@D@std@@@1@EA 0000000140053998     libcpmt:iosptrs.obj
 0003:000019a0       ?_Ptr_wcin@std@@3PEAV?$basic_istream@_WU?$char_traits@_W@std@@@1@EA 00000001400539a0     libcpmt:iosptrs.obj
 0003:000019a8       ?_Ptr_wcout@std@@3PEAV?$basic_ostream@_WU?$char_traits@_W@std@@@1@EA 00000001400539a8     libcpmt:iosptrs.obj
 0003:000019b0       ?_Ptr_wcerr@std@@3PEAV?$basic_ostream@_WU?$char_traits@_W@std@@@1@EA 00000001400539b0     libcpmt:iosptrs.obj
 0003:000019b8       ?_Ptr_wclog@std@@3PEAV?$basic_ostream@_WU?$char_traits@_W@std@@@1@EA 00000001400539b8     libcpmt:iosptrs.obj
 0003:00001a18       ?id@?$num_get@DV?$istreambuf_iterator@DU?$char_traits@D@std@@@std@@@std@@2V0locale@2@A 0000000140053a18     libcpmt:locale.obj
 0003:00001a20       ?id@?$time_put@_WV?$ostreambuf_iterator@_WU?$char_traits@_W@std@@@std@@@std@@2V0locale@2@A 0000000140053a20     libcpmt:wlocale.obj
 0003:00001a28       ?id@?$num_get@_WV?$istreambuf_iterator@_WU?$char_traits@_W@std@@@std@@@std@@2V0locale@2@A 0000000140053a28     libcpmt:wlocale.obj
 0003:00001a30       ?id@?$num_put@_WV?$ostreambuf_iterator@_WU?$char_traits@_W@std@@@std@@@std@@2V0locale@2@A 0000000140053a30     libcpmt:wlocale.obj
 0003:00001a38       ?id@?$numpunct@_W@std@@2V0locale@2@A 0000000140053a38     libcpmt:wlocale.obj
 0003:00001a40       ?id@?$collate@_W@std@@2V0locale@2@A 0000000140053a40     libcpmt:wlocale.obj
 0003:00001a48       ?id@?$messages@_W@std@@2V0locale@2@A 0000000140053a48     libcpmt:wlocale.obj
 0003:00001a50       ?id@?$money_get@_WV?$istreambuf_iterator@_WU?$char_traits@_W@std@@@std@@@std@@2V0locale@2@A 0000000140053a50     libcpmt:wlocale.obj
 0003:00001a58       ?id@?$money_put@_WV?$ostreambuf_iterator@_WU?$char_traits@_W@std@@@std@@@std@@2V0locale@2@A 0000000140053a58     libcpmt:wlocale.obj
 0003:00001a60       ?id@?$moneypunct@_W$0A@@std@@2V0locale@2@A 0000000140053a60     libcpmt:wlocale.obj
 0003:00001a68       ?id@?$moneypunct@_W$00@std@@2V0locale@2@A 0000000140053a68     libcpmt:wlocale.obj
 0003:00001a70       ?id@?$time_get@_WV?$istreambuf_iterator@_WU?$char_traits@_W@std@@@std@@@std@@2V0locale@2@A 0000000140053a70     libcpmt:wlocale.obj
 0003:00001a78       ?id@?$num_get@GV?$istreambuf_iterator@GU?$char_traits@G@std@@@std@@@std@@2V0locale@2@A 0000000140053a78     libcpmt:wlocale.obj
 0003:00001a80       ?id@?$num_put@GV?$ostreambuf_iterator@GU?$char_traits@G@std@@@std@@@std@@2V0locale@2@A 0000000140053a80     libcpmt:wlocale.obj
 0003:00001a88       ?id@?$numpunct@G@std@@2V0locale@2@A 0000000140053a88     libcpmt:wlocale.obj
 0003:00001a90       ?id@?$collate@G@std@@2V0locale@2@A 0000000140053a90     libcpmt:wlocale.obj
 0003:00001a98       ?id@?$messages@G@std@@2V0locale@2@A 0000000140053a98     libcpmt:wlocale.obj
 0003:00001aa0       ?id@?$money_get@GV?$istreambuf_iterator@GU?$char_traits@G@std@@@std@@@std@@2V0locale@2@A 0000000140053aa0     libcpmt:wlocale.obj
 0003:00001aa8       ?id@?$money_put@GV?$ostreambuf_iterator@GU?$char_traits@G@std@@@std@@@std@@2V0locale@2@A 0000000140053aa8     libcpmt:wlocale.obj
 0003:00001ab0       ?id@?$moneypunct@G$0A@@std@@2V0locale@2@A 0000000140053ab0     libcpmt:wlocale.obj
 0003:00001ab8       ?id@?$moneypunct@G$00@std@@2V0locale@2@A 0000000140053ab8     libcpmt:wlocale.obj
 0003:00001ac0       ?id@?$time_get@GV?$istreambuf_iterator@GU?$char_traits@G@std@@@std@@@std@@2V0locale@2@A 0000000140053ac0     libcpmt:wlocale.obj
 0003:00001ac8       ?id@?$time_put@GV?$ostreambuf_iterator@GU?$char_traits@G@std@@@std@@@std@@2V0locale@2@A 0000000140053ac8     libcpmt:wlocale.obj
 0003:00001ad0       ?id@?$collate@D@std@@2V0locale@2@A 0000000140053ad0     libcpmt:xlocale.obj
 0003:00001ad8       ?id@?$messages@D@std@@2V0locale@2@A 0000000140053ad8     libcpmt:xlocale.obj
 0003:00001ae0       ?id@?$money_get@DV?$istreambuf_iterator@DU?$char_traits@D@std@@@std@@@std@@2V0locale@2@A 0000000140053ae0     libcpmt:xlocale.obj
 0003:00001ae8       ?id@?$money_put@DV?$ostreambuf_iterator@DU?$char_traits@D@std@@@std@@@std@@2V0locale@2@A 0000000140053ae8     libcpmt:xlocale.obj
 0003:00001af0       ?id@?$moneypunct@D$0A@@std@@2V0locale@2@A 0000000140053af0     libcpmt:xlocale.obj
 0003:00001af8       ?id@?$moneypunct@D$00@std@@2V0locale@2@A 0000000140053af8     libcpmt:xlocale.obj
 0003:00001b00       ?id@?$time_get@DV?$istreambuf_iterator@DU?$char_traits@D@std@@@std@@@std@@2V0locale@2@A 0000000140053b00     libcpmt:xlocale.obj
 0003:00001b08       ?id@?$time_put@DV?$ostreambuf_iterator@DU?$char_traits@D@std@@@std@@@std@@2V0locale@2@A 0000000140053b08     libcpmt:xlocale.obj
 0003:00001b10       __scrt_current_native_startup_state 0000000140053b10     LIBCMT:utility.obj
 0003:00001b18       __scrt_native_startup_lock 0000000140053b18     LIBCMT:utility.obj
 0003:000020d0       __favor                    00000001400540d0     LIBCMT:_cpu_disp_.obj
 0003:000020d4       __scrt_debugger_hook_flag  00000001400540d4     LIBCMT:utility_desktop.obj
 0003:000020e0       ?__type_info_root_node@@3U__type_info_node@@A 00000001400540e0     LIBCMT:tncleanup.obj
 0003:000020f0       ?_OptionsStorage@?1??__local_stdio_scanf_options@@9@4_KA 00000001400540f0     LIBCMT:default_local_stdio_options.obj
 0003:000020f8       ?__WinRTOutOfMemoryExceptionCallback@@3P6APEAXXZEA 00000001400540f8     libvcruntime:ehhelpers.obj
 0003:00002178       __pPurecall                0000000140054178     libvcruntime:purevirt_data.obj
 0003:000021f0       ?pArgList@UnDecorator@@0PEAVReplicator@@EA 00000001400541f0     libvcruntime:undname.obj
 0003:000021f8       ?pZNameList@UnDecorator@@0PEAVReplicator@@EA 00000001400541f8     libvcruntime:undname.obj
 0003:00002200       ?pTemplateArgList@UnDecorator@@0PEAVReplicator@@EA 0000000140054200     libvcruntime:undname.obj
 0003:00002208       ?gName@UnDecorator@@0PEBDEB 0000000140054208     libvcruntime:undname.obj
 0003:00002210       ?name@UnDecorator@@0PEBDEB 0000000140054210     libvcruntime:undname.obj
 0003:00002218       ?outputString@UnDecorator@@0PEADEA 0000000140054218     libvcruntime:undname.obj
 0003:00002220       ?maxStringLength@UnDecorator@@0HA 0000000140054220     libvcruntime:undname.obj
 0003:00002224       ?disableFlags@UnDecorator@@0KA 0000000140054224     libvcruntime:undname.obj
 0003:00002228       ?fExplicitTemplateParams@UnDecorator@@0_NA 0000000140054228     libvcruntime:undname.obj
 0003:00002229       ?fGetTemplateArgumentList@UnDecorator@@0_NA 0000000140054229     libvcruntime:undname.obj
 0003:00002230       ?m_pGetParameter@UnDecorator@@0P6APEADJ@ZEA 0000000140054230     libvcruntime:undname.obj
 0003:00002268       _nstream                   0000000140054268     libucrt:_file.obj
 0003:00002270       __piob                     0000000140054270     libucrt:_file.obj
 0003:00002278       _cflush                    0000000140054278     libucrt:_file.obj
 0003:0000227c       __acrt_lconv_static_null   000000014005427c     libucrt:localeconv.obj
 0003:00002280       __acrt_lconv_static_W_null 0000000140054280     libucrt:localeconv.obj
 0003:000024e0       ?c_exit_complete@?1???R<lambda_6e4b09c48022b2350581041d5f6b0c4c>@@QEBA@XZ@4_NA 00000001400544e0     libucrt:exit.obj
 0003:000025f8       _environ_table             00000001400545f8     libucrt:environment_initialization.obj
 0003:00002600       _wenviron_table            0000000140054600     libucrt:environment_initialization.obj
 0003:00002608       __dcrt_initial_wide_environment 0000000140054608     libucrt:environment_initialization.obj
 0003:00002610       __dcrt_initial_narrow_environment 0000000140054610     libucrt:environment_initialization.obj
 0003:00002618       __acrt_atexit_table        0000000140054618     libucrt:onexit.obj
 0003:00002630       __acrt_at_quick_exit_table 0000000140054630     libucrt:onexit.obj
 0003:00002658       __argc                     0000000140054658     libucrt:argv_data.obj
 0003:00002660       __argv                     0000000140054660     libucrt:argv_data.obj
 0003:00002668       __wargv                    0000000140054668     libucrt:argv_data.obj
 0003:00002670       _acmdln                    0000000140054670     libucrt:argv_data.obj
 0003:00002678       _wcmdln                    0000000140054678     libucrt:argv_data.obj
 0003:00002680       _pgmptr                    0000000140054680     libucrt:argv_data.obj
 0003:00002688       __acrt_locale_changed_data 0000000140054688     libucrt:wsetlocale.obj
 0003:00002690       _commode                   0000000140054690     libucrt:ncommode.obj
 0003:00002860       __pioinfo                  0000000140054860     libucrt:ioinit.obj
 0003:00002c60       _nhandle                   0000000140054c60     libucrt:ioinit.obj
 0003:00002c70       __acrt_stdout_buffer       0000000140054c70     libucrt:_sftbuf.obj
 0003:00002c78       __acrt_stderr_buffer       0000000140054c78     libucrt:_sftbuf.obj
 0003:00002c80       __acrt_current_locale_data 0000000140054c80     libucrt:nlsdata.obj
 0003:00002c88       __acrt_heap                0000000140054c88     libucrt:heap_handle.obj
 0003:00002cb0       __fma3_is_available        0000000140054cb0     libucrt:fma3_available.obj
 0003:00002cb4       __use_fma3_lib             0000000140054cb4     libucrt:fma3_available.obj
 0003:00002cb8       ?_timezone@@3V?$dual_state_global@J@__crt_state_management@@A 0000000140054cb8     libucrt:timeset.obj
 0003:00002cbc       ?_daylight@@3V?$dual_state_global@H@__crt_state_management@@A 0000000140054cbc     libucrt:timeset.obj
 0003:00002cc0       ?_dstbias@@3V?$dual_state_global@J@__crt_state_management@@A 0000000140054cc0     libucrt:timeset.obj
 0003:00002d90       _mbctype                   0000000140054d90     libucrt:mbctype.obj
 0003:00002d98       _mbcasemap                 0000000140054d98     libucrt:mbctype.obj
 0003:00002da0       __acrt_current_multibyte_data 0000000140054da0     libucrt:mbctype.obj
 0003:00002db0       _fmode                     0000000140054db0     libucrt:txtmode.obj
 0003:00002db4       _umaskval                  0000000140054db4     libucrt:umask.obj
 0003:00002db8       ?_Psave@?$_Facetptr@V?$codecvt@DDU_Mbstatet@@@std@@@std@@2PEBVfacet@locale@2@EB 0000000140054db8     main.obj
 0003:00002dc0       ?_Psave@?$_Facetptr@V?$numpunct@D@std@@@std@@2PEBVfacet@locale@2@EB 0000000140054dc0     main.obj
 0003:00002dc8       ?_Psave@?$_Facetptr@V?$num_put@DV?$ostreambuf_iterator@DU?$char_traits@D@std@@@std@@@std@@@std@@2PEBVfacet@locale@2@EB 0000000140054dc8     main.obj
 0003:00002dd0       ?_Psave@?$_Facetptr@V?$ctype@D@std@@@std@@2PEBVfacet@locale@2@EB 0000000140054dd0     main.obj
 0003:00002dd8       ?Czas@@3U_SYSTEMTIME@@A    0000000140054dd8     main.obj
 0003:00002de8       ?Nazwa_g³osu@@3V?$vector@V?$basic_string@DU?$char_traits@D@std@@V?$allocator@D@2@@std@@V?$allocator@V?$basic_string@DU?$char_traits@D@std@@V?$allocator@D@2@@std@@@2@@std@@A 0000000140054de8     main.obj
 0003:00002e38       ?_Flag@?1???$_Immortalize@V_Iostream_error_category@std@@@std@@YAAEAV_Iostream_error_category@1@XZ@4PEAXEA 0000000140054e38     main.obj
 0003:00002e40       ?id@?$num_put@DV?$ostreambuf_iterator@DU?$char_traits@D@std@@@std@@@std@@2V0locale@2@A 0000000140054e40     main.obj
 0003:00002e48       ?_Stinit@?1??_Init@?$basic_filebuf@DU?$char_traits@D@std@@@std@@IEAAXPEAU_iobuf@@W4_Initfl@23@@Z@4U_Mbstatet@@A 0000000140054e48     main.obj
 0003:00002e50       ?_Storage@?1???$_Immortalize@V_Iostream_error_category@std@@@std@@YAAEAV_Iostream_error_category@1@XZ@4T?$_Align_type@N$0BA@@1@A 0000000140054e50     main.obj
 0003:00002e60       ?_OptionsStorage@?1??__local_stdio_printf_options@@9@4_KA 0000000140054e60     main.obj
 0003:00002e68       ?id@?$numpunct@D@std@@2V0locale@2@A 0000000140054e68     main.obj
 0003:00002e70       ?id@?$codecvt@DDU_Mbstatet@@@std@@2V0locale@2@A 0000000140054e70     main.obj
 0003:00002e78       __dyn_tls_dtor_callback    0000000140054e78     <common>
 0003:00002e80       __dyn_tls_init_callback    0000000140054e80     <common>
 0003:00002e88       __scrt_ucrt_dll_is_in_use  0000000140054e88     <common>

 entry point at        0001:00015a78

 Static symbols

 0000:fd7bd000       .debug$S                   0000000140000000     kernel32:KERNEL32.dll
 0000:fd7bd000       .debug$S                   0000000140000000     kernel32:KERNEL32.dll
 0000:fd7bd000       .debug$S                   0000000140000000     urlmon:urlmon.dll
 0000:fd7bd000       .debug$S                   0000000140000000     kernel32:KERNEL32.dll
 0000:fd7bd000       .debug$S                   0000000140000000     winmm:WINMM.dll
 0000:fd7bd000       .debug$S                   0000000140000000     kernel32:KERNEL32.dll
 0000:fd7bd000       .debug$S                   0000000140000000     kernel32:KERNEL32.dll
 0000:fd7bd000       .debug$S                   0000000140000000     kernel32:KERNEL32.dll
 0000:fd7bd000       .debug$S                   0000000140000000     kernel32:KERNEL32.dll
 0000:fd7bd000       .debug$S                   0000000140000000     kernel32:KERNEL32.dll
 0000:fd7bd000       .debug$S                   0000000140000000     kernel32:KERNEL32.dll
 0000:fd7bd000       .debug$S                   0000000140000000     kernel32:KERNEL32.dll
 0000:fd7bd000       .debug$S                   0000000140000000     kernel32:KERNEL32.dll
 0000:fd7bd000       .debug$S                   0000000140000000     kernel32:KERNEL32.dll
 0000:fd7bd000       .debug$S                   0000000140000000     kernel32:KERNEL32.dll
 0000:fd7bd000       .debug$S                   0000000140000000     kernel32:KERNEL32.dll
 0000:fd7bd000       .debug$S                   0000000140000000     kernel32:KERNEL32.dll
 0000:fd7bd000       .debug$S                   0000000140000000     kernel32:KERNEL32.dll
 0000:fd7bd000       .debug$S                   0000000140000000     kernel32:KERNEL32.dll
 0000:fd7bd000       .debug$S                   0000000140000000     kernel32:KERNEL32.dll
 0000:fd7bd000       .debug$S                   0000000140000000     kernel32:KERNEL32.dll
 0000:fd7bd000       .debug$S                   0000000140000000     kernel32:KERNEL32.dll
 0000:fd7bd000       .debug$S                   0000000140000000     kernel32:KERNEL32.dll
 0000:fd7bd000       .debug$S                   0000000140000000     kernel32:KERNEL32.dll
 0000:fd7bd000       .debug$S                   0000000140000000     kernel32:KERNEL32.dll
 0000:fd7bd000       .debug$S                   0000000140000000     kernel32:KERNEL32.dll
 0000:fd7bd000       .debug$S                   0000000140000000     kernel32:KERNEL32.dll
 0000:fd7bd000       .debug$S                   0000000140000000     kernel32:KERNEL32.dll
 0000:fd7bd000       .debug$S                   0000000140000000     kernel32:KERNEL32.dll
 0000:fd7bd000       .debug$S                   0000000140000000     kernel32:KERNEL32.dll
 0000:fd7bd000       .debug$S                   0000000140000000     kernel32:KERNEL32.dll
 0000:fd7bd000       .debug$S                   0000000140000000     kernel32:KERNEL32.dll
 0000:fd7bd000       .debug$S                   0000000140000000     kernel32:KERNEL32.dll
 0000:fd7bd000       .debug$S                   0000000140000000     kernel32:KERNEL32.dll
 0000:fd7bd000       .debug$S                   0000000140000000     kernel32:KERNEL32.dll
 0000:fd7bd000       .debug$S                   0000000140000000     kernel32:KERNEL32.dll
 0000:fd7bd000       .debug$S                   0000000140000000     kernel32:KERNEL32.dll
 0000:fd7bd000       .debug$S                   0000000140000000     kernel32:KERNEL32.dll
 0000:fd7bd000       .debug$S                   0000000140000000     kernel32:KERNEL32.dll
 0000:fd7bd000       .debug$S                   0000000140000000     kernel32:KERNEL32.dll
 0000:fd7bd000       .debug$S                   0000000140000000     kernel32:KERNEL32.dll
 0000:fd7bd000       .debug$S                   0000000140000000     kernel32:KERNEL32.dll
 0000:fd7bd000       .debug$S                   0000000140000000     kernel32:KERNEL32.dll
 0000:fd7bd000       .debug$S                   0000000140000000     kernel32:KERNEL32.dll
 0000:fd7bd000       .debug$S                   0000000140000000     kernel32:KERNEL32.dll
 0000:fd7bd000       .debug$S                   0000000140000000     kernel32:KERNEL32.dll
 0000:fd7bd000       .debug$S                   0000000140000000     kernel32:KERNEL32.dll
 0000:fd7bd000       .debug$S                   0000000140000000     kernel32:KERNEL32.dll
 0000:fd7bd000       .debug$S                   0000000140000000     kernel32:KERNEL32.dll
 0000:fd7bd000       .debug$S                   0000000140000000     kernel32:KERNEL32.dll
 0000:fd7bd000       .debug$S                   0000000140000000     kernel32:KERNEL32.dll
 0000:fd7bd000       .debug$S                   0000000140000000     kernel32:KERNEL32.dll
 0000:fd7bd000       .debug$S                   0000000140000000     kernel32:KERNEL32.dll
 0000:fd7bd000       .debug$S                   0000000140000000     kernel32:KERNEL32.dll
 0000:fd7bd000       .debug$S                   0000000140000000     kernel32:KERNEL32.dll
 0000:fd7bd000       .debug$S                   0000000140000000     kernel32:KERNEL32.dll
 0000:fd7bd000       .debug$S                   0000000140000000     kernel32:KERNEL32.dll
 0000:fd7bd000       .debug$S                   0000000140000000     kernel32:KERNEL32.dll
 0000:fd7bd000       .debug$S                   0000000140000000     kernel32:KERNEL32.dll
 0000:fd7bd000       .debug$S                   0000000140000000     kernel32:KERNEL32.dll
 0000:fd7bd000       .debug$S                   0000000140000000     kernel32:KERNEL32.dll
 0000:fd7bd000       .debug$S                   0000000140000000     kernel32:KERNEL32.dll
 0000:fd7bd000       .debug$S                   0000000140000000     kernel32:KERNEL32.dll
 0000:fd7bd000       .debug$S                   0000000140000000     kernel32:KERNEL32.dll
 0000:fd7bd000       .debug$S                   0000000140000000     kernel32:KERNEL32.dll
 0000:fd7bd000       .debug$S                   0000000140000000     kernel32:KERNEL32.dll
 0000:fd7bd000       .debug$S                   0000000140000000     kernel32:KERNEL32.dll
 0000:fd7bd000       .debug$S                   0000000140000000     kernel32:KERNEL32.dll
 0000:fd7bd000       .debug$S                   0000000140000000     kernel32:KERNEL32.dll
 0000:fd7bd000       .debug$S                   0000000140000000     kernel32:KERNEL32.dll
 0000:fd7bd000       .debug$S                   0000000140000000     kernel32:KERNEL32.dll
 0000:fd7bd000       .debug$S                   0000000140000000     kernel32:KERNEL32.dll
 0000:fd7bd000       .debug$S                   0000000140000000     kernel32:KERNEL32.dll
 0000:fd7bd000       .debug$S                   0000000140000000     kernel32:KERNEL32.dll
 0000:fd7bd000       .debug$S                   0000000140000000     kernel32:KERNEL32.dll
 0000:fd7bd000       .debug$S                   0000000140000000     kernel32:KERNEL32.dll
 0000:fd7bd000       .debug$S                   0000000140000000     kernel32:KERNEL32.dll
 0000:fd7bd000       .debug$S                   0000000140000000     kernel32:KERNEL32.dll
 0000:fd7bd000       .debug$S                   0000000140000000     kernel32:KERNEL32.dll
 0000:fd7bd000       .debug$S                   0000000140000000     kernel32:KERNEL32.dll
 0000:fd7bd000       .debug$S                   0000000140000000     kernel32:KERNEL32.dll
 0000:fd7bd000       .debug$S                   0000000140000000     kernel32:KERNEL32.dll
 0000:fd7bd000       .debug$S                   0000000140000000     kernel32:KERNEL32.dll
 0000:fd7bd000       .debug$S                   0000000140000000     kernel32:KERNEL32.dll
 0000:fd7bd000       .debug$S                   0000000140000000     kernel32:KERNEL32.dll
 0000:fd7bd000       .debug$S                   0000000140000000     kernel32:KERNEL32.dll
 0000:fd7bd000       .debug$S                   0000000140000000     kernel32:KERNEL32.dll
 0000:fd7bd000       .debug$S                   0000000140000000     kernel32:KERNEL32.dll
 0000:fd7bd000       .debug$S                   0000000140000000     kernel32:KERNEL32.dll
 0000:fd7bd000       .debug$S                   0000000140000000     kernel32:KERNEL32.dll
 0000:fd7bd000       .debug$S                   0000000140000000     kernel32:KERNEL32.dll
 0000:fd7bd000       .debug$S                   0000000140000000     kernel32:KERNEL32.dll
 0000:fd7bd000       .debug$S                   0000000140000000     kernel32:KERNEL32.dll
 0000:fd7bd000       .debug$S                   0000000140000000     kernel32:KERNEL32.dll
 0000:fd7bd000       .debug$S                   0000000140000000     kernel32:KERNEL32.dll
 0000:fd7bd000       .debug$S                   0000000140000000     kernel32:KERNEL32.dll
 0000:fd7bd000       .debug$S                   0000000140000000     kernel32:KERNEL32.dll
 0000:fd7bd000       .debug$S                   0000000140000000     kernel32:KERNEL32.dll
 0000:fd7bd000       .debug$S                   0000000140000000     kernel32:KERNEL32.dll
 0000:fd7bd000       .debug$S                   0000000140000000     kernel32:KERNEL32.dll
 0000:fd7bd000       .debug$S                   0000000140000000     kernel32:KERNEL32.dll
 0000:fd7bd000       .debug$S                   0000000140000000     kernel32:KERNEL32.dll
 0000:fd7bd000       .debug$S                   0000000140000000     kernel32:KERNEL32.dll
 0000:fd7bd000       .debug$S                   0000000140000000     kernel32:KERNEL32.dll
 0000:fd7bd000       .debug$S                   0000000140000000     user32:USER32.dll
 0000:fd7bd000       .debug$S                   0000000140000000     kernel32:KERNEL32.dll
 0000:fd7bd000       .debug$S                   0000000140000000     kernel32:KERNEL32.dll
 0000:fd7bd000       .debug$S                   0000000140000000     kernel32:KERNEL32.dll
 0000:fd7bd000       .debug$S                   0000000140000000     kernel32:KERNEL32.dll
 0000:fd7bd000       .debug$S                   0000000140000000     kernel32:KERNEL32.dll
 0000:fd7bd000       .debug$S                   0000000140000000     kernel32:KERNEL32.dll
 0000:fd7bd000       .debug$S                   0000000140000000     kernel32:KERNEL32.dll
 0000:fd7bd000       .debug$S                   0000000140000000     kernel32:KERNEL32.dll
 0000:fd7bd000       .debug$S                   0000000140000000     kernel32:KERNEL32.dll
 0000:fd7bd000       .debug$S                   0000000140000000     kernel32:KERNEL32.dll
 0000:fd7bd000       .debug$S                   0000000140000000     kernel32:KERNEL32.dll
 0001:00000000       ??__ERuletka_plansza_kolor_col@@YAXXZ 0000000140001000 f   main.obj
 0001:00000110       ??__ENumer_zasobu_rar@@YAXXZ 0000000140001110 f   main.obj
 0001:00000720       ??__ENazwa_g³osu@@YAXXZ    0000000140001720 f   main.obj
 0001:00000980       ??__EG³os@@YAXXZ           0000000140001980 f   main.obj
 0001:0000098c       ??__Einitlocks@std@@YAXXZ  000000014000198c f   libcpmt:xlock.obj
 0001:000009ac       ??__Ecout@std@@YAXXZ       00000001400019ac f   libcpmt:cout.obj
 0001:000009dc       ??__Efout@std@@YAXXZ       00000001400019dc f   libcpmt:cout.obj
 0001:00000a2c       ??__Einit_cout@std@@YAXXZ  0000000140001a2c f   libcpmt:cout.obj
 0001:00000a38       ??__Einitlocks@@YAXXZ      0000000140001a38 f   libcpmt:cout.obj
 0001:00000a58       ??__E_Fac_tidy_reg@std@@YAXXZ 0000000140001a58 f   libcpmt:locale0.obj
 0001:00000a64       ??__Eclassic_locale@std@@YAXXZ 0000000140001a64 f   libcpmt:locale0.obj
 0001:00000a70       ??__Ecin@std@@YAXXZ        0000000140001a70 f   libcpmt:cin.obj
 0001:00000aa0       ??__Efin@std@@YAXXZ        0000000140001aa0 f   libcpmt:cin.obj
 0001:00000af0       ??__Einit_cin@std@@YAXXZ   0000000140001af0 f   libcpmt:cin.obj
 0001:00000b18       ??__Einitlocks@@YAXXZ      0000000140001b18 f   libcpmt:cin.obj
 0001:00000b38       ??__Einit_atexit@@YAXXZ    0000000140001b38 f   libcpmt:iosptrs.obj
 0001:00000b44       ??__Einitlocks@std@@YAXXZ  0000000140001b44 f   libcpmt:iosptrs.obj
 0001:00002f94       $LN354                     0000000140003f94     main.obj
 0001:00002fa4       $LN353                     0000000140003fa4     main.obj
 0001:0000c9f0       no_op_initialize           000000014000d9f0 f i libucrt:wsetlocale.obj
 0001:0000d150       initialize_environment     000000014000e150 f i libucrt:initialization.obj
 0001:0000d150       uninitialize_c             000000014000e150 f i libucrt:initialization.obj
 0001:0000d150       report_memory_leaks        000000014000e150 f i libucrt:initialization.obj
 0001:0000d150       uninitialize_global_state_isolation 000000014000e150 f i libucrt:initialization.obj
 0001:0000d150       initialize_global_state_isolation 000000014000e150 f i libucrt:initialization.obj
 0001:00011220       ??$_Reallocate_grow_by@V<lambda_319d5e083f45f90dcdce5dce53cbb275>@@D@?$basic_string@DU?$char_traits@D@std@@V?$allocator@D@2@@std@@QEAAAEAV01@_KV<lambda_319d5e083f45f90dcdce5dce53cbb275>@@D@Z 0000000140012220 f   main.obj
 0001:00011390       ??$_Reallocate_for@V<lambda_138c3d7c38c85abb84c7fc7bfe5747b7>@@D@?$basic_string@DU?$char_traits@D@std@@V?$allocator@D@2@@std@@QEAAAEAV01@_KV<lambda_138c3d7c38c85abb84c7fc7bfe5747b7>@@D@Z 0000000140012390 f   main.obj
 0001:000114d0       ??$_Reallocate_for@V<lambda_66f57f934f28d61049862f64df852ff0>@@PEBD@?$basic_string@DU?$char_traits@D@std@@V?$allocator@D@2@@std@@QEAAAEAV01@_KV<lambda_66f57f934f28d61049862f64df852ff0>@@PEBD@Z 00000001400124d0 f   main.obj
 0001:00011610       ??$_Reallocate_grow_by@V<lambda_e1befb086ad3257e3f042a63030725f7>@@_KD@?$basic_string@DU?$char_traits@D@std@@V?$allocator@D@2@@std@@QEAAAEAV01@_KV<lambda_e1befb086ad3257e3f042a63030725f7>@@_KD@Z 0000000140012610 f   main.obj
 0001:000117c0       ??$_Reallocate_grow_by@V<lambda_65e615be2a453ca0576c979606f46740>@@PEBD_K@?$basic_string@DU?$char_traits@D@std@@V?$allocator@D@2@@std@@QEAAAEAV01@_KV<lambda_65e615be2a453ca0576c979606f46740>@@PEBD_K@Z 00000001400127c0 f   main.obj
 0001:00011990       ??$_Reallocate_grow_by@V<lambda_b986da8d428e4af07c64af60eec09b61>@@_K_KD@?$basic_string@DU?$char_traits@D@std@@V?$allocator@D@2@@std@@QEAAAEAV01@_KV<lambda_b986da8d428e4af07c64af60eec09b61>@@_K2D@Z 0000000140012990 f   main.obj
 0001:00012a30       ??$_Reallocate_grow_by@V<lambda_9013ee9e23efe4882b67eff5b0ecf103>@@$$V@?$basic_string@DU?$char_traits@D@std@@V?$allocator@D@2@@std@@QEAAAEAV01@_KV<lambda_9013ee9e23efe4882b67eff5b0ecf103>@@@Z 0000000140013a30 f   main.obj
 0001:00012b90       ??$_Reallocate_grow_by@V<lambda_f3a66ab6a0570788f31503db83886f49>@@_KPEBD_K@?$basic_string@DU?$char_traits@D@std@@V?$allocator@D@2@@std@@QEAAAEAV01@_KV<lambda_f3a66ab6a0570788f31503db83886f49>@@_KPEBD2@Z 0000000140013b90 f   main.obj
 0001:00014024       tidy_global                0000000140015024 f   libcpmt:locale0.obj
 0001:000148f0       ?initialize_pointers@@YAHXZ 00000001400158f0 f   libcpmt:winapisupp.obj
 0001:000153e0       $$000000                   00000001400163e0     LIBCMT:_amdsecgs_.obj
 0001:00015810       ?pre_c_initialization@@YAHXZ 0000000140016810 f   LIBCMT:exe_main.obj
 0001:000158cc       ?post_pgo_initialization@@YAHXZ 00000001400168cc f   LIBCMT:exe_main.obj
 0001:000158dc       ?pre_cpp_initialization@@YAXXZ 00000001400168dc f   LIBCMT:exe_main.obj
 0001:000158f8       ?__scrt_common_main_seh@@YAHXZ 00000001400168f8 f   LIBCMT:exe_main.obj
 0001:00015b90       $$000000                   0000000140016b90     LIBCMT:_chkstk_.obj
 0001:00015dac       capture_current_context    0000000140016dac f   LIBCMT:gs_report.obj
 0001:00015e1c       capture_previous_context   0000000140016e1c f   LIBCMT:gs_report.obj
 0001:00016b40       $$000000                   0000000140017b40     libvcruntime:memcpy.obj
 0001:00016be7       MoveSmall                  0000000140017be7     libvcruntime:memcpy.obj
 0001:00016fd0       $$000000                   0000000140017fd0     libvcruntime:memchr.obj
 0001:00017280       $$000000                   0000000140018280     libvcruntime:memset.obj
 0001:0001737c       MsetTab                    000000014001837c     libvcruntime:memset.obj
 0001:00017440       $$000000                   0000000140018440     libvcruntime:memcmp.obj
 0001:00017acc       ?CatchIt@@YAXPEAUEHExceptionRecord@@PEA_KPEAU_CONTEXT@@PEAU_xDISPATCHER_CONTEXT@@PEBU_s_FuncInfo@@PEBU_s_HandlerType@@PEBU_s_CatchableType@@PEBU_s_TryBlockMapEntry@@H1EE@Z 0000000140018acc f   libvcruntime:frame.obj
 0001:00017b90       ?ExFilterRethrow@@YAHPEAU_EXCEPTION_POINTERS@@PEAUEHExceptionRecord@@PEAH@Z 0000000140018b90 f   libvcruntime:frame.obj
 0001:00017c18       ?FindHandler@@YAXPEAUEHExceptionRecord@@PEA_KPEAU_CONTEXT@@PEAU_xDISPATCHER_CONTEXT@@PEBU_s_FuncInfo@@EH1@Z 0000000140018c18 f   libvcruntime:frame.obj
 0001:000180e8       ?FindHandlerForForeignException@@YAXPEAUEHExceptionRecord@@PEA_KPEAU_CONTEXT@@PEAU_xDISPATCHER_CONTEXT@@PEBU_s_FuncInfo@@HH1@Z 00000001400190e8 f   libvcruntime:frame.obj
 0001:00018340       ?IsInExceptionSpec@@YAEPEAUEHExceptionRecord@@PEBU_s_ESTypeList@@@Z 0000000140019340 f   libvcruntime:frame.obj
 0001:00018e30       $$000000                   0000000140019e30     libvcruntime:_jmpuwind_.obj
 0001:00018f5c       ?try_get_function@@YAPEAXW4function_id@?A0xc646a32c@@QEBDQEBW4module_id@2@2@Z 0000000140019f5c f   libvcruntime:winapi_downlevel.obj
 0001:000193a0       $$000000                   000000014001a3a0     libvcruntime:handlers.obj
 0001:000193f0       ??$?RV<lambda_9bd929c17696992ce54f1d748594fc62>@@AEAV<lambda_082c17da81b0962e08c0587ee0fac50c>@@V<lambda_9c08ac857f4975304d44e9f601d9b878>@@@?$__crt_seh_guarded_call@PEAD@@QEAAPEAD$$QEAV<lambda_9bd929c17696992ce54f1d748594fc62>@@AEAV<lambda_082c17da81b0962e08c0587ee0fac50c>@@$$QEAV<lambda_9c08ac857f4975304d44e9f601d9b878>@@@Z 000000014001a3f0 f   libucrt:setlocale.obj
 0001:00019430       ??R<lambda_082c17da81b0962e08c0587ee0fac50c>@@QEBAPEADXZ 000000014001a430 f   libucrt:setlocale.obj
 0001:000198a8       ??$?RV<lambda_842d9ff0dc9ef11c61343bbaebe7f885>@@AEAV<lambda_c5860995281e5c4ce005b3de8f5874ee>@@V<lambda_d90129c13df834fdcbf8d2b88dafcf2d>@@@?$__crt_seh_guarded_call@X@@QEAAX$$QEAV<lambda_842d9ff0dc9ef11c61343bbaebe7f885>@@AEAV<lambda_c5860995281e5c4ce005b3de8f5874ee>@@$$QEAV<lambda_d90129c13df834fdcbf8d2b88dafcf2d>@@@Z 000000014001a8a8 f   libucrt:fflush.obj
 0001:00019944       ??$?RV<lambda_886d6c58226a84441f68b9f2b8217b83>@@AEAV<lambda_ab61a845afdef5b7c387490eaf3616ee>@@V<lambda_f7f22ab5edc0698d5f6905b0d3f44752>@@@?$__crt_seh_guarded_call@X@@QEAAX$$QEAV<lambda_886d6c58226a84441f68b9f2b8217b83>@@AEAV<lambda_ab61a845afdef5b7c387490eaf3616ee>@@$$QEAV<lambda_f7f22ab5edc0698d5f6905b0d3f44752>@@@Z 000000014001a944 f   libucrt:fflush.obj
 0001:00019a2c       ??$?RV<lambda_c376a267cfb53b6959b3b692ec76b120>@@AEAV<lambda_9a32fed5bf61b6b509b2d3f6003082a1>@@V<lambda_572fbb9fa0ab338edf41edfd4b5fcc8d>@@@?$__crt_seh_guarded_call@H@@QEAAH$$QEAV<lambda_c376a267cfb53b6959b3b692ec76b120>@@AEAV<lambda_9a32fed5bf61b6b509b2d3f6003082a1>@@$$QEAV<lambda_572fbb9fa0ab338edf41edfd4b5fcc8d>@@@Z 000000014001aa2c f   libucrt:fflush.obj
 0001:00019a6c       ?common_flush_all@@YAH_N@Z 000000014001aa6c f   libucrt:fflush.obj
 0001:00019dd8       ??$common_vsprintf@Vformat_validation_base@__crt_stdio_output@@D@@YAH_KQEAD0QEBDQEAU__crt_locale_pointers@@1@Z 000000014001add8 f   libucrt:output.obj
 0001:0001bae8       ??$?RV<lambda_bdbcead8b570fa3d5ec6d9679862a6e5>@@AEAV<lambda_96f4279ff90247a4c5c5d9824f56f8c1>@@V<lambda_4606be27f17b5e5579e09050fab91818>@@@?$__crt_seh_guarded_call@_K@@QEAA_K$$QEAV<lambda_bdbcead8b570fa3d5ec6d9679862a6e5>@@AEAV<lambda_96f4279ff90247a4c5c5d9824f56f8c1>@@$$QEAV<lambda_4606be27f17b5e5579e09050fab91818>@@@Z 000000014001cae8 f   libucrt:fwrite.obj
 0001:0001bb28       ??R<lambda_96f4279ff90247a4c5c5d9824f56f8c1>@@QEBA_KXZ 000000014001cb28 f   libucrt:fwrite.obj
 0001:0001becc       ??$?RV<lambda_84ec643ea9557e2f7dc01bb0e9624395>@@AEAV<lambda_ca71763b3c0644891230e4f79ea54fa6>@@V<lambda_439a761618c59b0600e24586724d733b>@@@?$__crt_seh_guarded_call@H@@QEAAH$$QEAV<lambda_84ec643ea9557e2f7dc01bb0e9624395>@@AEAV<lambda_ca71763b3c0644891230e4f79ea54fa6>@@$$QEAV<lambda_439a761618c59b0600e24586724d733b>@@@Z 000000014001cecc f   libucrt:setvbuf.obj
 0001:0001bf0c       ??R<lambda_ca71763b3c0644891230e4f79ea54fa6>@@QEBAHXZ 000000014001cf0c f   libucrt:setvbuf.obj
 0001:0001c098       ??$common_timespec_get@U_timespec64@@@@YAHQEAU_timespec64@@H@Z 000000014001d098 f   libucrt:time.obj
 0001:0001ce54       ?common_fseek@@YAHV__crt_stdio_stream@@_JH@Z 000000014001de54 f   libucrt:fseek.obj
 0001:0001cec0       ?common_fseek_binary_mode_read_only_fast_track_nolock@@YA_NV__crt_stdio_stream@@_JH@Z 000000014001dec0 f   libucrt:fseek.obj
 0001:0001cfa0       ?common_fseek_nolock@@YAHV__crt_stdio_stream@@_JH@Z 000000014001dfa0 f   libucrt:fseek.obj
 0001:0001d168       ??$common_fsopen@D@@YAPEAU_iobuf@@QEBD0H@Z 000000014001e168 f   libucrt:fopen.obj
 0001:0001db78       ?x_ismbbtype_l@@YAHPEAU__crt_locale_pointers@@IHH@Z 000000014001eb78 f   libucrt:ismbbyte.obj
 0001:0001e210       $$000000                   000000014001f210     libucrt:pow.obj
 0001:0001f8b0       $$000000                   00000001400208b0     libucrt:powf.obj
 0001:000207d0       ?internal_isupper_l@@YA_NHQEAU__crt_locale_pointers@@@Z 00000001400217d0 f   libucrt:tolower_toupper.obj
 0001:00020ef0       ??$?RV<lambda_d80eeec6fff315bfe5c115232f3240e3>@@AEAV<lambda_6e4b09c48022b2350581041d5f6b0c4c>@@V<lambda_2358e3775559c9db80273638284d5e45>@@@?$__crt_seh_guarded_call@X@@QEAAX$$QEAV<lambda_d80eeec6fff315bfe5c115232f3240e3>@@AEAV<lambda_6e4b09c48022b2350581041d5f6b0c4c>@@$$QEAV<lambda_2358e3775559c9db80273638284d5e45>@@@Z 0000000140021ef0 f   libucrt:exit.obj
 0001:00020f28       ??R<lambda_6e4b09c48022b2350581041d5f6b0c4c>@@QEBA@XZ 0000000140021f28 f   libucrt:exit.obj
 0001:00021000       ?atexit_exception_filter@@YAHK@Z 0000000140022000 f   libucrt:exit.obj
 0001:0002100c       ?common_exit@@YAXHW4_crt_exit_cleanup_mode@@W4_crt_exit_return_mode@@@Z 000000014002200c f   libucrt:exit.obj
 0001:000210c8       ?exit_or_terminate_process@@YAXI@Z 00000001400220c8 f   libucrt:exit.obj
 0001:00021114       ?try_cor_exit_process@@YAXI@Z 0000000140022114 f   libucrt:exit.obj
 0001:000211f4       ??$parse_command_line@D@@YAXPEADPEAPEAD0PEA_K2@Z 00000001400221f4 f   libucrt:argv_parsing.obj
 0001:00021598       ??$common_initialize_environment_nolock@D@@YAHXZ 0000000140022598 f   libucrt:environment_initialization.obj
 0001:00021604       ??$create_environment@D@@YAQEAPEADQEAD@Z 0000000140022604 f   libucrt:environment_initialization.obj
 0001:00021710       ??$free_environment@_W@@YAXQEAPEA_W@Z 0000000140022710 f   libucrt:environment_initialization.obj
 0001:00021710       ??$free_environment@D@@YAXQEAPEAD@Z 0000000140022710 f   libucrt:environment_initialization.obj
 0001:00021754       ??$initialize_environment_by_cloning_nolock@D@@YAHXZ 0000000140022754 f   libucrt:environment_initialization.obj
 0001:00021828       ??$uninitialize_environment_internal@D@@YAXAEAPEAPEAD@Z 0000000140022828 f   libucrt:environment_initialization.obj
 0001:00021844       ??$uninitialize_environment_internal@_W@@YAXAEAPEAPEA_W@Z 0000000140022844 f   libucrt:environment_initialization.obj
 0001:0002192c       ??$?RV<lambda_7777bce6b2f8c936911f934f8298dc43>@@AEAV<lambda_f03950bc5685219e0bcd2087efbe011e>@@V<lambda_3883c3dff614d5e0c5f61bb1ac94921c>@@@?$__crt_seh_guarded_call@H@@QEAAH$$QEAV<lambda_7777bce6b2f8c936911f934f8298dc43>@@AEAV<lambda_f03950bc5685219e0bcd2087efbe011e>@@$$QEAV<lambda_3883c3dff614d5e0c5f61bb1ac94921c>@@@Z 000000014002292c f   libucrt:onexit.obj
 0001:00021968       ??$?RV<lambda_8369fcb7c4df1e85de37618bd2b85f07>@@AEAV<lambda_a10e4b102d4a2c3aac6f4f48bbdf488f>@@V<lambda_5b7707bd6d7a0c4713179f36c7fd995d>@@@?$__crt_seh_guarded_call@H@@QEAAH$$QEAV<lambda_8369fcb7c4df1e85de37618bd2b85f07>@@AEAV<lambda_a10e4b102d4a2c3aac6f4f48bbdf488f>@@$$QEAV<lambda_5b7707bd6d7a0c4713179f36c7fd995d>@@@Z 0000000140022968 f   libucrt:onexit.obj
 0001:000219a4       ??R<lambda_a10e4b102d4a2c3aac6f4f48bbdf488f>@@QEBAHXZ 00000001400229a4 f   libucrt:onexit.obj
 0001:00021b68       ??R<lambda_f03950bc5685219e0bcd2087efbe011e>@@QEBAHXZ 0000000140022b68 f   libucrt:onexit.obj
 0001:00021d88       initialize_global_variables 0000000140022d88 f   libucrt:initialization.obj
 0001:00021d9c       initialize_c               0000000140022d9c f   libucrt:initialization.obj
 0001:00021dc0       uninitialize_environment   0000000140022dc0 f   libucrt:initialization.obj
 0001:00021dd0       initialize_pointers        0000000140022dd0 f   libucrt:initialization.obj
 0001:00021e24       uninitialize_vcruntime     0000000140022e24 f   libucrt:initialization.obj
 0001:00021e2c       uninitialize_allocated_memory 0000000140022e2c f   libucrt:initialization.obj
 0001:00022218       ??$?RV<lambda_410d79af7f07d98d83a3f525b3859a53>@@AEAV<lambda_3e16ef9562a7dcce91392c22ab16ea36>@@V<lambda_38119f0e861e05405d8a144b9b982f0a>@@@?$__crt_seh_guarded_call@X@@QEAAX$$QEAV<lambda_410d79af7f07d98d83a3f525b3859a53>@@AEAV<lambda_3e16ef9562a7dcce91392c22ab16ea36>@@$$QEAV<lambda_38119f0e861e05405d8a144b9b982f0a>@@@Z 0000000140023218 f   libucrt:wsetlocale.obj
 0001:00022288       ??$?RV<lambda_9529fede68560d7205a1271ab16b352e>@@AEAV<lambda_ebf8c556deb379764da826e7bb46e993>@@V<lambda_db92443d3c9ace7c8a20b950bb983b5a>@@@?$__crt_seh_guarded_call@X@@QEAAX$$QEAV<lambda_9529fede68560d7205a1271ab16b352e>@@AEAV<lambda_ebf8c556deb379764da826e7bb46e993>@@$$QEAV<lambda_db92443d3c9ace7c8a20b950bb983b5a>@@@Z 0000000140023288 f   libucrt:wsetlocale.obj
 0001:000223c4       ??$?RV<lambda_d8a01803c7231904df012bb083be9e3a>@@AEAV<lambda_b163b37eafe0a13f2c371fafeb0365c9>@@AEAV<lambda_8dff2cf36a5417162780cd64fa2883ef>@@@?$__crt_seh_guarded_call@X@@QEAAX$$QEAV<lambda_d8a01803c7231904df012bb083be9e3a>@@AEAV<lambda_b163b37eafe0a13f2c371fafeb0365c9>@@AEAV<lambda_8dff2cf36a5417162780cd64fa2883ef>@@@Z 00000001400233c4 f   libucrt:wsetlocale.obj
 0001:000223f0       ??R<lambda_b163b37eafe0a13f2c371fafeb0365c9>@@QEBA@XZ 00000001400233f0 f   libucrt:wsetlocale.obj
 0001:00022808       _copytlocinfo_nolock       0000000140023808 f   libucrt:wsetlocale.obj
 0001:00022dd0       _wsetlocale_get_all        0000000140023dd0 f   libucrt:wsetlocale.obj
 0001:00022fb4       _wsetlocale_nolock         0000000140023fb4 f   libucrt:wsetlocale.obj
 0001:00023240       _wsetlocale_set_cat        0000000140024240 f   libucrt:wsetlocale.obj
 0001:00023644       ?_mbstowcs_l_helper@@YA_KPEA_WPEBD_KPEAU__crt_locale_pointers@@@Z 0000000140024644 f   libucrt:mbstowcs.obj
 0001:00023974       ?_wcstombs_l_helper@@YA_KPEADPEB_W_KPEAU__crt_locale_pointers@@@Z 0000000140024974 f   libucrt:wcstombs.obj
 0001:00023d94       ??$?RV<lambda_0ae27a3a962d80f24befdcbee591983d>@@AEAV<lambda_8d0ee55de4b1038c4002e0adecdf1839>@@V<lambda_dc504788e8f1664fe9b84e20bfb512f2>@@@?$__crt_seh_guarded_call@X@@QEAAX$$QEAV<lambda_0ae27a3a962d80f24befdcbee591983d>@@AEAV<lambda_8d0ee55de4b1038c4002e0adecdf1839>@@$$QEAV<lambda_dc504788e8f1664fe9b84e20bfb512f2>@@@Z 0000000140024d94 f   libucrt:per_thread_data.obj
 0001:00023dd4       ??$?RV<lambda_2d41944a1d46af3157314b8a01080d33>@@AEAV<lambda_8f455de75cd7d7f24b4096f044d8b9e6>@@V<lambda_aa500f224e6afead328df44964fe2772>@@@?$__crt_seh_guarded_call@X@@QEAAX$$QEAV<lambda_2d41944a1d46af3157314b8a01080d33>@@AEAV<lambda_8f455de75cd7d7f24b4096f044d8b9e6>@@$$QEAV<lambda_aa500f224e6afead328df44964fe2772>@@@Z 0000000140024dd4 f   libucrt:per_thread_data.obj
 0001:00023e14       ??$?RV<lambda_aa87e3671a710a21b5dc78c0bdf72e11>@@AEAV<lambda_92619d2358a28f41a33ba319515a20b9>@@V<lambda_6992ecaafeb10aed2b74cb1fae11a551>@@@?$__crt_seh_guarded_call@X@@QEAAX$$QEAV<lambda_aa87e3671a710a21b5dc78c0bdf72e11>@@AEAV<lambda_92619d2358a28f41a33ba319515a20b9>@@$$QEAV<lambda_6992ecaafeb10aed2b74cb1fae11a551>@@@Z 0000000140024e14 f   libucrt:per_thread_data.obj
 0001:00023e5c       ??$?RV<lambda_f2e299630e499de9f9a165e60fcd3db5>@@AEAV<lambda_2ae9d31cdba2644fcbeaf08da7c24588>@@V<lambda_40d01ff24d0e7b3814fdbdcee8eab3c7>@@@?$__crt_seh_guarded_call@X@@QEAAX$$QEAV<lambda_f2e299630e499de9f9a165e60fcd3db5>@@AEAV<lambda_2ae9d31cdba2644fcbeaf08da7c24588>@@$$QEAV<lambda_40d01ff24d0e7b3814fdbdcee8eab3c7>@@@Z 0000000140024e5c f   libucrt:per_thread_data.obj
 0001:00023ebc       ?construct_ptd_array@@YAXQEAU__acrt_ptd@@@Z 0000000140024ebc f   libucrt:per_thread_data.obj
 0001:00023f8c       ?destroy_fls@@YAXPEAX@Z    0000000140024f8c f   libucrt:per_thread_data.obj
 0001:00023fac       ?destroy_ptd_array@@YAXQEAU__acrt_ptd@@@Z 0000000140024fac f   libucrt:per_thread_data.obj
 0001:000240a4       ?replace_current_thread_locale_nolock@@YAXQEAU__acrt_ptd@@QEAU__crt_locale_data@@@Z 00000001400250a4 f   libucrt:per_thread_data.obj
 0001:000243b0       ?<lambda_invoker_cdecl>@<lambda_795c6bd18aed400428efeb9a5f0e1479>@@CAHPEA_W@Z 00000001400253b0 f   libucrt:winapi_thunks.obj
 0001:000243d8       ??$?RV<lambda_bd00b5aa228bd7e7e5b2b5db5fd2933b>@@AEAV<lambda_777d11615145f89ee95b9466d285deeb>@@V<lambda_6e5e48fbd24f9f8f81b203eb3d877683>@@@?$__crt_seh_guarded_call@H@@QEAAH$$QEAV<lambda_bd00b5aa228bd7e7e5b2b5db5fd2933b>@@AEAV<lambda_777d11615145f89ee95b9466d285deeb>@@$$QEAV<lambda_6e5e48fbd24f9f8f81b203eb3d877683>@@@Z 00000001400253d8 f   libucrt:winapi_thunks.obj
 0001:00024470       ?try_get_function@@YAPEAXW4function_id@?A0x391cf84c@@QEBDQEBW4module_id@2@2@Z 0000000140025470 f   libucrt:winapi_thunks.obj
 0001:00024f8c       ??$write_buffer_nolock@D@@YA_NDV__crt_stdio_stream@@@Z 0000000140025f8c f   libucrt:_flsbuf.obj
 0001:00025154       ?initialize_inherited_file_handles_nolock@@YAXXZ 0000000140026154 f   libucrt:ioinit.obj
 0001:00025240       ?initialize_stdio_handles_nolock@@YAXXZ 0000000140026240 f   libucrt:ioinit.obj
 0001:000253b8       ??$?RV<lambda_a37b2b86f63e897a80ea819b0eb08c01>@@AEAV<lambda_38ce7e780aa69e748d6df282ebc68efe>@@V<lambda_99fb1378e971ab6e7edea83e3a7a83a2>@@@?$__crt_seh_guarded_call@H@@QEAAH$$QEAV<lambda_a37b2b86f63e897a80ea819b0eb08c01>@@AEAV<lambda_38ce7e780aa69e748d6df282ebc68efe>@@$$QEAV<lambda_99fb1378e971ab6e7edea83e3a7a83a2>@@@Z 00000001400263b8 f   libucrt:commit.obj
 0001:000254d8       ?write_double_translated_ansi_nolock@@YA?AUwrite_result@?A0x17268360@@HQEBDI@Z 00000001400264d8 f   libucrt:write.obj
 0001:0002573c       ?write_requires_double_translation_nolock@@YA_NH@Z 000000014002673c f   libucrt:write.obj
 0001:000257e0       ?write_text_ansi_nolock@@YA?AUwrite_result@?A0x17268360@@HQEBDI@Z 00000001400267e0 f   libucrt:write.obj
 0001:000258e4       ?write_text_utf16le_nolock@@YA?AUwrite_result@?A0x17268360@@HQEBDI@Z 00000001400268e4 f   libucrt:write.obj
 0001:00025a00       ?write_text_utf8_nolock@@YA?AUwrite_result@?A0x17268360@@HQEBDI@Z 0000000140026a00 f   libucrt:write.obj
 0001:00025f08       ??$?RV<lambda_751a882b2c74d4b022dec766aa51a29a>@@AEAV<lambda_628dfdc04ba53c8bfc02c9951375f3f5>@@V<lambda_f6c7be5f7998530c34de24c7437d6b54>@@@?$__crt_seh_guarded_call@H@@QEAAH$$QEAV<lambda_751a882b2c74d4b022dec766aa51a29a>@@AEAV<lambda_628dfdc04ba53c8bfc02c9951375f3f5>@@$$QEAV<lambda_f6c7be5f7998530c34de24c7437d6b54>@@@Z 0000000140026f08 f   libucrt:close.obj
 0001:00026154       ?find_or_allocate_unused_stream_nolock@@YA?AV__crt_stdio_stream@@XZ 0000000140027154 f   libucrt:stream.obj
 0001:00026788       ?fp_format_a@@YAHQEBNPEAD_KQEAD2H_NIQEAU__crt_locale_pointers@@@Z 0000000140027788 f   libucrt:cvt.obj
 0001:00026ae4       ?fp_format_e@@YAHQEBNQEAD_K12H_NIQEAU__crt_locale_pointers@@@Z 0000000140027ae4 f   libucrt:cvt.obj
 0001:00026bb4       ?fp_format_e_internal@@YAHQEAD_KH_NIQEAU_strflt@@2QEAU__crt_locale_pointers@@@Z 0000000140027bb4 f   libucrt:cvt.obj
 0001:00026d88       ?fp_format_f_internal@@YAHQEAD_KHQEAU_strflt@@_NQEAU__crt_locale_pointers@@@Z 0000000140027d88 f   libucrt:cvt.obj
 0001:00026ed0       ?fp_format_g@@YAHQEBNQEAD_K12H_NIQEAU__crt_locale_pointers@@@Z 0000000140027ed0 f   libucrt:cvt.obj
 0001:00027004       ?fp_format_nan_or_infinity@@YAHW4__acrt_fp_class@@_NPEAD_K1@Z 0000000140028004 f   libucrt:cvt.obj
 0001:0002760c       ??$common_dupenv_s@D@@YAHQEAPEADQEA_KQEBDH2H@Z 000000014002860c f   libucrt:getenv.obj
 0001:00027700       ??$common_getenv_nolock@D@@YAPEADQEBD@Z 0000000140028700 f   libucrt:getenv.obj
 0001:000277a8       ??$?RV<lambda_a22f0c497e5168315e06dae667770027>@@AEAV<lambda_a094494068278ba5130ab06e1292f60a>@@V<lambda_24dc10c13f43218c635520766e23e324>@@@?$__crt_seh_guarded_call@_N@@QEAA_N$$QEAV<lambda_a22f0c497e5168315e06dae667770027>@@AEAV<lambda_a094494068278ba5130ab06e1292f60a>@@$$QEAV<lambda_24dc10c13f43218c635520766e23e324>@@@Z 00000001400287a8 f   libucrt:spawnv.obj
 0001:000277e8       ??$common_spawnv@D@@YA_JHQEBDQEBQEBD1@Z 00000001400287e8 f   libucrt:spawnv.obj
 0001:00027a78       ??$execute_command@D@@YA_JHQEBDQEBQEBD1@Z 0000000140028a78 f   libucrt:spawnv.obj
 0001:00027cd0       ??R<lambda_a094494068278ba5130ab06e1292f60a>@@QEBA_NXZ 0000000140028cd0 f   libucrt:spawnv.obj
 0001:00027ecc       ?accumulate_inheritable_handles@@YA_NQEAPEAEQEA_K_N@Z 0000000140028ecc f   libucrt:spawnv.obj
 0001:00027f2c       ??$common_spawnvp@D@@YA_JHQEBDQEBQEBD1@Z 0000000140028f2c f   libucrt:spawnvp.obj
 0001:000283c0       ??$common_ftell@_J@@YA_JV__crt_stdio_stream@@@Z 00000001400293c0 f   libucrt:ftell.obj
 0001:00028414       ??$common_ftell_nolock@_J@@YA_JV__crt_stdio_stream@@@Z 0000000140029414 f   libucrt:ftell.obj
 0001:00028570       ?common_ftell_read_mode_nolock@@YA_JV__crt_stdio_stream@@_J1@Z 0000000140029570 f   libucrt:ftell.obj
 0001:000286d8       ?common_ftell_translated_utf8_nolock@@YA_JV__crt_stdio_stream@@_J@Z 00000001400296d8 f   libucrt:ftell.obj
 0001:00028878       ?count_newline_bytes@@YA_JQEBD0W4__crt_lowio_text_mode@@@Z 0000000140029878 f   libucrt:ftell.obj
 0001:00029584       ??$common_lseek@_J@@YA_JH_JH@Z 000000014002a584 f   libucrt:lseek.obj
 0001:00029688       ??$common_lseek_nolock@_J@@YA_JH_JH@Z 000000014002a688 f   libucrt:lseek.obj
 0001:00029a94       ?InternalGetLocaleInfoA@@YAHQEAU__crt_locale_pointers@@QEB_WKQEADH@Z 000000014002aa94 f   libucrt:getlocaleinfoa.obj
 0001:00029fa8       ?__acrt_LCMapStringA_stat@@YAHPEAU__crt_locale_pointers@@PEB_WKPEBDHPEADHHH@Z 000000014002afa8 f   libucrt:lcmapstringa.obj
 0001:0002a394       ??$?RV<lambda_450d765d439847d4c735a33c368b5fc0>@@AEAV<lambda_44731a7d0e6d81c3e6aa82d741081786>@@V<lambda_601a2a7da3b7a96e9554ac7215c4b07c>@@@?$__crt_seh_guarded_call@P6AXH@Z@@QEAAP6AXH@Z$$QEAV<lambda_450d765d439847d4c735a33c368b5fc0>@@AEAV<lambda_44731a7d0e6d81c3e6aa82d741081786>@@$$QEAV<lambda_601a2a7da3b7a96e9554ac7215c4b07c>@@@Z 000000014002b394 f   libucrt:signal.obj
 0001:0002abf4       ?<lambda_invoker_cdecl>@<lambda_c2303d2482d7c3675ea2e24c4cfb6115>@@CAHPEBX0@Z 000000014002bbf4 f   libucrt:argv_wildcards.obj
 0001:0002ac08       ??$common_expand_argv_wildcards@D@@YAHQEAPEADQEAPEAPEAD@Z 000000014002bc08 f   libucrt:argv_wildcards.obj
 0001:0002ae14       ??$copy_and_add_argument_to_buffer@D@@YAHQEBD0_KAEAV?$argument_list@D@?A0x5f5c8891@@@Z 000000014002be14 f   libucrt:argv_wildcards.obj
 0001:0002afac       ??$expand_argument_wildcards@D@@YAHQEAD0AEAV?$argument_list@D@?A0x5f5c8891@@@Z 000000014002bfac f   libucrt:argv_wildcards.obj
 0001:0002b160       ??$?RV<lambda_efdfa57d1f175319df784efa44bb7b81>@@AEAV<lambda_5f0a4c1567f8adc6734073e5d1e1b35c>@@V<lambda_2e8a7d3640ea6ccb4c2413664c2db6fd>@@@?$__crt_seh_guarded_call@X@@QEAAX$$QEAV<lambda_efdfa57d1f175319df784efa44bb7b81>@@AEAV<lambda_5f0a4c1567f8adc6734073e5d1e1b35c>@@$$QEAV<lambda_2e8a7d3640ea6ccb4c2413664c2db6fd>@@@Z 000000014002c160 f   libucrt:mbctype.obj
 0001:0002b334       ?getSystemCP@@YAHH@Z       000000014002c334 f   libucrt:mbctype.obj
 0001:0002b3b4       ?setSBCS@@YAXPEAU__crt_multibyte_data@@@Z 000000014002c3b4 f   libucrt:mbctype.obj
 0001:0002b444       ?setSBUpLow@@YAXPEAU__crt_multibyte_data@@@Z 000000014002c444 f   libucrt:mbctype.obj
 0001:0002b628       ?setmbcp_internal@@YAHH_NQEAU__acrt_ptd@@QEAPEAU__crt_multibyte_data@@@Z 000000014002c628 f   libucrt:mbctype.obj
 0001:0002b7ec       ?update_thread_multibyte_data_internal@@YAPEAU__crt_multibyte_data@@QEAU__acrt_ptd@@QEAU1@@Z 000000014002c7ec f   libucrt:mbctype.obj
 0001:0002bcc4       ??$common_set_variable_in_environment_nolock@D@@YAHQEADH@Z 000000014002ccc4 f   libucrt:setenv.obj
 0001:0002bfe4       ??$copy_environment@D@@YAPEAPEADQEAPEAD@Z 000000014002cfe4 f   libucrt:setenv.obj
 0001:0002d230       ?free_crt_array_internal@@YAXQEAPEBX_K@Z 000000014002e230 f   libucrt:inittime.obj
 0001:0002d288       ?initialize_lc_time@@YA_NQEAU__crt_lc_time_data@@QEAU__crt_locale_data@@@Z 000000014002e288 f   libucrt:inittime.obj
 0001:0002dbe8       GetLocaleNameFromDefault   000000014002ebe8 f   libucrt:get_qualified_locale.obj
 0001:0002dc90       GetLocaleNameFromLangCountry 000000014002ec90 f   libucrt:get_qualified_locale.obj
 0001:0002dd60       GetLocaleNameFromLanguage  000000014002ed60 f   libucrt:get_qualified_locale.obj
 0001:0002ddfc       LangCountryEnumProcEx      000000014002edfc f   libucrt:get_qualified_locale.obj
 0001:0002e1b0       LanguageEnumProcEx         000000014002f1b0 f   libucrt:get_qualified_locale.obj
 0001:0002e29c       ProcessCodePage            000000014002f29c f   libucrt:get_qualified_locale.obj
 0001:0002e350       TestDefaultCountry         000000014002f350 f   libucrt:get_qualified_locale.obj
 0001:0002e3b8       TranslateName              000000014002f3b8 f   libucrt:get_qualified_locale.obj
 0001:0002e674       CountryEnumProc            000000014002f674 f   libucrt:getqloc_downlevel.obj
 0001:0002e75c       GetLcidFromLangCountry     000000014002f75c f   libucrt:getqloc_downlevel.obj
 0001:0002e82c       GetLcidFromLanguage        000000014002f82c f   libucrt:getqloc_downlevel.obj
 0001:0002e8c4       LangCountryEnumProc        000000014002f8c4 f   libucrt:getqloc_downlevel.obj
 0001:0002eb04       LanguageEnumProc           000000014002fb04 f   libucrt:getqloc_downlevel.obj
 0001:0002ec00       LcidFromHexString          000000014002fc00 f   libucrt:getqloc_downlevel.obj
 0001:0002ec50       ProcessCodePage            000000014002fc50 f   libucrt:getqloc_downlevel.obj
 0001:0002ed00       TestDefaultLanguage        000000014002fd00 f   libucrt:getqloc_downlevel.obj
 0001:0002edac       TranslateName              000000014002fdac f   libucrt:getqloc_downlevel.obj
 0001:0002f0bc       ?GetTableIndexFromLocaleName@@YAHPEB_W@Z 00000001400300bc f   libucrt:lcidtoname_downlevel.obj
 0001:000306f0       memcpy_s                   00000001400316f0 f   libucrt:cfout.obj
 0001:000306f0       memcpy_s                   00000001400316f0 f   libucrt:strtod.obj
 0001:00030778       ??$translate_text_mode_nolock@D@@YAHHQEAD_K@Z 0000000140031778 f   libucrt:read.obj
 0001:00030978       ??$translate_text_mode_nolock@_W@@YAHHQEA_W_K@Z 0000000140031978 f   libucrt:read.obj
 0001:00030c00       ?translate_ansi_or_utf8_nolock@@YAHHQEAD_KQEA_W1@Z 0000000140031c00 f   libucrt:read.obj
 0001:000315f0       ??$construct_environment_block@D@@YAHQEBQEBDQEAPEAD@Z 00000001400325f0 f   libucrt:cenvarg.obj
 0001:00031b40       $$000000                   0000000140032b40     libucrt:fpsr.obj
 0001:00031d50       $$000000                   0000000140032d50     libucrt:strncmp.obj
 0001:00031f54       ??$common_sopen_dispatch@D@@YAHQEBDHHHQEAHH@Z 0000000140032f54 f   libucrt:open.obj
 0001:00032018       ?configure_text_mode@@YAHHUfile_options@?A0xa9d50aae@@HAEAW4__crt_lowio_text_mode@@@Z 0000000140033018 f   libucrt:open.obj
 0001:000322ac       ?decode_options@@YA?AUfile_options@?A0xa9d50aae@@HHH@Z 00000001400332ac f   libucrt:open.obj
 0001:000324b4       ?truncate_ctrl_z_if_present@@YAHH@Z 00000001400334b4 f   libucrt:open.obj
 0001:00032e30       _call_matherr              0000000140033e30 f   libucrt:libm_error.obj
 0001:00032e98       _exception_enabled         0000000140033e98 f   libucrt:libm_error.obj
 0001:000332a0       ?shortsort@@YAXPEAD0_KP6AHPEBX2@Z@Z 00000001400342a0 f   libucrt:qsort.obj
 0001:000337f0       ?initialize_multibyte@@YAHXZ 00000001400347f0 f   libucrt:multibyte_initializer.obj
 0001:0003384c       ??$common_xtox@K_W@@YAHKQEA_W_KI_N@Z 000000014003484c f   libucrt:xtoa.obj
 0001:000338f4       ??$common_xtox_s@K_W@@YAHKQEA_W_KI_N@Z 00000001400348f4 f   libucrt:xtoa.obj
 0001:00033c80       $$000000                   0000000140034c80     libucrt:log10.obj
 0001:0003422c       ?InternalCompareStringA@@YAHPEAU__crt_locale_pointers@@PEB_WKPEBDH2HH@Z 000000014003522c f   libucrt:comparestringa.obj
 0001:000348e0       _log_special_common        00000001400358e0 f   libucrt:log_special.obj
 0001:00034cd0       $$000000                   0000000140035cd0     LIBCMT:_guard_dispatch_.obj
 0001:00034cf0       $$000000                   0000000140035cf0     LIBCMT:_rfgfailure_.obj
 0001:00034db0       ?dtor$0@?0???0_Locinfo@std@@QEAA@PEBD@Z@4HA 0000000140035db0 f   main.obj
 0001:00034dbc       ?dtor$1@?0???0_Locinfo@std@@QEAA@PEBD@Z@4HA 0000000140035dbc f   main.obj
 0001:00034dcc       ?dtor$2@?0???0_Locinfo@std@@QEAA@PEBD@Z@4HA 0000000140035dcc f   main.obj
 0001:00034ddc       ?dtor$3@?0???0_Locinfo@std@@QEAA@PEBD@Z@4HA 0000000140035ddc f   main.obj
 0001:00034dec       ?dtor$4@?0???0_Locinfo@std@@QEAA@PEBD@Z@4HA 0000000140035dec f   main.obj
 0001:00034dfc       ?dtor$5@?0???0_Locinfo@std@@QEAA@PEBD@Z@4HA 0000000140035dfc f   main.obj
 0001:00034e0c       ?dtor$6@?0???0_Locinfo@std@@QEAA@PEBD@Z@4HA 0000000140035e0c f   main.obj
 0001:00034e20       ?dtor$1@?0???0failure@ios_base@std@@QEAA@PEBDAEBVerror_code@2@@Z@4HA 0000000140035e20 f   main.obj
 0001:00034e2c       ?dtor$15@?0???0failure@ios_base@std@@QEAA@PEBDAEBVerror_code@2@@Z@4HA 0000000140035e2c f   main.obj
 0001:00034e38       ?dtor$16@?0???0failure@ios_base@std@@QEAA@PEBDAEBVerror_code@2@@Z@4HA 0000000140035e38 f   main.obj
 0001:00034e50       ?dtor$3@?0???__ERuletka_plansza_kolor_col@@YAXXZ@4HA 0000000140035e50 f   main.obj
 0001:00034e60       ?dtor$0@?0???__ENumer_zasobu_rar@@YAXXZ@4HA 0000000140035e60 f   main.obj
 0001:00034e6c       ?dtor$1@?0???__ENumer_zasobu_rar@@YAXXZ@4HA 0000000140035e6c f   main.obj
 0001:00034e78       ?dtor$2@?0???__ENumer_zasobu_rar@@YAXXZ@4HA 0000000140035e78 f   main.obj
 0001:00034e84       ?dtor$3@?0???__ENumer_zasobu_rar@@YAXXZ@4HA 0000000140035e84 f   main.obj
 0001:00034e90       ?dtor$4@?0???__ENumer_zasobu_rar@@YAXXZ@4HA 0000000140035e90 f   main.obj
 0001:00034e9c       ?dtor$5@?0???__ENumer_zasobu_rar@@YAXXZ@4HA 0000000140035e9c f   main.obj
 0001:00034ea8       ?dtor$6@?0???__ENumer_zasobu_rar@@YAXXZ@4HA 0000000140035ea8 f   main.obj
 0001:00034eb4       ?dtor$7@?0???__ENumer_zasobu_rar@@YAXXZ@4HA 0000000140035eb4 f   main.obj
 0001:00034ec0       ?dtor$8@?0???__ENumer_zasobu_rar@@YAXXZ@4HA 0000000140035ec0 f   main.obj
 0001:00034ecc       ?dtor$9@?0???__ENumer_zasobu_rar@@YAXXZ@4HA 0000000140035ecc f   main.obj
 0001:00034ed8       ?dtor$10@?0???__ENumer_zasobu_rar@@YAXXZ@4HA 0000000140035ed8 f   main.obj
 0001:00034ee4       ?dtor$11@?0???__ENumer_zasobu_rar@@YAXXZ@4HA 0000000140035ee4 f   main.obj
 0001:00034ef0       ?dtor$12@?0???__ENumer_zasobu_rar@@YAXXZ@4HA 0000000140035ef0 f   main.obj
 0001:00034efc       ?dtor$13@?0???__ENumer_zasobu_rar@@YAXXZ@4HA 0000000140035efc f   main.obj
 0001:00034f08       ?dtor$14@?0???__ENumer_zasobu_rar@@YAXXZ@4HA 0000000140035f08 f   main.obj
 0001:00034f14       ?dtor$15@?0???__ENumer_zasobu_rar@@YAXXZ@4HA 0000000140035f14 f   main.obj
 0001:00034f20       ?dtor$16@?0???__ENumer_zasobu_rar@@YAXXZ@4HA 0000000140035f20 f   main.obj
 0001:00034f2c       ?dtor$17@?0???__ENumer_zasobu_rar@@YAXXZ@4HA 0000000140035f2c f   main.obj
 0001:00034f38       ?dtor$18@?0???__ENumer_zasobu_rar@@YAXXZ@4HA 0000000140035f38 f   main.obj
 0001:00034f44       ?dtor$19@?0???__ENumer_zasobu_rar@@YAXXZ@4HA 0000000140035f44 f   main.obj
 0001:00034f50       ?dtor$20@?0???__ENumer_zasobu_rar@@YAXXZ@4HA 0000000140035f50 f   main.obj
 0001:00034f5c       ?dtor$21@?0???__ENumer_zasobu_rar@@YAXXZ@4HA 0000000140035f5c f   main.obj
 0001:00034f68       ?dtor$22@?0???__ENumer_zasobu_rar@@YAXXZ@4HA 0000000140035f68 f   main.obj
 0001:00034f74       ?dtor$23@?0???__ENumer_zasobu_rar@@YAXXZ@4HA 0000000140035f74 f   main.obj
 0001:00034f80       ?dtor$24@?0???__ENumer_zasobu_rar@@YAXXZ@4HA 0000000140035f80 f   main.obj
 0001:00034f8c       ?dtor$25@?0???__ENumer_zasobu_rar@@YAXXZ@4HA 0000000140035f8c f   main.obj
 0001:00034f98       ?dtor$26@?0???__ENumer_zasobu_rar@@YAXXZ@4HA 0000000140035f98 f   main.obj
 0001:00034fa4       ?dtor$27@?0???__ENumer_zasobu_rar@@YAXXZ@4HA 0000000140035fa4 f   main.obj
 0001:00034fb0       ?dtor$28@?0???__ENumer_zasobu_rar@@YAXXZ@4HA 0000000140035fb0 f   main.obj
 0001:00034fbc       ?dtor$29@?0???__ENumer_zasobu_rar@@YAXXZ@4HA 0000000140035fbc f   main.obj
 0001:00034fc8       ?dtor$30@?0???__ENumer_zasobu_rar@@YAXXZ@4HA 0000000140035fc8 f   main.obj
 0001:00034fd4       ?dtor$31@?0???__ENumer_zasobu_rar@@YAXXZ@4HA 0000000140035fd4 f   main.obj
 0001:00034fe0       ?dtor$32@?0???__ENumer_zasobu_rar@@YAXXZ@4HA 0000000140035fe0 f   main.obj
 0001:00034fec       ?dtor$33@?0???__ENumer_zasobu_rar@@YAXXZ@4HA 0000000140035fec f   main.obj
 0001:00034ff8       ?dtor$34@?0???__ENumer_zasobu_rar@@YAXXZ@4HA 0000000140035ff8 f   main.obj
 0001:00035004       ?dtor$35@?0???__ENumer_zasobu_rar@@YAXXZ@4HA 0000000140036004 f   main.obj
 0001:00035010       ?dtor$36@?0???__ENumer_zasobu_rar@@YAXXZ@4HA 0000000140036010 f   main.obj
 0001:0003501c       ?dtor$37@?0???__ENumer_zasobu_rar@@YAXXZ@4HA 000000014003601c f   main.obj
 0001:00035028       ?dtor$38@?0???__ENumer_zasobu_rar@@YAXXZ@4HA 0000000140036028 f   main.obj
 0001:00035034       ?dtor$39@?0???__ENumer_zasobu_rar@@YAXXZ@4HA 0000000140036034 f   main.obj
 0001:00035040       ?dtor$40@?0???__ENumer_zasobu_rar@@YAXXZ@4HA 0000000140036040 f   main.obj
 0001:0003504c       ?dtor$41@?0???__ENumer_zasobu_rar@@YAXXZ@4HA 000000014003604c f   main.obj
 0001:00035058       ?dtor$42@?0???__ENumer_zasobu_rar@@YAXXZ@4HA 0000000140036058 f   main.obj
 0001:00035064       ?dtor$43@?0???__ENumer_zasobu_rar@@YAXXZ@4HA 0000000140036064 f   main.obj
 0001:00035070       ?dtor$45@?0???__ENumer_zasobu_rar@@YAXXZ@4HA 0000000140036070 f   main.obj
 0001:0003509a       ?dtor$183@?0???__ENumer_zasobu_rar@@YAXXZ@4HA 000000014003609a f   main.obj
 0001:000350b0       ?dtor$0@?0???__ENazwa_g³osu@@YAXXZ@4HA 00000001400360b0 f   main.obj
 0001:000350bc       ?dtor$1@?0???__ENazwa_g³osu@@YAXXZ@4HA 00000001400360bc f   main.obj
 0001:000350c8       ?dtor$2@?0???__ENazwa_g³osu@@YAXXZ@4HA 00000001400360c8 f   main.obj
 0001:000350d4       ?dtor$3@?0???__ENazwa_g³osu@@YAXXZ@4HA 00000001400360d4 f   main.obj
 0001:000350e0       ?dtor$4@?0???__ENazwa_g³osu@@YAXXZ@4HA 00000001400360e0 f   main.obj
 0001:000350ec       ?dtor$5@?0???__ENazwa_g³osu@@YAXXZ@4HA 00000001400360ec f   main.obj
 0001:000350f8       ?dtor$6@?0???__ENazwa_g³osu@@YAXXZ@4HA 00000001400360f8 f   main.obj
 0001:00035104       ?dtor$7@?0???__ENazwa_g³osu@@YAXXZ@4HA 0000000140036104 f   main.obj
 0001:00035110       ?dtor$8@?0???__ENazwa_g³osu@@YAXXZ@4HA 0000000140036110 f   main.obj
 0001:0003511c       ?dtor$10@?0???__ENazwa_g³osu@@YAXXZ@4HA 000000014003611c f   main.obj
 0001:00035150       main$dtor$0                0000000140036150 f   main.obj
 0001:0003515c       main$dtor$5                000000014003615c f   main.obj
 0001:0003518c       main$dtor$9                000000014003618c f   main.obj
 0001:0003519c       main$dtor$6                000000014003619c f   main.obj
 0001:000351ac       main$dtor$1                00000001400361ac f   main.obj
 0001:000351b8       main$dtor$2                00000001400361b8 f   main.obj
 0001:000351d0       ?dtor$0@?0??Obstaw@@YA?AV?$basic_string@DU?$char_traits@D@std@@V?$allocator@D@2@@std@@XZ@4HA 00000001400361d0 f   main.obj
 0001:00035200       ?dtor$0@?0??Wczytaj_Kwotê_Zak³adu@@YAXAEAHAEBH@Z@4HA 0000000140036200 f   main.obj
 0001:00035200       ?dtor$0@?0??Czy_Kontynuowaæ@@YA_NAEBH@Z@4HA 0000000140036200 f   main.obj
 0001:00035210       ?dtor$0@?0??Odczytaj_Liczbê@@YAXAEBHAEBV?$basic_string@DU?$char_traits@D@std@@V?$allocator@D@2@@std@@@Z@4HA 0000000140036210 f   main.obj
 0001:0003521c       ?dtor$1@?0??Odczytaj_Liczbê@@YAXAEBHAEBV?$basic_string@DU?$char_traits@D@std@@V?$allocator@D@2@@std@@@Z@4HA 000000014003621c f   main.obj
 0001:00035228       ?dtor$2@?0??Odczytaj_Liczbê@@YAXAEBHAEBV?$basic_string@DU?$char_traits@D@std@@V?$allocator@D@2@@std@@@Z@4HA 0000000140036228 f   main.obj
 0001:00035234       ?dtor$87@?0??Odczytaj_Liczbê@@YAXAEBHAEBV?$basic_string@DU?$char_traits@D@std@@V?$allocator@D@2@@std@@@Z@4HA 0000000140036234 f   main.obj
 0001:0003525a       ?dtor$108@?0??Odczytaj_Liczbê@@YAXAEBHAEBV?$basic_string@DU?$char_traits@D@std@@V?$allocator@D@2@@std@@@Z@4HA 000000014003625a f   main.obj
 0001:00035280       ?dtor$141@?0??Odczytaj_Liczbê@@YAXAEBHAEBV?$basic_string@DU?$char_traits@D@std@@V?$allocator@D@2@@std@@@Z@4HA 0000000140036280 f   main.obj
 0001:000352a6       ?dtor$162@?0??Odczytaj_Liczbê@@YAXAEBHAEBV?$basic_string@DU?$char_traits@D@std@@V?$allocator@D@2@@std@@@Z@4HA 00000001400362a6 f   main.obj
 0001:000352cc       ?dtor$195@?0??Odczytaj_Liczbê@@YAXAEBHAEBV?$basic_string@DU?$char_traits@D@std@@V?$allocator@D@2@@std@@@Z@4HA 00000001400362cc f   main.obj
 0001:000352f7       ?dtor$216@?0??Odczytaj_Liczbê@@YAXAEBHAEBV?$basic_string@DU?$char_traits@D@std@@V?$allocator@D@2@@std@@@Z@4HA 00000001400362f7 f   main.obj
 0001:00035322       ?dtor$239@?0??Odczytaj_Liczbê@@YAXAEBHAEBV?$basic_string@DU?$char_traits@D@std@@V?$allocator@D@2@@std@@@Z@4HA 0000000140036322 f   main.obj
 0001:0003534d       ?dtor$11@?0??Odczytaj_Liczbê@@YAXAEBHAEBV?$basic_string@DU?$char_traits@D@std@@V?$allocator@D@2@@std@@@Z@4HA 000000014003634d f   main.obj
 0001:00035359       ?dtor$13@?0??Odczytaj_Liczbê@@YAXAEBHAEBV?$basic_string@DU?$char_traits@D@std@@V?$allocator@D@2@@std@@@Z@4HA 0000000140036359 f   main.obj
 0001:00035365       ?dtor$14@?0??Odczytaj_Liczbê@@YAXAEBHAEBV?$basic_string@DU?$char_traits@D@std@@V?$allocator@D@2@@std@@@Z@4HA 0000000140036365 f   main.obj
 0001:00035371       ?dtor$315@?0??Odczytaj_Liczbê@@YAXAEBHAEBV?$basic_string@DU?$char_traits@D@std@@V?$allocator@D@2@@std@@@Z@4HA 0000000140036371 f   main.obj
 0001:0003539c       ?dtor$16@?0??Odczytaj_Liczbê@@YAXAEBHAEBV?$basic_string@DU?$char_traits@D@std@@V?$allocator@D@2@@std@@@Z@4HA 000000014003639c f   main.obj
 0001:000353b0       ?dtor$0@?0??Wczytaj_z_Pliku@@YAXAEAV?$basic_ofstream@DU?$char_traits@D@std@@@std@@AEAV?$basic_fstream@DU?$char_traits@D@std@@@2@AEADAEAH33AEAV?$basic_string@DU?$char_traits@D@std@@V?$allocator@D@2@@2@@Z@4HA 00000001400363b0 f   main.obj
 0001:000353bc       ?dtor$1@?0??Wczytaj_z_Pliku@@YAXAEAV?$basic_ofstream@DU?$char_traits@D@std@@@std@@AEAV?$basic_fstream@DU?$char_traits@D@std@@@2@AEADAEAH33AEAV?$basic_string@DU?$char_traits@D@std@@V?$allocator@D@2@@2@@Z@4HA 00000001400363bc f   main.obj
 0001:000353c8       ?dtor$16@?0??Wczytaj_z_Pliku@@YAXAEAV?$basic_ofstream@DU?$char_traits@D@std@@@std@@AEAV?$basic_fstream@DU?$char_traits@D@std@@@2@AEADAEAH33AEAV?$basic_string@DU?$char_traits@D@std@@V?$allocator@D@2@@2@@Z@4HA 00000001400363c8 f   main.obj
 0001:000353d4       ?dtor$39@?0??Wczytaj_z_Pliku@@YAXAEAV?$basic_ofstream@DU?$char_traits@D@std@@@std@@AEAV?$basic_fstream@DU?$char_traits@D@std@@@2@AEADAEAH33AEAV?$basic_string@DU?$char_traits@D@std@@V?$allocator@D@2@@2@@Z@4HA 00000001400363d4 f   main.obj
 0001:000353e0       ?dtor$2@?0??Wczytaj_z_Pliku@@YAXAEAV?$basic_ofstream@DU?$char_traits@D@std@@@std@@AEAV?$basic_fstream@DU?$char_traits@D@std@@@2@AEADAEAH33AEAV?$basic_string@DU?$char_traits@D@std@@V?$allocator@D@2@@2@@Z@4HA 00000001400363e0 f   main.obj
 0001:000353ec       ?dtor$3@?0??Wczytaj_z_Pliku@@YAXAEAV?$basic_ofstream@DU?$char_traits@D@std@@@std@@AEAV?$basic_fstream@DU?$char_traits@D@std@@@2@AEADAEAH33AEAV?$basic_string@DU?$char_traits@D@std@@V?$allocator@D@2@@2@@Z@4HA 00000001400363ec f   main.obj
 0001:000353f8       ?dtor$4@?0??Wczytaj_z_Pliku@@YAXAEAV?$basic_ofstream@DU?$char_traits@D@std@@@std@@AEAV?$basic_fstream@DU?$char_traits@D@std@@@2@AEADAEAH33AEAV?$basic_string@DU?$char_traits@D@std@@V?$allocator@D@2@@2@@Z@4HA 00000001400363f8 f   main.obj
 0001:00035404       ?dtor$5@?0??Wczytaj_z_Pliku@@YAXAEAV?$basic_ofstream@DU?$char_traits@D@std@@@std@@AEAV?$basic_fstream@DU?$char_traits@D@std@@@2@AEADAEAH33AEAV?$basic_string@DU?$char_traits@D@std@@V?$allocator@D@2@@2@@Z@4HA 0000000140036404 f   main.obj
 0001:00035410       ?dtor$4@?0??SprawdŸ_Pliki@@YAXXZ@4HA 0000000140036410 f   main.obj
 0001:0003541c       ?dtor$5@?0??SprawdŸ_Pliki@@YAXXZ@4HA 000000014003641c f   main.obj
 0001:00035428       ?dtor$6@?0??SprawdŸ_Pliki@@YAXXZ@4HA 0000000140036428 f   main.obj
 0001:00035434       ?dtor$246@?0??SprawdŸ_Pliki@@YAXXZ@4HA 0000000140036434 f   main.obj
 0001:0003545a       ?dtor$267@?0??SprawdŸ_Pliki@@YAXXZ@4HA 000000014003645a f   main.obj
 0001:00035480       ?dtor$285@?0??SprawdŸ_Pliki@@YAXXZ@4HA 0000000140036480 f   main.obj
 0001:000354a6       ?dtor$303@?0??SprawdŸ_Pliki@@YAXXZ@4HA 00000001400364a6 f   main.obj
 0001:000354cc       ?dtor$316@?0??SprawdŸ_Pliki@@YAXXZ@4HA 00000001400364cc f   main.obj
 0001:000354f2       ?dtor$345@?0??SprawdŸ_Pliki@@YAXXZ@4HA 00000001400364f2 f   main.obj
 0001:0003551d       ?dtor$361@?0??SprawdŸ_Pliki@@YAXXZ@4HA 000000014003651d f   main.obj
 0001:00035548       ?dtor$429@?0??SprawdŸ_Pliki@@YAXXZ@4HA 0000000140036548 f   main.obj
 0001:00035573       ?dtor$450@?0??SprawdŸ_Pliki@@YAXXZ@4HA 0000000140036573 f   main.obj
 0001:0003559e       ?dtor$468@?0??SprawdŸ_Pliki@@YAXXZ@4HA 000000014003659e f   main.obj
 0001:000355c9       ?dtor$486@?0??SprawdŸ_Pliki@@YAXXZ@4HA 00000001400365c9 f   main.obj
 0001:000355f4       ?dtor$499@?0??SprawdŸ_Pliki@@YAXXZ@4HA 00000001400365f4 f   main.obj
 0001:0003561f       ?dtor$528@?0??SprawdŸ_Pliki@@YAXXZ@4HA 000000014003661f f   main.obj
 0001:0003564a       ?dtor$544@?0??SprawdŸ_Pliki@@YAXXZ@4HA 000000014003664a f   main.obj
 0001:00035675       ?dtor$612@?0??SprawdŸ_Pliki@@YAXXZ@4HA 0000000140036675 f   main.obj
 0001:000356a0       ?dtor$633@?0??SprawdŸ_Pliki@@YAXXZ@4HA 00000001400366a0 f   main.obj
 0001:000356cb       ?dtor$651@?0??SprawdŸ_Pliki@@YAXXZ@4HA 00000001400366cb f   main.obj
 0001:000356f6       ?dtor$669@?0??SprawdŸ_Pliki@@YAXXZ@4HA 00000001400366f6 f   main.obj
 0001:00035721       ?dtor$682@?0??SprawdŸ_Pliki@@YAXXZ@4HA 0000000140036721 f   main.obj
 0001:0003574c       ?dtor$711@?0??SprawdŸ_Pliki@@YAXXZ@4HA 000000014003674c f   main.obj
 0001:00035777       ?dtor$727@?0??SprawdŸ_Pliki@@YAXXZ@4HA 0000000140036777 f   main.obj
 0001:000357a2       ?dtor$795@?0??SprawdŸ_Pliki@@YAXXZ@4HA 00000001400367a2 f   main.obj
 0001:000357cd       ?dtor$816@?0??SprawdŸ_Pliki@@YAXXZ@4HA 00000001400367cd f   main.obj
 0001:000357f8       ?dtor$834@?0??SprawdŸ_Pliki@@YAXXZ@4HA 00000001400367f8 f   main.obj
 0001:00035823       ?dtor$852@?0??SprawdŸ_Pliki@@YAXXZ@4HA 0000000140036823 f   main.obj
 0001:0003584e       ?dtor$865@?0??SprawdŸ_Pliki@@YAXXZ@4HA 000000014003684e f   main.obj
 0001:00035879       ?dtor$894@?0??SprawdŸ_Pliki@@YAXXZ@4HA 0000000140036879 f   main.obj
 0001:000358a4       ?dtor$910@?0??SprawdŸ_Pliki@@YAXXZ@4HA 00000001400368a4 f   main.obj
 0001:000358ca       ?dtor$978@?0??SprawdŸ_Pliki@@YAXXZ@4HA 00000001400368ca f   main.obj
 0001:000358f0       ?dtor$999@?0??SprawdŸ_Pliki@@YAXXZ@4HA 00000001400368f0 f   main.obj
 0001:00035916       ?dtor$1017@?0??SprawdŸ_Pliki@@YAXXZ@4HA 0000000140036916 f   main.obj
 0001:0003593c       ?dtor$1035@?0??SprawdŸ_Pliki@@YAXXZ@4HA 000000014003693c f   main.obj
 0001:00035962       ?dtor$1048@?0??SprawdŸ_Pliki@@YAXXZ@4HA 0000000140036962 f   main.obj
 0001:00035988       ?dtor$1077@?0??SprawdŸ_Pliki@@YAXXZ@4HA 0000000140036988 f   main.obj
 0001:000359b3       ?dtor$1093@?0??SprawdŸ_Pliki@@YAXXZ@4HA 00000001400369b3 f   main.obj
 0001:000359de       ?dtor$1161@?0??SprawdŸ_Pliki@@YAXXZ@4HA 00000001400369de f   main.obj
 0001:00035a09       ?dtor$1182@?0??SprawdŸ_Pliki@@YAXXZ@4HA 0000000140036a09 f   main.obj
 0001:00035a34       ?dtor$1200@?0??SprawdŸ_Pliki@@YAXXZ@4HA 0000000140036a34 f   main.obj
 0001:00035a5f       ?dtor$1218@?0??SprawdŸ_Pliki@@YAXXZ@4HA 0000000140036a5f f   main.obj
 0001:00035a8a       ?dtor$52@?0??SprawdŸ_Pliki@@YAXXZ@4HA 0000000140036a8a f   main.obj
 0001:00035a96       ?dtor$53@?0??SprawdŸ_Pliki@@YAXXZ@4HA 0000000140036a96 f   main.obj
 0001:00035aa2       ?dtor$55@?0??SprawdŸ_Pliki@@YAXXZ@4HA 0000000140036aa2 f   main.obj
 0001:00035aae       ?dtor$56@?0??SprawdŸ_Pliki@@YAXXZ@4HA 0000000140036aae f   main.obj
 0001:00035aba       ?dtor$58@?0??SprawdŸ_Pliki@@YAXXZ@4HA 0000000140036aba f   main.obj
 0001:00035ac6       ?dtor$59@?0??SprawdŸ_Pliki@@YAXXZ@4HA 0000000140036ac6 f   main.obj
 0001:00035ad2       ?dtor$60@?0??SprawdŸ_Pliki@@YAXXZ@4HA 0000000140036ad2 f   main.obj
 0001:00035ade       ?dtor$61@?0??SprawdŸ_Pliki@@YAXXZ@4HA 0000000140036ade f   main.obj
 0001:00035aea       ?dtor$62@?0??SprawdŸ_Pliki@@YAXXZ@4HA 0000000140036aea f   main.obj
 0001:00035af6       ?dtor$64@?0??SprawdŸ_Pliki@@YAXXZ@4HA 0000000140036af6 f   main.obj
 0001:00035b02       ?dtor$65@?0??SprawdŸ_Pliki@@YAXXZ@4HA 0000000140036b02 f   main.obj
 0001:00035b0e       ?dtor$66@?0??SprawdŸ_Pliki@@YAXXZ@4HA 0000000140036b0e f   main.obj
 0001:00035b1a       ?dtor$67@?0??SprawdŸ_Pliki@@YAXXZ@4HA 0000000140036b1a f   main.obj
 0001:00035b26       ?dtor$68@?0??SprawdŸ_Pliki@@YAXXZ@4HA 0000000140036b26 f   main.obj
 0001:00035b32       ?dtor$69@?0??SprawdŸ_Pliki@@YAXXZ@4HA 0000000140036b32 f   main.obj
 0001:00035b3e       ?dtor$71@?0??SprawdŸ_Pliki@@YAXXZ@4HA 0000000140036b3e f   main.obj
 0001:00035b4a       ?dtor$72@?0??SprawdŸ_Pliki@@YAXXZ@4HA 0000000140036b4a f   main.obj
 0001:00035b56       ?dtor$73@?0??SprawdŸ_Pliki@@YAXXZ@4HA 0000000140036b56 f   main.obj
 0001:00035b62       ?dtor$74@?0??SprawdŸ_Pliki@@YAXXZ@4HA 0000000140036b62 f   main.obj
 0001:00035b6e       ?dtor$76@?0??SprawdŸ_Pliki@@YAXXZ@4HA 0000000140036b6e f   main.obj
 0001:00035b7a       ?dtor$77@?0??SprawdŸ_Pliki@@YAXXZ@4HA 0000000140036b7a f   main.obj
 0001:00035b86       ?dtor$78@?0??SprawdŸ_Pliki@@YAXXZ@4HA 0000000140036b86 f   main.obj
 0001:00035b92       ?dtor$79@?0??SprawdŸ_Pliki@@YAXXZ@4HA 0000000140036b92 f   main.obj
 0001:00035b9e       ?dtor$80@?0??SprawdŸ_Pliki@@YAXXZ@4HA 0000000140036b9e f   main.obj
 0001:00035baa       ?dtor$81@?0??SprawdŸ_Pliki@@YAXXZ@4HA 0000000140036baa f   main.obj
 0001:00035bb6       ?dtor$82@?0??SprawdŸ_Pliki@@YAXXZ@4HA 0000000140036bb6 f   main.obj
 0001:00035bc2       ?dtor$83@?0??SprawdŸ_Pliki@@YAXXZ@4HA 0000000140036bc2 f   main.obj
 0001:00035bce       ?dtor$84@?0??SprawdŸ_Pliki@@YAXXZ@4HA 0000000140036bce f   main.obj
 0001:00035bda       ?dtor$86@?0??SprawdŸ_Pliki@@YAXXZ@4HA 0000000140036bda f   main.obj
 0001:00035be6       ?dtor$87@?0??SprawdŸ_Pliki@@YAXXZ@4HA 0000000140036be6 f   main.obj
 0001:00035bf2       ?dtor$88@?0??SprawdŸ_Pliki@@YAXXZ@4HA 0000000140036bf2 f   main.obj
 0001:00035bfe       ?dtor$89@?0??SprawdŸ_Pliki@@YAXXZ@4HA 0000000140036bfe f   main.obj
 0001:00035c0a       ?dtor$90@?0??SprawdŸ_Pliki@@YAXXZ@4HA 0000000140036c0a f   main.obj
 0001:00035c16       ?dtor$91@?0??SprawdŸ_Pliki@@YAXXZ@4HA 0000000140036c16 f   main.obj
 0001:00035c22       ?dtor$92@?0??SprawdŸ_Pliki@@YAXXZ@4HA 0000000140036c22 f   main.obj
 0001:00035c2e       ?dtor$93@?0??SprawdŸ_Pliki@@YAXXZ@4HA 0000000140036c2e f   main.obj
 0001:00035c3a       ?dtor$95@?0??SprawdŸ_Pliki@@YAXXZ@4HA 0000000140036c3a f   main.obj
 0001:00035c46       ?dtor$96@?0??SprawdŸ_Pliki@@YAXXZ@4HA 0000000140036c46 f   main.obj
 0001:00035c52       ?dtor$97@?0??SprawdŸ_Pliki@@YAXXZ@4HA 0000000140036c52 f   main.obj
 0001:00035c5e       ?dtor$99@?0??SprawdŸ_Pliki@@YAXXZ@4HA 0000000140036c5e f   main.obj
 0001:00035c6a       ?dtor$100@?0??SprawdŸ_Pliki@@YAXXZ@4HA 0000000140036c6a f   main.obj
 0001:00035c76       ?dtor$101@?0??SprawdŸ_Pliki@@YAXXZ@4HA 0000000140036c76 f   main.obj
 0001:00035c82       ?dtor$102@?0??SprawdŸ_Pliki@@YAXXZ@4HA 0000000140036c82 f   main.obj
 0001:00035c8e       ?dtor$103@?0??SprawdŸ_Pliki@@YAXXZ@4HA 0000000140036c8e f   main.obj
 0001:00035c9a       ?dtor$104@?0??SprawdŸ_Pliki@@YAXXZ@4HA 0000000140036c9a f   main.obj
 0001:00035ca6       ?dtor$105@?0??SprawdŸ_Pliki@@YAXXZ@4HA 0000000140036ca6 f   main.obj
 0001:00035cb2       ?dtor$107@?0??SprawdŸ_Pliki@@YAXXZ@4HA 0000000140036cb2 f   main.obj
 0001:00035cbe       ?dtor$108@?0??SprawdŸ_Pliki@@YAXXZ@4HA 0000000140036cbe f   main.obj
 0001:00035cca       ?dtor$109@?0??SprawdŸ_Pliki@@YAXXZ@4HA 0000000140036cca f   main.obj
 0001:00035cd6       ?dtor$110@?0??SprawdŸ_Pliki@@YAXXZ@4HA 0000000140036cd6 f   main.obj
 0001:00035ce2       ?dtor$111@?0??SprawdŸ_Pliki@@YAXXZ@4HA 0000000140036ce2 f   main.obj
 0001:00035cee       ?dtor$112@?0??SprawdŸ_Pliki@@YAXXZ@4HA 0000000140036cee f   main.obj
 0001:00035cfa       ?dtor$115@?0??SprawdŸ_Pliki@@YAXXZ@4HA 0000000140036cfa f   main.obj
 0001:00035d06       ?dtor$116@?0??SprawdŸ_Pliki@@YAXXZ@4HA 0000000140036d06 f   main.obj
 0001:00035d12       ?dtor$117@?0??SprawdŸ_Pliki@@YAXXZ@4HA 0000000140036d12 f   main.obj
 0001:00035d1e       ?dtor$119@?0??SprawdŸ_Pliki@@YAXXZ@4HA 0000000140036d1e f   main.obj
 0001:00035d2a       ?dtor$120@?0??SprawdŸ_Pliki@@YAXXZ@4HA 0000000140036d2a f   main.obj
 0001:00035d40       ?dtor$4@?0??SprawdŸ_Ustawienia@@YAXXZ@4HA 0000000140036d40 f   main.obj
 0001:00035d6d       ?dtor$5@?0??SprawdŸ_Ustawienia@@YAXXZ@4HA 0000000140036d6d f   main.obj
 0001:00035d7d       ?dtor$0@?0??SprawdŸ_Ustawienia@@YAXXZ@4HA 0000000140036d7d f   main.obj
 0001:00035d89       ?dtor$1@?0??SprawdŸ_Ustawienia@@YAXXZ@4HA 0000000140036d89 f   main.obj
 0001:00035d95       ?dtor$14@?0??SprawdŸ_Ustawienia@@YAXXZ@4HA 0000000140036d95 f   main.obj
 0001:00035da1       ?dtor$2@?0??SprawdŸ_Ustawienia@@YAXXZ@4HA 0000000140036da1 f   main.obj
 0001:00035db0       ?dtor$16@?0??Wypakuj_Rar@@YAXAEBV?$basic_string@DU?$char_traits@D@std@@V?$allocator@D@2@@std@@@Z@4HA 0000000140036db0 f   main.obj
 0001:00035db0       ?dtor$1@?0??Og³oœ_Wynik@@YAXAEBH0AEAHAEAV?$basic_ofstream@DU?$char_traits@D@std@@@std@@AEAV?$basic_fstream@DU?$char_traits@D@std@@@2@@Z@4HA 0000000140036db0 f   main.obj
 0001:00035de0       ?dtor$21@?0??Usuñ_Folder_Wypakowany_i_Winrar@@YAXAEBV?$basic_string@DU?$char_traits@D@std@@V?$allocator@D@2@@std@@@Z@4HA 0000000140036de0 f   main.obj
 0001:00035e06       ?dtor$42@?0??Usuñ_Folder_Wypakowany_i_Winrar@@YAXAEBV?$basic_string@DU?$char_traits@D@std@@V?$allocator@D@2@@std@@@Z@4HA 0000000140036e06 f   main.obj
 0001:00035e2c       ?dtor$63@?0??Usuñ_Folder_Wypakowany_i_Winrar@@YAXAEBV?$basic_string@DU?$char_traits@D@std@@V?$allocator@D@2@@std@@@Z@4HA 0000000140036e2c f   main.obj
 0001:00035e52       ?dtor$84@?0??Usuñ_Folder_Wypakowany_i_Winrar@@YAXAEBV?$basic_string@DU?$char_traits@D@std@@V?$allocator@D@2@@std@@@Z@4HA 0000000140036e52 f   main.obj
 0001:00035e78       ?dtor$105@?0??Usuñ_Folder_Wypakowany_i_Winrar@@YAXAEBV?$basic_string@DU?$char_traits@D@std@@V?$allocator@D@2@@std@@@Z@4HA 0000000140036e78 f   main.obj
 0001:00035e9e       ?dtor$126@?0??Usuñ_Folder_Wypakowany_i_Winrar@@YAXAEBV?$basic_string@DU?$char_traits@D@std@@V?$allocator@D@2@@std@@@Z@4HA 0000000140036e9e f   main.obj
 0001:00035ec4       ?dtor$147@?0??Usuñ_Folder_Wypakowany_i_Winrar@@YAXAEBV?$basic_string@DU?$char_traits@D@std@@V?$allocator@D@2@@std@@@Z@4HA 0000000140036ec4 f   main.obj
 0001:00035eea       ?dtor$168@?0??Usuñ_Folder_Wypakowany_i_Winrar@@YAXAEBV?$basic_string@DU?$char_traits@D@std@@V?$allocator@D@2@@std@@@Z@4HA 0000000140036eea f   main.obj
 0001:00035f15       ?dtor$8@?0??Usuñ_Folder_Wypakowany_i_Winrar@@YAXAEBV?$basic_string@DU?$char_traits@D@std@@V?$allocator@D@2@@std@@@Z@4HA 0000000140036f15 f   main.obj
 0001:00035f21       ?dtor$10@?0??Usuñ_Folder_Wypakowany_i_Winrar@@YAXAEBV?$basic_string@DU?$char_traits@D@std@@V?$allocator@D@2@@std@@@Z@4HA 0000000140036f21 f   main.obj
 0001:00035f2d       ?dtor$11@?0??Usuñ_Folder_Wypakowany_i_Winrar@@YAXAEBV?$basic_string@DU?$char_traits@D@std@@V?$allocator@D@2@@std@@@Z@4HA 0000000140036f2d f   main.obj
 0001:00035f39       ?dtor$242@?0??Usuñ_Folder_Wypakowany_i_Winrar@@YAXAEBV?$basic_string@DU?$char_traits@D@std@@V?$allocator@D@2@@std@@@Z@4HA 0000000140036f39 f   main.obj
 0001:00035f64       ?dtor$13@?0??Usuñ_Folder_Wypakowany_i_Winrar@@YAXAEBV?$basic_string@DU?$char_traits@D@std@@V?$allocator@D@2@@std@@@Z@4HA 0000000140036f64 f   main.obj
 0001:00035f70       ?dtor$15@?0??Usuñ_Folder_Wypakowany_i_Winrar@@YAXAEBV?$basic_string@DU?$char_traits@D@std@@V?$allocator@D@2@@std@@@Z@4HA 0000000140036f70 f   main.obj
 0001:00035f7c       ?dtor$16@?0??Usuñ_Folder_Wypakowany_i_Winrar@@YAXAEBV?$basic_string@DU?$char_traits@D@std@@V?$allocator@D@2@@std@@@Z@4HA 0000000140036f7c f   main.obj
 0001:00035f88       ?dtor$17@?0??Usuñ_Folder_Wypakowany_i_Winrar@@YAXAEBV?$basic_string@DU?$char_traits@D@std@@V?$allocator@D@2@@std@@@Z@4HA 0000000140036f88 f   main.obj
 0001:00035f94       ?dtor$19@?0??Usuñ_Folder_Wypakowany_i_Winrar@@YAXAEBV?$basic_string@DU?$char_traits@D@std@@V?$allocator@D@2@@std@@@Z@4HA 0000000140036f94 f   main.obj
 0001:00035fa0       ?dtor$432@?0??Usuñ_Folder_Wypakowany_i_Winrar@@YAXAEBV?$basic_string@DU?$char_traits@D@std@@V?$allocator@D@2@@std@@@Z@4HA 0000000140036fa0 f   main.obj
 0001:00035fd0       ?dtor$0@?0???0?$basic_ofstream@DU?$char_traits@D@std@@@std@@QEAA@XZ@4HA 0000000140036fd0 f   main.obj
 0001:00035ffd       ?dtor$1@?0???0?$basic_ofstream@DU?$char_traits@D@std@@@std@@QEAA@XZ@4HA 0000000140036ffd f   main.obj
 0001:00036010       ?dtor$0@?0??overflow@?$basic_filebuf@DU?$char_traits@D@std@@@std@@MEAAHH@Z@4HA 0000000140037010 f   main.obj
 0001:00036010       ?dtor$0@?0??uflow@?$basic_filebuf@DU?$char_traits@D@std@@@std@@MEAAHXZ@4HA 0000000140037010 f   main.obj
 0001:00036010       ?dtor$0@?0??do_put@?$num_put@DV?$ostreambuf_iterator@DU?$char_traits@D@std@@@std@@@std@@MEBA?AV?$ostreambuf_iterator@DU?$char_traits@D@std@@@2@V32@AEAVios_base@2@DO@Z@4HA 0000000140037010 f   main.obj
 0001:00036010       ?dtor$0@?0??do_put@?$num_put@DV?$ostreambuf_iterator@DU?$char_traits@D@std@@@std@@@std@@MEBA?AV?$ostreambuf_iterator@DU?$char_traits@D@std@@@2@V32@AEAVios_base@2@DN@Z@4HA 0000000140037010 f   main.obj
 0001:00036020       ?dtor$0@?0???0?$basic_stringstream@DU?$char_traits@D@std@@V?$allocator@D@2@@std@@QEAA@H@Z@4HA 0000000140037020 f   main.obj
 0001:0003604d       ?dtor$4@?0???0?$basic_stringstream@DU?$char_traits@D@std@@V?$allocator@D@2@@std@@QEAA@H@Z@4HA 000000014003704d f   main.obj
 0001:0003605d       ?dtor$1@?0???0?$basic_stringstream@DU?$char_traits@D@std@@V?$allocator@D@2@@std@@QEAA@H@Z@4HA 000000014003705d f   main.obj
 0001:0003606d       ?dtor$8@?0???0?$basic_stringstream@DU?$char_traits@D@std@@V?$allocator@D@2@@std@@QEAA@H@Z@4HA 000000014003706d f   main.obj
 0001:00036080       ?dtor$1@?0??flush@?$basic_ostream@DU?$char_traits@D@std@@@std@@QEAAAEAV12@XZ@4HA 0000000140037080 f   main.obj
 0001:0003608c       ?dtor$0@?0??flush@?$basic_ostream@DU?$char_traits@D@std@@@std@@QEAAAEAV12@XZ@4HA 000000014003708c f   main.obj
 0001:000360a0       ?dtor$2@?0???6?$basic_ostream@DU?$char_traits@D@std@@@std@@QEAAAEAV01@H@Z@4HA 00000001400370a0 f   main.obj
 0001:000360ac       ?dtor$0@?0???6?$basic_ostream@DU?$char_traits@D@std@@@std@@QEAAAEAV01@H@Z@4HA 00000001400370ac f   main.obj
 0001:000360b8       ?dtor$1@?0???6?$basic_ostream@DU?$char_traits@D@std@@@std@@QEAAAEAV01@H@Z@4HA 00000001400370b8 f   main.obj
 0001:000360c4       ?catch$9@?0???6?$basic_ostream@DU?$char_traits@D@std@@@std@@QEAAAEAV01@H@Z@4HA 00000001400370c4 f   main.obj
 0001:000360d1       __catch$??6?$basic_ostream@DU?$char_traits@D@std@@@std@@QEAAAEAV01@H@Z$0 00000001400370d1 f   main.obj
 0001:00036110       ?dtor$2@?0???6?$basic_ostream@DU?$char_traits@D@std@@@std@@QEAAAEAV01@G@Z@4HA 0000000140037110 f   main.obj
 0001:0003611c       ?dtor$0@?0???6?$basic_ostream@DU?$char_traits@D@std@@@std@@QEAAAEAV01@G@Z@4HA 000000014003711c f   main.obj
 0001:00036128       ?dtor$1@?0???6?$basic_ostream@DU?$char_traits@D@std@@@std@@QEAAAEAV01@G@Z@4HA 0000000140037128 f   main.obj
 0001:00036134       ?catch$9@?0???6?$basic_ostream@DU?$char_traits@D@std@@@std@@QEAAAEAV01@G@Z@4HA 0000000140037134 f   main.obj
 0001:00036141       __catch$??6?$basic_ostream@DU?$char_traits@D@std@@@std@@QEAAAEAV01@G@Z$0 0000000140037141 f   main.obj
 0001:00036180       ?dtor$0@?0??do_put@?$num_put@DV?$ostreambuf_iterator@DU?$char_traits@D@std@@@std@@@std@@MEBA?AV?$ostreambuf_iterator@DU?$char_traits@D@std@@@2@V32@AEAVios_base@2@D_N@Z@4HA 0000000140037180 f   main.obj
 0001:0003618c       ?dtor$1@?0??do_put@?$num_put@DV?$ostreambuf_iterator@DU?$char_traits@D@std@@@std@@@std@@MEBA?AV?$ostreambuf_iterator@DU?$char_traits@D@std@@@2@V32@AEAVios_base@2@D_N@Z@4HA 000000014003718c f   main.obj
 0001:000361a0       ?dtor$0@?0??_Endwrite@?$basic_filebuf@DU?$char_traits@D@std@@@std@@IEAA_NXZ@4HA 00000001400371a0 f   main.obj
 0001:000361b0       ?dtor$2@?0??init@?$basic_ios@DU?$char_traits@D@std@@@std@@IEAAXPEAV?$basic_streambuf@DU?$char_traits@D@std@@@2@_N@Z@4HA 00000001400371b0 f   main.obj
 0001:000361b0       ?dtor$0@?0???$endl@DU?$char_traits@D@std@@@std@@YAAEAV?$basic_ostream@DU?$char_traits@D@std@@@0@AEAV10@@Z@4HA 00000001400371b0 f   main.obj
 0001:000361b0       ?dtor$0@?0??open@?$basic_filebuf@DU?$char_traits@D@std@@@std@@QEAAPEAV12@PEBDHH@Z@4HA 00000001400371b0 f   main.obj
 0001:000361c0       ?dtor$0@?0???0?$basic_ostream@DU?$char_traits@D@std@@@std@@QEAA@PEAV?$basic_streambuf@DU?$char_traits@D@std@@@1@_N@Z@4HA 00000001400371c0 f   main.obj
 0001:000361f0       ?dtor$0@?0???0?$basic_istream@DU?$char_traits@D@std@@@std@@QEAA@PEAV?$basic_streambuf@DU?$char_traits@D@std@@@1@_N@Z@4HA 00000001400371f0 f   main.obj
 0001:00036220       ?dtor$0@?0??_Iput@?$num_put@DV?$ostreambuf_iterator@DU?$char_traits@D@std@@@std@@@std@@AEBA?AV?$ostreambuf_iterator@DU?$char_traits@D@std@@@2@V32@AEAVios_base@2@DPEAD_K@Z@4HA 0000000140037220 f   main.obj
 0001:0003622c       ?dtor$1@?0??_Iput@?$num_put@DV?$ostreambuf_iterator@DU?$char_traits@D@std@@@std@@@std@@AEBA?AV?$ostreambuf_iterator@DU?$char_traits@D@std@@@2@V32@AEAVios_base@2@DPEAD_K@Z@4HA 000000014003722c f   main.obj
 0001:00036238       ?dtor$2@?0??_Iput@?$num_put@DV?$ostreambuf_iterator@DU?$char_traits@D@std@@@std@@@std@@AEBA?AV?$ostreambuf_iterator@DU?$char_traits@D@std@@@2@V32@AEAVios_base@2@DPEAD_K@Z@4HA 0000000140037238 f   main.obj
 0001:00036244       ?dtor$3@?0??_Iput@?$num_put@DV?$ostreambuf_iterator@DU?$char_traits@D@std@@@std@@@std@@AEBA?AV?$ostreambuf_iterator@DU?$char_traits@D@std@@@2@V32@AEAVios_base@2@DPEAD_K@Z@4HA 0000000140037244 f   main.obj
 0001:00036250       ?dtor$0@?0??_Fput@?$num_put@DV?$ostreambuf_iterator@DU?$char_traits@D@std@@@std@@@std@@AEBA?AV?$ostreambuf_iterator@DU?$char_traits@D@std@@@2@V32@AEAVios_base@2@DPEBD_K@Z@4HA 0000000140037250 f   main.obj
 0001:0003625c       ?dtor$1@?0??_Fput@?$num_put@DV?$ostreambuf_iterator@DU?$char_traits@D@std@@@std@@@std@@AEBA?AV?$ostreambuf_iterator@DU?$char_traits@D@std@@@2@V32@AEAVios_base@2@DPEBD_K@Z@4HA 000000014003725c f   main.obj
 0001:00036268       ?dtor$2@?0??_Fput@?$num_put@DV?$ostreambuf_iterator@DU?$char_traits@D@std@@@std@@@std@@AEBA?AV?$ostreambuf_iterator@DU?$char_traits@D@std@@@2@V32@AEAVios_base@2@DPEBD_K@Z@4HA 0000000140037268 f   main.obj
 0001:00036274       ?dtor$3@?0??_Fput@?$num_put@DV?$ostreambuf_iterator@DU?$char_traits@D@std@@@std@@@std@@AEBA?AV?$ostreambuf_iterator@DU?$char_traits@D@std@@@2@V32@AEAVios_base@2@DPEBD_K@Z@4HA 0000000140037274 f   main.obj
 0001:00036280       ?catch$0@?0??_Osfx@?$basic_ostream@DU?$char_traits@D@std@@@std@@QEAAXXZ@4HA 0000000140037280 f   main.obj
 0001:0003628d       __catch$?_Osfx@?$basic_ostream@DU?$char_traits@D@std@@@std@@QEAAXXZ$0 000000014003728d f   main.obj
 0001:000362a0       ?dtor$0@?0???$use_facet@V?$ctype@D@std@@@std@@YAAEBV?$ctype@D@0@AEBVlocale@0@@Z@4HA 00000001400372a0 f   main.obj
 0001:000362ac       ?dtor$2@?0???$use_facet@V?$ctype@D@std@@@std@@YAAEBV?$ctype@D@0@AEBVlocale@0@@Z@4HA 00000001400372ac f   main.obj
 0001:000362d0       ?dtor$1@?0???$?6U?$char_traits@D@std@@@std@@YAAEAV?$basic_ostream@DU?$char_traits@D@std@@@0@AEAV10@D@Z@4HA 00000001400372d0 f   main.obj
 0001:000362dc       ?dtor$0@?0???$?6U?$char_traits@D@std@@@std@@YAAEAV?$basic_ostream@DU?$char_traits@D@std@@@0@AEAV10@D@Z@4HA 00000001400372dc f   main.obj
 0001:000362e8       ?catch$16@?0???$?6U?$char_traits@D@std@@@std@@YAAEAV?$basic_ostream@DU?$char_traits@D@std@@@0@AEAV10@D@Z@4HA 00000001400372e8 f   main.obj
 0001:000362f5       __catch$??$?6U?$char_traits@D@std@@@std@@YAAEAV?$basic_ostream@DU?$char_traits@D@std@@@0@AEAV10@D@Z$0 00000001400372f5 f   main.obj
 0001:00036330       ?dtor$2@?0???$?6U?$char_traits@D@std@@@std@@YAAEAV?$basic_ostream@DU?$char_traits@D@std@@@0@AEAV10@PEBD@Z@4HA 0000000140037330 f   main.obj
 0001:0003633c       ?dtor$0@?0???$?6U?$char_traits@D@std@@@std@@YAAEAV?$basic_ostream@DU?$char_traits@D@std@@@0@AEAV10@PEBD@Z@4HA 000000014003733c f   main.obj
 0001:00036348       ?catch$13@?0???$?6U?$char_traits@D@std@@@std@@YAAEAV?$basic_ostream@DU?$char_traits@D@std@@@0@AEAV10@PEBD@Z@4HA 0000000140037348 f   main.obj
 0001:00036355       __catch$??$?6U?$char_traits@D@std@@@std@@YAAEAV?$basic_ostream@DU?$char_traits@D@std@@@0@AEAV10@PEBD@Z$0 0000000140037355 f   main.obj
 0001:00036390       ?dtor$0@?0???$?HDU?$char_traits@D@std@@V?$allocator@D@1@@std@@YA?AV?$basic_string@DU?$char_traits@D@std@@V?$allocator@D@2@@0@AEBV10@0@Z@4HA 0000000140037390 f   main.obj
 0001:00036390       ?dtor$0@?0???$?HDU?$char_traits@D@std@@V?$allocator@D@1@@std@@YA?AV?$basic_string@DU?$char_traits@D@std@@V?$allocator@D@2@@0@AEBV10@QEBD@Z@4HA 0000000140037390 f   main.obj
 0001:000363c0       ?dtor$0@?0???$?HDU?$char_traits@D@std@@V?$allocator@D@1@@std@@YA?AV?$basic_string@DU?$char_traits@D@std@@V?$allocator@D@2@@0@AEBV10@D@Z@4HA 00000001400373c0 f   main.obj
 0001:000363f0       ?catch$41@?0???$_Range_construct_or_tidy@PEBV?$basic_string@DU?$char_traits@D@std@@V?$allocator@D@2@@std@@@?$vector@V?$basic_string@DU?$char_traits@D@std@@V?$allocator@D@2@@std@@V?$allocator@V?$basic_string@DU?$char_traits@D@std@@V?$allocator@D@2@@std@@@2@@std@@AEAAXPEBV?$basic_string@DU?$char_traits@D@std@@V?$allocator@D@2@@1@0Uforward_iterator_tag@1@@Z@4HA 00000001400373f0 f   main.obj
 0001:000363fd       __catch$??$_Range_construct_or_tidy@PEBV?$basic_string@DU?$char_traits@D@std@@V?$allocator@D@2@@std@@@?$vector@V?$basic_string@DU?$char_traits@D@std@@V?$allocator@D@2@@std@@V?$allocator@V?$basic_string@DU?$char_traits@D@std@@V?$allocator@D@2@@std@@@2@@std@@AEAAXPEBV?$basic_string@DU?$char_traits@D@std@@V?$allocator@D@2@@1@0Uforward_iterator_tag@1@@Z$0 00000001400373fd f   main.obj
 0001:00036410       ?catch$47@?0???$_Construct@PEBG@?$deque@GV?$allocator@G@std@@@std@@QEAAXPEBG0@Z@4HA 0000000140037410 f   main.obj
 0001:0003641d       __catch$??$_Construct@PEBG@?$deque@GV?$allocator@G@std@@@std@@QEAAXPEBG0@Z$0 000000014003741d f   main.obj
 0001:00036430       ?dtor$0@?0???$use_facet@V?$num_put@DV?$ostreambuf_iterator@DU?$char_traits@D@std@@@std@@@std@@@std@@YAAEBV?$num_put@DV?$ostreambuf_iterator@DU?$char_traits@D@std@@@std@@@0@AEBVlocale@0@@Z@4HA 0000000140037430 f   main.obj
 0001:00036430       ?dtor$0@?0???$use_facet@V?$codecvt@DDU_Mbstatet@@@std@@@std@@YAAEBV?$codecvt@DDU_Mbstatet@@@0@AEBVlocale@0@@Z@4HA 0000000140037430 f   main.obj
 0001:0003643c       ?dtor$2@?0???$use_facet@V?$num_put@DV?$ostreambuf_iterator@DU?$char_traits@D@std@@@std@@@std@@@std@@YAAEBV?$num_put@DV?$ostreambuf_iterator@DU?$char_traits@D@std@@@std@@@0@AEBVlocale@0@@Z@4HA 000000014003743c f   main.obj
 0001:0003643c       ?dtor$2@?0???$use_facet@V?$codecvt@DDU_Mbstatet@@@std@@@std@@YAAEBV?$codecvt@DDU_Mbstatet@@@0@AEBVlocale@0@@Z@4HA 000000014003743c f   main.obj
 0001:00036460       ?dtor$0@?0???$use_facet@V?$numpunct@D@std@@@std@@YAAEBV?$numpunct@D@0@AEBVlocale@0@@Z@4HA 0000000140037460 f   main.obj
 0001:0003646c       ?dtor$2@?0???$use_facet@V?$numpunct@D@std@@@std@@YAAEBV?$numpunct@D@0@AEBVlocale@0@@Z@4HA 000000014003746c f   main.obj
 0001:00036489       ?dtor$3@?0???$use_facet@V?$numpunct@D@std@@@std@@YAAEBV?$numpunct@D@0@AEBVlocale@0@@Z@4HA 0000000140037489 f   main.obj
 0001:000364b5       ?dtor$5@?0???$use_facet@V?$numpunct@D@std@@@std@@YAAEBV?$numpunct@D@0@AEBVlocale@0@@Z@4HA 00000001400374b5 f   main.obj
 0001:000364d0       ?dtor$1@?0??put@?$basic_ostream@DU?$char_traits@D@std@@@std@@QEAAAEAV12@D@Z@4HA 00000001400374d0 f   main.obj
 0001:000364dc       ?dtor$0@?0??put@?$basic_ostream@DU?$char_traits@D@std@@@std@@QEAAAEAV12@D@Z@4HA 00000001400374dc f   main.obj
 0001:000364e8       ?catch$8@?0??put@?$basic_ostream@DU?$char_traits@D@std@@@std@@QEAAAEAV12@D@Z@4HA 00000001400374e8 f   main.obj
 0001:000364f5       __catch$?put@?$basic_ostream@DU?$char_traits@D@std@@@std@@QEAAAEAV12@D@Z$0 00000001400374f5 f   main.obj
 0001:00036530       ?catch$0@?0??_Init@?$numpunct@D@std@@IEAAXAEBV_Locinfo@2@_N@Z@4HA 0000000140037530 f   main.obj
 0001:0003653d       __catch$?_Init@?$numpunct@D@std@@IEAAXAEBV_Locinfo@2@_N@Z$0 000000014003753d f   main.obj
 0001:00036560       ?dtor$2@?0???$?5DU?$char_traits@D@std@@V?$allocator@D@1@@std@@YAAEAV?$basic_istream@DU?$char_traits@D@std@@@0@$$QEAV10@AEAV?$basic_string@DU?$char_traits@D@std@@V?$allocator@D@2@@0@@Z@4HA 0000000140037560 f   main.obj
 0001:0003656c       ?dtor$0@?0???$?5DU?$char_traits@D@std@@V?$allocator@D@1@@std@@YAAEAV?$basic_istream@DU?$char_traits@D@std@@@0@$$QEAV10@AEAV?$basic_string@DU?$char_traits@D@std@@V?$allocator@D@2@@0@@Z@4HA 000000014003756c f   main.obj
 0001:00036578       ?dtor$1@?0???$?5DU?$char_traits@D@std@@V?$allocator@D@1@@std@@YAAEAV?$basic_istream@DU?$char_traits@D@std@@@0@$$QEAV10@AEAV?$basic_string@DU?$char_traits@D@std@@V?$allocator@D@2@@0@@Z@4HA 0000000140037578 f   main.obj
 0001:00036584       ?catch$37@?0???$?5DU?$char_traits@D@std@@V?$allocator@D@1@@std@@YAAEAV?$basic_istream@DU?$char_traits@D@std@@@0@$$QEAV10@AEAV?$basic_string@DU?$char_traits@D@std@@V?$allocator@D@2@@0@@Z@4HA 0000000140037584 f   main.obj
 0001:00036591       __catch$??$?5DU?$char_traits@D@std@@V?$allocator@D@1@@std@@YAAEAV?$basic_istream@DU?$char_traits@D@std@@@0@$$QEAV10@AEAV?$basic_string@DU?$char_traits@D@std@@V?$allocator@D@2@@0@@Z$0 0000000140037591 f   main.obj
 0001:000365d0       ?dtor$1@?0???$getline@DU?$char_traits@D@std@@V?$allocator@D@2@@std@@YAAEAV?$basic_istream@DU?$char_traits@D@std@@@0@$$QEAV10@AEAV?$basic_string@DU?$char_traits@D@std@@V?$allocator@D@2@@0@D@Z@4HA 00000001400375d0 f   main.obj
 0001:000365dc       ?dtor$0@?0???$getline@DU?$char_traits@D@std@@V?$allocator@D@2@@std@@YAAEAV?$basic_istream@DU?$char_traits@D@std@@@0@$$QEAV10@AEAV?$basic_string@DU?$char_traits@D@std@@V?$allocator@D@2@@0@D@Z@4HA 00000001400375dc f   main.obj
 0001:000365e8       ?catch$36@?0???$getline@DU?$char_traits@D@std@@V?$allocator@D@2@@std@@YAAEAV?$basic_istream@DU?$char_traits@D@std@@@0@$$QEAV10@AEAV?$basic_string@DU?$char_traits@D@std@@V?$allocator@D@2@@0@D@Z@4HA 00000001400375e8 f   main.obj
 0001:000365f5       __catch$??$getline@DU?$char_traits@D@std@@V?$allocator@D@2@@std@@YAAEAV?$basic_istream@DU?$char_traits@D@std@@@0@$$QEAV10@AEAV?$basic_string@DU?$char_traits@D@std@@V?$allocator@D@2@@0@D@Z$0 00000001400375f5 f   main.obj
 0001:00036630       ?dtor$1@?0???$_Insert_string@DU?$char_traits@D@std@@_K@std@@YAAEAV?$basic_ostream@DU?$char_traits@D@std@@@0@AEAV10@QEBD_K@Z@4HA 0000000140037630 f   main.obj
 0001:0003663c       ?dtor$0@?0???$_Insert_string@DU?$char_traits@D@std@@_K@std@@YAAEAV?$basic_ostream@DU?$char_traits@D@std@@@0@AEAV10@QEBD_K@Z@4HA 000000014003763c f   main.obj
 0001:00036648       ?catch$12@?0???$_Insert_string@DU?$char_traits@D@std@@_K@std@@YAAEAV?$basic_ostream@DU?$char_traits@D@std@@@0@AEAV10@QEBD_K@Z@4HA 0000000140037648 f   main.obj
 0001:00036655       __catch$??$_Insert_string@DU?$char_traits@D@std@@_K@std@@YAAEAV?$basic_ostream@DU?$char_traits@D@std@@@0@AEAV10@QEBD_K@Z$0 0000000140037655 f   main.obj
 0001:00036690       ?dtor$0@?0??_Ipfx@?$basic_istream@DU?$char_traits@D@std@@@std@@QEAA_N_N@Z@4HA 0000000140037690 f   main.obj
 0001:0003669c       ?catch$13@?0??_Ipfx@?$basic_istream@DU?$char_traits@D@std@@@std@@QEAA_N_N@Z@4HA 000000014003769c f   main.obj
 0001:000366a9       __catch$?_Ipfx@?$basic_istream@DU?$char_traits@D@std@@@std@@QEAA_N_N@Z$0 00000001400376a9 f   main.obj
 0001:000366f0       ?dtor$5@?0???$_Buynode@AEBU?$pair@$$CBV?$basic_string@DU?$char_traits@D@std@@V?$allocator@D@2@@std@@G@std@@@?$_Tree_comp_alloc@V?$_Tmap_traits@V?$basic_string@DU?$char_traits@D@std@@V?$allocator@D@2@@std@@GU?$less@V?$basic_string@DU?$char_traits@D@std@@V?$allocator@D@2@@std@@@2@V?$allocator@U?$pair@$$CBV?$basic_string@DU?$char_traits@D@std@@V?$allocator@D@2@@std@@G@std@@@2@$0A@@std@@@std@@QEAAPEAU?$_Tree_node@U?$pair@$$CBV?$basic_string@DU?$char_traits@D@std@@V?$allocator@D@2@@std@@G@std@@PEAX@1@AEBU?$pair@$$CBV?$basic_string@DU?$char_traits@D@std@@V?$allocator@D@2@@std@@G@1@@Z@4HA 00000001400376f0 f   main.obj
 0001:0003670c       ?catch$8@?0???$_Buynode@AEBU?$pair@$$CBV?$basic_string@DU?$char_traits@D@std@@V?$allocator@D@2@@std@@G@std@@@?$_Tree_comp_alloc@V?$_Tmap_traits@V?$basic_string@DU?$char_traits@D@std@@V?$allocator@D@2@@std@@GU?$less@V?$basic_string@DU?$char_traits@D@std@@V?$allocator@D@2@@std@@@2@V?$allocator@U?$pair@$$CBV?$basic_string@DU?$char_traits@D@std@@V?$allocator@D@2@@std@@G@std@@@2@$0A@@std@@@std@@QEAAPEAU?$_Tree_node@U?$pair@$$CBV?$basic_string@DU?$char_traits@D@std@@V?$allocator@D@2@@std@@G@std@@PEAX@1@AEBU?$pair@$$CBV?$basic_string@DU?$char_traits@D@std@@V?$allocator@D@2@@std@@G@1@@Z@4HA 000000014003770c f   main.obj
 0001:00036719       __catch$??$_Buynode@AEBU?$pair@$$CBV?$basic_string@DU?$char_traits@D@std@@V?$allocator@D@2@@std@@G@std@@@?$_Tree_comp_alloc@V?$_Tmap_traits@V?$basic_string@DU?$char_traits@D@std@@V?$allocator@D@2@@std@@GU?$less@V?$basic_string@DU?$char_traits@D@std@@V?$allocator@D@2@@std@@@2@V?$allocator@U?$pair@$$CBV?$basic_string@DU?$char_traits@D@std@@V?$allocator@D@2@@std@@G@std@@@2@$0A@@std@@@std@@QEAAPEAU?$_Tree_node@U?$pair@$$CBV?$basic_string@DU?$char_traits@D@std@@V?$allocator@D@2@@std@@G@std@@PEAX@1@AEBU?$pair@$$CBV?$basic_string@DU?$char_traits@D@std@@V?$allocator@D@2@@std@@G@1@@Z$0 0000000140037719 f   main.obj
 0001:00036730       ?catch$232@?0???$_Insert_hint@AEAU?$pair@$$CBV?$basic_string@DU?$char_traits@D@std@@V?$allocator@D@2@@std@@G@std@@PEAU?$_Tree_node@U?$pair@$$CBV?$basic_string@DU?$char_traits@D@std@@V?$allocator@D@2@@std@@G@std@@PEAX@2@@?$_Tree@V?$_Tmap_traits@V?$basic_string@DU?$char_traits@D@std@@V?$allocator@D@2@@std@@GU?$less@V?$basic_string@DU?$char_traits@D@std@@V?$allocator@D@2@@std@@@2@V?$allocator@U?$pair@$$CBV?$basic_string@DU?$char_traits@D@std@@V?$allocator@D@2@@std@@G@std@@@2@$0A@@std@@@std@@IEAA?AV?$_Tree_iterator@V?$_Tree_val@U?$_Tree_simple_types@U?$pair@$$CBV?$basic_string@DU?$char_traits@D@std@@V?$allocator@D@2@@std@@G@std@@@std@@@std@@@1@V?$_Tree_const_iterator@V?$_Tree_val@U?$_Tree_simple_types@U?$pair@$$CBV?$basic_string@DU?$char_traits@D@std@@V?$allocator@D@2@@std@@G@std@@@std@@@std@@@1@AEAU?$pair@$$CBV?$basic_string@DU?$char_traits@D@std@@V?$allocator@D@2@@std@@G@1@PEAU?$_Tree_node@U?$pair@$$CBV?$basic_string@DU?$char_traits@D@std@@V?$allocator@D@2@@std@@G@std@@PEAX@1@@Z@4HA 0000000140037730 f   main.obj
 0001:0003673d       __catch$??$_Insert_hint@AEAU?$pair@$$CBV?$basic_string@DU?$char_traits@D@std@@V?$allocator@D@2@@std@@G@std@@PEAU?$_Tree_node@U?$pair@$$CBV?$basic_string@DU?$char_traits@D@std@@V?$allocator@D@2@@std@@G@std@@PEAX@2@@?$_Tree@V?$_Tmap_traits@V?$basic_string@DU?$char_traits@D@std@@V?$allocator@D@2@@std@@GU?$less@V?$basic_string@DU?$char_traits@D@std@@V?$allocator@D@2@@std@@@2@V?$allocator@U?$pair@$$CBV?$basic_string@DU?$char_traits@D@std@@V?$allocator@D@2@@std@@G@std@@@2@$0A@@std@@@std@@IEAA?AV?$_Tree_iterator@V?$_Tree_val@U?$_Tree_simple_types@U?$pair@$$CBV?$basic_string@DU?$char_traits@D@std@@V?$allocator@D@2@@std@@G@std@@@std@@@std@@@1@V?$_Tree_const_iterator@V?$_Tree_val@U?$_Tree_simple_types@U?$pair@$$CBV?$basic_string@DU?$char_traits@D@std@@V?$allocator@D@2@@std@@G@std@@@std@@@std@@@1@AEAU?$pair@$$CBV?$basic_string@DU?$char_traits@D@std@@V?$allocator@D@2@@std@@G@1@PEAU?$_Tree_node@U?$pair@$$CBV?$basic_string@DU?$char_traits@D@std@@V?$allocator@D@2@@std@@G@std@@PEAX@1@@Z$0 000000014003773d f   main.obj
 0001:00036750       ?dtor$0@?0???$_Uninitialized_copy_al_unchecked@PEBV?$basic_string@DU?$char_traits@D@std@@V?$allocator@D@2@@std@@PEAV12@V?$allocator@V?$basic_string@DU?$char_traits@D@std@@V?$allocator@D@2@@std@@@2@@std@@YAPEAV?$basic_string@DU?$char_traits@D@std@@V?$allocator@D@2@@0@PEBV10@0PEAV10@AEAV?$allocator@V?$basic_string@DU?$char_traits@D@std@@V?$allocator@D@2@@std@@@0@U_General_ptr_iterator_tag@0@U_Unused_parameter@0@@Z@4HA 0000000140037750 f   main.obj
 0001:0003676c       ?catch$2@?0???$_Uninitialized_copy_al_unchecked@PEBV?$basic_string@DU?$char_traits@D@std@@V?$allocator@D@2@@std@@PEAV12@V?$allocator@V?$basic_string@DU?$char_traits@D@std@@V?$allocator@D@2@@std@@@2@@std@@YAPEAV?$basic_string@DU?$char_traits@D@std@@V?$allocator@D@2@@0@PEBV10@0PEAV10@AEAV?$allocator@V?$basic_string@DU?$char_traits@D@std@@V?$allocator@D@2@@std@@@0@U_General_ptr_iterator_tag@0@U_Unused_parameter@0@@Z@4HA 000000014003776c f   main.obj
 0001:00036779       __catch$??$_Uninitialized_copy_al_unchecked@PEBV?$basic_string@DU?$char_traits@D@std@@V?$allocator@D@2@@std@@PEAV12@V?$allocator@V?$basic_string@DU?$char_traits@D@std@@V?$allocator@D@2@@std@@@2@@std@@YAPEAV?$basic_string@DU?$char_traits@D@std@@V?$allocator@D@2@@0@PEBV10@0PEAV10@AEAV?$allocator@V?$basic_string@DU?$char_traits@D@std@@V?$allocator@D@2@@std@@@0@U_General_ptr_iterator_tag@0@U_Unused_parameter@0@@Z$0 0000000140037779 f   main.obj
 0001:00036790       ?catch$87@?0???$_Insert_nohint@AEAU?$pair@$$CBV?$basic_string@DU?$char_traits@D@std@@V?$allocator@D@2@@std@@G@std@@PEAU?$_Tree_node@U?$pair@$$CBV?$basic_string@DU?$char_traits@D@std@@V?$allocator@D@2@@std@@G@std@@PEAX@2@@?$_Tree@V?$_Tmap_traits@V?$basic_string@DU?$char_traits@D@std@@V?$allocator@D@2@@std@@GU?$less@V?$basic_string@DU?$char_traits@D@std@@V?$allocator@D@2@@std@@@2@V?$allocator@U?$pair@$$CBV?$basic_string@DU?$char_traits@D@std@@V?$allocator@D@2@@std@@G@std@@@2@$0A@@std@@@std@@IEAA?AU?$pair@V?$_Tree_iterator@V?$_Tree_val@U?$_Tree_simple_types@U?$pair@$$CBV?$basic_string@DU?$char_traits@D@std@@V?$allocator@D@2@@std@@G@std@@@std@@@std@@@std@@_N@1@_NAEAU?$pair@$$CBV?$basic_string@DU?$char_traits@D@std@@V?$allocator@D@2@@std@@G@1@PEAU?$_Tree_node@U?$pair@$$CBV?$basic_string@DU?$char_traits@D@std@@V?$allocator@D@2@@std@@G@std@@PEAX@1@@Z@4HA 0000000140037790 f   main.obj
 0001:0003679d       __catch$??$_Insert_nohint@AEAU?$pair@$$CBV?$basic_string@DU?$char_traits@D@std@@V?$allocator@D@2@@std@@G@std@@PEAU?$_Tree_node@U?$pair@$$CBV?$basic_string@DU?$char_traits@D@std@@V?$allocator@D@2@@std@@G@std@@PEAX@2@@?$_Tree@V?$_Tmap_traits@V?$basic_string@DU?$char_traits@D@std@@V?$allocator@D@2@@std@@GU?$less@V?$basic_string@DU?$char_traits@D@std@@V?$allocator@D@2@@std@@@2@V?$allocator@U?$pair@$$CBV?$basic_string@DU?$char_traits@D@std@@V?$allocator@D@2@@std@@G@std@@@2@$0A@@std@@@std@@IEAA?AU?$pair@V?$_Tree_iterator@V?$_Tree_val@U?$_Tree_simple_types@U?$pair@$$CBV?$basic_string@DU?$char_traits@D@std@@V?$allocator@D@2@@std@@G@std@@@std@@@std@@@std@@_N@1@_NAEAU?$pair@$$CBV?$basic_string@DU?$char_traits@D@std@@V?$allocator@D@2@@std@@G@1@PEAU?$_Tree_node@U?$pair@$$CBV?$basic_string@DU?$char_traits@D@std@@V?$allocator@D@2@@std@@G@std@@PEAX@1@@Z$0 000000014003779d f   main.obj
 0001:000367b0       ?dtor$0@?0??_Locimp_dtor@_Locimp@locale@std@@CAXPEAV123@@Z@4HA 00000001400377b0 f   libcpmt:locale0.obj
 0001:000367b0       ?dtor$0@?0??_Init@locale@std@@CAPEAV_Locimp@12@_N@Z@4HA 00000001400377b0 f   libcpmt:locale0.obj
 0001:000367bc       ?fin$0@?0???_M@YAXPEAX_K1P6AX0@Z@Z@4HA 00000001400377bc f   LIBCMT:ehvecdtr.obj
 0001:000367e8       ?filt$0@?0??__ArrayUnwind@@YAXPEAX_K1P6AX0@Z@Z@4HA 00000001400377e8 f   LIBCMT:ehvecdtr.obj
 0001:00036829       __scrt_is_nonwritable_in_current_image$filt$0 0000000140037829 f   LIBCMT:utility.obj
 0001:00036841       ?filt$0@?0??__scrt_common_main_seh@@YAHXZ@4HA 0000000140037841 f   LIBCMT:exe_main.obj
 0001:0003685f       _CallSETranslator$filt$0   000000014003785f f   libvcruntime:risctrnsctrl.obj
 0001:000368f0       __DestructExceptionObject$filt$0 00000001400378f0 f   libvcruntime:ehhelpers.obj
 0001:00036908       __CxxCallCatchBlock$filt$0 0000000140037908 f   libvcruntime:frame.obj
 0001:0003692d       __CxxCallCatchBlock$fin$1  000000014003792d f   libvcruntime:frame.obj
 0001:000369a5       __FrameUnwindToState$filt$0 00000001400379a5 f   libvcruntime:frame.obj
 0001:000369bb       __FrameUnwindToState$fin$1 00000001400379bb f   libvcruntime:frame.obj
 0001:000369de       fputc$fin$0                00000001400379de f   libucrt:fputc.obj
 0001:000369f8       ?fin$0@?0???$?RV<lambda_886d6c58226a84441f68b9f2b8217b83>@@AEAV<lambda_ab61a845afdef5b7c387490eaf3616ee>@@V<lambda_f7f22ab5edc0698d5f6905b0d3f44752>@@@?$__crt_seh_guarded_call@X@@QEAAX$$QEAV<lambda_886d6c58226a84441f68b9f2b8217b83>@@AEAV<lambda_ab61a845afdef5b7c387490eaf3616ee>@@$$QEAV<lambda_f7f22ab5edc0698d5f6905b0d3f44752>@@@Z@4HA 00000001400379f8 f   libucrt:fflush.obj
 0001:00036a15       ?fin$0@?0???$?RV<lambda_bdbcead8b570fa3d5ec6d9679862a6e5>@@AEAV<lambda_96f4279ff90247a4c5c5d9824f56f8c1>@@V<lambda_4606be27f17b5e5579e09050fab91818>@@@?$__crt_seh_guarded_call@_K@@QEAA_K$$QEAV<lambda_bdbcead8b570fa3d5ec6d9679862a6e5>@@AEAV<lambda_96f4279ff90247a4c5c5d9824f56f8c1>@@$$QEAV<lambda_4606be27f17b5e5579e09050fab91818>@@@Z@4HA 0000000140037a15 f   libucrt:fwrite.obj
 0001:00036a15       ?fin$0@?0???$?RV<lambda_842d9ff0dc9ef11c61343bbaebe7f885>@@AEAV<lambda_c5860995281e5c4ce005b3de8f5874ee>@@V<lambda_d90129c13df834fdcbf8d2b88dafcf2d>@@@?$__crt_seh_guarded_call@X@@QEAAX$$QEAV<lambda_842d9ff0dc9ef11c61343bbaebe7f885>@@AEAV<lambda_c5860995281e5c4ce005b3de8f5874ee>@@$$QEAV<lambda_d90129c13df834fdcbf8d2b88dafcf2d>@@@Z@4HA 0000000140037a15 f   libucrt:fflush.obj
 0001:00036a15       ?fin$0@?0???$?RV<lambda_c376a267cfb53b6959b3b692ec76b120>@@AEAV<lambda_9a32fed5bf61b6b509b2d3f6003082a1>@@V<lambda_572fbb9fa0ab338edf41edfd4b5fcc8d>@@@?$__crt_seh_guarded_call@H@@QEAAH$$QEAV<lambda_c376a267cfb53b6959b3b692ec76b120>@@AEAV<lambda_9a32fed5bf61b6b509b2d3f6003082a1>@@$$QEAV<lambda_572fbb9fa0ab338edf41edfd4b5fcc8d>@@@Z@4HA 0000000140037a15 f   libucrt:fflush.obj
 0001:00036a15       ?fin$0@?0???$?RV<lambda_84ec643ea9557e2f7dc01bb0e9624395>@@AEAV<lambda_ca71763b3c0644891230e4f79ea54fa6>@@V<lambda_439a761618c59b0600e24586724d733b>@@@?$__crt_seh_guarded_call@H@@QEAAH$$QEAV<lambda_84ec643ea9557e2f7dc01bb0e9624395>@@AEAV<lambda_ca71763b3c0644891230e4f79ea54fa6>@@$$QEAV<lambda_439a761618c59b0600e24586724d733b>@@@Z@4HA 0000000140037a15 f   libucrt:setvbuf.obj
 0001:00036a30       fgetc$fin$0                0000000140037a30 f   libucrt:fgetc.obj
 0001:00036a4a       ungetc$fin$0               0000000140037a4a f   libucrt:ungetc.obj
 0001:00036a62       ?fin$0@?0???$common_ftell@_J@@YA_JV__crt_stdio_stream@@@Z@4HA 0000000140037a62 f   libucrt:ftell.obj
 0001:00036a62       fclose$fin$0               0000000140037a62 f   libucrt:fclose.obj
 0001:00036a62       ?fin$0@?0??common_fseek@@YAHV__crt_stdio_stream@@_JH@Z@4HA 0000000140037a62 f   libucrt:fseek.obj
 0001:00036a7a       ?fin$0@?0???$common_fsopen@D@@YAPEAU_iobuf@@QEBD0H@Z@4HA 0000000140037a7a f   libucrt:fopen.obj
 0001:00036aa5       _query_new_handler$fin$0   0000000140037aa5 f   libucrt:new_handler.obj
 0001:00036abb       ?filt$0@?0???R<lambda_6e4b09c48022b2350581041d5f6b0c4c>@@QEBA@XZ@4HA 0000000140037abb f   libucrt:exit.obj
 0001:00036ad6       ?fin$0@?0???$?RV<lambda_410d79af7f07d98d83a3f525b3859a53>@@AEAV<lambda_3e16ef9562a7dcce91392c22ab16ea36>@@V<lambda_38119f0e861e05405d8a144b9b982f0a>@@@?$__crt_seh_guarded_call@X@@QEAAX$$QEAV<lambda_410d79af7f07d98d83a3f525b3859a53>@@AEAV<lambda_3e16ef9562a7dcce91392c22ab16ea36>@@$$QEAV<lambda_38119f0e861e05405d8a144b9b982f0a>@@@Z@4HA 0000000140037ad6 f   libucrt:wsetlocale.obj
 0001:00036af0       ?fin$0@?0???$?RV<lambda_d8a01803c7231904df012bb083be9e3a>@@AEAV<lambda_b163b37eafe0a13f2c371fafeb0365c9>@@AEAV<lambda_8dff2cf36a5417162780cd64fa2883ef>@@@?$__crt_seh_guarded_call@X@@QEAAX$$QEAV<lambda_d8a01803c7231904df012bb083be9e3a>@@AEAV<lambda_b163b37eafe0a13f2c371fafeb0365c9>@@AEAV<lambda_8dff2cf36a5417162780cd64fa2883ef>@@@Z@4HA 0000000140037af0 f   libucrt:wsetlocale.obj
 0001:00036b11       ?fin$0@?0???$?RV<lambda_9529fede68560d7205a1271ab16b352e>@@AEAV<lambda_ebf8c556deb379764da826e7bb46e993>@@V<lambda_db92443d3c9ace7c8a20b950bb983b5a>@@@?$__crt_seh_guarded_call@X@@QEAAX$$QEAV<lambda_9529fede68560d7205a1271ab16b352e>@@AEAV<lambda_ebf8c556deb379764da826e7bb46e993>@@$$QEAV<lambda_db92443d3c9ace7c8a20b950bb983b5a>@@@Z@4HA 0000000140037b11 f   libucrt:wsetlocale.obj
 0001:00036b11       ?fin$0@?0???$?RV<lambda_d80eeec6fff315bfe5c115232f3240e3>@@AEAV<lambda_6e4b09c48022b2350581041d5f6b0c4c>@@V<lambda_2358e3775559c9db80273638284d5e45>@@@?$__crt_seh_guarded_call@X@@QEAAX$$QEAV<lambda_d80eeec6fff315bfe5c115232f3240e3>@@AEAV<lambda_6e4b09c48022b2350581041d5f6b0c4c>@@$$QEAV<lambda_2358e3775559c9db80273638284d5e45>@@@Z@4HA 0000000140037b11 f   libucrt:exit.obj
 0001:00036b11       ?fin$0@?0???$?RV<lambda_aa87e3671a710a21b5dc78c0bdf72e11>@@AEAV<lambda_92619d2358a28f41a33ba319515a20b9>@@V<lambda_6992ecaafeb10aed2b74cb1fae11a551>@@@?$__crt_seh_guarded_call@X@@QEAAX$$QEAV<lambda_aa87e3671a710a21b5dc78c0bdf72e11>@@AEAV<lambda_92619d2358a28f41a33ba319515a20b9>@@$$QEAV<lambda_6992ecaafeb10aed2b74cb1fae11a551>@@@Z@4HA 0000000140037b11 f   libucrt:per_thread_data.obj
 0001:00036b11       ?fin$0@?0???$?RV<lambda_8369fcb7c4df1e85de37618bd2b85f07>@@AEAV<lambda_a10e4b102d4a2c3aac6f4f48bbdf488f>@@V<lambda_5b7707bd6d7a0c4713179f36c7fd995d>@@@?$__crt_seh_guarded_call@H@@QEAAH$$QEAV<lambda_8369fcb7c4df1e85de37618bd2b85f07>@@AEAV<lambda_a10e4b102d4a2c3aac6f4f48bbdf488f>@@$$QEAV<lambda_5b7707bd6d7a0c4713179f36c7fd995d>@@@Z@4HA 0000000140037b11 f   libucrt:onexit.obj
 0001:00036b11       ?fin$0@?0???$?RV<lambda_450d765d439847d4c735a33c368b5fc0>@@AEAV<lambda_44731a7d0e6d81c3e6aa82d741081786>@@V<lambda_601a2a7da3b7a96e9554ac7215c4b07c>@@@?$__crt_seh_guarded_call@P6AXH@Z@@QEAAP6AXH@Z$$QEAV<lambda_450d765d439847d4c735a33c368b5fc0>@@AEAV<lambda_44731a7d0e6d81c3e6aa82d741081786>@@$$QEAV<lambda_601a2a7da3b7a96e9554ac7215c4b07c>@@@Z@4HA 0000000140037b11 f   libucrt:signal.obj
 0001:00036b11       ?fin$0@?0???$?RV<lambda_0ae27a3a962d80f24befdcbee591983d>@@AEAV<lambda_8d0ee55de4b1038c4002e0adecdf1839>@@V<lambda_dc504788e8f1664fe9b84e20bfb512f2>@@@?$__crt_seh_guarded_call@X@@QEAAX$$QEAV<lambda_0ae27a3a962d80f24befdcbee591983d>@@AEAV<lambda_8d0ee55de4b1038c4002e0adecdf1839>@@$$QEAV<lambda_dc504788e8f1664fe9b84e20bfb512f2>@@@Z@4HA 0000000140037b11 f   libucrt:per_thread_data.obj
 0001:00036b11       ?fin$0@?0???$?RV<lambda_efdfa57d1f175319df784efa44bb7b81>@@AEAV<lambda_5f0a4c1567f8adc6734073e5d1e1b35c>@@V<lambda_2e8a7d3640ea6ccb4c2413664c2db6fd>@@@?$__crt_seh_guarded_call@X@@QEAAX$$QEAV<lambda_efdfa57d1f175319df784efa44bb7b81>@@AEAV<lambda_5f0a4c1567f8adc6734073e5d1e1b35c>@@$$QEAV<lambda_2e8a7d3640ea6ccb4c2413664c2db6fd>@@@Z@4HA 0000000140037b11 f   libucrt:mbctype.obj
 0001:00036b11       ?fin$0@?0???$?RV<lambda_9bd929c17696992ce54f1d748594fc62>@@AEAV<lambda_082c17da81b0962e08c0587ee0fac50c>@@V<lambda_9c08ac857f4975304d44e9f601d9b878>@@@?$__crt_seh_guarded_call@PEAD@@QEAAPEAD$$QEAV<lambda_9bd929c17696992ce54f1d748594fc62>@@AEAV<lambda_082c17da81b0962e08c0587ee0fac50c>@@$$QEAV<lambda_9c08ac857f4975304d44e9f601d9b878>@@@Z@4HA 0000000140037b11 f   libucrt:setlocale.obj
 0001:00036b11       ?fin$0@?0???$?RV<lambda_2d41944a1d46af3157314b8a01080d33>@@AEAV<lambda_8f455de75cd7d7f24b4096f044d8b9e6>@@V<lambda_aa500f224e6afead328df44964fe2772>@@@?$__crt_seh_guarded_call@X@@QEAAX$$QEAV<lambda_2d41944a1d46af3157314b8a01080d33>@@AEAV<lambda_8f455de75cd7d7f24b4096f044d8b9e6>@@$$QEAV<lambda_aa500f224e6afead328df44964fe2772>@@@Z@4HA 0000000140037b11 f   libucrt:per_thread_data.obj
 0001:00036b11       ?fin$0@?0???$?RV<lambda_a22f0c497e5168315e06dae667770027>@@AEAV<lambda_a094494068278ba5130ab06e1292f60a>@@V<lambda_24dc10c13f43218c635520766e23e324>@@@?$__crt_seh_guarded_call@_N@@QEAA_N$$QEAV<lambda_a22f0c497e5168315e06dae667770027>@@AEAV<lambda_a094494068278ba5130ab06e1292f60a>@@$$QEAV<lambda_24dc10c13f43218c635520766e23e324>@@@Z@4HA 0000000140037b11 f   libucrt:spawnv.obj
 0001:00036b11       ?fin$0@?0???$?RV<lambda_bd00b5aa228bd7e7e5b2b5db5fd2933b>@@AEAV<lambda_777d11615145f89ee95b9466d285deeb>@@V<lambda_6e5e48fbd24f9f8f81b203eb3d877683>@@@?$__crt_seh_guarded_call@H@@QEAAH$$QEAV<lambda_bd00b5aa228bd7e7e5b2b5db5fd2933b>@@AEAV<lambda_777d11615145f89ee95b9466d285deeb>@@$$QEAV<lambda_6e5e48fbd24f9f8f81b203eb3d877683>@@@Z@4HA 0000000140037b11 f   libucrt:winapi_thunks.obj
 0001:00036b11       ?fin$0@?0???$?RV<lambda_f2e299630e499de9f9a165e60fcd3db5>@@AEAV<lambda_2ae9d31cdba2644fcbeaf08da7c24588>@@V<lambda_40d01ff24d0e7b3814fdbdcee8eab3c7>@@@?$__crt_seh_guarded_call@X@@QEAAX$$QEAV<lambda_f2e299630e499de9f9a165e60fcd3db5>@@AEAV<lambda_2ae9d31cdba2644fcbeaf08da7c24588>@@$$QEAV<lambda_40d01ff24d0e7b3814fdbdcee8eab3c7>@@@Z@4HA 0000000140037b11 f   libucrt:per_thread_data.obj
 0001:00036b11       ?fin$0@?0???$?RV<lambda_7777bce6b2f8c936911f934f8298dc43>@@AEAV<lambda_f03950bc5685219e0bcd2087efbe011e>@@V<lambda_3883c3dff614d5e0c5f61bb1ac94921c>@@@?$__crt_seh_guarded_call@H@@QEAAH$$QEAV<lambda_7777bce6b2f8c936911f934f8298dc43>@@AEAV<lambda_f03950bc5685219e0bcd2087efbe011e>@@$$QEAV<lambda_3883c3dff614d5e0c5f61bb1ac94921c>@@@Z@4HA 0000000140037b11 f   libucrt:onexit.obj
 0001:00036b2b       _read$fin$0                0000000140037b2b f   libucrt:read.obj
 0001:00036b2b       _write$fin$0               0000000140037b2b f   libucrt:write.obj
 0001:00036b2b       ?fin$0@?0???$common_lseek@_J@@YA_JH_JH@Z@4HA 0000000140037b2b f   libucrt:lseek.obj
 0001:00036b42       ?fin$0@?0???$?RV<lambda_a37b2b86f63e897a80ea819b0eb08c01>@@AEAV<lambda_38ce7e780aa69e748d6df282ebc68efe>@@V<lambda_99fb1378e971ab6e7edea83e3a7a83a2>@@@?$__crt_seh_guarded_call@H@@QEAAH$$QEAV<lambda_a37b2b86f63e897a80ea819b0eb08c01>@@AEAV<lambda_38ce7e780aa69e748d6df282ebc68efe>@@$$QEAV<lambda_99fb1378e971ab6e7edea83e3a7a83a2>@@@Z@4HA 0000000140037b42 f   libucrt:commit.obj
 0001:00036b42       ?fin$0@?0???$?RV<lambda_751a882b2c74d4b022dec766aa51a29a>@@AEAV<lambda_628dfdc04ba53c8bfc02c9951375f3f5>@@V<lambda_f6c7be5f7998530c34de24c7437d6b54>@@@?$__crt_seh_guarded_call@H@@QEAAH$$QEAV<lambda_751a882b2c74d4b022dec766aa51a29a>@@AEAV<lambda_628dfdc04ba53c8bfc02c9951375f3f5>@@$$QEAV<lambda_f6c7be5f7998530c34de24c7437d6b54>@@@Z@4HA 0000000140037b42 f   libucrt:close.obj
 0001:00036b5c       ?fin$0@?0???$common_dupenv_s@D@@YAHQEAPEADQEA_KQEBDH2H@Z@4HA 0000000140037b5c f   libucrt:getenv.obj
 0001:00036b75       ?fin$0@?0??__acrt_stdio_allocate_stream@@YA?AV__crt_stdio_stream@@XZ@4HA 0000000140037b75 f   libucrt:stream.obj
 0001:00036b75       _fcloseall$fin$0           0000000140037b75 f   libucrt:closeall.obj
 0001:00036b8e       _ctrlfp$filt$0             0000000140037b8e f   libucrt:fpctrl.obj
 0001:00036bba       raise$fin$0                0000000140037bba f   libucrt:signal.obj
 0001:00036bdb       ?fin$0@?0??update_thread_multibyte_data_internal@@YAPEAU__crt_multibyte_data@@QEAU__acrt_ptd@@QEAU1@@Z@4HA 0000000140037bdb f   libucrt:mbctype.obj
 0001:00036bf4       __acrt_lowio_ensure_fh_exists$fin$0 0000000140037bf4 f   libucrt:osfinfo.obj
 0001:00036bf4       _alloc_osfhnd$fin$0        0000000140037bf4 f   libucrt:osfinfo.obj
 0001:00036bf4       __acrt_initialize_lowio$fin$0 0000000140037bf4 f   libucrt:ioinit.obj
 0001:00036c0d       __acrt_update_thread_locale_data$fin$0 0000000140037c0d f   libucrt:locale_refcounting.obj
 0001:00036c26       ?fin$0@?0???$common_sopen_dispatch@D@@YAHQEBDHHHQEAHH@Z@4HA 0000000140037c26 f   libucrt:open.obj
 0001:00036c80       _IsNonwritableInCurrentImage$filt$0 0000000140037c80 f   LIBCMT:pesect.obj
 0001:00036ca0       ??__FRuletka_plansza_kolor_col@@YAXXZ 0000000140037ca0 f   main.obj
 0001:00036cd0       ??__FNumer_zasobu_rar@@YAXXZ 0000000140037cd0 f   main.obj
 0001:00036d00       ??__FNazwa_g³osu@@YAXXZ    0000000140037d00 f   main.obj
 0001:00036d10       ??__FG³os@@YAXXZ           0000000140037d10 f   main.obj
 0001:00036d1c       ??__Finitlocks@std@@YAXXZ  0000000140037d1c f   libcpmt:xlock.obj
 0001:00036d28       ??__Fcout@std@@YAXXZ       0000000140037d28 f   libcpmt:cout.obj
 0001:00036d88       ??__Ffout@std@@YAXXZ       0000000140037d88 f   libcpmt:cout.obj
 0001:00036d94       ??__Finitlocks@@YAXXZ      0000000140037d94 f   libcpmt:cout.obj
 0001:00036da0       ??__F_Fac_tidy_reg@std@@YAXXZ 0000000140037da0 f   libcpmt:locale0.obj
 0001:00036dcc       ??__Fclassic_locale@std@@YAXXZ 0000000140037dcc f   libcpmt:locale0.obj
 0001:00036e2c       ??__Fcin@std@@YAXXZ        0000000140037e2c f   libcpmt:cin.obj
 0001:00036e8c       ??__Ffin@std@@YAXXZ        0000000140037e8c f   libcpmt:cin.obj
 0001:00036e98       ??__Finitlocks@@YAXXZ      0000000140037e98 f   libcpmt:cin.obj
 0001:00036ea4       ??__Finit_atexit@@YAXXZ    0000000140037ea4 f   libcpmt:iosptrs.obj
 0001:00036ef8       ??__Finitlocks@std@@YAXXZ  0000000140037ef8 f   libcpmt:iosptrs.obj
 0002:00000360       ?pre_cpp_initializer@@3P6AXXZEA 0000000140038360     LIBCMT:exe_main.obj
 0002:00000368       ?initlocks$initializer$@std@@3P6AXXZEA 0000000140038368     libcpmt:xlock.obj
 0002:00000370       ?initlocks$initializer$@@3P6AXXZEA 0000000140038370     libcpmt:cout.obj
 0002:00000378       ?fout$initializer$@std@@3P6AXXZEA 0000000140038378     libcpmt:cout.obj
 0002:00000380       ?cout$initializer$@std@@3P6AXXZEA 0000000140038380     libcpmt:cout.obj
 0002:00000388       ?init_cout$initializer$@std@@3P6AXXZEA 0000000140038388     libcpmt:cout.obj
 0002:00000390       ?initlocks$initializer$@@3P6AXXZEA 0000000140038390     libcpmt:cin.obj
 0002:00000398       ?fin$initializer$@std@@3P6AXXZEA 0000000140038398     libcpmt:cin.obj
 0002:000003a0       ?cin$initializer$@std@@3P6AXXZEA 00000001400383a0     libcpmt:cin.obj
 0002:000003a8       ?init_cin$initializer$@std@@3P6AXXZEA 00000001400383a8     libcpmt:cin.obj
 0002:000003b0       ?initlocks$initializer$@std@@3P6AXXZEA 00000001400383b0     libcpmt:iosptrs.obj
 0002:000003b8       ?init_atexit$initializer$@@3P6AXXZEA 00000001400383b8     libcpmt:iosptrs.obj
 0002:000003c0       ?_Fac_tidy_reg$initializer$@std@@3P6AXXZEA 00000001400383c0     libcpmt:locale0.obj
 0002:000003c8       ?classic_locale$initializer$@std@@3P6AXXZEA 00000001400383c8     libcpmt:locale0.obj
 0002:000003d0       ?Ruletka_plansza_kolor_col$initializer$@@3P6AXXZEA 00000001400383d0     main.obj
 0002:000003d8       ?Numer_zasobu_rar$initializer$@@3P6AXXZEA 00000001400383d8     main.obj
 0002:000003e0       ?Nazwa_g³osu$initializer$@@3P6AXXZEA 00000001400383e0     main.obj
 0002:000003e8       ?G³os$initializer$@@3P6AXXZEA 00000001400383e8     main.obj
 0002:00000400       ?pre_c_initializer@@3P6AHXZEA 0000000140038400     LIBCMT:exe_main.obj
 0002:00000408       ?post_pgo_initializer@@3P6AHXZEA 0000000140038408     LIBCMT:exe_main.obj
 0002:00000410       ?pinit@@3P6AHXZEA          0000000140038410     libcpmt:winapisupp.obj
 0002:00000528       $cppxdata$??__Fcout@std@@YAXXZ 0000000140038528     libcpmt:cout.obj
 0002:000007a8       $cppxdata$??_G_Fac_node@std@@QEAAPEAXI@Z 00000001400387a8     libcpmt:locale0.obj
 0002:000007d0       $cppxdata$?_Locimp_dtor@_Locimp@locale@std@@CAXPEAV123@@Z 00000001400387d0     libcpmt:locale0.obj
 0002:000007f8       $cppxdata$??_G_Locimp@locale@std@@MEAAPEAXI@Z 00000001400387f8     libcpmt:locale0.obj
 0002:00000820       $cppxdata$?_Init@locale@std@@CAPEAV_Locimp@12@_N@Z 0000000140038820     libcpmt:locale0.obj
 0002:00000848       $cppxdata$??__Fclassic_locale@std@@YAXXZ 0000000140038848     libcpmt:locale0.obj
 0002:00000898       $cppxdata$??__Fcin@std@@YAXXZ 0000000140038898     libcpmt:cin.obj
 0002:00000950       ?mods@?1??_Xfsopen@std@@YAPEAU_iobuf@@PEBDHH@Z@4QBQEBDB 0000000140038950     libcpmt:fiopen.obj
 0002:00000a50       ?_Win_errtab@std@@3QBU_Win_errtab_t@1@B 0000000140038a50     libcpmt:syserror.obj
 0002:00000ca0       ?_Sys_errtab@std@@3QBU_Sys_errtab_t@1@B 0000000140038ca0     libcpmt:syserror.obj
 0002:00001c28       $cppxdata$??__Finit_atexit@@YAXXZ 0000000140039c28     libcpmt:iosptrs.obj
 0002:00001d10       digits                     0000000140039d10     libcpmt:xstoul.obj
 0002:00001d38       ndigs                      0000000140039d38     libcpmt:xstoul.obj
 0002:00001d60       digits                     0000000140039d60     libcpmt:xstoull.obj
 0002:00001d88       ndigs                      0000000140039d88     libcpmt:xstoull.obj
 0002:00001db0       ?LcidToLocaleNameTable@@3QBULcidToLocaleName@@B 0000000140039db0     libcpmt:winapinls.obj
 0002:00002bf0       ?LocaleNameToIndexTable@@3QBULocaleNameIndex@@B 000000014003abf0     libcpmt:winapinls.obj
 0002:00005100       GS_ExceptionPointers       000000014003d100     LIBCMT:gs_report.obj
 0002:00005140       ?ExceptionTemplate@?1??_UnwindNestedFrames@@9@4U_EXCEPTION_RECORD@@B 000000014003d140     libvcruntime:risctrnsctrl.obj
 0002:000051e0       ?ExceptionTemplate@?1??_CxxThrowException@@9@4UEHExceptionRecord@@B 000000014003d1e0     libvcruntime:throw.obj
 0002:00005248       ?module_names@?A0xc646a32c@@3QBQEB_WB 000000014003d248     libvcruntime:winapi_downlevel.obj
 0002:00005318       ?candidate_modules@?1??try_get_FlsAlloc@@YAP6AKP6AXPEAX@Z@ZXZ@4QBW4module_id@?A0xc646a32c@@B 000000014003d318     libvcruntime:winapi_downlevel.obj
 0002:00005320       ?candidate_modules@?1??try_get_FlsFree@@YAP6AHK@ZXZ@4QBW4module_id@?A0xc646a32c@@B 000000014003d320     libvcruntime:winapi_downlevel.obj
 0002:00005328       ?candidate_modules@?1??try_get_FlsGetValue@@YAP6APEAXK@ZXZ@4QBW4module_id@?A0xc646a32c@@B 000000014003d328     libvcruntime:winapi_downlevel.obj
 0002:00005330       ?candidate_modules@?1??try_get_FlsSetValue@@YAP6AHKPEAX@ZXZ@4QBW4module_id@?A0xc646a32c@@B 000000014003d330     libvcruntime:winapi_downlevel.obj
 0002:00005338       ?candidate_modules@?1??try_get_InitializeCriticalSectionEx@@YAP6AHPEAU_RTL_CRITICAL_SECTION@@KK@ZXZ@4QBW4module_id@?A0xc646a32c@@B 000000014003d338     libvcruntime:winapi_downlevel.obj
 0002:00005340       ?tokenTable@@3QBQEBDB      000000014003d340     libvcruntime:undname.obj
 0002:000053b0       ?nameTable@@3QBQEBDB       000000014003d3b0     libvcruntime:undname.obj
 0002:00005640       ?rttiTable@@3QBQEBDB       000000014003d640     libvcruntime:undname.obj
 0002:00005d48       ?comspec_name@?1???$common_system@D@@YAHQEBD@Z@4QBDB 000000014003dd48     libucrt:system.obj
 0002:00005d50       ?cmd_exe@?1???$common_system@D@@YAHQEBD@Z@4QBDB 000000014003dd50     libucrt:system.obj
 0002:00005d58       ?slash_c@?1???$common_system@D@@YAHQEBD@Z@4QBDB 000000014003dd58     libucrt:system.obj
 0002:00005d60       ?errtable@@3QBUerrentry@?A0x31fdb9ec@@B 000000014003dd60     libucrt:errno.obj
 0002:000070c0       __flag_x_one_y_snan        000000014003f0c0     libucrt:pow.obj
 0002:000070c4       __flag_x_zero_z_inf        000000014003f0c4     libucrt:pow.obj
 0002:000070c8       __flag_x_nan               000000014003f0c8     libucrt:pow.obj
 0002:000070cc       __flag_y_nan               000000014003f0cc     libucrt:pow.obj
 0002:000070d0       __flag_x_nan_y_nan         000000014003f0d0     libucrt:pow.obj
 0002:000070d4       __flag_x_neg_y_notint      000000014003f0d4     libucrt:pow.obj
 0002:000070d8       __flag_z_zero              000000014003f0d8     libucrt:pow.obj
 0002:000070dc       __flag_z_denormal          000000014003f0dc     libucrt:pow.obj
 0002:000070e0       __flag_z_inf               000000014003f0e0     libucrt:pow.obj
 0002:000070f0       __ay_max_bound             000000014003f0f0     libucrt:pow.obj
 0002:000070f8       __ay_min_bound             000000014003f0f8     libucrt:pow.obj
 0002:00007100       __sign_mask                000000014003f100     libucrt:pow.obj
 0002:00007108       __sign_and_exp_mask        000000014003f108     libucrt:pow.obj
 0002:00007110       __exp_mask                 000000014003f110     libucrt:pow.obj
 0002:00007118       __neg_inf                  000000014003f118     libucrt:pow.obj
 0002:00007120       __pos_inf                  000000014003f120     libucrt:pow.obj
 0002:00007128       __pos_one                  000000014003f128     libucrt:pow.obj
 0002:00007130       __pos_zero                 000000014003f130     libucrt:pow.obj
 0002:00007138       __exp_mant_mask            000000014003f138     libucrt:pow.obj
 0002:00007140       __mant_mask                000000014003f140     libucrt:pow.obj
 0002:00007148       __ind_pattern              000000014003f148     libucrt:pow.obj
 0002:00007150       __neg_qnan                 000000014003f150     libucrt:pow.obj
 0002:00007158       __qnan                     000000014003f158     libucrt:pow.obj
 0002:00007160       __qnan_set                 000000014003f160     libucrt:pow.obj
 0002:00007168       __neg_one                  000000014003f168     libucrt:pow.obj
 0002:00007170       __neg_zero                 000000014003f170     libucrt:pow.obj
 0002:00007178       __exp_shift                000000014003f178     libucrt:pow.obj
 0002:00007180       __exp_bias                 000000014003f180     libucrt:pow.obj
 0002:00007188       __exp_bias_m1              000000014003f188     libucrt:pow.obj
 0002:00007190       __yexp_53                  000000014003f190     libucrt:pow.obj
 0002:00007198       __mant_full                000000014003f198     libucrt:pow.obj
 0002:000071a0       __1_before_mant            000000014003f1a0     libucrt:pow.obj
 0002:000071a8       __mask_mant_all8           000000014003f1a8     libucrt:pow.obj
 0002:000071b0       __mask_mant9               000000014003f1b0     libucrt:pow.obj
 0002:000071c0       __real_fffffffff8000000    000000014003f1c0     libucrt:pow.obj
 0002:000071d0       __mask_8000000000000000    000000014003f1d0     libucrt:pow.obj
 0002:000071e0       __real_4090040000000000    000000014003f1e0     libucrt:pow.obj
 0002:000071f0       __real_C090C80000000000    000000014003f1f0     libucrt:pow.obj
 0002:00007200       __real_ninf                000000014003f200     libucrt:pow.obj
 0002:00007210       __real_inf                 000000014003f210     libucrt:pow.obj
 0002:00007220       __real_nan                 000000014003f220     libucrt:pow.obj
 0002:00007230       __real_mant                000000014003f230     libucrt:pow.obj
 0002:00007240       __mask_1023                000000014003f240     libucrt:pow.obj
 0002:00007250       __mask_001                 000000014003f250     libucrt:pow.obj
 0002:00007260       __real_log2_lead           000000014003f260     libucrt:pow.obj
 0002:00007270       __real_log2_tail           000000014003f270     libucrt:pow.obj
 0002:00007280       __real_two                 000000014003f280     libucrt:pow.obj
 0002:00007290       __real_one                 000000014003f290     libucrt:pow.obj
 0002:000072a0       __real_half                000000014003f2a0     libucrt:pow.obj
 0002:000072b0       __mask_100                 000000014003f2b0     libucrt:pow.obj
 0002:000072c0       __real_1_over_2            000000014003f2c0     libucrt:pow.obj
 0002:000072d0       __real_1_over_3            000000014003f2d0     libucrt:pow.obj
 0002:000072e0       __real_1_over_4            000000014003f2e0     libucrt:pow.obj
 0002:000072f0       __real_1_over_5            000000014003f2f0     libucrt:pow.obj
 0002:00007300       __real_1_over_6            000000014003f300     libucrt:pow.obj
 0002:00007310       __real_1_over_7            000000014003f310     libucrt:pow.obj
 0002:00007320       __mask_1023_f              000000014003f320     libucrt:pow.obj
 0002:00007330       __mask_2045                000000014003f330     libucrt:pow.obj
 0002:00007340       __real_threshold           000000014003f340     libucrt:pow.obj
 0002:00007350       __real_notsign             000000014003f350     libucrt:pow.obj
 0002:00007360       __log_F_inv_head           000000014003f360     libucrt:pow.obj
 0002:00007b70       __log_F_inv_tail           000000014003fb70     libucrt:pow.obj
 0002:00008380       __denormal_threshold       0000000140040380     libucrt:pow.obj
 0002:00008390       __enable_almost_inf        0000000140040390     libucrt:pow.obj
 0002:000083a0       __real_zero                00000001400403a0     libucrt:pow.obj
 0002:000083b0       __real_smallest_denormal   00000001400403b0     libucrt:pow.obj
 0002:000083c0       __denormal_tiny_threshold  00000001400403c0     libucrt:pow.obj
 0002:000083d0       __real_p65536              00000001400403d0     libucrt:pow.obj
 0002:000083e0       __real_m68800              00000001400403e0     libucrt:pow.obj
 0002:000083f0       __real_64_by_log2          00000001400403f0     libucrt:pow.obj
 0002:00008400       __real_log2_by_64_head     0000000140040400     libucrt:pow.obj
 0002:00008410       __real_log2_by_64_tail     0000000140040410     libucrt:pow.obj
 0002:00008420       __real_1_by_720            0000000140040420     libucrt:pow.obj
 0002:00008430       __real_1_by_120            0000000140040430     libucrt:pow.obj
 0002:00008440       __real_1_by_24             0000000140040440     libucrt:pow.obj
 0002:00008450       __real_1_by_6              0000000140040450     libucrt:pow.obj
 0002:00008460       __real_1_by_2              0000000140040460     libucrt:pow.obj
 0002:00008470       __flag_x_one_y_snan        0000000140040470     libucrt:powf.obj
 0002:00008474       __flag_x_zero_z_inf        0000000140040474     libucrt:powf.obj
 0002:00008478       __flag_x_nan               0000000140040478     libucrt:powf.obj
 0002:0000847c       __flag_y_nan               000000014004047c     libucrt:powf.obj
 0002:00008480       __flag_x_nan_y_nan         0000000140040480     libucrt:powf.obj
 0002:00008484       __flag_x_neg_y_notint      0000000140040484     libucrt:powf.obj
 0002:00008488       __flag_z_zero              0000000140040488     libucrt:powf.obj
 0002:0000848c       __flag_z_denormal          000000014004048c     libucrt:powf.obj
 0002:00008490       __flag_z_inf               0000000140040490     libucrt:powf.obj
 0002:00008494       L__1_by_3                  0000000140040494     libucrt:powf.obj
 0002:0000849c       L__log2                    000000014004049c     libucrt:powf.obj
 0002:000084a4       L__max_exp_arg             00000001400404a4     libucrt:powf.obj
 0002:000084ac       L__min_exp_arg             00000001400404ac     libucrt:powf.obj
 0002:000084b4       L__real_log2_by_64         00000001400404b4     libucrt:powf.obj
 0002:000084bc       L__1_by_6                  00000001400404bc     libucrt:powf.obj
 0002:000084c4       L__real_threshold          00000001400404c4     libucrt:powf.obj
 0002:000084cc       L__real_one                00000001400404cc     libucrt:powf.obj
 0002:000084d4       L__real_two                00000001400404d4     libucrt:powf.obj
 0002:000084dc       L__neg_zero                00000001400404dc     libucrt:powf.obj
 0002:000084f0       L__real_ca42               00000001400404f0     libucrt:powf.obj
 0002:000084f8       L__real_ca4                00000001400404f8     libucrt:powf.obj
 0002:00008500       L__real_ca31               0000000140040500     libucrt:powf.obj
 0002:00008508       L__real_ca3                0000000140040508     libucrt:powf.obj
 0002:00008510       L__clear_sign              0000000140040510     libucrt:powf.obj
 0002:00008520       L__real_64_by_log2         0000000140040520     libucrt:powf.obj
 0002:00008530       L__1_by_2                  0000000140040530     libucrt:powf.obj
 0002:00008540       L__1023                    0000000140040540     libucrt:powf.obj
 0002:00008550       L__xexp_bits_xmantissa_bits 0000000140040550     libucrt:powf.obj
 0002:00008e70       __acrt_initializers        0000000140040e70     libucrt:initialization.obj
 0002:00009070       _first_127char             0000000140041070     libucrt:wsetlocale.obj
 0002:00009120       ?module_names@?A0x391cf84c@@3QBQEB_WB 0000000140041120     libucrt:winapi_thunks.obj
 0002:00009618       ?candidate_modules@?1??try_get_AreFileApisANSI@@YAP6AHXZXZ@4QBW4module_id@?A0x391cf84c@@B 0000000140041618     libucrt:winapi_thunks.obj
 0002:00009630       ?candidate_modules@?1??try_get_CompareStringEx@@YAP6AHPEB_WK0H0HPEAU_nlsversioninfo@@PEAX_J@ZXZ@4QBW4module_id@?A0x391cf84c@@B 0000000140041630     libucrt:winapi_thunks.obj
 0002:00009638       ?candidate_modules@?1??try_get_EnumSystemLocalesEx@@YAP6AHP6AHPEA_WK_J@ZK1PEAX@ZXZ@4QBW4module_id@?A0x391cf84c@@B 0000000140041638     libucrt:winapi_thunks.obj
 0002:00009658       ?candidate_modules@?1??try_get_FlsAlloc@@YAP6AKP6AXPEAX@Z@ZXZ@4QBW4module_id@?A0x391cf84c@@B 0000000140041658     libucrt:winapi_thunks.obj
 0002:00009660       ?candidate_modules@?1??try_get_FlsFree@@YAP6AHK@ZXZ@4QBW4module_id@?A0x391cf84c@@B 0000000140041660     libucrt:winapi_thunks.obj
 0002:00009668       ?candidate_modules@?1??try_get_FlsGetValue@@YAP6APEAXK@ZXZ@4QBW4module_id@?A0x391cf84c@@B 0000000140041668     libucrt:winapi_thunks.obj
 0002:00009670       ?candidate_modules@?1??try_get_FlsSetValue@@YAP6AHKPEAX@ZXZ@4QBW4module_id@?A0x391cf84c@@B 0000000140041670     libucrt:winapi_thunks.obj
 0002:00009678       ?candidate_modules@?1??try_get_GetDateFormatEx@@YAP6AHPEB_WKPEBU_SYSTEMTIME@@0PEA_WH0@ZXZ@4QBW4module_id@?A0x391cf84c@@B 0000000140041678     libucrt:winapi_thunks.obj
 0002:00009690       ?candidate_modules@?1??try_get_GetLocaleInfoEx@@YAP6AHPEB_WKPEA_WH@ZXZ@4QBW4module_id@?A0x391cf84c@@B 0000000140041690     libucrt:winapi_thunks.obj
 0002:00009698       ?candidate_modules@?1??try_get_GetSystemTimePreciseAsFileTime@@YAP6AXPEAU_FILETIME@@@ZXZ@4QBW4module_id@?A0x391cf84c@@B 0000000140041698     libucrt:winapi_thunks.obj
 0002:000096a0       ?candidate_modules@?1??try_get_GetTimeFormatEx@@YAP6AHPEB_WKPEBU_SYSTEMTIME@@0PEA_WH@ZXZ@4QBW4module_id@?A0x391cf84c@@B 00000001400416a0     libucrt:winapi_thunks.obj
 0002:000096b8       ?candidate_modules@?1??try_get_GetUserDefaultLocaleName@@YAP6AHPEA_WH@ZXZ@4QBW4module_id@?A0x391cf84c@@B 00000001400416b8     libucrt:winapi_thunks.obj
 0002:000096e0       ?candidate_modules@?1??try_get_InitializeCriticalSectionEx@@YAP6AHPEAU_RTL_CRITICAL_SECTION@@KK@ZXZ@4QBW4module_id@?A0x391cf84c@@B 00000001400416e0     libucrt:winapi_thunks.obj
 0002:000096e8       ?candidate_modules@?1??try_get_IsValidLocaleName@@YAP6AHPEB_W@ZXZ@4QBW4module_id@?A0x391cf84c@@B 00000001400416e8     libucrt:winapi_thunks.obj
 0002:00009708       ?candidate_modules@?1??try_get_LCMapStringEx@@YAP6AHPEB_WK0HPEA_WHPEAU_nlsversioninfo@@PEAX_J@ZXZ@4QBW4module_id@?A0x391cf84c@@B 0000000140041708     libucrt:winapi_thunks.obj
 0002:00009710       ?candidate_modules@?1??try_get_LCIDToLocaleName@@YAP6AHKPEA_WHK@ZXZ@4QBW4module_id@?A0x391cf84c@@B 0000000140041710     libucrt:winapi_thunks.obj
 0002:00009730       ?candidate_modules@?1??try_get_LocaleNameToLCID@@YAP6AKPEB_WK@ZXZ@4QBW4module_id@?A0x391cf84c@@B 0000000140041730     libucrt:winapi_thunks.obj
 0002:0000974c       ?candidate_modules@?1??try_get_AppPolicyGetProcessTerminationMethod@@YAP6AJPEAXPEAW4AppPolicyProcessTerminationMethod@@@ZXZ@4QBW4module_id@?A0x391cf84c@@B 000000014004174c     libucrt:winapi_thunks.obj
 0002:00009778       ?candidate_modules@?1??try_get_SystemFunction036@@YAP6AEPEAXK@ZXZ@4QBW4module_id@?A0x391cf84c@@B 0000000140041778     libucrt:winapi_thunks.obj
 0002:00009e50       ?dot_slash@?CB@???$common_spawnv@D@@YA_JHQEBDQEBQEBD1@Z@4QBDB 0000000140041e50     libucrt:spawnv.obj
 0002:00009e58       ?extensions@?CP@???$common_spawnv@D@@YA_JHQEBDQEBQEBD1@Z@4QAY04$$CBDA 0000000140041e58     libucrt:spawnv.obj
 0002:00009e70       ?_names@?1??_get_fname@@9@9 0000000140041e70     libucrt:fpexcept.obj
 0002:0000bf80       ?_mb_locale_names@@3QBQEB_WB 0000000140043f80     libucrt:mbctype.obj
 0002:0000cf70       ?LcidToLocaleNameTable@?A0x881e4c05@@3QBULcidToLocaleName@1@B 0000000140044f70     libucrt:lcidtoname_downlevel.obj
 0002:0000ddb0       ?LocaleNameToIndexTable@?A0x881e4c05@@3QBULocaleNameIndex@1@B 0000000140045db0     libucrt:lcidtoname_downlevel.obj
 0002:0000ec10       ?equal_sign@?BD@???$construct_environment_block@D@@YAHQEBQEBDQEAPEAD@Z@4QBDB 0000000140046c10     libucrt:cenvarg.obj
 0002:0000ec20       __real@433fffffffffffff    0000000140046c20     libucrt:fpsr.obj
 0002:0000ec28       __real@c33fffffffffffff    0000000140046c28     libucrt:fpsr.obj
 0002:0000ec40       __real_ninf                0000000140046c40     libucrt:log10.obj
 0002:0000ec50       __real_inf                 0000000140046c50     libucrt:log10.obj
 0002:0000ec60       __real_neg_qnan            0000000140046c60     libucrt:log10.obj
 0002:0000ec70       __real_qnanbit             0000000140046c70     libucrt:log10.obj
 0002:0000ec80       __int_1023                 0000000140046c80     libucrt:log10.obj
 0002:0000ec90       __mask_001                 0000000140046c90     libucrt:log10.obj
 0002:0000eca0       __mask_mant                0000000140046ca0     libucrt:log10.obj
 0002:0000ecb0       __mask_mant_top8           0000000140046cb0     libucrt:log10.obj
 0002:0000ecc0       __mask_mant9               0000000140046cc0     libucrt:log10.obj
 0002:0000ecd0       __real_log10_e             0000000140046cd0     libucrt:log10.obj
 0002:0000ece0       __real_log10_e_lead        0000000140046ce0     libucrt:log10.obj
 0002:0000ecf0       __real_log10_e_tail        0000000140046cf0     libucrt:log10.obj
 0002:0000ed00       __real_log10_2_lead        0000000140046d00     libucrt:log10.obj
 0002:0000ed10       __real_log10_2_tail        0000000140046d10     libucrt:log10.obj
 0002:0000ed20       __real_two                 0000000140046d20     libucrt:log10.obj
 0002:0000ed30       __real_one                 0000000140046d30     libucrt:log10.obj
 0002:0000ed40       __real_half                0000000140046d40     libucrt:log10.obj
 0002:0000ed50       __mask_100                 0000000140046d50     libucrt:log10.obj
 0002:0000ed60       __real_1_over_512          0000000140046d60     libucrt:log10.obj
 0002:0000ed70       __real_1_over_2            0000000140046d70     libucrt:log10.obj
 0002:0000ed80       __real_1_over_3            0000000140046d80     libucrt:log10.obj
 0002:0000ed90       __real_1_over_4            0000000140046d90     libucrt:log10.obj
 0002:0000eda0       __real_1_over_5            0000000140046da0     libucrt:log10.obj
 0002:0000edb0       __real_1_over_6            0000000140046db0     libucrt:log10.obj
 0002:0000edc0       __real_neg_1023            0000000140046dc0     libucrt:log10.obj
 0002:0000edd0       __mask_2045                0000000140046dd0     libucrt:log10.obj
 0002:0000ede0       __real_threshold           0000000140046de0     libucrt:log10.obj
 0002:0000edf0       __real_near_one_lt         0000000140046df0     libucrt:log10.obj
 0002:0000ee00       __real_near_one_gt         0000000140046e00     libucrt:log10.obj
 0002:0000ee10       __real_min_norm            0000000140046e10     libucrt:log10.obj
 0002:0000ee20       __real_notsign             0000000140046e20     libucrt:log10.obj
 0002:0000ee30       __real_ca1                 0000000140046e30     libucrt:log10.obj
 0002:0000ee40       __real_ca2                 0000000140046e40     libucrt:log10.obj
 0002:0000ee50       __real_ca3                 0000000140046e50     libucrt:log10.obj
 0002:0000ee60       __real_ca4                 0000000140046e60     libucrt:log10.obj
 0002:0000ee70       __mask_lower               0000000140046e70     libucrt:log10.obj
 0002:0000ee80       __flag_x_zero              0000000140046e80     libucrt:log10.obj
 0002:0000ee84       __flag_x_neg               0000000140046e84     libucrt:log10.obj
 0002:0000ee88       __flag_x_nan               0000000140046e88     libucrt:log10.obj
 0002:000113a0       ?Ruletka_ko³o@@3QBGB       00000001400493a0     main.obj
 0002:000113f0       ?Ruletka_plansza_kolor@@3V?$array@D$0CF@@std@@B 00000001400493f0     main.obj
 0002:00011520       $cppxdata$??$_Insert_nohint@AEAU?$pair@$$CBV?$basic_string@DU?$char_traits@D@std@@V?$allocator@D@2@@std@@G@std@@PEAU?$_Tree_node@U?$pair@$$CBV?$basic_string@DU?$char_traits@D@std@@V?$allocator@D@2@@std@@G@std@@PEAX@2@@?$_Tree@V?$_Tmap_traits@V?$basic_string@DU?$char_traits@D@std@@V?$allocator@D@2@@std@@GU?$less@V?$basic_string@DU?$char_traits@D@std@@V?$allocator@D@2@@std@@@2@V?$allocator@U?$pair@$$CBV?$basic_string@DU?$char_traits@D@std@@V?$allocator@D@2@@std@@G@std@@@2@$0A@@std@@@std@@IEAA?AU?$pair@V?$_Tree_iterator@V?$_Tree_val@U?$_Tree_simple_types@U?$pair@$$CBV?$basic_string@DU?$char_traits@D@std@@V?$allocator@D@2@@std@@G@std@@@std@@@std@@@std@@_N@1@_NAEAU?$pair@$$CBV?$basic_string@DU?$char_traits@D@std@@V?$allocator@D@2@@std@@G@1@PEAU?$_Tree_node@U?$pair@$$CBV?$basic_string@DU?$char_traits@D@std@@V?$allocator@D@2@@std@@G@std@@PEAX@1@@Z 0000000140049520     main.obj
 0002:00011548       $cppxdata$??$_Uninitialized_copy_al_unchecked@PEBV?$basic_string@DU?$char_traits@D@std@@V?$allocator@D@2@@std@@PEAV12@V?$allocator@V?$basic_string@DU?$char_traits@D@std@@V?$allocator@D@2@@std@@@2@@std@@YAPEAV?$basic_string@DU?$char_traits@D@std@@V?$allocator@D@2@@0@PEBV10@0PEAV10@AEAV?$allocator@V?$basic_string@DU?$char_traits@D@std@@V?$allocator@D@2@@std@@@0@U_General_ptr_iterator_tag@0@U_Unused_parameter@0@@Z 0000000140049548     main.obj
 0002:00011570       $cppxdata$??$_Insert_hint@AEAU?$pair@$$CBV?$basic_string@DU?$char_traits@D@std@@V?$allocator@D@2@@std@@G@std@@PEAU?$_Tree_node@U?$pair@$$CBV?$basic_string@DU?$char_traits@D@std@@V?$allocator@D@2@@std@@G@std@@PEAX@2@@?$_Tree@V?$_Tmap_traits@V?$basic_string@DU?$char_traits@D@std@@V?$allocator@D@2@@std@@GU?$less@V?$basic_string@DU?$char_traits@D@std@@V?$allocator@D@2@@std@@@2@V?$allocator@U?$pair@$$CBV?$basic_string@DU?$char_traits@D@std@@V?$allocator@D@2@@std@@G@std@@@2@$0A@@std@@@std@@IEAA?AV?$_Tree_iterator@V?$_Tree_val@U?$_Tree_simple_types@U?$pair@$$CBV?$basic_string@DU?$char_traits@D@std@@V?$allocator@D@2@@std@@G@std@@@std@@@std@@@1@V?$_Tree_const_iterator@V?$_Tree_val@U?$_Tree_simple_types@U?$pair@$$CBV?$basic_string@DU?$char_traits@D@std@@V?$allocator@D@2@@std@@G@std@@@std@@@std@@@1@AEAU?$pair@$$CBV?$basic_string@DU?$char_traits@D@std@@V?$allocator@D@2@@std@@G@1@PEAU?$_Tree_node@U?$pair@$$CBV?$basic_string@DU?$char_traits@D@std@@V?$allocator@D@2@@std@@G@std@@PEAX@1@@Z 0000000140049570     main.obj
 0002:00011598       $cppxdata$??$_Buynode@AEBU?$pair@$$CBV?$basic_string@DU?$char_traits@D@std@@V?$allocator@D@2@@std@@G@std@@@?$_Tree_comp_alloc@V?$_Tmap_traits@V?$basic_string@DU?$char_traits@D@std@@V?$allocator@D@2@@std@@GU?$less@V?$basic_string@DU?$char_traits@D@std@@V?$allocator@D@2@@std@@@2@V?$allocator@U?$pair@$$CBV?$basic_string@DU?$char_traits@D@std@@V?$allocator@D@2@@std@@G@std@@@2@$0A@@std@@@std@@QEAAPEAU?$_Tree_node@U?$pair@$$CBV?$basic_string@DU?$char_traits@D@std@@V?$allocator@D@2@@std@@G@std@@PEAX@1@AEBU?$pair@$$CBV?$basic_string@DU?$char_traits@D@std@@V?$allocator@D@2@@std@@G@1@@Z 0000000140049598     main.obj
 0002:000115c0       $cppxdata$?_Ipfx@?$basic_istream@DU?$char_traits@D@std@@@std@@QEAA_N_N@Z 00000001400495c0     main.obj
 0002:000115e8       $cppxdata$??1sentry@?$basic_istream@DU?$char_traits@D@std@@@std@@QEAA@XZ 00000001400495e8     main.obj
 0002:00011610       $cppxdata$??$_Insert_string@DU?$char_traits@D@std@@_K@std@@YAAEAV?$basic_ostream@DU?$char_traits@D@std@@@0@AEAV10@QEBD_K@Z 0000000140049610     main.obj
 0002:00011638       $cppxdata$??$getline@DU?$char_traits@D@std@@V?$allocator@D@2@@std@@YAAEAV?$basic_istream@DU?$char_traits@D@std@@@0@$$QEAV10@AEAV?$basic_string@DU?$char_traits@D@std@@V?$allocator@D@2@@0@D@Z 0000000140049638     main.obj
 0002:00011660       $cppxdata$??$?5DU?$char_traits@D@std@@V?$allocator@D@1@@std@@YAAEAV?$basic_istream@DU?$char_traits@D@std@@@0@$$QEAV10@AEAV?$basic_string@DU?$char_traits@D@std@@V?$allocator@D@2@@0@@Z 0000000140049660     main.obj
 0002:00011688       $cppxdata$?_Init@?$numpunct@D@std@@IEAAXAEBV_Locinfo@2@_N@Z 0000000140049688     main.obj
 0002:000116b0       $cppxdata$?put@?$basic_ostream@DU?$char_traits@D@std@@@std@@QEAAAEAV12@D@Z 00000001400496b0     main.obj
 0002:000116d8       $cppxdata$??$use_facet@V?$numpunct@D@std@@@std@@YAAEBV?$numpunct@D@0@AEBVlocale@0@@Z 00000001400496d8     main.obj
 0002:00011700       $cppxdata$??$use_facet@V?$num_put@DV?$ostreambuf_iterator@DU?$char_traits@D@std@@@std@@@std@@@std@@YAAEBV?$num_put@DV?$ostreambuf_iterator@DU?$char_traits@D@std@@@std@@@0@AEBVlocale@0@@Z 0000000140049700     main.obj
 0002:00011728       $cppxdata$??$use_facet@V?$codecvt@DDU_Mbstatet@@@std@@@std@@YAAEBV?$codecvt@DDU_Mbstatet@@@0@AEBVlocale@0@@Z 0000000140049728     main.obj
 0002:00011750       $cppxdata$??$_Construct@PEBG@?$deque@GV?$allocator@G@std@@@std@@QEAAXPEBG0@Z 0000000140049750     main.obj
 0002:00011778       $cppxdata$??$_Range_construct_or_tidy@PEBV?$basic_string@DU?$char_traits@D@std@@V?$allocator@D@2@@std@@@?$vector@V?$basic_string@DU?$char_traits@D@std@@V?$allocator@D@2@@std@@V?$allocator@V?$basic_string@DU?$char_traits@D@std@@V?$allocator@D@2@@std@@@2@@std@@AEAAXPEBV?$basic_string@DU?$char_traits@D@std@@V?$allocator@D@2@@1@0Uforward_iterator_tag@1@@Z 0000000140049778     main.obj
 0002:000117a0       $cppxdata$??$?HDU?$char_traits@D@std@@V?$allocator@D@1@@std@@YA?AV?$basic_string@DU?$char_traits@D@std@@V?$allocator@D@2@@0@AEBV10@D@Z 00000001400497a0     main.obj
 0002:000117c8       $cppxdata$??$?HDU?$char_traits@D@std@@V?$allocator@D@1@@std@@YA?AV?$basic_string@DU?$char_traits@D@std@@V?$allocator@D@2@@0@AEBV10@QEBD@Z 00000001400497c8     main.obj
 0002:000117f0       $cppxdata$??$?HDU?$char_traits@D@std@@V?$allocator@D@1@@std@@YA?AV?$basic_string@DU?$char_traits@D@std@@V?$allocator@D@2@@0@AEBV10@0@Z 00000001400497f0     main.obj
 0002:00011818       $cppxdata$??$endl@DU?$char_traits@D@std@@@std@@YAAEAV?$basic_ostream@DU?$char_traits@D@std@@@0@AEAV10@@Z 0000000140049818     main.obj
 0002:00011840       $cppxdata$??$?6U?$char_traits@D@std@@@std@@YAAEAV?$basic_ostream@DU?$char_traits@D@std@@@0@AEAV10@PEBD@Z 0000000140049840     main.obj
 0002:00011868       $cppxdata$??$?6U?$char_traits@D@std@@@std@@YAAEAV?$basic_ostream@DU?$char_traits@D@std@@@0@AEAV10@D@Z 0000000140049868     main.obj
 0002:00011890       $cppxdata$??$use_facet@V?$ctype@D@std@@@std@@YAAEBV?$ctype@D@0@AEBVlocale@0@@Z 0000000140049890     main.obj
 0002:000118b8       $cppxdata$?init@?$basic_ios@DU?$char_traits@D@std@@@std@@IEAAXPEAV?$basic_streambuf@DU?$char_traits@D@std@@@2@_N@Z 00000001400498b8     main.obj
 0002:000118e0       $cppxdata$??0?$basic_streambuf@DU?$char_traits@D@std@@@std@@IEAA@XZ 00000001400498e0     main.obj
 0002:00011908       $cppxdata$?_Osfx@?$basic_ostream@DU?$char_traits@D@std@@@std@@QEAAXXZ 0000000140049908     main.obj
 0002:00011930       $cppxdata$?erase@?$_Tree@V?$_Tmap_traits@V?$basic_string@DU?$char_traits@D@std@@V?$allocator@D@2@@std@@GU?$less@V?$basic_string@DU?$char_traits@D@std@@V?$allocator@D@2@@std@@@2@V?$allocator@U?$pair@$$CBV?$basic_string@DU?$char_traits@D@std@@V?$allocator@D@2@@std@@G@std@@@2@$0A@@std@@@std@@QEAA?AV?$_Tree_iterator@V?$_Tree_val@U?$_Tree_simple_types@U?$pair@$$CBV?$basic_string@DU?$char_traits@D@std@@V?$allocator@D@2@@std@@G@std@@@std@@@std@@@2@V?$_Tree_const_iterator@V?$_Tree_val@U?$_Tree_simple_types@U?$pair@$$CBV?$basic_string@DU?$char_traits@D@std@@V?$allocator@D@2@@std@@G@std@@@std@@@std@@@2@0@Z 0000000140049930     main.obj
 0002:00011958       $cppxdata$?_Fput@?$num_put@DV?$ostreambuf_iterator@DU?$char_traits@D@std@@@std@@@std@@AEBA?AV?$ostreambuf_iterator@DU?$char_traits@D@std@@@2@V32@AEAVios_base@2@DPEBD_K@Z 0000000140049958     main.obj
 0002:00011980       $cppxdata$?_Iput@?$num_put@DV?$ostreambuf_iterator@DU?$char_traits@D@std@@@std@@@std@@AEBA?AV?$ostreambuf_iterator@DU?$char_traits@D@std@@@2@V32@AEAVios_base@2@DPEAD_K@Z 0000000140049980     main.obj
 0002:000119a8       $cppxdata$??1_Sentry_base@?$basic_istream@DU?$char_traits@D@std@@@std@@QEAA@XZ 00000001400499a8     main.obj
 0002:000119a8       $cppxdata$??1_Sentry_base@?$basic_ostream@DU?$char_traits@D@std@@@std@@QEAA@XZ 00000001400499a8     main.obj
 0002:000119d0       $cppxdata$??0?$basic_istream@DU?$char_traits@D@std@@@std@@QEAA@PEAV?$basic_streambuf@DU?$char_traits@D@std@@@1@_N@Z 00000001400499d0     main.obj
 0002:000119f8       $cppxdata$??0?$basic_ostream@DU?$char_traits@D@std@@@std@@QEAA@PEAV?$basic_streambuf@DU?$char_traits@D@std@@@1@_N@Z 00000001400499f8     main.obj
 0002:00011a20       $cppxdata$?open@?$basic_filebuf@DU?$char_traits@D@std@@@std@@QEAAPEAV12@PEBDHH@Z 0000000140049a20     main.obj
 0002:00011a48       $cppxdata$?_Endwrite@?$basic_filebuf@DU?$char_traits@D@std@@@std@@IEAA_NXZ 0000000140049a48     main.obj
 0002:00011a70       $cppxdata$?do_put@?$num_put@DV?$ostreambuf_iterator@DU?$char_traits@D@std@@@std@@@std@@MEBA?AV?$ostreambuf_iterator@DU?$char_traits@D@std@@@2@V32@AEAVios_base@2@D_N@Z 0000000140049a70     main.obj
 0002:00011a98       $cppxdata$?do_put@?$num_put@DV?$ostreambuf_iterator@DU?$char_traits@D@std@@@std@@@std@@MEBA?AV?$ostreambuf_iterator@DU?$char_traits@D@std@@@2@V32@AEAVios_base@2@DN@Z 0000000140049a98     main.obj
 0002:00011ac0       $cppxdata$?do_put@?$num_put@DV?$ostreambuf_iterator@DU?$char_traits@D@std@@@std@@@std@@MEBA?AV?$ostreambuf_iterator@DU?$char_traits@D@std@@@2@V32@AEAVios_base@2@DO@Z 0000000140049ac0     main.obj
 0002:00011ae8       $cppxdata$??1sentry@?$basic_ostream@DU?$char_traits@D@std@@@std@@QEAA@XZ 0000000140049ae8     main.obj
 0002:00011b10       $cppxdata$??_G?$basic_ios@DU?$char_traits@D@std@@@std@@UEAAPEAXI@Z 0000000140049b10     main.obj
 0002:00011b38       $cppxdata$??_Glocale@std@@QEAAPEAXI@Z 0000000140049b38     main.obj
 0002:00011b60       $cppxdata$??_G?$basic_streambuf@DU?$char_traits@D@std@@@std@@UEAAPEAXI@Z 0000000140049b60     main.obj
 0002:00011b88       $cppxdata$??_G?$basic_istream@DU?$char_traits@D@std@@@std@@UEAAPEAXI@Z 0000000140049b88     main.obj
 0002:00011bb0       $cppxdata$??_G?$basic_ostream@DU?$char_traits@D@std@@@std@@UEAAPEAXI@Z 0000000140049bb0     main.obj
 0002:00011bd8       $cppxdata$??_G?$basic_iostream@DU?$char_traits@D@std@@@std@@UEAAPEAXI@Z 0000000140049bd8     main.obj
 0002:00011c00       $cppxdata$??1?$basic_ios@DU?$char_traits@D@std@@@std@@UEAA@XZ 0000000140049c00     main.obj
 0002:00011c28       $cppxdata$??1?$basic_streambuf@DU?$char_traits@D@std@@@std@@UEAA@XZ 0000000140049c28     main.obj
 0002:00011c50       $cppxdata$??6?$basic_ostream@DU?$char_traits@D@std@@@std@@QEAAAEAV01@G@Z 0000000140049c50     main.obj
 0002:00011c78       $cppxdata$??6?$basic_ostream@DU?$char_traits@D@std@@@std@@QEAAAEAV01@H@Z 0000000140049c78     main.obj
 0002:00011ca0       $cppxdata$?flush@?$basic_ostream@DU?$char_traits@D@std@@@std@@QEAAAEAV12@XZ 0000000140049ca0     main.obj
 0002:00011cc8       $cppxdata$??1?$basic_stringbuf@DU?$char_traits@D@std@@V?$allocator@D@2@@std@@UEAA@XZ 0000000140049cc8     main.obj
 0002:00011cf0       $cppxdata$??0?$basic_stringstream@DU?$char_traits@D@std@@V?$allocator@D@2@@std@@QEAA@H@Z 0000000140049cf0     main.obj
 0002:00011d18       $cppxdata$??1?$basic_filebuf@DU?$char_traits@D@std@@@std@@UEAA@XZ 0000000140049d18     main.obj
 0002:00011d40       $cppxdata$?overflow@?$basic_filebuf@DU?$char_traits@D@std@@@std@@MEAAHH@Z 0000000140049d40     main.obj
 0002:00011d68       $cppxdata$?uflow@?$basic_filebuf@DU?$char_traits@D@std@@@std@@MEAAHXZ 0000000140049d68     main.obj
 0002:00011d90       $cppxdata$??0?$basic_ofstream@DU?$char_traits@D@std@@@std@@QEAA@XZ 0000000140049d90     main.obj
 0002:00011db8       $cppxdata$?Usuñ_Folder_Wypakowany_i_Winrar@@YAXAEBV?$basic_string@DU?$char_traits@D@std@@V?$allocator@D@2@@std@@@Z 0000000140049db8     main.obj
 0002:00011de0       $cppxdata$?Wypakuj_Rar@@YAXAEBV?$basic_string@DU?$char_traits@D@std@@V?$allocator@D@2@@std@@@Z 0000000140049de0     main.obj
 0002:00011e08       $cppxdata$?Og³oœ_Wynik@@YAXAEBH0AEAHAEAV?$basic_ofstream@DU?$char_traits@D@std@@@std@@AEAV?$basic_fstream@DU?$char_traits@D@std@@@2@@Z 0000000140049e08     main.obj
 0002:00011e30       $cppxdata$??_D?$basic_ifstream@DU?$char_traits@D@std@@@std@@QEAAXXZ 0000000140049e30     main.obj
 0002:00011e58       $cppxdata$?SprawdŸ_Ustawienia@@YAXXZ 0000000140049e58     main.obj
 0002:00011e80       $cppxdata$?SprawdŸ_Pliki@@YAXXZ 0000000140049e80     main.obj
 0002:00011ea8       $cppxdata$?Wczytaj_z_Pliku@@YAXAEAV?$basic_ofstream@DU?$char_traits@D@std@@@std@@AEAV?$basic_fstream@DU?$char_traits@D@std@@@2@AEADAEAH33AEAV?$basic_string@DU?$char_traits@D@std@@V?$allocator@D@2@@2@@Z 0000000140049ea8     main.obj
 0002:00011ed0       $cppxdata$??_D?$basic_stringstream@DU?$char_traits@D@std@@V?$allocator@D@2@@std@@QEAAXXZ 0000000140049ed0     main.obj
 0002:00011ef8       $cppxdata$?Odczytaj_Liczbê@@YAXAEBHAEBV?$basic_string@DU?$char_traits@D@std@@V?$allocator@D@2@@std@@@Z 0000000140049ef8     main.obj
 0002:00011f20       $cppxdata$?Czy_Kontynuowaæ@@YA_NAEBH@Z 0000000140049f20     main.obj
 0002:00011f48       $cppxdata$?Wczytaj_Kwotê_Zak³adu@@YAXAEAHAEBH@Z 0000000140049f48     main.obj
 0002:00011f70       $cppxdata$?Obstaw@@YA?AV?$basic_string@DU?$char_traits@D@std@@V?$allocator@D@2@@std@@XZ 0000000140049f70     main.obj
 0002:00011f98       $cppxdata$??_D?$basic_fstream@DU?$char_traits@D@std@@@std@@QEAAXXZ 0000000140049f98     main.obj
 0002:00011fc0       $cppxdata$??_D?$basic_ofstream@DU?$char_traits@D@std@@@std@@QEAAXXZ 0000000140049fc0     main.obj
 0002:00011fe8       $cppxdata$main             0000000140049fe8     main.obj
 0002:00012010       $cppxdata$??__ENazwa_g³osu@@YAXXZ 000000014004a010     main.obj
 0002:00012038       $cppxdata$??__ENumer_zasobu_rar@@YAXXZ 000000014004a038     main.obj
 0002:00012060       $cppxdata$??__ERuletka_plansza_kolor_col@@YAXXZ 000000014004a060     main.obj
 0002:00012088       $cppxdata$??_Gios_base@std@@UEAAPEAXI@Z 000000014004a088     main.obj
 0002:000120b0       $cppxdata$??0failure@ios_base@std@@QEAA@PEBDAEBVerror_code@2@@Z 000000014004a0b0     main.obj
 0002:000120d8       $cppxdata$??1locale@std@@QEAA@XZ 000000014004a0d8     main.obj
 0002:00012100       $cppxdata$??1_Locinfo@std@@QEAA@XZ 000000014004a100     main.obj
 0002:00012128       $cppxdata$??0_Locinfo@std@@QEAA@PEBD@Z 000000014004a128     main.obj
 0002:00013bb0       $unwind$??0_Lockit@std@@QEAA@H@Z 000000014004bbb0     libcpmt:xlock.obj
 0002:00013bb0       $unwind$__raise_securityfailure 000000014004bbb0     LIBCMT:gs_report.obj
 0002:00013bb0       $unwind$__acrt_getptd_head 000000014004bbb0     libucrt:per_thread_data.obj
 0002:00013bb0       $unwind$__acrt_FlsFree     000000014004bbb0     libucrt:winapi_thunks.obj
 0002:00013bb0       $unwind$??_Gtype_info@@UEAAPEAXI@Z 000000014004bbb0     LIBCMT:std_type_info_static.obj
 0002:00013bb0       $unwind$?str@?$basic_stringstream@DU?$char_traits@D@std@@V?$allocator@D@2@@std@@QEBA?AV?$basic_string@DU?$char_traits@D@std@@V?$allocator@D@2@@2@XZ 000000014004bbb0     main.obj
 0002:00013bb0       $unwind$??2@YAPEAX_K@Z     000000014004bbb0     LIBCMT:new_scalar.obj
 0002:00013bb0       $unwind$??0bad_array_new_length@std@@QEAA@AEBV01@@Z 000000014004bbb0     LIBCMT:throw_bad_alloc.obj
 0002:00013bb0       $unwind$__acrt_FlsGetValue 000000014004bbb0     libucrt:winapi_thunks.obj
 0002:00013bb0       $unwind$?_Facet_Register@std@@YAXPEAV_Facet_base@1@@Z 000000014004bbb0     libcpmt:locale0.obj
 0002:00013bb0       $unwind$__acrt_GetSystemTimePreciseAsFileTime 000000014004bbb0     libucrt:winapi_thunks.obj
 0002:00013bb0       $unwind$__acrt_IsValidLocaleName 000000014004bbb0     libucrt:winapi_thunks.obj
 0002:00013bb0       $unwind$??$?HDU?$char_traits@D@std@@V?$allocator@D@1@@std@@YA?AV?$basic_string@DU?$char_traits@D@std@@V?$allocator@D@2@@0@$$QEAV10@QEBD@Z 000000014004bbb0     main.obj
 0002:00013bb0       $unwind$__acrt_initialize_locks 000000014004bbb0     libucrt:locks.obj
 0002:00013bb0       $unwind$?_Tidy@?$numpunct@D@std@@AEAAXXZ 000000014004bbb0     main.obj
 0002:00013bb0       $unwind$?pre_c_initialization@@YAHXZ 000000014004bbb0     LIBCMT:exe_main.obj
 0002:00013bb0       $unwind$uninitialize_allocated_memory 000000014004bbb0     libucrt:initialization.obj
 0002:00013bb0       $unwind$fesetenv           000000014004bbb0     libucrt:fesetenv.obj
 0002:00013bb0       $unwind$__acrt_AppPolicyGetProcessTerminationMethodInternal 000000014004bbb0     libucrt:winapi_thunks.obj
 0002:00013bb0       $unwind$?_Ios_base_dtor@ios_base@std@@CAXPEAV12@@Z 000000014004bbb0     libcpmt:ios.obj
 0002:00013bb0       $unwind$initialize_pointers 000000014004bbb0     libucrt:initialization.obj
 0002:00013bb0       $unwind$?try_cor_exit_process@@YAXI@Z 000000014004bbb0     libucrt:exit.obj
 0002:00013bb0       $unwind$feholdexcept       000000014004bbb0     libucrt:feholdexcept.obj
 0002:00013bb0       $unwind$??__Efin@std@@YAXXZ 000000014004bbb0     libcpmt:cin.obj
 0002:00013bb0       $unwind$?_Tidy@?$vector@V?$basic_string@DU?$char_traits@D@std@@V?$allocator@D@2@@std@@V?$allocator@V?$basic_string@DU?$char_traits@D@std@@V?$allocator@D@2@@std@@@2@@std@@AEAAXXZ 000000014004bbb0     main.obj
 0002:00013bb0       $unwind$__acrt_FlsAlloc    000000014004bbb0     libucrt:winapi_thunks.obj
 0002:00013bb0       $unwind$??1?$_Yarn@D@std@@QEAA@XZ 000000014004bbb0     main.obj
 0002:00013bb0       $unwind$fegetenv           000000014004bbb0     libucrt:fegetenv.obj
 0002:00013bb0       $unwind$?exit_or_terminate_process@@YAXI@Z 000000014004bbb0     libucrt:exit.obj
 0002:00013bb0       $unwind$_onexit            000000014004bbb0     LIBCMT:utility.obj
 0002:00013bb0       $unwind$?erase@?$basic_string@DU?$char_traits@D@std@@V?$allocator@D@2@@std@@QEAAAEAV12@_K_K@Z 000000014004bbb0     main.obj
 0002:00013bb0       $unwind$__scrt_release_startup_lock 000000014004bbb0     LIBCMT:utility.obj
 0002:00013bb0       $unwind$__acrt_allocate_buffer_for_argv 000000014004bbb0     libucrt:argv_parsing.obj
 0002:00013bb0       $unwind$__scrt_uninitialize_crt 000000014004bbb0     LIBCMT:utility.obj
 0002:00013bb0       $unwind$?_Addstd@ios_base@std@@SAXPEAV12@@Z 000000014004bbb0     libcpmt:ios.obj
 0002:00013bb0       $unwind$?do_grouping@?$numpunct@D@std@@MEBA?AV?$basic_string@DU?$char_traits@D@std@@V?$allocator@D@2@@2@XZ 000000014004bbb0     main.obj
 0002:00013bb0       $unwind$?do_falsename@?$numpunct@D@std@@MEBA?AV?$basic_string@DU?$char_traits@D@std@@V?$allocator@D@2@@2@XZ 000000014004bbb0     main.obj
 0002:00013bb0       $unwind$__acrt_uninitialize_winapi_thunks 000000014004bbb0     libucrt:winapi_thunks.obj
 0002:00013bb0       $unwind$?uflow@?$basic_streambuf@DU?$char_traits@D@std@@@std@@MEAAHXZ 000000014004bbb0     main.obj
 0002:00013bb0       $unwind$??_G?$codecvt@DDU_Mbstatet@@@std@@MEAAPEAXI@Z 000000014004bbb0     main.obj
 0002:00013bb0       $unwind$??0bad_exception@std@@QEAA@AEBV01@@Z 000000014004bbb0     libvcruntime:frame.obj
 0002:00013bb0       $unwind$?ExFilterRethrow@@YAHPEAU_EXCEPTION_POINTERS@@PEAUEHExceptionRecord@@PEAH@Z 000000014004bbb0     libvcruntime:frame.obj
 0002:00013bb0       $unwind$??$?HDU?$char_traits@D@std@@V?$allocator@D@1@@std@@YA?AV?$basic_string@DU?$char_traits@D@std@@V?$allocator@D@2@@0@$$QEAV10@0@Z 000000014004bbb0     main.obj
 0002:00013bb0       $unwind$__std_exception_destroy 000000014004bbb0     libvcruntime:std_exception.obj
 0002:00013bb0       $unwind$??$common_timespec_get@U_timespec64@@@@YAHQEAU_timespec64@@H@Z 000000014004bbb0     libucrt:time.obj
 0002:00013bb0       $unwind$__vcrt_initialize_locks 000000014004bbb0     libvcruntime:locks.obj
 0002:00013bb0       $unwind$__vcrt_uninitialize_locks 000000014004bbb0     libvcruntime:locks.obj
 0002:00013bb0       $unwind$??0exception@std@@QEAA@AEBV01@@Z 000000014004bbb0     main.obj
 0002:00013bb0       $unwind$_callnewh          000000014004bbb0     libucrt:new_handler.obj
 0002:00013bb0       $unwind$_set_statfp        000000014004bbb0     libucrt:fpctrl.obj
 0002:00013bb0       $unwind$?underflow@?$basic_filebuf@DU?$char_traits@D@std@@@std@@MEAAHXZ 000000014004bbb0     main.obj
 0002:00013bb0       $unwind$?_Tidy_deallocate@?$basic_string@DU?$char_traits@D@std@@V?$allocator@D@2@@std@@QEAAXXZ 000000014004bbb0     main.obj
 0002:00013bb0       $unwind$??0runtime_error@std@@QEAA@AEBV01@@Z 000000014004bbb0     main.obj
 0002:00013bb0       $unwind$??_G_Facet_base@std@@UEAAPEAXI@Z 000000014004bbb0     main.obj
 0002:00013bb0       $unwind$??1?$_Yarn@_W@std@@QEAA@XZ 000000014004bbb0     main.obj
 0002:00013bb0       $unwind$_purecall          000000014004bbb0     libvcruntime:purevirt.obj
 0002:00013bb0       $unwind$?do_widen@?$ctype@D@std@@MEBAPEBDPEBD0PEAD@Z 000000014004bbb0     main.obj
 0002:00013bb0       $unwind$?do_narrow@?$ctype@D@std@@MEBAPEBDPEBD0DPEAD@Z 000000014004bbb0     main.obj
 0002:00013bb0       $unwind$??_Gerror_category@std@@UEAAPEAXI@Z 000000014004bbb0     main.obj
 0002:00013bb0       $unwind$?__GetUnwindTryBlock@@YAHPEA_KPEAU_xDISPATCHER_CONTEXT@@PEBU_s_FuncInfo@@@Z 000000014004bbb0     libvcruntime:riscehstate.obj
 0002:00013bb0       $unwind$_malloc_base       000000014004bbb0     libucrt:malloc_base.obj
 0002:00013bb0       $unwind$?__StateFromIp@@YAHPEBU_s_FuncInfo@@PEAU_xDISPATCHER_CONTEXT@@_K@Z 000000014004bbb0     libvcruntime:riscehstate.obj
 0002:00013bb0       $unwind$wcscpy_s           000000014004bbb0     libucrt:wcscpy_s.obj
 0002:00013bb0       $unwind$?message@_Iostream_error_category@std@@UEBA?AV?$basic_string@DU?$char_traits@D@std@@V?$allocator@D@2@@2@H@Z 000000014004bbb0     main.obj
 0002:00013bb0       $unwind$wcscat_s           000000014004bbb0     libucrt:wcscat_s.obj
 0002:00013bb0       $unwind$?_Destroy_if_node@?$_Tree@V?$_Tmap_traits@V?$basic_string@DU?$char_traits@D@std@@V?$allocator@D@2@@std@@GU?$less@V?$basic_string@DU?$char_traits@D@std@@V?$allocator@D@2@@std@@@2@V?$allocator@U?$pair@$$CBV?$basic_string@DU?$char_traits@D@std@@V?$allocator@D@2@@std@@G@std@@@2@$0A@@std@@@std@@IEAAXPEAU?$_Tree_node@U?$pair@$$CBV?$basic_string@DU?$char_traits@D@std@@V?$allocator@D@2@@std@@G@std@@PEAX@2@@Z 000000014004bbb0     main.obj
 0002:00013bb0       $unwind$??_G_Iostream_error_category@std@@UEAAPEAXI@Z 000000014004bbb0     main.obj
 0002:00013bb0       $unwind$?initialize_pointers@@YAHXZ 000000014004bbb0     libcpmt:winapisupp.obj
 0002:00013bb0       $unwind$?state_case_normal@?$output_processor@DV?$string_output_adapter@D@__crt_stdio_output@@V?$format_validation_base@DV?$string_output_adapter@D@__crt_stdio_output@@@2@@__crt_stdio_output@@AEAA_NXZ 000000014004bbb0     libucrt:output.obj
 0002:00013bb0       $unwind$_SetImageBase      000000014004bbb0     libvcruntime:risctrnsctrl.obj
 0002:00013bb0       $unwind$??0out_of_range@std@@QEAA@AEBV01@@Z 000000014004bbb0     libcpmt:xthrow.obj
 0002:00013bb0       $unwind$_clrfp             000000014004bbb0     libucrt:fpctrl.obj
 0002:00013bb0       $unwind$__scrt_initialize_crt 000000014004bbb0     LIBCMT:utility.obj
 0002:00013bb0       $unwind$_SetThrowImageBase 000000014004bbb0     libvcruntime:risctrnsctrl.obj
 0002:00013bb0       $unwind$__acrt_update_locale_info 000000014004bbb0     libucrt:locale_update.obj
 0002:00013bb0       $unwind$?type_case_integer@?$output_processor@DV?$string_output_adapter@D@__crt_stdio_output@@V?$format_validation_base@DV?$string_output_adapter@D@__crt_stdio_output@@@2@@__crt_stdio_output@@AEAA_NI_N@Z 000000014004bbb0     libucrt:output.obj
 0002:00013bb0       $unwind$__acrt_update_multibyte_info 000000014004bbb0     libucrt:locale_update.obj
 0002:00013bb0       $unwind$??0length_error@std@@QEAA@AEBV01@@Z 000000014004bbb0     libcpmt:xthrow.obj
 0002:00013bb0       $unwind$strcpy_s           000000014004bbb0     libucrt:strcpy_s.obj
 0002:00013bb0       $unwind$??$?HDU?$char_traits@D@std@@V?$allocator@D@1@@std@@YA?AV?$basic_string@DU?$char_traits@D@std@@V?$allocator@D@2@@0@AEBV10@$$QEAV10@@Z 000000014004bbb0     main.obj
 0002:00013bb0       $unwind$strcat_s           000000014004bbb0     libucrt:strcat_s.obj
 0002:00013bb0       $unwind$??0logic_error@std@@QEAA@AEBV01@@Z 000000014004bbb0     libcpmt:xthrow.obj
 0002:00013bb0       $unwind$_CreateFrameInfo   000000014004bbb0     libvcruntime:risctrnsctrl.obj
 0002:00013bb0       $unwind$_IsExceptionObjectToBeDestroyed 000000014004bbb0     libvcruntime:ehhelpers.obj
 0002:00013bb0       $unwind$??0bad_alloc@std@@QEAA@AEBV01@@Z 000000014004bbb0     libcpmt:xthrow.obj
 0002:00013bb0       $unwind$_clearfp           000000014004bbb0     libucrt:ieee.obj
 0002:00013bb0       $unwind$srand              000000014004bbb0     libucrt:rand.obj
 0002:00013bb0       $unwind$_fflush_nolock     000000014004bbb0     libucrt:fflush.obj
 0002:00013bb0       $unwind$_calloc_base       000000014004bbb0     libucrt:calloc_base.obj
 0002:00013bb0       $unwind$??__Efout@std@@YAXXZ 000000014004bbb0     libcpmt:cout.obj
 0002:00013bb0       $unwind$?do_truename@?$numpunct@D@std@@MEBA?AV?$basic_string@DU?$char_traits@D@std@@V?$allocator@D@2@@2@XZ 000000014004bbb0     main.obj
 0002:00013bb0       $unwind$??$_Insert_at@AEAU?$pair@$$CBV?$basic_string@DU?$char_traits@D@std@@V?$allocator@D@2@@std@@G@std@@PEAU?$_Tree_node@U?$pair@$$CBV?$basic_string@DU?$char_traits@D@std@@V?$allocator@D@2@@std@@G@std@@PEAX@2@@?$_Tree@V?$_Tmap_traits@V?$basic_string@DU?$char_traits@D@std@@V?$allocator@D@2@@std@@GU?$less@V?$basic_string@DU?$char_traits@D@std@@V?$allocator@D@2@@std@@@2@V?$allocator@U?$pair@$$CBV?$basic_string@DU?$char_traits@D@std@@V?$allocator@D@2@@std@@G@std@@@2@$0A@@std@@@std@@IEAA?AV?$_Tree_iterator@V?$_Tree_val@U?$_Tree_simple_types@U?$pair@$$CBV?$basic_string@DU?$char_traits@D@std@@V?$allocator@D@2@@std@@G@std@@@std@@@std@@@1@_NPEAU?$_Tree_node@U?$pair@$$CBV?$basic_string@DU?$char_traits@D@std@@V?$allocator@D@2@@std@@G@std@@PEAX@1@AEAU?$pair@$$CBV?$basic_string@DU?$char_traits@D@std@@V?$allocator@D@2@@std@@G@1@1@Z 000000014004bbb0     main.obj
 0002:00013bb0       $unwind$__acrt_get_process_end_policy 000000014004bbb0     libucrt:win_policies.obj
 0002:00013bb0       $unwind$__acrt_getpath     000000014004bbb0     libucrt:getpath.obj
 0002:00013bb0       $unwind$remove             000000014004bbb0     libucrt:unlink.obj
 0002:00013bb0       $unwind$_configthreadlocale 000000014004bbb0     libucrt:wsetlocale.obj
 0002:00013bb0       $unwind$_access_s          000000014004bbb0     libucrt:access.obj
 0002:00013bb0       $unwind$??_G?$num_put@DV?$ostreambuf_iterator@DU?$char_traits@D@std@@@std@@@std@@MEAAPEAXI@Z 000000014004bbb0     main.obj
 0002:00013bb0       $unwind$__acrt_uninitialize_stdio 000000014004bbb0     libucrt:_file.obj
 0002:00013bb0       $unwind$?imbue@?$basic_filebuf@DU?$char_traits@D@std@@@std@@MEAAXAEBVlocale@2@@Z 000000014004bbb0     main.obj
 0002:00013bb0       $unwind$?internal_isupper_l@@YA_NHQEAU__crt_locale_pointers@@@Z 000000014004bbb0     libucrt:tolower_toupper.obj
 0002:00013bb0       $unwind$?setbuf@?$basic_filebuf@DU?$char_traits@D@std@@@std@@MEAAPEAV?$basic_streambuf@DU?$char_traits@D@std@@@2@PEAD_J@Z 000000014004bbb0     main.obj
 0002:00013bb0       $unwind$__acrt_fp_strflt_to_string 000000014004bbb0     libucrt:_fptostr.obj
 0002:00013bb0       $unwind$__acrt_uninitialize_locks 000000014004bbb0     libucrt:locks.obj
 0002:00013bb0       $unwind$__acrt_stdio_free_buffer_nolock 000000014004bbb0     libucrt:_freebuf.obj
 0002:00013bb0       $unwind$__acrt_stdio_allocate_buffer_nolock 000000014004bbb0     libucrt:_getbuf.obj
 0002:00013bb0       $unwind$?sync@?$basic_filebuf@DU?$char_traits@D@std@@@std@@MEAAHXZ 000000014004bbb0     main.obj
 0002:00013bb8       $unwind$??_G?$numpunct@D@std@@MEAAPEAXI@Z 000000014004bbb8     main.obj
 0002:00013bb8       $unwind$__acrt_stdio_begin_temporary_buffering_nolock 000000014004bbb8     libucrt:_sftbuf.obj
 0002:00013bb8       $unwind$__acrt_GetUserDefaultLocaleName 000000014004bbb8     libucrt:winapi_thunks.obj
 0002:00013bb8       $unwind$??$common_xtox@K_W@@YAHKQEA_W_KI_N@Z 000000014004bbb8     libucrt:xtoa.obj
 0002:00013bb8       $unwind$__acrt_FlsSetValue 000000014004bbb8     libucrt:winapi_thunks.obj
 0002:00013bb8       $unwind$?_Locinfo_ctor@_Locinfo@std@@SAXPEAV12@PEBD@Z 000000014004bbb8     libcpmt:locale0.obj
 0002:00013bb8       $unwind$_Getctype          000000014004bbb8     libcpmt:_tolower.obj
 0002:00013bb8       $unwind$?_New_Locimp@_Locimp@locale@std@@CAPEAV123@_N@Z 000000014004bbb8     libcpmt:locale0.obj
 0002:00013bb8       $unwind$_Deletegloballocale 000000014004bbb8     libcpmt:locale0.obj
 0002:00013bb8       $unwind$??1_Init_locks@std@@QEAA@XZ 000000014004bbb8     libcpmt:xlock.obj
 0002:00013bb8       $unwind$GetLocaleNameFromLangCountry 000000014004bbb8     libucrt:get_qualified_locale.obj
 0002:00013bb8       $unwind$GetLocaleNameFromLanguage 000000014004bbb8     libucrt:get_qualified_locale.obj
 0002:00013bb8       $unwind$__acrt_execute_uninitializers 000000014004bbb8     libucrt:shared_initialization.obj
 0002:00013bb8       $unwind$??_Gbad_alloc@std@@UEAAPEAXI@Z 000000014004bbb8     libcpmt:xthrow.obj
 0002:00013bb8       $unwind$??_Glogic_error@std@@UEAAPEAXI@Z 000000014004bbb8     libcpmt:xthrow.obj
 0002:00013bb8       $unwind$??_Glength_error@std@@UEAAPEAXI@Z 000000014004bbb8     libcpmt:xthrow.obj
 0002:00013bb8       $unwind$??_Gout_of_range@std@@UEAAPEAXI@Z 000000014004bbb8     libcpmt:xthrow.obj
 0002:00013bb8       $unwind$?_Initcvt@?$basic_filebuf@DU?$char_traits@D@std@@@std@@IEAAXPEBV?$codecvt@DDU_Mbstatet@@@2@@Z 000000014004bbb8     main.obj
 0002:00013bb8       $unwind$?replace_current_thread_locale_nolock@@YAXQEAU__acrt_ptd@@QEAU__crt_locale_data@@@Z 000000014004bbb8     libucrt:per_thread_data.obj
 0002:00013bb8       $unwind$?_Tidy@?$deque@GV?$allocator@G@std@@@std@@IEAAXXZ 000000014004bbb8     main.obj
 0002:00013bb8       $unwind$__acrt_errno_map_os_error 000000014004bbb8     libucrt:errno.obj
 0002:00013bb8       $unwind$__acrt_getptd_noexit 000000014004bbb8     libucrt:per_thread_data.obj
 0002:00013bb8       $unwind$__acrt_locale_initialize_time 000000014004bbb8     libucrt:inittime.obj
 0002:00013bb8       $unwind$__acrt_getptd      000000014004bbb8     libucrt:per_thread_data.obj
 0002:00013bb8       $unwind$??_Gbad_array_new_length@std@@UEAAPEAXI@Z 000000014004bbb8     LIBCMT:throw_bad_alloc.obj
 0002:00013bb8       $unwind$??$common_initialize_environment_nolock@D@@YAHXZ 000000014004bbb8     libucrt:environment_initialization.obj
 0002:00013bb8       $unwind$_ungetc_nolock     000000014004bbb8     libucrt:ungetc.obj
 0002:00013bb8       $unwind$??_G?$basic_stringbuf@DU?$char_traits@D@std@@V?$allocator@D@2@@std@@UEAAPEAXI@Z 000000014004bbb8     main.obj
 0002:00013bb8       $unwind$??_G?$basic_stringstream@DU?$char_traits@D@std@@V?$allocator@D@2@@std@@UEAAPEAXI@Z 000000014004bbb8     main.obj
 0002:00013bb8       $unwind$??_G?$basic_filebuf@DU?$char_traits@D@std@@@std@@UEAAPEAXI@Z 000000014004bbb8     main.obj
 0002:00013bb8       $unwind$??_G?$basic_ifstream@DU?$char_traits@D@std@@@std@@UEAAPEAXI@Z 000000014004bbb8     main.obj
 0002:00013bb8       $unwind$??_G?$basic_ofstream@DU?$char_traits@D@std@@@std@@UEAAPEAXI@Z 000000014004bbb8     main.obj
 0002:00013bb8       $unwind$??_G?$basic_fstream@DU?$char_traits@D@std@@@std@@UEAAPEAXI@Z 000000014004bbb8     main.obj
 0002:00013bb8       $unwind$_fclose_nolock     000000014004bbb8     libucrt:fclose.obj
 0002:00013bb8       $unwind$_realloc_base      000000014004bbb8     libucrt:realloc_base.obj
 0002:00013bb8       $unwind$fgetpos            000000014004bbb8     libucrt:fgetpos.obj
 0002:00013bb8       $unwind$??_Gbad_exception@std@@UEAAPEAXI@Z 000000014004bbb8     libvcruntime:frame.obj
 0002:00013bb8       $unwind$?common_fseek_binary_mode_read_only_fast_track_nolock@@YA_NV__crt_stdio_stream@@_JH@Z 000000014004bbb8     libucrt:fseek.obj
 0002:00013bb8       $unwind$__acrt_LocaleNameToLCID 000000014004bbb8     libucrt:winapi_thunks.obj
 0002:00013bb8       $unwind$??_Gexception@std@@UEAAPEAXI@Z 000000014004bbb8     main.obj
 0002:00013bb8       $unwind$??_Gruntime_error@std@@UEAAPEAXI@Z 000000014004bbb8     main.obj
 0002:00013bb8       $unwind$__vcrt_getptd_noinit 000000014004bbb8     libvcruntime:per_thread_data.obj
 0002:00013bb8       $unwind$__vcrt_FlsAlloc    000000014004bbb8     libvcruntime:winapi_downlevel.obj
 0002:00013bb8       $unwind$__vcrt_FlsFree     000000014004bbb8     libvcruntime:winapi_downlevel.obj
 0002:00013bb8       $unwind$wcsncpy_s          000000014004bbb8     libucrt:wcsncpy_s.obj
 0002:00013bb8       $unwind$__vcrt_FlsGetValue 000000014004bbb8     libvcruntime:winapi_downlevel.obj
 0002:00013bb8       $unwind$??_G?$ctype@D@std@@MEAAPEAXI@Z 000000014004bbb8     main.obj
 0002:00013bb8       $unwind$??$__acrt_stdio_parse_mode@D@@YA?AU__acrt_stdio_stream_mode@@QEBD@Z 000000014004bbb8     libucrt:openfile.obj
 0002:00013bb8       $unwind$?__SetUnwindTryBlock@@YAXPEA_KPEAU_xDISPATCHER_CONTEXT@@PEBU_s_FuncInfo@@H@Z 000000014004bbb8     libvcruntime:riscehstate.obj
 0002:00013bb8       $unwind$??0_LocaleUpdate@@QEAA@QEAU__crt_locale_pointers@@@Z 000000014004bbb8     libucrt:output.obj
 0002:00013bb8       $unwind$??_G_System_error@std@@UEAAPEAXI@Z 000000014004bbb8     main.obj
 0002:00013bb8       $unwind$?force_decimal_point@__crt_stdio_output@@YAXPEADQEAU__crt_locale_pointers@@@Z 000000014004bbb8     libucrt:output.obj
 0002:00013bb8       $unwind$??_Gsystem_error@std@@UEAAPEAXI@Z 000000014004bbb8     main.obj
 0002:00013bb8       $unwind$_close_nolock      000000014004bbb8     libucrt:close.obj
 0002:00013bb8       $unwind$_updatetlocinfoEx_nolock 000000014004bbb8     libucrt:locale_refcounting.obj
 0002:00013bb8       $unwind$??_Gfailure@ios_base@std@@UEAAPEAXI@Z 000000014004bbb8     main.obj
 0002:00013bb8       $unwind$__acrt_uninitialize_lowio 000000014004bbb8     libucrt:ioinit.obj
 0002:00013bb8       $unwind$??0failure@ios_base@std@@QEAA@AEBV012@@Z 000000014004bbb8     main.obj
 0002:00013bb8       $unwind$??0system_error@std@@QEAA@AEBV01@@Z 000000014004bbb8     main.obj
 0002:00013bb8       $unwind$??0_System_error@std@@QEAA@AEBV01@@Z 000000014004bbb8     main.obj
 0002:00013bb8       $unwind$?type_case_c_tchar@?$output_processor@DV?$string_output_adapter@D@__crt_stdio_output@@V?$format_validation_base@DV?$string_output_adapter@D@__crt_stdio_output@@@2@@__crt_stdio_output@@AEAA_ND@Z 000000014004bbb8     libucrt:output.obj
 0002:00013bb8       $unwind$strncpy_s          000000014004bbb8     libucrt:strncpy_s.obj
 0002:00013bb8       $unwind$GetLcidFromLanguage 000000014004bbb8     libucrt:getqloc_downlevel.obj
 0002:00013bb8       $unwind$__acrt_RtlGenRandom 000000014004bbb8     libucrt:winapi_thunks.obj
 0002:00013bb8       $unwind$_initterm_e        000000014004bbb8     libucrt:initterm.obj
 0002:00013bb8       $unwind$GetLcidFromLangCountry 000000014004bbb8     libucrt:getqloc_downlevel.obj
 0002:00013bb8       $unwind$_FindAndUnlinkFrame 000000014004bbb8     libvcruntime:risctrnsctrl.obj
 0002:00013bc4       $unwind$sprintf_s          000000014004bbc4     main.obj
 0002:00013bd4       $unwind$??0runtime_error@std@@QEAA@PEBD@Z 000000014004bbd4     main.obj
 0002:00013be4       $unwind$??0_Locinfo@std@@QEAA@PEBD@Z 000000014004bbe4     main.obj
 0002:00013bf8       $stateUnwindMap$??0_Locinfo@std@@QEAA@PEBD@Z 000000014004bbf8     main.obj
 0002:00013c30       $ip2state$??0_Locinfo@std@@QEAA@PEBD@Z 000000014004bc30     main.obj
 0002:00013c80       $unwind$??1_Locinfo@std@@QEAA@XZ 000000014004bc80     main.obj
 0002:00013c98       $ip2state$??1_Locinfo@std@@QEAA@XZ 000000014004bc98     main.obj
 0002:00013ca0       $unwind$??1locale@std@@QEAA@XZ 000000014004bca0     main.obj
 0002:00013cb0       $ip2state$??1locale@std@@QEAA@XZ 000000014004bcb0     main.obj
 0002:00013cb8       $unwind$ProcessCodePage    000000014004bcb8     libucrt:getqloc_downlevel.obj
 0002:00013cb8       $unwind$ProcessCodePage    000000014004bcb8     libucrt:get_qualified_locale.obj
 0002:00013cb8       $unwind$?do_toupper@?$ctype@D@std@@MEBAPEBDPEADPEBD@Z 000000014004bcb8     main.obj
 0002:00013cb8       $unwind$??R<lambda_ca71763b3c0644891230e4f79ea54fa6>@@QEBAHXZ 000000014004bcb8     libucrt:setvbuf.obj
 0002:00013cb8       $unwind$TestDefaultLanguage 000000014004bcb8     libucrt:getqloc_downlevel.obj
 0002:00013cb8       $unwind$?do_tolower@?$ctype@D@std@@MEBAPEBDPEADPEBD@Z 000000014004bcb8     main.obj
 0002:00013cc8       $chain$0$?do_tolower@?$ctype@D@std@@MEBAPEBDPEADPEBD@Z 000000014004bcc8     main.obj
 0002:00013cdc       $chain$1$?do_tolower@?$ctype@D@std@@MEBAPEBDPEADPEBD@Z 000000014004bcdc     main.obj
 0002:00013cec       $chain$0$?do_toupper@?$ctype@D@std@@MEBAPEBDPEADPEBD@Z 000000014004bcec     main.obj
 0002:00013d00       $chain$1$?do_toupper@?$ctype@D@std@@MEBAPEBDPEADPEBD@Z 000000014004bd00     main.obj
 0002:00013d10       $unwind$??0length_error@std@@QEAA@PEBD@Z 000000014004bd10     libcpmt:xthrow.obj
 0002:00013d10       $unwind$??$common_xtox_s@K_W@@YAHKQEA_W_KI_N@Z 000000014004bd10     libucrt:xtoa.obj
 0002:00013d10       $unwind$?equivalent@error_category@std@@UEBA_NHAEBVerror_condition@2@@Z 000000014004bd10     main.obj
 0002:00013d10       $unwind$__stdio_common_vsprintf_s 000000014004bd10     libucrt:output.obj
 0002:00013d10       $unwind$??0out_of_range@std@@QEAA@PEBD@Z 000000014004bd10     libcpmt:xthrow.obj
 0002:00013d10       $unwind$_time64            000000014004bd10     libucrt:time.obj
 0002:00013d10       $unwind$strtol             000000014004bd10     libucrt:strtox.obj
 0002:00013d18       $unwind$__acrt_stdio_flush_and_write_narrow_nolock 000000014004bd18     libucrt:_flsbuf.obj
 0002:00013d18       $unwind$?_Erase@?$_Tree@V?$_Tmap_traits@V?$basic_string@DU?$char_traits@D@std@@V?$allocator@D@2@@std@@GU?$less@V?$basic_string@DU?$char_traits@D@std@@V?$allocator@D@2@@std@@@2@V?$allocator@U?$pair@$$CBV?$basic_string@DU?$char_traits@D@std@@V?$allocator@D@2@@std@@G@std@@@2@$0A@@std@@@std@@IEAAXPEAU?$_Tree_node@U?$pair@$$CBV?$basic_string@DU?$char_traits@D@std@@V?$allocator@D@2@@std@@G@std@@PEAX@2@@Z 000000014004bd18     main.obj
 0002:00013d18       $unwind$?type_case_n@?$output_processor@DV?$string_output_adapter@D@__crt_stdio_output@@V?$format_validation_base@DV?$string_output_adapter@D@__crt_stdio_output@@@2@@__crt_stdio_output@@AEAA_NXZ 000000014004bd18     libucrt:output.obj
 0002:00013d18       $unwind$__acrt_stdio_flush_nolock 000000014004bd18     libucrt:fflush.obj
 0002:00013d18       $unwind$??4?$_Yarn@D@std@@QEAAAEAV01@PEBD@Z 000000014004bd18     libcpmt:locale0.obj
 0002:00013d18       $unwind$_Getcvt            000000014004bd18     libcpmt:xwctomb.obj
 0002:00013d18       $unwind$__vcrt_FlsSetValue 000000014004bd18     libvcruntime:winapi_downlevel.obj
 0002:00013d18       $unwind$?type_case_s@?$output_processor@DV?$string_output_adapter@D@__crt_stdio_output@@V?$format_validation_base@DV?$string_output_adapter@D@__crt_stdio_output@@@2@@__crt_stdio_output@@AEAA_NXZ 000000014004bd18     libucrt:output.obj
 0002:00013d18       $unwind$__acrt_InitializeCriticalSectionEx 000000014004bd18     libucrt:winapi_thunks.obj
 0002:00013d18       $unwind$?type_case_Z@?$output_processor@DV?$string_output_adapter@D@__crt_stdio_output@@V?$format_validation_base@DV?$string_output_adapter@D@__crt_stdio_output@@@2@@__crt_stdio_output@@AEAA_NXZ 000000014004bd18     libucrt:output.obj
 0002:00013d18       $unwind$??$common_lseek_nolock@_J@@YA_JH_JH@Z 000000014004bd18     libucrt:lseek.obj
 0002:00013d18       $unwind$_RTC_Initialize    000000014004bd18     LIBCMT:_initsect_.obj
 0002:00013d18       $unwind$__vcrt_getptd_noexit 000000014004bd18     libvcruntime:per_thread_data.obj
 0002:00013d18       $unwind$_RTC_Terminate     000000014004bd18     LIBCMT:_initsect_.obj
 0002:00013d18       $unwind$??R<lambda_96f4279ff90247a4c5c5d9824f56f8c1>@@QEBA_KXZ 000000014004bd18     libucrt:fwrite.obj
 0002:00013d18       $unwind$memcpy_s           000000014004bd18     libucrt:strtod.obj
 0002:00013d18       $unwind$?_Tidy@ios_base@std@@AEAAXXZ 000000014004bd18     libcpmt:ios.obj
 0002:00013d18       $unwind$?free_crt_array_internal@@YAXQEAPEBX_K@Z 000000014004bd18     libucrt:inittime.obj
 0002:00013d18       $unwind$__acrt_execute_initializers 000000014004bd18     libucrt:shared_initialization.obj
 0002:00013d18       $unwind$??$common_getenv_nolock@D@@YAPEADQEBD@Z 000000014004bd18     libucrt:getenv.obj
 0002:00013d18       $unwind$memcpy_s           000000014004bd18     libucrt:cfout.obj
 0002:00013d18       $unwind$?make_error_code@std@@YA?AVerror_code@1@W4io_errc@1@@Z 000000014004bd18     main.obj
 0002:00013d18       $unwind$_exception_enabled 000000014004bd18     libucrt:libm_error.obj
 0002:00013d18       $unwind$?SprawdŸ_Zak³ad@@YAHAEBHAEBV?$basic_string@DU?$char_traits@D@std@@V?$allocator@D@2@@std@@0@Z 000000014004bd18     main.obj
 0002:00013d18       $unwind$??0_Init_locks@std@@QEAA@XZ 000000014004bd18     libcpmt:xlock.obj
 0002:00013d28       $chain$0$?message@_Iostream_error_category@std@@UEBA?AV?$basic_string@DU?$char_traits@D@std@@V?$allocator@D@2@@2@H@Z 000000014004bd28     main.obj
 0002:00013d3c       $chain$1$?message@_Iostream_error_category@std@@UEBA?AV?$basic_string@DU?$char_traits@D@std@@V?$allocator@D@2@@2@H@Z 000000014004bd3c     main.obj
 0002:00013d4c       $unwind$??0failure@ios_base@std@@QEAA@PEBDAEBVerror_code@2@@Z 000000014004bd4c     main.obj
 0002:00013d6c       $stateUnwindMap$??0failure@ios_base@std@@QEAA@PEBDAEBVerror_code@2@@Z 000000014004bd6c     main.obj
 0002:00013d88       $ip2state$??0failure@ios_base@std@@QEAA@PEBDAEBVerror_code@2@@Z 000000014004bd88     main.obj
 0002:00013dc0       $unwind$?clear@ios_base@std@@QEAAXH_N@Z 000000014004bdc0     main.obj
 0002:00013dc8       $unwind$??_Gios_base@std@@UEAAPEAXI@Z 000000014004bdc8     main.obj
 0002:00013ddc       $stateUnwindMap$??_G?$basic_istream@DU?$char_traits@D@std@@@std@@UEAAPEAXI@Z 000000014004bddc     main.obj
 0002:00013ddc       $stateUnwindMap$??1?$basic_ios@DU?$char_traits@D@std@@@std@@UEAA@XZ 000000014004bddc     main.obj
 0002:00013ddc       $stateUnwindMap$??_G?$basic_streambuf@DU?$char_traits@D@std@@@std@@UEAAPEAXI@Z 000000014004bddc     main.obj
 0002:00013ddc       $stateUnwindMap$??1?$basic_streambuf@DU?$char_traits@D@std@@@std@@UEAA@XZ 000000014004bddc     main.obj
 0002:00013ddc       $stateUnwindMap$??_Glocale@std@@QEAAPEAXI@Z 000000014004bddc     main.obj
 0002:00013ddc       $stateUnwindMap$??_D?$basic_ifstream@DU?$char_traits@D@std@@@std@@QEAAXXZ 000000014004bddc     main.obj
 0002:00013ddc       $stateUnwindMap$??_G?$basic_ios@DU?$char_traits@D@std@@@std@@UEAAPEAXI@Z 000000014004bddc     main.obj
 0002:00013ddc       $stateUnwindMap$??1sentry@?$basic_istream@DU?$char_traits@D@std@@@std@@QEAA@XZ 000000014004bddc     main.obj
 0002:00013ddc       $stateUnwindMap$??1sentry@?$basic_ostream@DU?$char_traits@D@std@@@std@@QEAA@XZ 000000014004bddc     main.obj
 0002:00013ddc       $stateUnwindMap$??1?$basic_stringbuf@DU?$char_traits@D@std@@V?$allocator@D@2@@std@@UEAA@XZ 000000014004bddc     main.obj
 0002:00013ddc       $stateUnwindMap$??_D?$basic_fstream@DU?$char_traits@D@std@@@std@@QEAAXXZ 000000014004bddc     main.obj
 0002:00013ddc       $stateUnwindMap$??__Fcin@std@@YAXXZ 000000014004bddc     libcpmt:cin.obj
 0002:00013ddc       $stateUnwindMap$??_G?$basic_ostream@DU?$char_traits@D@std@@@std@@UEAAPEAXI@Z 000000014004bddc     main.obj
 0002:00013ddc       $stateUnwindMap$??_D?$basic_ofstream@DU?$char_traits@D@std@@@std@@QEAAXXZ 000000014004bddc     main.obj
 0002:00013ddc       $stateUnwindMap$??__Finit_atexit@@YAXXZ 000000014004bddc     libcpmt:iosptrs.obj
 0002:00013ddc       $stateUnwindMap$?erase@?$_Tree@V?$_Tmap_traits@V?$basic_string@DU?$char_traits@D@std@@V?$allocator@D@2@@std@@GU?$less@V?$basic_string@DU?$char_traits@D@std@@V?$allocator@D@2@@std@@@2@V?$allocator@U?$pair@$$CBV?$basic_string@DU?$char_traits@D@std@@V?$allocator@D@2@@std@@G@std@@@2@$0A@@std@@@std@@QEAA?AV?$_Tree_iterator@V?$_Tree_val@U?$_Tree_simple_types@U?$pair@$$CBV?$basic_string@DU?$char_traits@D@std@@V?$allocator@D@2@@std@@G@std@@@std@@@std@@@2@V?$_Tree_const_iterator@V?$_Tree_val@U?$_Tree_simple_types@U?$pair@$$CBV?$basic_string@DU?$char_traits@D@std@@V?$allocator@D@2@@std@@G@std@@@std@@@std@@@2@0@Z 000000014004bddc     main.obj
 0002:00013ddc       $stateUnwindMap$??__Fclassic_locale@std@@YAXXZ 000000014004bddc     libcpmt:locale0.obj
 0002:00013ddc       $stateUnwindMap$??0?$basic_streambuf@DU?$char_traits@D@std@@@std@@IEAA@XZ 000000014004bddc     main.obj
 0002:00013ddc       $stateUnwindMap$??1?$basic_filebuf@DU?$char_traits@D@std@@@std@@UEAA@XZ 000000014004bddc     main.obj
 0002:00013ddc       $stateUnwindMap$??_G_Fac_node@std@@QEAAPEAXI@Z 000000014004bddc     libcpmt:locale0.obj
 0002:00013ddc       $stateUnwindMap$??_Gios_base@std@@UEAAPEAXI@Z 000000014004bddc     main.obj
 0002:00013ddc       $stateUnwindMap$??__Fcout@std@@YAXXZ 000000014004bddc     libcpmt:cout.obj
 0002:00013ddc       $stateUnwindMap$??_G_Locimp@locale@std@@MEAAPEAXI@Z 000000014004bddc     libcpmt:locale0.obj
 0002:00013ddc       $stateUnwindMap$??_G?$basic_iostream@DU?$char_traits@D@std@@@std@@UEAAPEAXI@Z 000000014004bddc     main.obj
 0002:00013ddc       $stateUnwindMap$??_D?$basic_stringstream@DU?$char_traits@D@std@@V?$allocator@D@2@@std@@QEAAXXZ 000000014004bddc     main.obj
 0002:00013de8       $ip2state$??_Gios_base@std@@UEAAPEAXI@Z 000000014004bde8     main.obj
 0002:00013e00       $unwind$??__ERuletka_plansza_kolor_col@@YAXXZ 000000014004be00     main.obj
 0002:00013e10       $stateUnwindMap$??__ERuletka_plansza_kolor_col@@YAXXZ 000000014004be10     main.obj
 0002:00013e18       $ip2state$??__ERuletka_plansza_kolor_col@@YAXXZ 000000014004be18     main.obj
 0002:00013e30       $unwind$?_Xran@?$_String_val@U?$_Simple_types@D@std@@@std@@SAXXZ 000000014004be30     main.obj
 0002:00013e30       $unwind$tidy_global        000000014004be30     libcpmt:locale0.obj
 0002:00013e30       $unwind$__acrt_initialize_command_line 000000014004be30     libucrt:argv_data.obj
 0002:00013e30       $unwind$_strnicmp          000000014004be30     libucrt:strnicmp.obj
 0002:00013e30       $unwind$??__FRuletka_plansza_kolor_col@@YAXXZ 000000014004be30     main.obj
 0002:00013e30       $unwind$?__GetCurrentState@@YAHPEA_KPEAU_xDISPATCHER_CONTEXT@@PEBU_s_FuncInfo@@@Z 000000014004be30     libvcruntime:riscehstate.obj
 0002:00013e30       $unwind$__crtDownlevelLocaleNameToLCID 000000014004be30     libcpmt:winapinls.obj
 0002:00013e30       $unwind$??__Ecin@std@@YAXXZ 000000014004be30     libcpmt:cin.obj
 0002:00013e30       $unwind$_GetThrowImageBase 000000014004be30     libvcruntime:risctrnsctrl.obj
 0002:00013e30       $unwind$?_Xlen@?$basic_string@DU?$char_traits@D@std@@V?$allocator@D@2@@std@@SAXXZ 000000014004be30     main.obj
 0002:00013e30       $unwind$?_Locinfo_dtor@_Locinfo@std@@SAXPEAV12@@Z 000000014004be30     libcpmt:locale0.obj
 0002:00013e30       $unwind$??__FNumer_zasobu_rar@@YAXXZ 000000014004be30     main.obj
 0002:00013e30       $unwind$___mb_cur_max_func 000000014004be30     libucrt:initctype.obj
 0002:00013e30       $unwind$??__F_Fac_tidy_reg@std@@YAXXZ 000000014004be30     libcpmt:locale0.obj
 0002:00013e30       $unwind$??__Einitlocks@@YAXXZ 000000014004be30     libcpmt:cout.obj
 0002:00013e30       $unwind$___lc_locale_name_func 000000014004be30     libucrt:initctype.obj
 0002:00013e30       $unwind$_wcsnicmp          000000014004be30     libucrt:wcsnicmp.obj
 0002:00013e30       $unwind$_wcsicmp           000000014004be30     libucrt:wcsicmp.obj
 0002:00013e30       $unwind$?_Buyheadnode@?$_Tree_comp_alloc@V?$_Tmap_traits@V?$basic_string@DU?$char_traits@D@std@@V?$allocator@D@2@@std@@GU?$less@V?$basic_string@DU?$char_traits@D@std@@V?$allocator@D@2@@std@@@2@V?$allocator@U?$pair@$$CBV?$basic_string@DU?$char_traits@D@std@@V?$allocator@D@2@@std@@G@std@@@2@$0A@@std@@@std@@QEAAPEAU?$_Tree_node@U?$pair@$$CBV?$basic_string@DU?$char_traits@D@std@@V?$allocator@D@2@@std@@G@std@@PEAX@2@XZ 000000014004be30     main.obj
 0002:00013e30       $unwind$__vcrt_freefls     000000014004be30     libvcruntime:per_thread_data.obj
 0002:00013e30       $unwind$___lc_codepage_func 000000014004be30     libucrt:initctype.obj
 0002:00013e30       $unwind$_access            000000014004be30     libucrt:access.obj
 0002:00013e30       $unwind$abort              000000014004be30     libucrt:abort.obj
 0002:00013e30       $unwind$??__Ecout@std@@YAXXZ 000000014004be30     libcpmt:cout.obj
 0002:00013e30       $unwind$_msize_base        000000014004be30     libucrt:msize.obj
 0002:00013e30       $unwind$??1_Lockit@std@@QEAA@XZ 000000014004be30     libcpmt:xlock.obj
 0002:00013e30       $unwind$?_Xlength@?$vector@V?$basic_string@DU?$char_traits@D@std@@V?$allocator@D@2@@std@@V?$allocator@V?$basic_string@DU?$char_traits@D@std@@V?$allocator@D@2@@std@@@2@@std@@CAXXZ 000000014004be30     main.obj
 0002:00013e30       $unwind$rand               000000014004be30     libucrt:rand.obj
 0002:00013e30       $unwind$_register_thread_local_exe_atexit_callback 000000014004be30     libucrt:exit.obj
 0002:00013e30       $unwind$?_Buynode0@?$_Tree_comp_alloc@V?$_Tmap_traits@V?$basic_string@DU?$char_traits@D@std@@V?$allocator@D@2@@std@@GU?$less@V?$basic_string@DU?$char_traits@D@std@@V?$allocator@D@2@@std@@@2@V?$allocator@U?$pair@$$CBV?$basic_string@DU?$char_traits@D@std@@V?$allocator@D@2@@std@@G@std@@@2@$0A@@std@@@std@@QEAAPEAU?$_Tree_node@U?$pair@$$CBV?$basic_string@DU?$char_traits@D@std@@V?$allocator@D@2@@std@@G@std@@PEAX@2@XZ 000000014004be30     main.obj
 0002:00013e30       $unwind$__vcrt_getptd      000000014004be30     libvcruntime:per_thread_data.obj
 0002:00013e30       $unwind$?state_case_size@?$output_processor@DV?$string_output_adapter@D@__crt_stdio_output@@V?$format_validation_base@DV?$string_output_adapter@D@__crt_stdio_output@@@2@@__crt_stdio_output@@AEAA_NXZ 000000014004be30     libucrt:output.obj
 0002:00013e30       $unwind$__acrt_eagerly_load_locale_apis 000000014004be30     libucrt:winapi_thunks.obj
 0002:00013e30       $unwind$_wremove           000000014004be30     libucrt:wunlink.obj
 0002:00013e30       $unwind$__vcrt_uninitialize_ptd 000000014004be30     libvcruntime:per_thread_data.obj
 0002:00013e30       $unwind$_invoke_watson     000000014004be30     libucrt:invalid_parameter.obj
 0002:00013e30       $unwind$__vcrt_initialize_ptd 000000014004be30     libvcruntime:per_thread_data.obj
 0002:00013e30       $unwind$??__Einitlocks@@YAXXZ 000000014004be30     libcpmt:cin.obj
 0002:00013e30       $unwind$__GSHandlerCheck   000000014004be30     LIBCMT:_gshandler_.obj
 0002:00013e30       $unwind$??1?$_Deque_alloc@U?$_Deque_base_types@GV?$allocator@G@std@@@std@@@std@@QEAA@XZ 000000014004be30     main.obj
 0002:00013e30       $unwind$__vcrt_initialize  000000014004be30     libvcruntime:initialization.obj
 0002:00013e30       $unwind$_get_osfhandle     000000014004be30     libucrt:osfinfo.obj
 0002:00013e30       $unwind$__dcrt_terminate_console_output 000000014004be30     libucrt:initcon.obj
 0002:00013e30       $unwind$__report_rangecheckfailure 000000014004be30     LIBCMT:gs_report.obj
 0002:00013e30       $unwind$fsetpos            000000014004be30     libucrt:fsetpos.obj
 0002:00013e30       $unwind$tolower            000000014004be30     libucrt:tolower_toupper.obj
 0002:00013e30       $unwind$__doserrno         000000014004be30     libucrt:errno.obj
 0002:00013e30       $unwind$_errno             000000014004be30     libucrt:errno.obj
 0002:00013e30       $unwind$__pctype_func      000000014004be30     libucrt:ctype.obj
 0002:00013e30       $unwind$_get_stream_buffer_pointers 000000014004be30     libucrt:_file.obj
 0002:00013e30       $unwind$__scrt_initialize_default_local_stdio_options 000000014004be30     LIBCMT:default_local_stdio_options.obj
 0002:00013e30       $unwind$__acrt_uninitialize_ptd 000000014004be30     libucrt:per_thread_data.obj
 0002:00013e30       $unwind$??__Einitlocks@std@@YAXXZ 000000014004be30     libcpmt:iosptrs.obj
 0002:00013e30       $unwind$_set_errno_from_matherr 000000014004be30     libucrt:fpexcept.obj
 0002:00013e30       $unwind$__acrt_initialize_ptd 000000014004be30     libucrt:per_thread_data.obj
 0002:00013e30       $unwind$__acrt_release_locale_ref 000000014004be30     libucrt:locale_refcounting.obj
 0002:00013e30       $unwind$_copytlocinfo_nolock 000000014004be30     libucrt:wsetlocale.obj
 0002:00013e30       $unwind$__acrt_initialize_multibyte 000000014004be30     libucrt:mbctype.obj
 0002:00013e30       $unwind$_set_fmode         000000014004be30     libucrt:setmode.obj
 0002:00013e30       $unwind$?_Fail@?$_Default_allocate_traits@$00@std@@SAXXZ 000000014004be30     main.obj
 0002:00013e30       $unwind$_fileno            000000014004be30     libucrt:fileno.obj
 0002:00013e30       $unwind$_lock_locales      000000014004be30     libucrt:locks.obj
 0002:00013e30       $unwind$_fgetc_nolock      000000014004be30     libucrt:fgetc.obj
 0002:00013e30       $unwind$_isatty            000000014004be30     libucrt:isatty.obj
 0002:00013e30       $unwind$__acrt_update_thread_multibyte_data 000000014004be30     libucrt:mbctype.obj
 0002:00013e30       $unwind$_set_new_mode      000000014004be30     libucrt:new_mode.obj
 0002:00013e30       $unwind$_get_initial_narrow_environment 000000014004be30     libucrt:environment_initialization.obj
 0002:00013e30       $unwind$?_Atexit@@YAXP6AXXZ@Z 000000014004be30     libcpmt:iosptrs.obj
 0002:00013e30       $unwind$?Przenieœ_Plik@@YA_NAEBV?$basic_string@DU?$char_traits@D@std@@V?$allocator@D@2@@std@@0@Z 000000014004be30     main.obj
 0002:00013e30       $unwind$_get_fmode         000000014004be30     libucrt:setmode.obj
 0002:00013e30       $unwind$__dcrt_get_or_create_narrow_environment_nolock 000000014004be30     libucrt:environment_initialization.obj
 0002:00013e30       $unwind$__acrt_DownlevelLocaleNameToLCID 000000014004be30     libucrt:lcidtoname_downlevel.obj
 0002:00013e30       $unwind$__FrameUnwindFilter 000000014004be30     libvcruntime:ehhelpers.obj
 0002:00013e30       $unwind$__vcrt_uninitialize 000000014004be30     libvcruntime:initialization.obj
 0002:00013e30       $unwind$__acrt_AreFileApisANSI 000000014004be30     libucrt:winapi_thunks.obj
 0002:00013e30       $unwind$?_Random_device@std@@YAIXZ 000000014004be30     libcpmt:xrngdev.obj
 0002:00013e30       $unwind$__uncaught_exceptions 000000014004be30     libvcruntime:ehhelpers.obj
 0002:00013e30       $unwind$_statfp            000000014004be30     libucrt:fpctrl.obj
 0002:00013e30       $unwind$?post_pgo_initialization@@YAHXZ 000000014004be30     LIBCMT:exe_main.obj
 0002:00013e30       $unwind$__std_terminate    000000014004be30     libvcruntime:ehhelpers.obj
 0002:00013e30       $unwind$__dcrt_uninitialize_environments_nolock 000000014004be30     libucrt:environment_initialization.obj
 0002:00013e30       $unwind$??__Einitlocks@std@@YAXXZ 000000014004be30     libcpmt:xlock.obj
 0002:00013e30       $unwind$localeconv         000000014004be30     libucrt:localeconv.obj
 0002:00013e30       $unwind$uninitialize_environment 000000014004be30     libucrt:initialization.obj
 0002:00013e30       $unwind$_GetImageBase      000000014004be30     libvcruntime:risctrnsctrl.obj
 0002:00013e30       $unwind$__scrt_unhandled_exception_filter 000000014004be30     LIBCMT:utility_desktop.obj
 0002:00013e30       $unwind$__scrt_is_managed_app 000000014004be30     LIBCMT:utility_desktop.obj
 0002:00013e30       $unwind$?pre_cpp_initialization@@YAXXZ 000000014004be30     LIBCMT:exe_main.obj
 0002:00013e30       $unwind$initialize_c       000000014004be30     libucrt:initialization.obj
 0002:00013e30       $unwind$__acrt_initialize_heap 000000014004be30     libucrt:heap_handle.obj
 0002:00013e30       $unwind$?state_case_normal_tchar@?$output_processor@DV?$string_output_adapter@D@__crt_stdio_output@@V?$format_validation_base@DV?$string_output_adapter@D@__crt_stdio_output@@@2@@__crt_stdio_output@@AEAA_ND@Z 000000014004be30     libucrt:output.obj
 0002:00013e30       $unwind$?initialize_multibyte@@YAHXZ 000000014004be30     libucrt:multibyte_initializer.obj
 0002:00013e30       $unwind$mainCRTStartup     000000014004be30     LIBCMT:exe_main.obj
 0002:00013e30       $unwind$__acrt_can_use_vista_locale_apis 000000014004be30     libucrt:winapi_thunks.obj
 0002:00013e30       $unwind$__scrt_acquire_startup_lock 000000014004be30     LIBCMT:utility.obj
 0002:00013e30       $unwind$__acrt_uninitialize 000000014004be30     libucrt:initialization.obj
 0002:00013e30       $unwind$?_Xlen@?$deque@GV?$allocator@G@std@@@std@@IEBAXXZ 000000014004be30     main.obj
 0002:00013e30       $unwind$rand_s             000000014004be30     libucrt:rand_s.obj
 0002:00013e30       $unwind$??$uninitialize_environment_internal@D@@YAXAEAPEAPEAD@Z 000000014004be30     libucrt:environment_initialization.obj
 0002:00013e30       $unwind$atexit             000000014004be30     LIBCMT:utility.obj
 0002:00013e30       $unwind$?__autoclassinit2@?$basic_stringstream@DU?$char_traits@D@std@@V?$allocator@D@2@@std@@QEAAX_K@Z 000000014004be30     main.obj
 0002:00013e30       $unwind$??$uninitialize_environment_internal@_W@@YAXAEAPEAPEA_W@Z 000000014004be30     libucrt:environment_initialization.obj
 0002:00013e38       $unwind$??__ENumer_zasobu_rar@@YAXXZ 000000014004be38     main.obj
 0002:00013e54       $stateUnwindMap$??__ENumer_zasobu_rar@@YAXXZ 000000014004be54     main.obj
 0002:00013fd0       $ip2state$??__ENumer_zasobu_rar@@YAXXZ 000000014004bfd0     main.obj
 0002:00014150       $unwind$?dtor$195@?0??Odczytaj_Liczbê@@YAXAEBHAEBV?$basic_string@DU?$char_traits@D@std@@V?$allocator@D@2@@std@@@Z@4HA 000000014004c150     main.obj
 0002:00014150       $unwind$?fin$0@?0???$?RV<lambda_410d79af7f07d98d83a3f525b3859a53>@@AEAV<lambda_3e16ef9562a7dcce91392c22ab16ea36>@@V<lambda_38119f0e861e05405d8a144b9b982f0a>@@@?$__crt_seh_guarded_call@X@@QEAAX$$QEAV<lambda_410d79af7f07d98d83a3f525b3859a53>@@AEAV<lambda_3e16ef9562a7dcce91392c22ab16ea36>@@$$QEAV<lambda_38119f0e861e05405d8a144b9b982f0a>@@@Z@4HA 000000014004c150     libucrt:wsetlocale.obj
 0002:00014150       $unwind$?dtor$216@?0??Odczytaj_Liczbê@@YAXAEBHAEBV?$basic_string@DU?$char_traits@D@std@@V?$allocator@D@2@@std@@@Z@4HA 000000014004c150     main.obj
 0002:00014150       $unwind$?fin$0@?0???$?RV<lambda_8369fcb7c4df1e85de37618bd2b85f07>@@AEAV<lambda_a10e4b102d4a2c3aac6f4f48bbdf488f>@@V<lambda_5b7707bd6d7a0c4713179f36c7fd995d>@@@?$__crt_seh_guarded_call@H@@QEAAH$$QEAV<lambda_8369fcb7c4df1e85de37618bd2b85f07>@@AEAV<lambda_a10e4b102d4a2c3aac6f4f48bbdf488f>@@$$QEAV<lambda_5b7707bd6d7a0c4713179f36c7fd995d>@@@Z@4HA 000000014004c150     libucrt:onexit.obj
 0002:00014150       $unwind$?filt$0@?0??__scrt_common_main_seh@@YAHXZ@4HA 000000014004c150     LIBCMT:exe_main.obj
 0002:00014150       $unwind$?fin$0@?0???$?RV<lambda_7777bce6b2f8c936911f934f8298dc43>@@AEAV<lambda_f03950bc5685219e0bcd2087efbe011e>@@V<lambda_3883c3dff614d5e0c5f61bb1ac94921c>@@@?$__crt_seh_guarded_call@H@@QEAAH$$QEAV<lambda_7777bce6b2f8c936911f934f8298dc43>@@AEAV<lambda_f03950bc5685219e0bcd2087efbe011e>@@$$QEAV<lambda_3883c3dff614d5e0c5f61bb1ac94921c>@@@Z@4HA 000000014004c150     libucrt:onexit.obj
 0002:00014150       $unwind$?dtor$246@?0??SprawdŸ_Pliki@@YAXXZ@4HA 000000014004c150     main.obj
 0002:00014150       $unwind$?dtor$141@?0??Odczytaj_Liczbê@@YAXAEBHAEBV?$basic_string@DU?$char_traits@D@std@@V?$allocator@D@2@@std@@@Z@4HA 000000014004c150     main.obj
 0002:00014150       $unwind$_fcloseall$fin$0   000000014004c150     libucrt:closeall.obj
 0002:00014150       $unwind$fclose$fin$0       000000014004c150     libucrt:fclose.obj
 0002:00014150       $unwind$?dtor$239@?0??Odczytaj_Liczbê@@YAXAEBHAEBV?$basic_string@DU?$char_traits@D@std@@V?$allocator@D@2@@std@@@Z@4HA 000000014004c150     main.obj
 0002:00014150       $unwind$_write$fin$0       000000014004c150     libucrt:write.obj
 0002:00014150       $unwind$?dtor$267@?0??SprawdŸ_Pliki@@YAXXZ@4HA 000000014004c150     main.obj
 0002:00014150       $unwind$?fin$0@?0???$?RV<lambda_9529fede68560d7205a1271ab16b352e>@@AEAV<lambda_ebf8c556deb379764da826e7bb46e993>@@V<lambda_db92443d3c9ace7c8a20b950bb983b5a>@@@?$__crt_seh_guarded_call@X@@QEAAX$$QEAV<lambda_9529fede68560d7205a1271ab16b352e>@@AEAV<lambda_ebf8c556deb379764da826e7bb46e993>@@$$QEAV<lambda_db92443d3c9ace7c8a20b950bb983b5a>@@@Z@4HA 000000014004c150     libucrt:wsetlocale.obj
 0002:00014150       $unwind$?dtor$285@?0??SprawdŸ_Pliki@@YAXXZ@4HA 000000014004c150     main.obj
 0002:00014150       $unwind$__DestructExceptionObject$filt$0 000000014004c150     libvcruntime:ehhelpers.obj
 0002:00014150       $unwind$?fin$0@?0???$?RV<lambda_842d9ff0dc9ef11c61343bbaebe7f885>@@AEAV<lambda_c5860995281e5c4ce005b3de8f5874ee>@@V<lambda_d90129c13df834fdcbf8d2b88dafcf2d>@@@?$__crt_seh_guarded_call@X@@QEAAX$$QEAV<lambda_842d9ff0dc9ef11c61343bbaebe7f885>@@AEAV<lambda_c5860995281e5c4ce005b3de8f5874ee>@@$$QEAV<lambda_d90129c13df834fdcbf8d2b88dafcf2d>@@@Z@4HA 000000014004c150     libucrt:fflush.obj
 0002:00014150       $unwind$?fin$0@?0???$?RV<lambda_886d6c58226a84441f68b9f2b8217b83>@@AEAV<lambda_ab61a845afdef5b7c387490eaf3616ee>@@V<lambda_f7f22ab5edc0698d5f6905b0d3f44752>@@@?$__crt_seh_guarded_call@X@@QEAAX$$QEAV<lambda_886d6c58226a84441f68b9f2b8217b83>@@AEAV<lambda_ab61a845afdef5b7c387490eaf3616ee>@@$$QEAV<lambda_f7f22ab5edc0698d5f6905b0d3f44752>@@@Z@4HA 000000014004c150     libucrt:fflush.obj
 0002:00014150       $unwind$?dtor$1@?0??Og³oœ_Wynik@@YAXAEBH0AEAHAEAV?$basic_ofstream@DU?$char_traits@D@std@@@std@@AEAV?$basic_fstream@DU?$char_traits@D@std@@@2@@Z@4HA 000000014004c150     main.obj
 0002:00014150       $unwind$?fin$0@?0???$?RV<lambda_c376a267cfb53b6959b3b692ec76b120>@@AEAV<lambda_9a32fed5bf61b6b509b2d3f6003082a1>@@V<lambda_572fbb9fa0ab338edf41edfd4b5fcc8d>@@@?$__crt_seh_guarded_call@H@@QEAAH$$QEAV<lambda_c376a267cfb53b6959b3b692ec76b120>@@AEAV<lambda_9a32fed5bf61b6b509b2d3f6003082a1>@@$$QEAV<lambda_572fbb9fa0ab338edf41edfd4b5fcc8d>@@@Z@4HA 000000014004c150     libucrt:fflush.obj
 0002:00014150       $unwind$?dtor$303@?0??SprawdŸ_Pliki@@YAXXZ@4HA 000000014004c150     main.obj
 0002:00014150       $unwind$fgetc$fin$0        000000014004c150     libucrt:fgetc.obj
 0002:00014150       $unwind$?dtor$315@?0??Odczytaj_Liczbê@@YAXAEBHAEBV?$basic_string@DU?$char_traits@D@std@@V?$allocator@D@2@@std@@@Z@4HA 000000014004c150     main.obj
 0002:00014150       $unwind$__CxxCallCatchBlock$filt$0 000000014004c150     libvcruntime:frame.obj
 0002:00014150       $unwind$?fin$0@?0???$common_fsopen@D@@YAPEAU_iobuf@@QEBD0H@Z@4HA 000000014004c150     libucrt:fopen.obj
 0002:00014150       $unwind$?fin$0@?0??__acrt_stdio_allocate_stream@@YA?AV__crt_stdio_stream@@XZ@4HA 000000014004c150     libucrt:stream.obj
 0002:00014150       $unwind$fputc$fin$0        000000014004c150     libucrt:fputc.obj
 0002:00014150       $unwind$_read$fin$0        000000014004c150     libucrt:read.obj
 0002:00014150       $unwind$__FrameUnwindToState$filt$0 000000014004c150     libvcruntime:frame.obj
 0002:00014150       $unwind$?filt$0@?0??__ArrayUnwind@@YAXPEAX_K1P6AX0@Z@Z@4HA 000000014004c150     LIBCMT:ehvecdtr.obj
 0002:00014150       $unwind$?fin$0@?0??update_thread_multibyte_data_internal@@YAPEAU__crt_multibyte_data@@QEAU__acrt_ptd@@QEAU1@@Z@4HA 000000014004c150     libucrt:mbctype.obj
 0002:00014150       $unwind$?dtor$108@?0??Odczytaj_Liczbê@@YAXAEBHAEBV?$basic_string@DU?$char_traits@D@std@@V?$allocator@D@2@@std@@@Z@4HA 000000014004c150     main.obj
 0002:00014150       $unwind$?fin$0@?0???_M@YAXPEAX_K1P6AX0@Z@Z@4HA 000000014004c150     LIBCMT:ehvecdtr.obj
 0002:00014150       $unwind$__FrameUnwindToState$fin$1 000000014004c150     libvcruntime:frame.obj
 0002:00014150       $unwind$?fin$0@?0???$?RV<lambda_efdfa57d1f175319df784efa44bb7b81>@@AEAV<lambda_5f0a4c1567f8adc6734073e5d1e1b35c>@@V<lambda_2e8a7d3640ea6ccb4c2413664c2db6fd>@@@?$__crt_seh_guarded_call@X@@QEAAX$$QEAV<lambda_efdfa57d1f175319df784efa44bb7b81>@@AEAV<lambda_5f0a4c1567f8adc6734073e5d1e1b35c>@@$$QEAV<lambda_2e8a7d3640ea6ccb4c2413664c2db6fd>@@@Z@4HA 000000014004c150     libucrt:mbctype.obj
 0002:00014150       $unwind$_IsNonwritableInCurrentImage$filt$0 000000014004c150     LIBCMT:pesect.obj
 0002:00014150       $unwind$__acrt_lowio_ensure_fh_exists$fin$0 000000014004c150     libucrt:osfinfo.obj
 0002:00014150       $unwind$?dtor$316@?0??SprawdŸ_Pliki@@YAXXZ@4HA 000000014004c150     main.obj
 0002:00014150       $unwind$_alloc_osfhnd$fin$0 000000014004c150     libucrt:osfinfo.obj
 0002:00014150       $unwind$?dtor$87@?0??Odczytaj_Liczbê@@YAXAEBHAEBV?$basic_string@DU?$char_traits@D@std@@V?$allocator@D@2@@std@@@Z@4HA 000000014004c150     main.obj
 0002:00014150       $unwind$?fin$0@?0??common_fseek@@YAHV__crt_stdio_stream@@_JH@Z@4HA 000000014004c150     libucrt:fseek.obj
 0002:00014150       $unwind$_query_new_handler$fin$0 000000014004c150     libucrt:new_handler.obj
 0002:00014150       $unwind$?dtor$345@?0??SprawdŸ_Pliki@@YAXXZ@4HA 000000014004c150     main.obj
 0002:00014150       $unwind$?dtor$5@?0???$_Buynode@AEBU?$pair@$$CBV?$basic_string@DU?$char_traits@D@std@@V?$allocator@D@2@@std@@G@std@@@?$_Tree_comp_alloc@V?$_Tmap_traits@V?$basic_string@DU?$char_traits@D@std@@V?$allocator@D@2@@std@@GU?$less@V?$basic_string@DU?$char_traits@D@std@@V?$allocator@D@2@@std@@@2@V?$allocator@U?$pair@$$CBV?$basic_string@DU?$char_traits@D@std@@V?$allocator@D@2@@std@@G@std@@@2@$0A@@std@@@std@@QEAAPEAU?$_Tree_node@U?$pair@$$CBV?$basic_string@DU?$char_traits@D@std@@V?$allocator@D@2@@std@@G@std@@PEAX@1@AEBU?$pair@$$CBV?$basic_string@DU?$char_traits@D@std@@V?$allocator@D@2@@std@@G@1@@Z@4HA 000000014004c150     main.obj
 0002:00014150       $unwind$?dtor$999@?0??SprawdŸ_Pliki@@YAXXZ@4HA 000000014004c150     main.obj
 0002:00014150       $unwind$?fin$0@?0???$?RV<lambda_d80eeec6fff315bfe5c115232f3240e3>@@AEAV<lambda_6e4b09c48022b2350581041d5f6b0c4c>@@V<lambda_2358e3775559c9db80273638284d5e45>@@@?$__crt_seh_guarded_call@X@@QEAAX$$QEAV<lambda_d80eeec6fff315bfe5c115232f3240e3>@@AEAV<lambda_6e4b09c48022b2350581041d5f6b0c4c>@@$$QEAV<lambda_2358e3775559c9db80273638284d5e45>@@@Z@4HA 000000014004c150     libucrt:exit.obj
 0002:00014150       $unwind$?dtor$1017@?0??SprawdŸ_Pliki@@YAXXZ@4HA 000000014004c150     main.obj
 0002:00014150       $unwind$?fin$0@?0???$?RV<lambda_0ae27a3a962d80f24befdcbee591983d>@@AEAV<lambda_8d0ee55de4b1038c4002e0adecdf1839>@@V<lambda_dc504788e8f1664fe9b84e20bfb512f2>@@@?$__crt_seh_guarded_call@X@@QEAAX$$QEAV<lambda_0ae27a3a962d80f24befdcbee591983d>@@AEAV<lambda_8d0ee55de4b1038c4002e0adecdf1839>@@$$QEAV<lambda_dc504788e8f1664fe9b84e20bfb512f2>@@@Z@4HA 000000014004c150     libucrt:per_thread_data.obj
 0002:00014150       $unwind$?dtor$361@?0??SprawdŸ_Pliki@@YAXXZ@4HA 000000014004c150     main.obj
 0002:00014150       $unwind$?dtor$2@?0???$use_facet@V?$numpunct@D@std@@@std@@YAAEBV?$numpunct@D@0@AEBVlocale@0@@Z@4HA 000000014004c150     main.obj
 0002:00014150       $unwind$?dtor$3@?0???$use_facet@V?$numpunct@D@std@@@std@@YAAEBV?$numpunct@D@0@AEBVlocale@0@@Z@4HA 000000014004c150     main.obj
 0002:00014150       $unwind$?dtor$429@?0??SprawdŸ_Pliki@@YAXXZ@4HA 000000014004c150     main.obj
 0002:00014150       $unwind$?dtor$4@?0??SprawdŸ_Ustawienia@@YAXXZ@4HA 000000014004c150     main.obj
 0002:00014150       $unwind$?dtor$1035@?0??SprawdŸ_Pliki@@YAXXZ@4HA 000000014004c150     main.obj
 0002:00014150       $unwind$?dtor$0@?0???0?$basic_ofstream@DU?$char_traits@D@std@@@std@@QEAA@XZ@4HA 000000014004c150     main.obj
 0002:00014150       $unwind$?dtor$468@?0??SprawdŸ_Pliki@@YAXXZ@4HA 000000014004c150     main.obj
 0002:00014150       $unwind$?dtor$978@?0??SprawdŸ_Pliki@@YAXXZ@4HA 000000014004c150     main.obj
 0002:00014150       $unwind$?fin$0@?0???$?RV<lambda_aa87e3671a710a21b5dc78c0bdf72e11>@@AEAV<lambda_92619d2358a28f41a33ba319515a20b9>@@V<lambda_6992ecaafeb10aed2b74cb1fae11a551>@@@?$__crt_seh_guarded_call@X@@QEAAX$$QEAV<lambda_aa87e3671a710a21b5dc78c0bdf72e11>@@AEAV<lambda_92619d2358a28f41a33ba319515a20b9>@@$$QEAV<lambda_6992ecaafeb10aed2b74cb1fae11a551>@@@Z@4HA 000000014004c150     libucrt:per_thread_data.obj
 0002:00014150       $unwind$?dtor$486@?0??SprawdŸ_Pliki@@YAXXZ@4HA 000000014004c150     main.obj
 0002:00014150       $unwind$?filt$0@?0???R<lambda_6e4b09c48022b2350581041d5f6b0c4c>@@QEBA@XZ@4HA 000000014004c150     libucrt:exit.obj
 0002:00014150       $unwind$?fin$0@?0???$common_ftell@_J@@YA_JV__crt_stdio_stream@@@Z@4HA 000000014004c150     libucrt:ftell.obj
 0002:00014150       $unwind$raise$fin$0        000000014004c150     libucrt:signal.obj
 0002:00014150       $unwind$?fin$0@?0???$?RV<lambda_d8a01803c7231904df012bb083be9e3a>@@AEAV<lambda_b163b37eafe0a13f2c371fafeb0365c9>@@AEAV<lambda_8dff2cf36a5417162780cd64fa2883ef>@@@?$__crt_seh_guarded_call@X@@QEAAX$$QEAV<lambda_d8a01803c7231904df012bb083be9e3a>@@AEAV<lambda_b163b37eafe0a13f2c371fafeb0365c9>@@AEAV<lambda_8dff2cf36a5417162780cd64fa2883ef>@@@Z@4HA 000000014004c150     libucrt:wsetlocale.obj
 0002:00014150       $unwind$?fin$0@?0???$?RV<lambda_f2e299630e499de9f9a165e60fcd3db5>@@AEAV<lambda_2ae9d31cdba2644fcbeaf08da7c24588>@@V<lambda_40d01ff24d0e7b3814fdbdcee8eab3c7>@@@?$__crt_seh_guarded_call@X@@QEAAX$$QEAV<lambda_f2e299630e499de9f9a165e60fcd3db5>@@AEAV<lambda_2ae9d31cdba2644fcbeaf08da7c24588>@@$$QEAV<lambda_40d01ff24d0e7b3814fdbdcee8eab3c7>@@@Z@4HA 000000014004c150     libucrt:per_thread_data.obj
 0002:00014150       $unwind$?fin$0@?0???$common_lseek@_J@@YA_JH_JH@Z@4HA 000000014004c150     libucrt:lseek.obj
 0002:00014150       $unwind$?fin$0@?0???$?RV<lambda_450d765d439847d4c735a33c368b5fc0>@@AEAV<lambda_44731a7d0e6d81c3e6aa82d741081786>@@V<lambda_601a2a7da3b7a96e9554ac7215c4b07c>@@@?$__crt_seh_guarded_call@P6AXH@Z@@QEAAP6AXH@Z$$QEAV<lambda_450d765d439847d4c735a33c368b5fc0>@@AEAV<lambda_44731a7d0e6d81c3e6aa82d741081786>@@$$QEAV<lambda_601a2a7da3b7a96e9554ac7215c4b07c>@@@Z@4HA 000000014004c150     libucrt:signal.obj
 0002:00014150       $unwind$?dtor$499@?0??SprawdŸ_Pliki@@YAXXZ@4HA 000000014004c150     main.obj
 0002:00014150       $unwind$?dtor$0@?0???0?$basic_ostream@DU?$char_traits@D@std@@@std@@QEAA@PEAV?$basic_streambuf@DU?$char_traits@D@std@@@1@_N@Z@4HA 000000014004c150     main.obj
 0002:00014150       $unwind$__acrt_update_thread_locale_data$fin$0 000000014004c150     libucrt:locale_refcounting.obj
 0002:00014150       $unwind$?fin$0@?0???$?RV<lambda_2d41944a1d46af3157314b8a01080d33>@@AEAV<lambda_8f455de75cd7d7f24b4096f044d8b9e6>@@V<lambda_aa500f224e6afead328df44964fe2772>@@@?$__crt_seh_guarded_call@X@@QEAAX$$QEAV<lambda_2d41944a1d46af3157314b8a01080d33>@@AEAV<lambda_8f455de75cd7d7f24b4096f044d8b9e6>@@$$QEAV<lambda_aa500f224e6afead328df44964fe2772>@@@Z@4HA 000000014004c150     libucrt:per_thread_data.obj
 0002:00014150       $unwind$?dtor$16@?0??Wypakuj_Rar@@YAXAEBV?$basic_string@DU?$char_traits@D@std@@V?$allocator@D@2@@std@@@Z@4HA 000000014004c150     main.obj
 0002:00014150       $unwind$?fin$0@?0???$?RV<lambda_bdbcead8b570fa3d5ec6d9679862a6e5>@@AEAV<lambda_96f4279ff90247a4c5c5d9824f56f8c1>@@V<lambda_4606be27f17b5e5579e09050fab91818>@@@?$__crt_seh_guarded_call@_K@@QEAA_K$$QEAV<lambda_bdbcead8b570fa3d5ec6d9679862a6e5>@@AEAV<lambda_96f4279ff90247a4c5c5d9824f56f8c1>@@$$QEAV<lambda_4606be27f17b5e5579e09050fab91818>@@@Z@4HA 000000014004c150     libucrt:fwrite.obj
 0002:00014150       $unwind$?dtor$1048@?0??SprawdŸ_Pliki@@YAXXZ@4HA 000000014004c150     main.obj
 0002:00014150       $unwind$?dtor$0@?0???0?$basic_istream@DU?$char_traits@D@std@@@std@@QEAA@PEAV?$basic_streambuf@DU?$char_traits@D@std@@@1@_N@Z@4HA 000000014004c150     main.obj
 0002:00014150       $unwind$?dtor$528@?0??SprawdŸ_Pliki@@YAXXZ@4HA 000000014004c150     main.obj
 0002:00014150       $unwind$?fin$0@?0???$?RV<lambda_84ec643ea9557e2f7dc01bb0e9624395>@@AEAV<lambda_ca71763b3c0644891230e4f79ea54fa6>@@V<lambda_439a761618c59b0600e24586724d733b>@@@?$__crt_seh_guarded_call@H@@QEAAH$$QEAV<lambda_84ec643ea9557e2f7dc01bb0e9624395>@@AEAV<lambda_ca71763b3c0644891230e4f79ea54fa6>@@$$QEAV<lambda_439a761618c59b0600e24586724d733b>@@@Z@4HA 000000014004c150     libucrt:setvbuf.obj
 0002:00014150       $unwind$?dtor$0@?0???$_Uninitialized_copy_al_unchecked@PEBV?$basic_string@DU?$char_traits@D@std@@V?$allocator@D@2@@std@@PEAV12@V?$allocator@V?$basic_string@DU?$char_traits@D@std@@V?$allocator@D@2@@std@@@2@@std@@YAPEAV?$basic_string@DU?$char_traits@D@std@@V?$allocator@D@2@@0@PEBV10@0PEAV10@AEAV?$allocator@V?$basic_string@DU?$char_traits@D@std@@V?$allocator@D@2@@std@@@0@U_General_ptr_iterator_tag@0@U_Unused_parameter@0@@Z@4HA 000000014004c150     main.obj
 0002:00014150       $unwind$?dtor$2@?0???$use_facet@V?$num_put@DV?$ostreambuf_iterator@DU?$char_traits@D@std@@@std@@@std@@@std@@YAAEBV?$num_put@DV?$ostreambuf_iterator@DU?$char_traits@D@std@@@std@@@0@AEBVlocale@0@@Z@4HA 000000014004c150     main.obj
 0002:00014150       $unwind$?dtor$544@?0??SprawdŸ_Pliki@@YAXXZ@4HA 000000014004c150     main.obj
 0002:00014150       $unwind$?dtor$1077@?0??SprawdŸ_Pliki@@YAXXZ@4HA 000000014004c150     main.obj
 0002:00014150       $unwind$?dtor$612@?0??SprawdŸ_Pliki@@YAXXZ@4HA 000000014004c150     main.obj
 0002:00014150       $unwind$?dtor$432@?0??Usuñ_Folder_Wypakowany_i_Winrar@@YAXAEBV?$basic_string@DU?$char_traits@D@std@@V?$allocator@D@2@@std@@@Z@4HA 000000014004c150     main.obj
 0002:00014150       $unwind$?dtor$633@?0??SprawdŸ_Pliki@@YAXXZ@4HA 000000014004c150     main.obj
 0002:00014150       $unwind$?dtor$651@?0??SprawdŸ_Pliki@@YAXXZ@4HA 000000014004c150     main.obj
 0002:00014150       $unwind$?dtor$242@?0??Usuñ_Folder_Wypakowany_i_Winrar@@YAXAEBV?$basic_string@DU?$char_traits@D@std@@V?$allocator@D@2@@std@@@Z@4HA 000000014004c150     main.obj
 0002:00014150       $unwind$?dtor$669@?0??SprawdŸ_Pliki@@YAXXZ@4HA 000000014004c150     main.obj
 0002:00014150       $unwind$?fin$0@?0???$?RV<lambda_bd00b5aa228bd7e7e5b2b5db5fd2933b>@@AEAV<lambda_777d11615145f89ee95b9466d285deeb>@@V<lambda_6e5e48fbd24f9f8f81b203eb3d877683>@@@?$__crt_seh_guarded_call@H@@QEAAH$$QEAV<lambda_bd00b5aa228bd7e7e5b2b5db5fd2933b>@@AEAV<lambda_777d11615145f89ee95b9466d285deeb>@@$$QEAV<lambda_6e5e48fbd24f9f8f81b203eb3d877683>@@@Z@4HA 000000014004c150     libucrt:winapi_thunks.obj
 0002:00014150       $unwind$?dtor$168@?0??Usuñ_Folder_Wypakowany_i_Winrar@@YAXAEBV?$basic_string@DU?$char_traits@D@std@@V?$allocator@D@2@@std@@@Z@4HA 000000014004c150     main.obj
 0002:00014150       $unwind$?dtor$147@?0??Usuñ_Folder_Wypakowany_i_Winrar@@YAXAEBV?$basic_string@DU?$char_traits@D@std@@V?$allocator@D@2@@std@@@Z@4HA 000000014004c150     main.obj
 0002:00014150       $unwind$?fin$0@?0???$?RV<lambda_751a882b2c74d4b022dec766aa51a29a>@@AEAV<lambda_628dfdc04ba53c8bfc02c9951375f3f5>@@V<lambda_f6c7be5f7998530c34de24c7437d6b54>@@@?$__crt_seh_guarded_call@H@@QEAAH$$QEAV<lambda_751a882b2c74d4b022dec766aa51a29a>@@AEAV<lambda_628dfdc04ba53c8bfc02c9951375f3f5>@@$$QEAV<lambda_f6c7be5f7998530c34de24c7437d6b54>@@@Z@4HA 000000014004c150     libucrt:close.obj
 0002:00014150       $unwind$?dtor$910@?0??SprawdŸ_Pliki@@YAXXZ@4HA 000000014004c150     main.obj
 0002:00014150       $unwind$?dtor$126@?0??Usuñ_Folder_Wypakowany_i_Winrar@@YAXAEBV?$basic_string@DU?$char_traits@D@std@@V?$allocator@D@2@@std@@@Z@4HA 000000014004c150     main.obj
 0002:00014150       $unwind$?dtor$105@?0??Usuñ_Folder_Wypakowany_i_Winrar@@YAXAEBV?$basic_string@DU?$char_traits@D@std@@V?$allocator@D@2@@std@@@Z@4HA 000000014004c150     main.obj
 0002:00014150       $unwind$?dtor$0@?0???0?$basic_stringstream@DU?$char_traits@D@std@@V?$allocator@D@2@@std@@QEAA@H@Z@4HA 000000014004c150     main.obj
 0002:00014150       $unwind$?dtor$2@?0???$use_facet@V?$codecvt@DDU_Mbstatet@@@std@@@std@@YAAEBV?$codecvt@DDU_Mbstatet@@@0@AEBVlocale@0@@Z@4HA 000000014004c150     main.obj
 0002:00014150       $unwind$?dtor$682@?0??SprawdŸ_Pliki@@YAXXZ@4HA 000000014004c150     main.obj
 0002:00014150       $unwind$?dtor$84@?0??Usuñ_Folder_Wypakowany_i_Winrar@@YAXAEBV?$basic_string@DU?$char_traits@D@std@@V?$allocator@D@2@@std@@@Z@4HA 000000014004c150     main.obj
 0002:00014150       $unwind$_ctrlfp$filt$0     000000014004c150     libucrt:fpctrl.obj
 0002:00014150       $unwind$?dtor$711@?0??SprawdŸ_Pliki@@YAXXZ@4HA 000000014004c150     main.obj
 0002:00014150       $unwind$?dtor$63@?0??Usuñ_Folder_Wypakowany_i_Winrar@@YAXAEBV?$basic_string@DU?$char_traits@D@std@@V?$allocator@D@2@@std@@@Z@4HA 000000014004c150     main.obj
 0002:00014150       $unwind$__acrt_initialize_lowio$fin$0 000000014004c150     libucrt:ioinit.obj
 0002:00014150       $unwind$?fin$0@?0???$?RV<lambda_9bd929c17696992ce54f1d748594fc62>@@AEAV<lambda_082c17da81b0962e08c0587ee0fac50c>@@V<lambda_9c08ac857f4975304d44e9f601d9b878>@@@?$__crt_seh_guarded_call@PEAD@@QEAAPEAD$$QEAV<lambda_9bd929c17696992ce54f1d748594fc62>@@AEAV<lambda_082c17da81b0962e08c0587ee0fac50c>@@$$QEAV<lambda_9c08ac857f4975304d44e9f601d9b878>@@@Z@4HA 000000014004c150     libucrt:setlocale.obj
 0002:00014150       $unwind$?dtor$45@?0???__ENumer_zasobu_rar@@YAXXZ@4HA 000000014004c150     main.obj
 0002:00014150       $unwind$?dtor$42@?0??Usuñ_Folder_Wypakowany_i_Winrar@@YAXAEBV?$basic_string@DU?$char_traits@D@std@@V?$allocator@D@2@@std@@@Z@4HA 000000014004c150     main.obj
 0002:00014150       $unwind$?dtor$21@?0??Usuñ_Folder_Wypakowany_i_Winrar@@YAXAEBV?$basic_string@DU?$char_traits@D@std@@V?$allocator@D@2@@std@@@Z@4HA 000000014004c150     main.obj
 0002:00014150       $unwind$ungetc$fin$0       000000014004c150     libucrt:ungetc.obj
 0002:00014150       $unwind$?dtor$1093@?0??SprawdŸ_Pliki@@YAXXZ@4HA 000000014004c150     main.obj
 0002:00014150       $unwind$?dtor$450@?0??SprawdŸ_Pliki@@YAXXZ@4HA 000000014004c150     main.obj
 0002:00014150       $unwind$?dtor$1161@?0??SprawdŸ_Pliki@@YAXXZ@4HA 000000014004c150     main.obj
 0002:00014150       $unwind$?dtor$162@?0??Odczytaj_Liczbê@@YAXAEBHAEBV?$basic_string@DU?$char_traits@D@std@@V?$allocator@D@2@@std@@@Z@4HA 000000014004c150     main.obj
 0002:00014150       $unwind$?dtor$727@?0??SprawdŸ_Pliki@@YAXXZ@4HA 000000014004c150     main.obj
 0002:00014150       $unwind$?dtor$795@?0??SprawdŸ_Pliki@@YAXXZ@4HA 000000014004c150     main.obj
 0002:00014150       $unwind$?dtor$10@?0???__ENazwa_g³osu@@YAXXZ@4HA 000000014004c150     main.obj
 0002:00014150       $unwind$?dtor$816@?0??SprawdŸ_Pliki@@YAXXZ@4HA 000000014004c150     main.obj
 0002:00014150       $unwind$?fin$0@?0???$?RV<lambda_a37b2b86f63e897a80ea819b0eb08c01>@@AEAV<lambda_38ce7e780aa69e748d6df282ebc68efe>@@V<lambda_99fb1378e971ab6e7edea83e3a7a83a2>@@@?$__crt_seh_guarded_call@H@@QEAAH$$QEAV<lambda_a37b2b86f63e897a80ea819b0eb08c01>@@AEAV<lambda_38ce7e780aa69e748d6df282ebc68efe>@@$$QEAV<lambda_99fb1378e971ab6e7edea83e3a7a83a2>@@@Z@4HA 000000014004c150     libucrt:commit.obj
 0002:00014150       $unwind$?dtor$2@?0???$use_facet@V?$ctype@D@std@@@std@@YAAEBV?$ctype@D@0@AEBVlocale@0@@Z@4HA 000000014004c150     main.obj
 0002:00014150       $unwind$?dtor$1218@?0??SprawdŸ_Pliki@@YAXXZ@4HA 000000014004c150     main.obj
 0002:00014150       $unwind$?dtor$0@?0???$?HDU?$char_traits@D@std@@V?$allocator@D@1@@std@@YA?AV?$basic_string@DU?$char_traits@D@std@@V?$allocator@D@2@@0@AEBV10@D@Z@4HA 000000014004c150     main.obj
 0002:00014150       $unwind$main$dtor$5        000000014004c150     main.obj
 0002:00014150       $unwind$?dtor$894@?0??SprawdŸ_Pliki@@YAXXZ@4HA 000000014004c150     main.obj
 0002:00014150       $unwind$?dtor$0@?0???$?HDU?$char_traits@D@std@@V?$allocator@D@1@@std@@YA?AV?$basic_string@DU?$char_traits@D@std@@V?$allocator@D@2@@0@AEBV10@0@Z@4HA 000000014004c150     main.obj
 0002:00014150       $unwind$?dtor$0@?0???$?HDU?$char_traits@D@std@@V?$allocator@D@1@@std@@YA?AV?$basic_string@DU?$char_traits@D@std@@V?$allocator@D@2@@0@AEBV10@QEBD@Z@4HA 000000014004c150     main.obj
 0002:00014150       $unwind$?dtor$834@?0??SprawdŸ_Pliki@@YAXXZ@4HA 000000014004c150     main.obj
 0002:00014150       $unwind$?dtor$852@?0??SprawdŸ_Pliki@@YAXXZ@4HA 000000014004c150     main.obj
 0002:00014150       $unwind$?dtor$865@?0??SprawdŸ_Pliki@@YAXXZ@4HA 000000014004c150     main.obj
 0002:00014150       $unwind$?dtor$1200@?0??SprawdŸ_Pliki@@YAXXZ@4HA 000000014004c150     main.obj
 0002:00014150       $unwind$?fin$0@?0???$?RV<lambda_a22f0c497e5168315e06dae667770027>@@AEAV<lambda_a094494068278ba5130ab06e1292f60a>@@V<lambda_24dc10c13f43218c635520766e23e324>@@@?$__crt_seh_guarded_call@_N@@QEAA_N$$QEAV<lambda_a22f0c497e5168315e06dae667770027>@@AEAV<lambda_a094494068278ba5130ab06e1292f60a>@@$$QEAV<lambda_24dc10c13f43218c635520766e23e324>@@@Z@4HA 000000014004c150     libucrt:spawnv.obj
 0002:00014150       $unwind$?dtor$0@?0??Obstaw@@YA?AV?$basic_string@DU?$char_traits@D@std@@V?$allocator@D@2@@std@@XZ@4HA 000000014004c150     main.obj
 0002:00014150       $unwind$?dtor$1182@?0??SprawdŸ_Pliki@@YAXXZ@4HA 000000014004c150     main.obj
 0002:00014158       $unwind$??__ENazwa_g³osu@@YAXXZ 000000014004c158     main.obj
 0002:0001416c       $stateUnwindMap$??__ENazwa_g³osu@@YAXXZ 000000014004c16c     main.obj
 0002:000141c0       $ip2state$??__ENazwa_g³osu@@YAXXZ 000000014004c1c0     main.obj
 0002:00014220       $unwind$main               000000014004c220     main.obj
 0002:00014240       $stateUnwindMap$main       000000014004c240     main.obj
 0002:00014290       $ip2state$main             000000014004c290     main.obj
 0002:000142f0       $unwind$??_D?$basic_ofstream@DU?$char_traits@D@std@@@std@@QEAAXXZ 000000014004c2f0     main.obj
 0002:00014300       $ip2state$??_D?$basic_ofstream@DU?$char_traits@D@std@@@std@@QEAAXXZ 000000014004c300     main.obj
 0002:00014318       $unwind$??_D?$basic_fstream@DU?$char_traits@D@std@@@std@@QEAAXXZ 000000014004c318     main.obj
 0002:00014330       $ip2state$??_D?$basic_fstream@DU?$char_traits@D@std@@@std@@QEAAXXZ 000000014004c330     main.obj
 0002:00014348       $unwind$?Obstaw@@YA?AV?$basic_string@DU?$char_traits@D@std@@V?$allocator@D@2@@std@@XZ 000000014004c348     main.obj
 0002:00014358       $stateUnwindMap$?Obstaw@@YA?AV?$basic_string@DU?$char_traits@D@std@@V?$allocator@D@2@@std@@XZ 000000014004c358     main.obj
 0002:00014360       $ip2state$?Obstaw@@YA?AV?$basic_string@DU?$char_traits@D@std@@V?$allocator@D@2@@std@@XZ 000000014004c360     main.obj
 0002:00014370       $unwind$?Wczytaj_Kwotê_Zak³adu@@YAXAEAHAEBH@Z 000000014004c370     main.obj
 0002:0001438c       $stateUnwindMap$?Wczytaj_Kwotê_Zak³adu@@YAXAEAHAEBH@Z 000000014004c38c     main.obj
 0002:0001438c       $stateUnwindMap$?Czy_Kontynuowaæ@@YA_NAEBH@Z 000000014004c38c     main.obj
 0002:00014398       $ip2state$?Wczytaj_Kwotê_Zak³adu@@YAXAEAHAEBH@Z 000000014004c398     main.obj
 0002:000143b0       $unwind$?Zakrêæ_Ruletk¹@@YAHXZ 000000014004c3b0     main.obj
 0002:000143c4       $chain$2$?Zakrêæ_Ruletk¹@@YAHXZ 000000014004c3c4     main.obj
 0002:000143e0       $chain$6$?Zakrêæ_Ruletk¹@@YAHXZ 000000014004c3e0     main.obj
 0002:00014400       $chain$7$?Zakrêæ_Ruletk¹@@YAHXZ 000000014004c400     main.obj
 0002:00014414       $chain$8$?Zakrêæ_Ruletk¹@@YAHXZ 000000014004c414     main.obj
 0002:00014428       $chain$9$?Zakrêæ_Ruletk¹@@YAHXZ 000000014004c428     main.obj
 0002:00014438       $unwind$?Czy_Kontynuowaæ@@YA_NAEBH@Z 000000014004c438     main.obj
 0002:00014450       $ip2state$?Czy_Kontynuowaæ@@YA_NAEBH@Z 000000014004c450     main.obj
 0002:00014468       $unwind$?Odczytaj_Liczbê@@YAXAEBHAEBV?$basic_string@DU?$char_traits@D@std@@V?$allocator@D@2@@std@@@Z 000000014004c468     main.obj
 0002:0001448c       $stateUnwindMap$?Odczytaj_Liczbê@@YAXAEBHAEBV?$basic_string@DU?$char_traits@D@std@@V?$allocator@D@2@@std@@@Z 000000014004c48c     main.obj
 0002:00014510       $ip2state$?Odczytaj_Liczbê@@YAXAEBHAEBV?$basic_string@DU?$char_traits@D@std@@V?$allocator@D@2@@std@@@Z 000000014004c510     main.obj
 0002:00014600       $unwind$??_D?$basic_stringstream@DU?$char_traits@D@std@@V?$allocator@D@2@@std@@QEAAXXZ 000000014004c600     main.obj
 0002:00014618       $ip2state$??_D?$basic_stringstream@DU?$char_traits@D@std@@V?$allocator@D@2@@std@@QEAAXXZ 000000014004c618     main.obj
 0002:00014630       $unwind$?Wczytaj_z_Pliku@@YAXAEAV?$basic_ofstream@DU?$char_traits@D@std@@@std@@AEAV?$basic_fstream@DU?$char_traits@D@std@@@2@AEADAEAH33AEAV?$basic_string@DU?$char_traits@D@std@@V?$allocator@D@2@@2@@Z 000000014004c630     main.obj
 0002:00014654       $stateUnwindMap$?Wczytaj_z_Pliku@@YAXAEAV?$basic_ofstream@DU?$char_traits@D@std@@@std@@AEAV?$basic_fstream@DU?$char_traits@D@std@@@2@AEADAEAH33AEAV?$basic_string@DU?$char_traits@D@std@@V?$allocator@D@2@@2@@Z 000000014004c654     main.obj
 0002:000146c0       $ip2state$?Wczytaj_z_Pliku@@YAXAEAV?$basic_ofstream@DU?$char_traits@D@std@@@std@@AEAV?$basic_fstream@DU?$char_traits@D@std@@@2@AEADAEAH33AEAV?$basic_string@DU?$char_traits@D@std@@V?$allocator@D@2@@2@@Z 000000014004c6c0     main.obj
 0002:00014798       $unwind$?SprawdŸ_Pliki@@YAXXZ 000000014004c798     main.obj
 0002:000147c4       $stateUnwindMap$?SprawdŸ_Pliki@@YAXXZ 000000014004c7c4     main.obj
 0002:00014ae0       $ip2state$?SprawdŸ_Pliki@@YAXXZ 000000014004cae0     main.obj
 0002:00015140       $unwind$?SprawdŸ_Ustawienia@@YAXXZ 000000014004d140     main.obj
 0002:0001516c       $stateUnwindMap$?SprawdŸ_Ustawienia@@YAXXZ 000000014004d16c     main.obj
 0002:000151c0       $ip2state$?SprawdŸ_Ustawienia@@YAXXZ 000000014004d1c0     main.obj
 0002:00015248       $unwind$??_D?$basic_ifstream@DU?$char_traits@D@std@@@std@@QEAAXXZ 000000014004d248     main.obj
 0002:00015258       $ip2state$??_D?$basic_ifstream@DU?$char_traits@D@std@@@std@@QEAAXXZ 000000014004d258     main.obj
 0002:00015270       $unwind$?Og³oœ_Wynik@@YAXAEBH0AEAHAEAV?$basic_ofstream@DU?$char_traits@D@std@@@std@@AEAV?$basic_fstream@DU?$char_traits@D@std@@@2@@Z 000000014004d270     main.obj
 0002:0001528c       $stateUnwindMap$?Og³oœ_Wynik@@YAXAEBH0AEAHAEAV?$basic_ofstream@DU?$char_traits@D@std@@@std@@AEAV?$basic_fstream@DU?$char_traits@D@std@@@2@@Z 000000014004d28c     main.obj
 0002:0001528c       $stateUnwindMap$?Wypakuj_Rar@@YAXAEBV?$basic_string@DU?$char_traits@D@std@@V?$allocator@D@2@@std@@@Z 000000014004d28c     main.obj
 0002:00015298       $ip2state$?Og³oœ_Wynik@@YAXAEBH0AEAHAEAV?$basic_ofstream@DU?$char_traits@D@std@@@std@@AEAV?$basic_fstream@DU?$char_traits@D@std@@@2@@Z 000000014004d298     main.obj
 0002:000152b0       $unwind$?Koniec_Gry@@YAXAEAV?$basic_ofstream@DU?$char_traits@D@std@@@std@@AEAV?$basic_fstream@DU?$char_traits@D@std@@@2@AEBH@Z 000000014004d2b0     main.obj
 0002:000152c8       $unwind$?Pêtla_G³ówna@@YAXAEAH00AEAV?$basic_ofstream@DU?$char_traits@D@std@@@std@@AEAV?$basic_fstream@DU?$char_traits@D@std@@@2@AEADAEAV?$basic_string@DU?$char_traits@D@std@@V?$allocator@D@2@@2@0@Z 000000014004d2c8     main.obj
 0002:000152d8       $chain$1$?Pêtla_G³ówna@@YAXAEAH00AEAV?$basic_ofstream@DU?$char_traits@D@std@@@std@@AEAV?$basic_fstream@DU?$char_traits@D@std@@@2@AEADAEAV?$basic_string@DU?$char_traits@D@std@@V?$allocator@D@2@@2@0@Z 000000014004d2d8     main.obj
 0002:000152f0       $chain$2$?Pêtla_G³ówna@@YAXAEAH00AEAV?$basic_ofstream@DU?$char_traits@D@std@@@std@@AEAV?$basic_fstream@DU?$char_traits@D@std@@@2@AEADAEAV?$basic_string@DU?$char_traits@D@std@@V?$allocator@D@2@@2@0@Z 000000014004d2f0     main.obj
 0002:00015304       $chain$3$?Pêtla_G³ówna@@YAXAEAH00AEAV?$basic_ofstream@DU?$char_traits@D@std@@@std@@AEAV?$basic_fstream@DU?$char_traits@D@std@@@2@AEADAEAV?$basic_string@DU?$char_traits@D@std@@V?$allocator@D@2@@2@0@Z 000000014004d304     main.obj
 0002:00015318       $unwind$?Ustaw_Ustawienia@@YAXAEAV?$basic_string@DU?$char_traits@D@std@@V?$allocator@D@2@@std@@@Z 000000014004d318     main.obj
 0002:0001532c       $unwind$?Wyci¹gnij_z_Programu@@YA_NAEBV?$basic_string@DU?$char_traits@D@std@@V?$allocator@D@2@@std@@G@Z 000000014004d32c     main.obj
 0002:00015340       $chain$0$?Wyci¹gnij_z_Programu@@YA_NAEBV?$basic_string@DU?$char_traits@D@std@@V?$allocator@D@2@@std@@G@Z 000000014004d340     main.obj
 0002:00015354       $chain$1$?Wyci¹gnij_z_Programu@@YA_NAEBV?$basic_string@DU?$char_traits@D@std@@V?$allocator@D@2@@std@@G@Z 000000014004d354     main.obj
 0002:00015364       $unwind$?Wypakuj_Rar@@YAXAEBV?$basic_string@DU?$char_traits@D@std@@V?$allocator@D@2@@std@@@Z 000000014004d364     main.obj
 0002:00015378       $ip2state$?Wypakuj_Rar@@YAXAEBV?$basic_string@DU?$char_traits@D@std@@V?$allocator@D@2@@std@@@Z 000000014004d378     main.obj
 0002:00015390       $unwind$?Usuñ_Folder_Wypakowany_i_Winrar@@YAXAEBV?$basic_string@DU?$char_traits@D@std@@V?$allocator@D@2@@std@@@Z 000000014004d390     main.obj
 0002:000153b8       $stateUnwindMap$?Usuñ_Folder_Wypakowany_i_Winrar@@YAXAEBV?$basic_string@DU?$char_traits@D@std@@V?$allocator@D@2@@std@@@Z 000000014004d3b8     main.obj
 0002:00015450       $ip2state$?Usuñ_Folder_Wypakowany_i_Winrar@@YAXAEBV?$basic_string@DU?$char_traits@D@std@@V?$allocator@D@2@@std@@@Z 000000014004d450     main.obj
 0002:00015570       $unwind$??1?$_Tree@V?$_Tmap_traits@V?$basic_string@DU?$char_traits@D@std@@V?$allocator@D@2@@std@@GU?$less@V?$basic_string@DU?$char_traits@D@std@@V?$allocator@D@2@@std@@@2@V?$allocator@U?$pair@$$CBV?$basic_string@DU?$char_traits@D@std@@V?$allocator@D@2@@std@@G@std@@@2@$0A@@std@@@std@@QEAA@XZ 000000014004d570     main.obj
 0002:00015570       $unwind$_putwch_nolock     000000014004d570     libucrt:putwch.obj
 0002:00015578       $unwind$?at@?$map@V?$basic_string@DU?$char_traits@D@std@@V?$allocator@D@2@@std@@GU?$less@V?$basic_string@DU?$char_traits@D@std@@V?$allocator@D@2@@std@@@2@V?$allocator@U?$pair@$$CBV?$basic_string@DU?$char_traits@D@std@@V?$allocator@D@2@@std@@G@std@@@2@@std@@QEBAAEBGAEBV?$basic_string@DU?$char_traits@D@std@@V?$allocator@D@2@@2@@Z 000000014004d578     main.obj
 0002:00015590       $chain$0$?at@?$map@V?$basic_string@DU?$char_traits@D@std@@V?$allocator@D@2@@std@@GU?$less@V?$basic_string@DU?$char_traits@D@std@@V?$allocator@D@2@@std@@@2@V?$allocator@U?$pair@$$CBV?$basic_string@DU?$char_traits@D@std@@V?$allocator@D@2@@std@@G@std@@@2@@std@@QEBAAEBGAEBV?$basic_string@DU?$char_traits@D@std@@V?$allocator@D@2@@2@@Z 000000014004d590     main.obj
 0002:000155a4       $chain$3$?at@?$map@V?$basic_string@DU?$char_traits@D@std@@V?$allocator@D@2@@std@@GU?$less@V?$basic_string@DU?$char_traits@D@std@@V?$allocator@D@2@@std@@@2@V?$allocator@U?$pair@$$CBV?$basic_string@DU?$char_traits@D@std@@V?$allocator@D@2@@std@@G@std@@@2@@std@@QEBAAEBGAEBV?$basic_string@DU?$char_traits@D@std@@V?$allocator@D@2@@2@@Z 000000014004d5a4     main.obj
 0002:000155a4       $chain$1$?at@?$map@V?$basic_string@DU?$char_traits@D@std@@V?$allocator@D@2@@std@@GU?$less@V?$basic_string@DU?$char_traits@D@std@@V?$allocator@D@2@@std@@@2@V?$allocator@U?$pair@$$CBV?$basic_string@DU?$char_traits@D@std@@V?$allocator@D@2@@std@@G@std@@@2@@std@@QEBAAEBGAEBV?$basic_string@DU?$char_traits@D@std@@V?$allocator@D@2@@2@@Z 000000014004d5a4     main.obj
 0002:000155b4       $chain$2$?at@?$map@V?$basic_string@DU?$char_traits@D@std@@V?$allocator@D@2@@std@@GU?$less@V?$basic_string@DU?$char_traits@D@std@@V?$allocator@D@2@@std@@@2@V?$allocator@U?$pair@$$CBV?$basic_string@DU?$char_traits@D@std@@V?$allocator@D@2@@std@@G@std@@@2@@std@@QEBAAEBGAEBV?$basic_string@DU?$char_traits@D@std@@V?$allocator@D@2@@2@@Z 000000014004d5b4     main.obj
 0002:000155c8       $unwind$iswctype           000000014004d5c8     libucrt:iswctype.obj
 0002:000155c8       $unwind$??0?$basic_string@DU?$char_traits@D@std@@V?$allocator@D@2@@std@@QEAA@QEBD@Z 000000014004d5c8     main.obj
 0002:000155d4       $chain$0$??0?$basic_string@DU?$char_traits@D@std@@V?$allocator@D@2@@std@@QEAA@QEBD@Z 000000014004d5d4     main.obj
 0002:000155e8       $chain$1$??0?$basic_string@DU?$char_traits@D@std@@V?$allocator@D@2@@std@@QEAA@QEBD@Z 000000014004d5e8     main.obj
 0002:000155f8       $unwind$??0?$basic_string@DU?$char_traits@D@std@@V?$allocator@D@2@@std@@QEAA@AEBV01@@Z 000000014004d5f8     main.obj
 0002:00015608       $unwind$??0?$basic_ofstream@DU?$char_traits@D@std@@@std@@QEAA@XZ 000000014004d608     main.obj
 0002:0001561c       $stateUnwindMap$??0?$basic_ofstream@DU?$char_traits@D@std@@@std@@QEAA@XZ 000000014004d61c     main.obj
 0002:00015638       $ip2state$??0?$basic_ofstream@DU?$char_traits@D@std@@@std@@QEAA@XZ 000000014004d638     main.obj
 0002:00015658       $unwind$?seekpos@?$basic_filebuf@DU?$char_traits@D@std@@@std@@MEAA?AV?$fpos@U_Mbstatet@@@2@V32@H@Z 000000014004d658     main.obj
 0002:00015670       $unwind$?seekoff@?$basic_filebuf@DU?$char_traits@D@std@@@std@@MEAA?AV?$fpos@U_Mbstatet@@@2@_JHH@Z 000000014004d670     main.obj
 0002:00015688       $unwind$?uflow@?$basic_filebuf@DU?$char_traits@D@std@@@std@@MEAAHXZ 000000014004d688     main.obj
 0002:000156a8       $stateUnwindMap$?overflow@?$basic_filebuf@DU?$char_traits@D@std@@@std@@MEAAHH@Z 000000014004d6a8     main.obj
 0002:000156a8       $stateUnwindMap$?do_put@?$num_put@DV?$ostreambuf_iterator@DU?$char_traits@D@std@@@std@@@std@@MEBA?AV?$ostreambuf_iterator@DU?$char_traits@D@std@@@2@V32@AEAVios_base@2@DN@Z 000000014004d6a8     main.obj
 0002:000156a8       $stateUnwindMap$?do_put@?$num_put@DV?$ostreambuf_iterator@DU?$char_traits@D@std@@@std@@@std@@MEBA?AV?$ostreambuf_iterator@DU?$char_traits@D@std@@@2@V32@AEAVios_base@2@DO@Z 000000014004d6a8     main.obj
 0002:000156a8       $stateUnwindMap$?uflow@?$basic_filebuf@DU?$char_traits@D@std@@@std@@MEAAHXZ 000000014004d6a8     main.obj
 0002:000156b0       $ip2state$?uflow@?$basic_filebuf@DU?$char_traits@D@std@@@std@@MEAAHXZ 000000014004d6b0     main.obj
 0002:000156c8       $chain$0$?underflow@?$basic_filebuf@DU?$char_traits@D@std@@@std@@MEAAHXZ 000000014004d6c8     main.obj
 0002:000156dc       $chain$2$?underflow@?$basic_filebuf@DU?$char_traits@D@std@@@std@@MEAAHXZ 000000014004d6dc     main.obj
 0002:000156f0       $unwind$?pbackfail@?$basic_filebuf@DU?$char_traits@D@std@@@std@@MEAAHH@Z 000000014004d6f0     main.obj
 0002:000156f0       $unwind$??$?HDU?$char_traits@D@std@@V?$allocator@D@1@@std@@YA?AV?$basic_string@DU?$char_traits@D@std@@V?$allocator@D@2@@0@$$QEAV10@D@Z 000000014004d6f0     main.obj
 0002:000156fc       $unwind$?overflow@?$basic_filebuf@DU?$char_traits@D@std@@@std@@MEAAHH@Z 000000014004d6fc     main.obj
 0002:00015720       $ip2state$?overflow@?$basic_filebuf@DU?$char_traits@D@std@@@std@@MEAAHH@Z 000000014004d720     main.obj
 0002:00015738       $unwind$??1?$basic_filebuf@DU?$char_traits@D@std@@@std@@UEAA@XZ 000000014004d738     main.obj
 0002:00015748       $ip2state$??1?$basic_filebuf@DU?$char_traits@D@std@@@std@@UEAA@XZ 000000014004d748     main.obj
 0002:00015760       $unwind$??0?$basic_stringstream@DU?$char_traits@D@std@@V?$allocator@D@2@@std@@QEAA@H@Z 000000014004d760     main.obj
 0002:00015778       $stateUnwindMap$??0?$basic_stringstream@DU?$char_traits@D@std@@V?$allocator@D@2@@std@@QEAA@H@Z 000000014004d778     main.obj
 0002:000157b0       $ip2state$??0?$basic_stringstream@DU?$char_traits@D@std@@V?$allocator@D@2@@std@@QEAA@H@Z 000000014004d7b0     main.obj
 0002:000157e0       $unwind$??$write_multiple_characters@V?$string_output_adapter@D@__crt_stdio_output@@D@__crt_stdio_output@@YAXAEBV?$string_output_adapter@D@0@DHQEAH@Z 000000014004d7e0     libucrt:output.obj
 0002:000157e0       $unwind$?seekpos@?$basic_stringbuf@DU?$char_traits@D@std@@V?$allocator@D@2@@std@@MEAA?AV?$fpos@U_Mbstatet@@@2@V32@H@Z 000000014004d7e0     main.obj
 0002:000157e0       $unwind$??$type_case_integer_parse_into_buffer@I@?$output_processor@DV?$string_output_adapter@D@__crt_stdio_output@@V?$format_validation_base@DV?$string_output_adapter@D@__crt_stdio_output@@@2@@__crt_stdio_output@@AEAAXII_N@Z 000000014004d7e0     libucrt:output.obj
 0002:000157e0       $unwind$??$type_case_integer_parse_into_buffer@_K@?$output_processor@DV?$string_output_adapter@D@__crt_stdio_output@@V?$format_validation_base@DV?$string_output_adapter@D@__crt_stdio_output@@@2@@__crt_stdio_output@@AEAAX_KI_N@Z 000000014004d7e0     libucrt:output.obj
 0002:000157e0       $unwind$?seekoff@?$basic_stringbuf@DU?$char_traits@D@std@@V?$allocator@D@2@@std@@MEAA?AV?$fpos@U_Mbstatet@@@2@_JHH@Z 000000014004d7e0     main.obj
 0002:000157e8       $unwind$?overflow@?$basic_stringbuf@DU?$char_traits@D@std@@V?$allocator@D@2@@std@@MEAAHH@Z 000000014004d7e8     main.obj
 0002:000157f4       $chain$0$?overflow@?$basic_stringbuf@DU?$char_traits@D@std@@V?$allocator@D@2@@std@@MEAAHH@Z 000000014004d7f4     main.obj
 0002:00015808       $chain$2$?overflow@?$basic_stringbuf@DU?$char_traits@D@std@@V?$allocator@D@2@@std@@MEAAHH@Z 000000014004d808     main.obj
 0002:0001581c       $chain$5$?overflow@?$basic_stringbuf@DU?$char_traits@D@std@@V?$allocator@D@2@@std@@MEAAHH@Z 000000014004d81c     main.obj
 0002:00015834       $chain$10$?overflow@?$basic_stringbuf@DU?$char_traits@D@std@@V?$allocator@D@2@@std@@MEAAHH@Z 000000014004d834     main.obj
 0002:00015858       $chain$12$?overflow@?$basic_stringbuf@DU?$char_traits@D@std@@V?$allocator@D@2@@std@@MEAAHH@Z 000000014004d858     main.obj
 0002:00015878       $chain$13$?overflow@?$basic_stringbuf@DU?$char_traits@D@std@@V?$allocator@D@2@@std@@MEAAHH@Z 000000014004d878     main.obj
 0002:0001589c       $unwind$??1?$basic_stringbuf@DU?$char_traits@D@std@@V?$allocator@D@2@@std@@UEAA@XZ 000000014004d89c     main.obj
 0002:000158b0       $ip2state$??1?$basic_stringbuf@DU?$char_traits@D@std@@V?$allocator@D@2@@std@@UEAA@XZ 000000014004d8b0     main.obj
 0002:000158c8       $unwind$?flush@?$basic_ostream@DU?$char_traits@D@std@@@std@@QEAAAEAV12@XZ 000000014004d8c8     main.obj
 0002:000158d8       $stateUnwindMap$?flush@?$basic_ostream@DU?$char_traits@D@std@@@std@@QEAAAEAV12@XZ 000000014004d8d8     main.obj
 0002:000158f8       $ip2state$?flush@?$basic_ostream@DU?$char_traits@D@std@@@std@@QEAAAEAV12@XZ 000000014004d8f8     main.obj
 0002:00015928       $unwind$??6?$basic_ostream@DU?$char_traits@D@std@@@std@@QEAAAEAV01@H@Z 000000014004d928     main.obj
 0002:00015940       $stateUnwindMap$??6?$basic_ostream@DU?$char_traits@D@std@@@std@@QEAAAEAV01@H@Z 000000014004d940     main.obj
 0002:00015988       $tryMap$??6?$basic_ostream@DU?$char_traits@D@std@@@std@@QEAAAEAV01@H@Z 000000014004d988     main.obj
 0002:0001599c       $handlerMap$0$??6?$basic_ostream@DU?$char_traits@D@std@@@std@@QEAAAEAV01@H@Z 000000014004d99c     main.obj
 0002:000159b0       $ip2state$??6?$basic_ostream@DU?$char_traits@D@std@@@std@@QEAAAEAV01@H@Z 000000014004d9b0     main.obj
 0002:00015a28       $unwind$?catch$9@?0???6?$basic_ostream@DU?$char_traits@D@std@@@std@@QEAAAEAV01@H@Z@4HA 000000014004da28     main.obj
 0002:00015a38       $unwind$??6?$basic_ostream@DU?$char_traits@D@std@@@std@@QEAAAEAV01@G@Z 000000014004da38     main.obj
 0002:00015a50       $stateUnwindMap$??6?$basic_ostream@DU?$char_traits@D@std@@@std@@QEAAAEAV01@G@Z 000000014004da50     main.obj
 0002:00015a98       $tryMap$??6?$basic_ostream@DU?$char_traits@D@std@@@std@@QEAAAEAV01@G@Z 000000014004da98     main.obj
 0002:00015aac       $handlerMap$0$??6?$basic_ostream@DU?$char_traits@D@std@@@std@@QEAAAEAV01@G@Z 000000014004daac     main.obj
 0002:00015ac0       $ip2state$??6?$basic_ostream@DU?$char_traits@D@std@@@std@@QEAAAEAV01@G@Z 000000014004dac0     main.obj
 0002:00015b30       $unwind$?catch$9@?0???6?$basic_ostream@DU?$char_traits@D@std@@@std@@QEAAAEAV01@G@Z@4HA 000000014004db30     main.obj
 0002:00015b40       $unwind$?xsgetn@?$basic_streambuf@DU?$char_traits@D@std@@@std@@MEAA_JPEAD_J@Z 000000014004db40     main.obj
 0002:00015b40       $unwind$?xsputn@?$basic_streambuf@DU?$char_traits@D@std@@@std@@MEAA_JPEBD_J@Z 000000014004db40     main.obj
 0002:00015b54       $chain$0$?xsputn@?$basic_streambuf@DU?$char_traits@D@std@@@std@@MEAA_JPEBD_J@Z 000000014004db54     main.obj
 0002:00015b68       $chain$1$?xsputn@?$basic_streambuf@DU?$char_traits@D@std@@@std@@MEAA_JPEBD_J@Z 000000014004db68     main.obj
 0002:00015b78       $chain$0$?xsgetn@?$basic_streambuf@DU?$char_traits@D@std@@@std@@MEAA_JPEAD_J@Z 000000014004db78     main.obj
 0002:00015b8c       $chain$1$?xsgetn@?$basic_streambuf@DU?$char_traits@D@std@@@std@@MEAA_JPEAD_J@Z 000000014004db8c     main.obj
 0002:00015b9c       $unwind$??1?$basic_streambuf@DU?$char_traits@D@std@@@std@@UEAA@XZ 000000014004db9c     main.obj
 0002:00015bb0       $ip2state$??1?$basic_streambuf@DU?$char_traits@D@std@@@std@@UEAA@XZ 000000014004dbb0     main.obj
 0002:00015bc8       $unwind$??1?$basic_ios@DU?$char_traits@D@std@@@std@@UEAA@XZ 000000014004dbc8     main.obj
 0002:00015bd8       $ip2state$??1?$basic_ios@DU?$char_traits@D@std@@@std@@UEAA@XZ 000000014004dbd8     main.obj
 0002:00015bf0       $unwind$??_G?$basic_iostream@DU?$char_traits@D@std@@@std@@UEAAPEAXI@Z 000000014004dbf0     main.obj
 0002:00015c08       $ip2state$??_G?$basic_iostream@DU?$char_traits@D@std@@@std@@UEAAPEAXI@Z 000000014004dc08     main.obj
 0002:00015c20       $unwind$??_G?$basic_ostream@DU?$char_traits@D@std@@@std@@UEAAPEAXI@Z 000000014004dc20     main.obj
 0002:00015c38       $ip2state$??_G?$basic_ostream@DU?$char_traits@D@std@@@std@@UEAAPEAXI@Z 000000014004dc38     main.obj
 0002:00015c50       $unwind$??_G?$basic_istream@DU?$char_traits@D@std@@@std@@UEAAPEAXI@Z 000000014004dc50     main.obj
 0002:00015c68       $ip2state$??_G?$basic_istream@DU?$char_traits@D@std@@@std@@UEAAPEAXI@Z 000000014004dc68     main.obj
 0002:00015c80       $unwind$??_G?$basic_streambuf@DU?$char_traits@D@std@@@std@@UEAAPEAXI@Z 000000014004dc80     main.obj
 0002:00015c98       $ip2state$??_G?$basic_streambuf@DU?$char_traits@D@std@@@std@@UEAAPEAXI@Z 000000014004dc98     main.obj
 0002:00015cb0       $unwind$??_Glocale@std@@QEAAPEAXI@Z 000000014004dcb0     main.obj
 0002:00015cc8       $ip2state$??_Glocale@std@@QEAAPEAXI@Z 000000014004dcc8     main.obj
 0002:00015ce0       $unwind$??_G?$basic_ios@DU?$char_traits@D@std@@@std@@UEAAPEAXI@Z 000000014004dce0     main.obj
 0002:00015cf8       $ip2state$??_G?$basic_ios@DU?$char_traits@D@std@@@std@@UEAAPEAXI@Z 000000014004dcf8     main.obj
 0002:00015d10       $unwind$??1sentry@?$basic_ostream@DU?$char_traits@D@std@@@std@@QEAA@XZ 000000014004dd10     main.obj
 0002:00015d20       $ip2state$??1sentry@?$basic_ostream@DU?$char_traits@D@std@@@std@@QEAA@XZ 000000014004dd20     main.obj
 0002:00015d38       $unwind$?do_put@?$num_put@DV?$ostreambuf_iterator@DU?$char_traits@D@std@@@std@@@std@@MEBA?AV?$ostreambuf_iterator@DU?$char_traits@D@std@@@2@V32@AEAVios_base@2@DPEBX@Z 000000014004dd38     main.obj
 0002:00015d50       $unwind$?do_put@?$num_put@DV?$ostreambuf_iterator@DU?$char_traits@D@std@@@std@@@std@@MEBA?AV?$ostreambuf_iterator@DU?$char_traits@D@std@@@2@V32@AEAVios_base@2@DO@Z 000000014004dd50     main.obj
 0002:00015d78       $ip2state$?do_put@?$num_put@DV?$ostreambuf_iterator@DU?$char_traits@D@std@@@std@@@std@@MEBA?AV?$ostreambuf_iterator@DU?$char_traits@D@std@@@2@V32@AEAVios_base@2@DO@Z 000000014004dd78     main.obj
 0002:00015d90       $unwind$?do_put@?$num_put@DV?$ostreambuf_iterator@DU?$char_traits@D@std@@@std@@@std@@MEBA?AV?$ostreambuf_iterator@DU?$char_traits@D@std@@@2@V32@AEAVios_base@2@DN@Z 000000014004dd90     main.obj
 0002:00015db8       $ip2state$?do_put@?$num_put@DV?$ostreambuf_iterator@DU?$char_traits@D@std@@@std@@@std@@MEBA?AV?$ostreambuf_iterator@DU?$char_traits@D@std@@@2@V32@AEAVios_base@2@DN@Z 000000014004ddb8     main.obj
 0002:00015dd0       $unwind$?do_put@?$num_put@DV?$ostreambuf_iterator@DU?$char_traits@D@std@@@std@@@std@@MEBA?AV?$ostreambuf_iterator@DU?$char_traits@D@std@@@2@V32@AEAVios_base@2@D_K@Z 000000014004ddd0     main.obj
 0002:00015dd0       $unwind$?do_put@?$num_put@DV?$ostreambuf_iterator@DU?$char_traits@D@std@@@std@@@std@@MEBA?AV?$ostreambuf_iterator@DU?$char_traits@D@std@@@2@V32@AEAVios_base@2@D_J@Z 000000014004ddd0     main.obj
 0002:00015dd0       $unwind$?do_put@?$num_put@DV?$ostreambuf_iterator@DU?$char_traits@D@std@@@std@@@std@@MEBA?AV?$ostreambuf_iterator@DU?$char_traits@D@std@@@2@V32@AEAVios_base@2@DJ@Z 000000014004ddd0     main.obj
 0002:00015dd0       $unwind$?do_put@?$num_put@DV?$ostreambuf_iterator@DU?$char_traits@D@std@@@std@@@std@@MEBA?AV?$ostreambuf_iterator@DU?$char_traits@D@std@@@2@V32@AEAVios_base@2@DK@Z 000000014004ddd0     main.obj
 0002:00015de8       $unwind$?do_put@?$num_put@DV?$ostreambuf_iterator@DU?$char_traits@D@std@@@std@@@std@@MEBA?AV?$ostreambuf_iterator@DU?$char_traits@D@std@@@2@V32@AEAVios_base@2@D_N@Z 000000014004dde8     main.obj
 0002:00015e0c       $stateUnwindMap$?do_put@?$num_put@DV?$ostreambuf_iterator@DU?$char_traits@D@std@@@std@@@std@@MEBA?AV?$ostreambuf_iterator@DU?$char_traits@D@std@@@2@V32@AEAVios_base@2@D_N@Z 000000014004de0c     main.obj
 0002:00015e28       $ip2state$?do_put@?$num_put@DV?$ostreambuf_iterator@DU?$char_traits@D@std@@@std@@@std@@MEBA?AV?$ostreambuf_iterator@DU?$char_traits@D@std@@@2@V32@AEAVios_base@2@D_N@Z 000000014004de28     main.obj
 0002:00015e60       $chain$0$?_Tidy@?$vector@V?$basic_string@DU?$char_traits@D@std@@V?$allocator@D@2@@std@@V?$allocator@V?$basic_string@DU?$char_traits@D@std@@V?$allocator@D@2@@std@@@2@@std@@AEAAXXZ 000000014004de60     main.obj
 0002:00015e74       $chain$1$?_Tidy@?$vector@V?$basic_string@DU?$char_traits@D@std@@V?$allocator@D@2@@std@@V?$allocator@V?$basic_string@DU?$char_traits@D@std@@V?$allocator@D@2@@std@@@2@@std@@AEAAXXZ 000000014004de74     main.obj
 0002:00015e84       $unwind$?append@?$basic_string@DU?$char_traits@D@std@@V?$allocator@D@2@@std@@QEAAAEAV12@QEBD_K@Z 000000014004de84     main.obj
 0002:00015e84       $unwind$?append@?$basic_string@DU?$char_traits@D@std@@V?$allocator@D@2@@std@@QEAAAEAV12@_KD@Z 000000014004de84     main.obj
 0002:00015e90       $chain$0$?append@?$basic_string@DU?$char_traits@D@std@@V?$allocator@D@2@@std@@QEAAAEAV12@_KD@Z 000000014004de90     main.obj
 0002:00015ea4       $chain$1$?append@?$basic_string@DU?$char_traits@D@std@@V?$allocator@D@2@@std@@QEAAAEAV12@_KD@Z 000000014004dea4     main.obj
 0002:00015eb4       $chain$0$?append@?$basic_string@DU?$char_traits@D@std@@V?$allocator@D@2@@std@@QEAAAEAV12@QEBD_K@Z 000000014004deb4     main.obj
 0002:00015ec8       $chain$1$?append@?$basic_string@DU?$char_traits@D@std@@V?$allocator@D@2@@std@@QEAAAEAV12@QEBD_K@Z 000000014004dec8     main.obj
 0002:00015ed8       $unwind$?_Endwrite@?$basic_filebuf@DU?$char_traits@D@std@@@std@@IEAA_NXZ 000000014004ded8     main.obj
 0002:00015ef8       $stateUnwindMap$?_Endwrite@?$basic_filebuf@DU?$char_traits@D@std@@@std@@IEAA_NXZ 000000014004def8     main.obj
 0002:00015f00       $ip2state$?_Endwrite@?$basic_filebuf@DU?$char_traits@D@std@@@std@@IEAA_NXZ 000000014004df00     main.obj
 0002:00015f18       $unwind$?_Init@?$basic_filebuf@DU?$char_traits@D@std@@@std@@IEAAXPEAU_iobuf@@W4_Initfl@12@@Z 000000014004df18     main.obj
 0002:00015f30       $unwind$?close@?$basic_filebuf@DU?$char_traits@D@std@@@std@@QEAAPEAV12@XZ 000000014004df30     main.obj
 0002:00015f30       $unwind$?reserve@?$basic_string@DU?$char_traits@D@std@@V?$allocator@D@2@@std@@QEAAX_K@Z 000000014004df30     main.obj
 0002:00015f3c       $chain$0$?close@?$basic_filebuf@DU?$char_traits@D@std@@@std@@QEAAPEAV12@XZ 000000014004df3c     main.obj
 0002:00015f50       $chain$1$?close@?$basic_filebuf@DU?$char_traits@D@std@@@std@@QEAAPEAV12@XZ 000000014004df50     main.obj
 0002:00015f60       $unwind$?open@?$basic_filebuf@DU?$char_traits@D@std@@@std@@QEAAPEAV12@PEBDHH@Z 000000014004df60     main.obj
 0002:00015f70       $stateUnwindMap$?open@?$basic_filebuf@DU?$char_traits@D@std@@@std@@QEAAPEAV12@PEBDHH@Z 000000014004df70     main.obj
 0002:00015f70       $stateUnwindMap$?init@?$basic_ios@DU?$char_traits@D@std@@@std@@IEAAXPEAV?$basic_streambuf@DU?$char_traits@D@std@@@2@_N@Z 000000014004df70     main.obj
 0002:00015f70       $stateUnwindMap$??$endl@DU?$char_traits@D@std@@@std@@YAAEAV?$basic_ostream@DU?$char_traits@D@std@@@0@AEAV10@@Z 000000014004df70     main.obj
 0002:00015f80       $ip2state$?open@?$basic_filebuf@DU?$char_traits@D@std@@@std@@QEAAPEAV12@PEBDHH@Z 000000014004df80     main.obj
 0002:00015fa8       $unwind$?str@?$basic_stringbuf@DU?$char_traits@D@std@@V?$allocator@D@2@@std@@QEBA?AV?$basic_string@DU?$char_traits@D@std@@V?$allocator@D@2@@2@XZ 000000014004dfa8     main.obj
 0002:00015fc0       $unwind$??0?$basic_ostream@DU?$char_traits@D@std@@@std@@QEAA@PEAV?$basic_streambuf@DU?$char_traits@D@std@@@1@_N@Z 000000014004dfc0     main.obj
 0002:00015fd0       $stateUnwindMap$??0?$basic_ostream@DU?$char_traits@D@std@@@std@@QEAA@PEAV?$basic_streambuf@DU?$char_traits@D@std@@@1@_N@Z 000000014004dfd0     main.obj
 0002:00015fd8       $ip2state$??0?$basic_ostream@DU?$char_traits@D@std@@@std@@QEAA@PEAV?$basic_streambuf@DU?$char_traits@D@std@@@1@_N@Z 000000014004dfd8     main.obj
 0002:00015ff0       $unwind$??0?$basic_istream@DU?$char_traits@D@std@@@std@@QEAA@PEAV?$basic_streambuf@DU?$char_traits@D@std@@@1@_N@Z 000000014004dff0     main.obj
 0002:00016000       $stateUnwindMap$??0?$basic_istream@DU?$char_traits@D@std@@@std@@QEAA@PEAV?$basic_streambuf@DU?$char_traits@D@std@@@1@_N@Z 000000014004e000     main.obj
 0002:00016008       $ip2state$??0?$basic_istream@DU?$char_traits@D@std@@@std@@QEAA@PEAV?$basic_streambuf@DU?$char_traits@D@std@@@1@_N@Z 000000014004e008     main.obj
 0002:00016020       $unwind$??1_Sentry_base@?$basic_istream@DU?$char_traits@D@std@@@std@@QEAA@XZ 000000014004e020     main.obj
 0002:00016020       $unwind$??1_Sentry_base@?$basic_ostream@DU?$char_traits@D@std@@@std@@QEAA@XZ 000000014004e020     main.obj
 0002:00016030       $ip2state$??1_Sentry_base@?$basic_ostream@DU?$char_traits@D@std@@@std@@QEAA@XZ 000000014004e030     main.obj
 0002:00016030       $ip2state$??1_Sentry_base@?$basic_istream@DU?$char_traits@D@std@@@std@@QEAA@XZ 000000014004e030     main.obj
 0002:00016038       $unwind$?_Iput@?$num_put@DV?$ostreambuf_iterator@DU?$char_traits@D@std@@@std@@@std@@AEBA?AV?$ostreambuf_iterator@DU?$char_traits@D@std@@@2@V32@AEAVios_base@2@DPEAD_K@Z 000000014004e038     main.obj
 0002:00016060       $stateUnwindMap$?_Iput@?$num_put@DV?$ostreambuf_iterator@DU?$char_traits@D@std@@@std@@@std@@AEBA?AV?$ostreambuf_iterator@DU?$char_traits@D@std@@@2@V32@AEAVios_base@2@DPEAD_K@Z 000000014004e060     main.obj
 0002:000160a0       $ip2state$?_Iput@?$num_put@DV?$ostreambuf_iterator@DU?$char_traits@D@std@@@std@@@std@@AEBA?AV?$ostreambuf_iterator@DU?$char_traits@D@std@@@2@V32@AEAVios_base@2@DPEAD_K@Z 000000014004e0a0     main.obj
 0002:00016110       $unwind$?_Fput@?$num_put@DV?$ostreambuf_iterator@DU?$char_traits@D@std@@@std@@@std@@AEBA?AV?$ostreambuf_iterator@DU?$char_traits@D@std@@@2@V32@AEAVios_base@2@DPEBD_K@Z 000000014004e110     main.obj
 0002:00016138       $stateUnwindMap$?_Fput@?$num_put@DV?$ostreambuf_iterator@DU?$char_traits@D@std@@@std@@@std@@AEBA?AV?$ostreambuf_iterator@DU?$char_traits@D@std@@@2@V32@AEAVios_base@2@DPEBD_K@Z 000000014004e138     main.obj
 0002:00016170       $ip2state$?_Fput@?$num_put@DV?$ostreambuf_iterator@DU?$char_traits@D@std@@@std@@@std@@AEBA?AV?$ostreambuf_iterator@DU?$char_traits@D@std@@@2@V32@AEAVios_base@2@DPEBD_K@Z 000000014004e170     main.obj
 0002:000161e0       $unwind$?erase@?$_Tree@V?$_Tmap_traits@V?$basic_string@DU?$char_traits@D@std@@V?$allocator@D@2@@std@@GU?$less@V?$basic_string@DU?$char_traits@D@std@@V?$allocator@D@2@@std@@@2@V?$allocator@U?$pair@$$CBV?$basic_string@DU?$char_traits@D@std@@V?$allocator@D@2@@std@@G@std@@@2@$0A@@std@@@std@@QEAA?AV?$_Tree_iterator@V?$_Tree_val@U?$_Tree_simple_types@U?$pair@$$CBV?$basic_string@DU?$char_traits@D@std@@V?$allocator@D@2@@std@@G@std@@@std@@@std@@@2@V?$_Tree_const_iterator@V?$_Tree_val@U?$_Tree_simple_types@U?$pair@$$CBV?$basic_string@DU?$char_traits@D@std@@V?$allocator@D@2@@std@@G@std@@@std@@@std@@@2@0@Z 000000014004e1e0     main.obj
 0002:00016200       $ip2state$?erase@?$_Tree@V?$_Tmap_traits@V?$basic_string@DU?$char_traits@D@std@@V?$allocator@D@2@@std@@GU?$less@V?$basic_string@DU?$char_traits@D@std@@V?$allocator@D@2@@std@@@2@V?$allocator@U?$pair@$$CBV?$basic_string@DU?$char_traits@D@std@@V?$allocator@D@2@@std@@G@std@@@2@$0A@@std@@@std@@QEAA?AV?$_Tree_iterator@V?$_Tree_val@U?$_Tree_simple_types@U?$pair@$$CBV?$basic_string@DU?$char_traits@D@std@@V?$allocator@D@2@@std@@G@std@@@std@@@std@@@2@V?$_Tree_const_iterator@V?$_Tree_val@U?$_Tree_simple_types@U?$pair@$$CBV?$basic_string@DU?$char_traits@D@std@@V?$allocator@D@2@@std@@G@std@@@std@@@std@@@2@0@Z 000000014004e200     main.obj
 0002:00016218       $unwind$?_Osfx@?$basic_ostream@DU?$char_traits@D@std@@@std@@QEAAXXZ 000000014004e218     main.obj
 0002:00016228       $stateUnwindMap$?_Osfx@?$basic_ostream@DU?$char_traits@D@std@@@std@@QEAAXXZ 000000014004e228     main.obj
 0002:00016228       $stateUnwindMap$??$_Range_construct_or_tidy@PEBV?$basic_string@DU?$char_traits@D@std@@V?$allocator@D@2@@std@@@?$vector@V?$basic_string@DU?$char_traits@D@std@@V?$allocator@D@2@@std@@V?$allocator@V?$basic_string@DU?$char_traits@D@std@@V?$allocator@D@2@@std@@@2@@std@@AEAAXPEBV?$basic_string@DU?$char_traits@D@std@@V?$allocator@D@2@@1@0Uforward_iterator_tag@1@@Z 000000014004e228     main.obj
 0002:00016228       $stateUnwindMap$??$_Insert_hint@AEAU?$pair@$$CBV?$basic_string@DU?$char_traits@D@std@@V?$allocator@D@2@@std@@G@std@@PEAU?$_Tree_node@U?$pair@$$CBV?$basic_string@DU?$char_traits@D@std@@V?$allocator@D@2@@std@@G@std@@PEAX@2@@?$_Tree@V?$_Tmap_traits@V?$basic_string@DU?$char_traits@D@std@@V?$allocator@D@2@@std@@GU?$less@V?$basic_string@DU?$char_traits@D@std@@V?$allocator@D@2@@std@@@2@V?$allocator@U?$pair@$$CBV?$basic_string@DU?$char_traits@D@std@@V?$allocator@D@2@@std@@G@std@@@2@$0A@@std@@@std@@IEAA?AV?$_Tree_iterator@V?$_Tree_val@U?$_Tree_simple_types@U?$pair@$$CBV?$basic_string@DU?$char_traits@D@std@@V?$allocator@D@2@@std@@G@std@@@std@@@std@@@1@V?$_Tree_const_iterator@V?$_Tree_val@U?$_Tree_simple_types@U?$pair@$$CBV?$basic_string@DU?$char_traits@D@std@@V?$allocator@D@2@@std@@G@std@@@std@@@std@@@1@AEAU?$pair@$$CBV?$basic_string@DU?$char_traits@D@std@@V?$allocator@D@2@@std@@G@1@PEAU?$_Tree_node@U?$pair@$$CBV?$basic_string@DU?$char_traits@D@std@@V?$allocator@D@2@@std@@G@std@@PEAX@1@@Z 000000014004e228     main.obj
 0002:00016228       $stateUnwindMap$?_Init@?$numpunct@D@std@@IEAAXAEBV_Locinfo@2@_N@Z 000000014004e228     main.obj
 0002:00016228       $stateUnwindMap$??$_Insert_nohint@AEAU?$pair@$$CBV?$basic_string@DU?$char_traits@D@std@@V?$allocator@D@2@@std@@G@std@@PEAU?$_Tree_node@U?$pair@$$CBV?$basic_string@DU?$char_traits@D@std@@V?$allocator@D@2@@std@@G@std@@PEAX@2@@?$_Tree@V?$_Tmap_traits@V?$basic_string@DU?$char_traits@D@std@@V?$allocator@D@2@@std@@GU?$less@V?$basic_string@DU?$char_traits@D@std@@V?$allocator@D@2@@std@@@2@V?$allocator@U?$pair@$$CBV?$basic_string@DU?$char_traits@D@std@@V?$allocator@D@2@@std@@G@std@@@2@$0A@@std@@@std@@IEAA?AU?$pair@V?$_Tree_iterator@V?$_Tree_val@U?$_Tree_simple_types@U?$pair@$$CBV?$basic_string@DU?$char_traits@D@std@@V?$allocator@D@2@@std@@G@std@@@std@@@std@@@std@@_N@1@_NAEAU?$pair@$$CBV?$basic_string@DU?$char_traits@D@std@@V?$allocator@D@2@@std@@G@1@PEAU?$_Tree_node@U?$pair@$$CBV?$basic_string@DU?$char_traits@D@std@@V?$allocator@D@2@@std@@G@std@@PEAX@1@@Z 000000014004e228     main.obj
 0002:00016228       $stateUnwindMap$??$_Construct@PEBG@?$deque@GV?$allocator@G@std@@@std@@QEAAXPEBG0@Z 000000014004e228     main.obj
 0002:00016238       $tryMap$?_Osfx@?$basic_ostream@DU?$char_traits@D@std@@@std@@QEAAXXZ 000000014004e238     main.obj
 0002:0001624c       $handlerMap$0$?_Osfx@?$basic_ostream@DU?$char_traits@D@std@@@std@@QEAAXXZ 000000014004e24c     main.obj
 0002:00016260       $ip2state$?_Osfx@?$basic_ostream@DU?$char_traits@D@std@@@std@@QEAAXXZ 000000014004e260     main.obj
 0002:00016280       $unwind$?catch$0@?0??_Osfx@?$basic_ostream@DU?$char_traits@D@std@@@std@@QEAAXXZ@4HA 000000014004e280     main.obj
 0002:00016290       $unwind$??0?$basic_streambuf@DU?$char_traits@D@std@@@std@@IEAA@XZ 000000014004e290     main.obj
 0002:000162a8       $ip2state$??0?$basic_streambuf@DU?$char_traits@D@std@@@std@@IEAA@XZ 000000014004e2a8     main.obj
 0002:000162c0       $unwind$?init@?$basic_ios@DU?$char_traits@D@std@@@std@@IEAAXPEAV?$basic_streambuf@DU?$char_traits@D@std@@@2@_N@Z 000000014004e2c0     main.obj
 0002:000162e0       $ip2state$?init@?$basic_ios@DU?$char_traits@D@std@@@std@@IEAAXPEAV?$basic_streambuf@DU?$char_traits@D@std@@@2@_N@Z 000000014004e2e0     main.obj
 0002:00016318       $unwind$??$use_facet@V?$ctype@D@std@@@std@@YAAEBV?$ctype@D@0@AEBVlocale@0@@Z 000000014004e318     main.obj
 0002:0001633c       $stateUnwindMap$??$use_facet@V?$ctype@D@std@@@std@@YAAEBV?$ctype@D@0@AEBVlocale@0@@Z 000000014004e33c     main.obj
 0002:00016350       $ip2state$??$use_facet@V?$ctype@D@std@@@std@@YAAEBV?$ctype@D@0@AEBVlocale@0@@Z 000000014004e350     main.obj
 0002:00016378       $unwind$??$?6U?$char_traits@D@std@@@std@@YAAEAV?$basic_ostream@DU?$char_traits@D@std@@@0@AEAV10@D@Z 000000014004e378     main.obj
 0002:00016398       $stateUnwindMap$??$?6U?$char_traits@D@std@@@std@@YAAEAV?$basic_ostream@DU?$char_traits@D@std@@@0@AEAV10@D@Z 000000014004e398     main.obj
 0002:000163c8       $tryMap$??$?6U?$char_traits@D@std@@@std@@YAAEAV?$basic_ostream@DU?$char_traits@D@std@@@0@AEAV10@D@Z 000000014004e3c8     main.obj
 0002:000163dc       $handlerMap$0$??$?6U?$char_traits@D@std@@@std@@YAAEAV?$basic_ostream@DU?$char_traits@D@std@@@0@AEAV10@D@Z 000000014004e3dc     main.obj
 0002:000163f0       $ip2state$??$?6U?$char_traits@D@std@@@std@@YAAEAV?$basic_ostream@DU?$char_traits@D@std@@@0@AEAV10@D@Z 000000014004e3f0     main.obj
 0002:00016448       $unwind$?catch$16@?0???$?6U?$char_traits@D@std@@@std@@YAAEAV?$basic_ostream@DU?$char_traits@D@std@@@0@AEAV10@D@Z@4HA 000000014004e448     main.obj
 0002:00016458       $unwind$??$?6U?$char_traits@D@std@@@std@@YAAEAV?$basic_ostream@DU?$char_traits@D@std@@@0@AEAV10@PEBD@Z 000000014004e458     main.obj
 0002:00016474       $stateUnwindMap$??$?6U?$char_traits@D@std@@@std@@YAAEAV?$basic_ostream@DU?$char_traits@D@std@@@0@AEAV10@PEBD@Z 000000014004e474     main.obj
 0002:000164a4       $tryMap$??$?6U?$char_traits@D@std@@@std@@YAAEAV?$basic_ostream@DU?$char_traits@D@std@@@0@AEAV10@PEBD@Z 000000014004e4a4     main.obj
 0002:000164b8       $handlerMap$0$??$?6U?$char_traits@D@std@@@std@@YAAEAV?$basic_ostream@DU?$char_traits@D@std@@@0@AEAV10@PEBD@Z 000000014004e4b8     main.obj
 0002:000164d0       $ip2state$??$?6U?$char_traits@D@std@@@std@@YAAEAV?$basic_ostream@DU?$char_traits@D@std@@@0@AEAV10@PEBD@Z 000000014004e4d0     main.obj
 0002:00016528       $unwind$?catch$13@?0???$?6U?$char_traits@D@std@@@std@@YAAEAV?$basic_ostream@DU?$char_traits@D@std@@@0@AEAV10@PEBD@Z@4HA 000000014004e528     main.obj
 0002:00016538       $unwind$??$endl@DU?$char_traits@D@std@@@std@@YAAEAV?$basic_ostream@DU?$char_traits@D@std@@@0@AEAV10@@Z 000000014004e538     main.obj
 0002:00016550       $ip2state$??$endl@DU?$char_traits@D@std@@@std@@YAAEAV?$basic_ostream@DU?$char_traits@D@std@@@0@AEAV10@@Z 000000014004e550     main.obj
 0002:00016578       $unwind$??$?HDU?$char_traits@D@std@@V?$allocator@D@1@@std@@YA?AV?$basic_string@DU?$char_traits@D@std@@V?$allocator@D@2@@0@AEBV10@0@Z 000000014004e578     main.obj
 0002:00016594       $stateUnwindMap$??$?HDU?$char_traits@D@std@@V?$allocator@D@1@@std@@YA?AV?$basic_string@DU?$char_traits@D@std@@V?$allocator@D@2@@0@AEBV10@0@Z 000000014004e594     main.obj
 0002:00016594       $stateUnwindMap$??$?HDU?$char_traits@D@std@@V?$allocator@D@1@@std@@YA?AV?$basic_string@DU?$char_traits@D@std@@V?$allocator@D@2@@0@AEBV10@QEBD@Z 000000014004e594     main.obj
 0002:000165a0       $ip2state$??$?HDU?$char_traits@D@std@@V?$allocator@D@1@@std@@YA?AV?$basic_string@DU?$char_traits@D@std@@V?$allocator@D@2@@0@AEBV10@0@Z 000000014004e5a0     main.obj
 0002:000165b0       $unwind$??$?HDU?$char_traits@D@std@@V?$allocator@D@1@@std@@YA?AV?$basic_string@DU?$char_traits@D@std@@V?$allocator@D@2@@0@AEBV10@QEBD@Z 000000014004e5b0     main.obj
 0002:000165d0       $ip2state$??$?HDU?$char_traits@D@std@@V?$allocator@D@1@@std@@YA?AV?$basic_string@DU?$char_traits@D@std@@V?$allocator@D@2@@0@AEBV10@QEBD@Z 000000014004e5d0     main.obj
 0002:000165e0       $unwind$??$?HDU?$char_traits@D@std@@V?$allocator@D@1@@std@@YA?AV?$basic_string@DU?$char_traits@D@std@@V?$allocator@D@2@@0@AEBV10@D@Z 000000014004e5e0     main.obj
 0002:000165f8       $stateUnwindMap$??$?HDU?$char_traits@D@std@@V?$allocator@D@1@@std@@YA?AV?$basic_string@DU?$char_traits@D@std@@V?$allocator@D@2@@0@AEBV10@D@Z 000000014004e5f8     main.obj
 0002:00016600       $ip2state$??$?HDU?$char_traits@D@std@@V?$allocator@D@1@@std@@YA?AV?$basic_string@DU?$char_traits@D@std@@V?$allocator@D@2@@0@AEBV10@D@Z 000000014004e600     main.obj
 0002:00016610       $unwind$??$_Range_construct_or_tidy@PEBV?$basic_string@DU?$char_traits@D@std@@V?$allocator@D@2@@std@@@?$vector@V?$basic_string@DU?$char_traits@D@std@@V?$allocator@D@2@@std@@V?$allocator@V?$basic_string@DU?$char_traits@D@std@@V?$allocator@D@2@@std@@@2@@std@@AEAAXPEBV?$basic_string@DU?$char_traits@D@std@@V?$allocator@D@2@@1@0Uforward_iterator_tag@1@@Z 000000014004e610     main.obj
 0002:00016628       $tryMap$??$_Range_construct_or_tidy@PEBV?$basic_string@DU?$char_traits@D@std@@V?$allocator@D@2@@std@@@?$vector@V?$basic_string@DU?$char_traits@D@std@@V?$allocator@D@2@@std@@V?$allocator@V?$basic_string@DU?$char_traits@D@std@@V?$allocator@D@2@@std@@@2@@std@@AEAAXPEBV?$basic_string@DU?$char_traits@D@std@@V?$allocator@D@2@@1@0Uforward_iterator_tag@1@@Z 000000014004e628     main.obj
 0002:0001663c       $handlerMap$0$??$_Range_construct_or_tidy@PEBV?$basic_string@DU?$char_traits@D@std@@V?$allocator@D@2@@std@@@?$vector@V?$basic_string@DU?$char_traits@D@std@@V?$allocator@D@2@@std@@V?$allocator@V?$basic_string@DU?$char_traits@D@std@@V?$allocator@D@2@@std@@@2@@std@@AEAAXPEBV?$basic_string@DU?$char_traits@D@std@@V?$allocator@D@2@@1@0Uforward_iterator_tag@1@@Z 000000014004e63c     main.obj
 0002:00016650       $ip2state$??$_Range_construct_or_tidy@PEBV?$basic_string@DU?$char_traits@D@std@@V?$allocator@D@2@@std@@@?$vector@V?$basic_string@DU?$char_traits@D@std@@V?$allocator@D@2@@std@@V?$allocator@V?$basic_string@DU?$char_traits@D@std@@V?$allocator@D@2@@std@@@2@@std@@AEAAXPEBV?$basic_string@DU?$char_traits@D@std@@V?$allocator@D@2@@1@0Uforward_iterator_tag@1@@Z 000000014004e650     main.obj
 0002:00016678       $unwind$?catch$41@?0???$_Range_construct_or_tidy@PEBV?$basic_string@DU?$char_traits@D@std@@V?$allocator@D@2@@std@@@?$vector@V?$basic_string@DU?$char_traits@D@std@@V?$allocator@D@2@@std@@V?$allocator@V?$basic_string@DU?$char_traits@D@std@@V?$allocator@D@2@@std@@@2@@std@@AEAAXPEBV?$basic_string@DU?$char_traits@D@std@@V?$allocator@D@2@@1@0Uforward_iterator_tag@1@@Z@4HA 000000014004e678     main.obj
 0002:00016688       $unwind$??$_Construct@PEBG@?$deque@GV?$allocator@G@std@@@std@@QEAAXPEBG0@Z 000000014004e688     main.obj
 0002:000166a4       $tryMap$??$_Construct@PEBG@?$deque@GV?$allocator@G@std@@@std@@QEAAXPEBG0@Z 000000014004e6a4     main.obj
 0002:000166b8       $handlerMap$0$??$_Construct@PEBG@?$deque@GV?$allocator@G@std@@@std@@QEAAXPEBG0@Z 000000014004e6b8     main.obj
 0002:000166d0       $ip2state$??$_Construct@PEBG@?$deque@GV?$allocator@G@std@@@std@@QEAAXPEBG0@Z 000000014004e6d0     main.obj
 0002:000166f8       $unwind$?catch$47@?0???$_Construct@PEBG@?$deque@GV?$allocator@G@std@@@std@@QEAAXPEBG0@Z@4HA 000000014004e6f8     main.obj
 0002:00016708       $unwind$??$use_facet@V?$codecvt@DDU_Mbstatet@@@std@@@std@@YAAEBV?$codecvt@DDU_Mbstatet@@@0@AEBVlocale@0@@Z 000000014004e708     main.obj
 0002:0001672c       $stateUnwindMap$??$use_facet@V?$num_put@DV?$ostreambuf_iterator@DU?$char_traits@D@std@@@std@@@std@@@std@@YAAEBV?$num_put@DV?$ostreambuf_iterator@DU?$char_traits@D@std@@@std@@@0@AEBVlocale@0@@Z 000000014004e72c     main.obj
 0002:0001672c       $stateUnwindMap$??$use_facet@V?$codecvt@DDU_Mbstatet@@@std@@@std@@YAAEBV?$codecvt@DDU_Mbstatet@@@0@AEBVlocale@0@@Z 000000014004e72c     main.obj
 0002:00016740       $ip2state$??$use_facet@V?$codecvt@DDU_Mbstatet@@@std@@@std@@YAAEBV?$codecvt@DDU_Mbstatet@@@0@AEBVlocale@0@@Z 000000014004e740     main.obj
 0002:00016768       $unwind$??$use_facet@V?$num_put@DV?$ostreambuf_iterator@DU?$char_traits@D@std@@@std@@@std@@@std@@YAAEBV?$num_put@DV?$ostreambuf_iterator@DU?$char_traits@D@std@@@std@@@0@AEBVlocale@0@@Z 000000014004e768     main.obj
 0002:00016790       $ip2state$??$use_facet@V?$num_put@DV?$ostreambuf_iterator@DU?$char_traits@D@std@@@std@@@std@@@std@@YAAEBV?$num_put@DV?$ostreambuf_iterator@DU?$char_traits@D@std@@@std@@@0@AEBVlocale@0@@Z 000000014004e790     main.obj
 0002:000167b8       $unwind$??$use_facet@V?$numpunct@D@std@@@std@@YAAEBV?$numpunct@D@0@AEBVlocale@0@@Z 000000014004e7b8     main.obj
 0002:000167dc       $stateUnwindMap$??$use_facet@V?$numpunct@D@std@@@std@@YAAEBV?$numpunct@D@0@AEBVlocale@0@@Z 000000014004e7dc     main.obj
 0002:00016808       $ip2state$??$use_facet@V?$numpunct@D@std@@@std@@YAAEBV?$numpunct@D@0@AEBVlocale@0@@Z 000000014004e808     main.obj
 0002:00016840       $unwind$??$_Reallocate_grow_by@V<lambda_319d5e083f45f90dcdce5dce53cbb275>@@D@?$basic_string@DU?$char_traits@D@std@@V?$allocator@D@2@@std@@QEAAAEAV01@_KV<lambda_319d5e083f45f90dcdce5dce53cbb275>@@D@Z 000000014004e840     main.obj
 0002:00016850       $chain$2$??$_Reallocate_grow_by@V<lambda_319d5e083f45f90dcdce5dce53cbb275>@@D@?$basic_string@DU?$char_traits@D@std@@V?$allocator@D@2@@std@@QEAAAEAV01@_KV<lambda_319d5e083f45f90dcdce5dce53cbb275>@@D@Z 000000014004e850     main.obj
 0002:0001686c       $chain$3$??$_Reallocate_grow_by@V<lambda_319d5e083f45f90dcdce5dce53cbb275>@@D@?$basic_string@DU?$char_traits@D@std@@V?$allocator@D@2@@std@@QEAAAEAV01@_KV<lambda_319d5e083f45f90dcdce5dce53cbb275>@@D@Z 000000014004e86c     main.obj
 0002:0001687c       $chain$4$??$_Reallocate_grow_by@V<lambda_319d5e083f45f90dcdce5dce53cbb275>@@D@?$basic_string@DU?$char_traits@D@std@@V?$allocator@D@2@@std@@QEAAAEAV01@_KV<lambda_319d5e083f45f90dcdce5dce53cbb275>@@D@Z 000000014004e87c     main.obj
 0002:00016898       $unwind$??$_Reallocate_for@V<lambda_138c3d7c38c85abb84c7fc7bfe5747b7>@@D@?$basic_string@DU?$char_traits@D@std@@V?$allocator@D@2@@std@@QEAAAEAV01@_KV<lambda_138c3d7c38c85abb84c7fc7bfe5747b7>@@D@Z 000000014004e898     main.obj
 0002:00016898       $unwind$??$_Reallocate_for@V<lambda_66f57f934f28d61049862f64df852ff0>@@PEBD@?$basic_string@DU?$char_traits@D@std@@V?$allocator@D@2@@std@@QEAAAEAV01@_KV<lambda_66f57f934f28d61049862f64df852ff0>@@PEBD@Z 000000014004e898     main.obj
 0002:000168a8       $chain$1$??$_Reallocate_for@V<lambda_138c3d7c38c85abb84c7fc7bfe5747b7>@@D@?$basic_string@DU?$char_traits@D@std@@V?$allocator@D@2@@std@@QEAAAEAV01@_KV<lambda_138c3d7c38c85abb84c7fc7bfe5747b7>@@D@Z 000000014004e8a8     main.obj
 0002:000168c0       $chain$2$??$_Reallocate_for@V<lambda_138c3d7c38c85abb84c7fc7bfe5747b7>@@D@?$basic_string@DU?$char_traits@D@std@@V?$allocator@D@2@@std@@QEAAAEAV01@_KV<lambda_138c3d7c38c85abb84c7fc7bfe5747b7>@@D@Z 000000014004e8c0     main.obj
 0002:000168d0       $chain$3$??$_Reallocate_for@V<lambda_138c3d7c38c85abb84c7fc7bfe5747b7>@@D@?$basic_string@DU?$char_traits@D@std@@V?$allocator@D@2@@std@@QEAAAEAV01@_KV<lambda_138c3d7c38c85abb84c7fc7bfe5747b7>@@D@Z 000000014004e8d0     main.obj
 0002:000168e8       $chain$1$??$_Reallocate_for@V<lambda_66f57f934f28d61049862f64df852ff0>@@PEBD@?$basic_string@DU?$char_traits@D@std@@V?$allocator@D@2@@std@@QEAAAEAV01@_KV<lambda_66f57f934f28d61049862f64df852ff0>@@PEBD@Z 000000014004e8e8     main.obj
 0002:00016900       $chain$2$??$_Reallocate_for@V<lambda_66f57f934f28d61049862f64df852ff0>@@PEBD@?$basic_string@DU?$char_traits@D@std@@V?$allocator@D@2@@std@@QEAAAEAV01@_KV<lambda_66f57f934f28d61049862f64df852ff0>@@PEBD@Z 000000014004e900     main.obj
 0002:00016910       $chain$3$??$_Reallocate_for@V<lambda_66f57f934f28d61049862f64df852ff0>@@PEBD@?$basic_string@DU?$char_traits@D@std@@V?$allocator@D@2@@std@@QEAAAEAV01@_KV<lambda_66f57f934f28d61049862f64df852ff0>@@PEBD@Z 000000014004e910     main.obj
 0002:00016928       $unwind$??$_Reallocate_grow_by@V<lambda_e1befb086ad3257e3f042a63030725f7>@@_KD@?$basic_string@DU?$char_traits@D@std@@V?$allocator@D@2@@std@@QEAAAEAV01@_KV<lambda_e1befb086ad3257e3f042a63030725f7>@@_KD@Z 000000014004e928     main.obj
 0002:00016934       $chain$4$??$_Reallocate_grow_by@V<lambda_e1befb086ad3257e3f042a63030725f7>@@_KD@?$basic_string@DU?$char_traits@D@std@@V?$allocator@D@2@@std@@QEAAAEAV01@_KV<lambda_e1befb086ad3257e3f042a63030725f7>@@_KD@Z 000000014004e934     main.obj
 0002:00016958       $chain$5$??$_Reallocate_grow_by@V<lambda_e1befb086ad3257e3f042a63030725f7>@@_KD@?$basic_string@DU?$char_traits@D@std@@V?$allocator@D@2@@std@@QEAAAEAV01@_KV<lambda_e1befb086ad3257e3f042a63030725f7>@@_KD@Z 000000014004e958     main.obj
 0002:00016968       $chain$6$??$_Reallocate_grow_by@V<lambda_e1befb086ad3257e3f042a63030725f7>@@_KD@?$basic_string@DU?$char_traits@D@std@@V?$allocator@D@2@@std@@QEAAAEAV01@_KV<lambda_e1befb086ad3257e3f042a63030725f7>@@_KD@Z 000000014004e968     main.obj
 0002:00016984       $chain$7$??$_Reallocate_grow_by@V<lambda_e1befb086ad3257e3f042a63030725f7>@@_KD@?$basic_string@DU?$char_traits@D@std@@V?$allocator@D@2@@std@@QEAAAEAV01@_KV<lambda_e1befb086ad3257e3f042a63030725f7>@@_KD@Z 000000014004e984     main.obj
 0002:000169a8       $unwind$??$_Reallocate_grow_by@V<lambda_65e615be2a453ca0576c979606f46740>@@PEBD_K@?$basic_string@DU?$char_traits@D@std@@V?$allocator@D@2@@std@@QEAAAEAV01@_KV<lambda_65e615be2a453ca0576c979606f46740>@@PEBD_K@Z 000000014004e9a8     main.obj
 0002:000169b8       $chain$2$??$_Reallocate_grow_by@V<lambda_65e615be2a453ca0576c979606f46740>@@PEBD_K@?$basic_string@DU?$char_traits@D@std@@V?$allocator@D@2@@std@@QEAAAEAV01@_KV<lambda_65e615be2a453ca0576c979606f46740>@@PEBD_K@Z 000000014004e9b8     main.obj
 0002:000169d4       $chain$3$??$_Reallocate_grow_by@V<lambda_65e615be2a453ca0576c979606f46740>@@PEBD_K@?$basic_string@DU?$char_traits@D@std@@V?$allocator@D@2@@std@@QEAAAEAV01@_KV<lambda_65e615be2a453ca0576c979606f46740>@@PEBD_K@Z 000000014004e9d4     main.obj
 0002:000169e4       $chain$4$??$_Reallocate_grow_by@V<lambda_65e615be2a453ca0576c979606f46740>@@PEBD_K@?$basic_string@DU?$char_traits@D@std@@V?$allocator@D@2@@std@@QEAAAEAV01@_KV<lambda_65e615be2a453ca0576c979606f46740>@@PEBD_K@Z 000000014004e9e4     main.obj
 0002:00016a00       $unwind$??$_Destroy_range@V?$allocator@V?$basic_string@DU?$char_traits@D@std@@V?$allocator@D@2@@std@@@std@@@std@@YAXPEAV?$basic_string@DU?$char_traits@D@std@@V?$allocator@D@2@@0@0AEAV?$allocator@V?$basic_string@DU?$char_traits@D@std@@V?$allocator@D@2@@std@@@0@@Z 000000014004ea00     main.obj
 0002:00016a00       $unwind$??$free_environment@D@@YAXQEAPEAD@Z 000000014004ea00     libucrt:environment_initialization.obj
 0002:00016a00       $unwind$??$free_environment@_W@@YAXQEAPEA_W@Z 000000014004ea00     libucrt:environment_initialization.obj
 0002:00016a0c       $unwind$??$_Reallocate_grow_by@V<lambda_b986da8d428e4af07c64af60eec09b61>@@_K_KD@?$basic_string@DU?$char_traits@D@std@@V?$allocator@D@2@@std@@QEAAAEAV01@_KV<lambda_b986da8d428e4af07c64af60eec09b61>@@_K2D@Z 000000014004ea0c     main.obj
 0002:00016a1c       $chain$3$??$_Reallocate_grow_by@V<lambda_b986da8d428e4af07c64af60eec09b61>@@_K_KD@?$basic_string@DU?$char_traits@D@std@@V?$allocator@D@2@@std@@QEAAAEAV01@_KV<lambda_b986da8d428e4af07c64af60eec09b61>@@_K2D@Z 000000014004ea1c     main.obj
 0002:00016a3c       $chain$4$??$_Reallocate_grow_by@V<lambda_b986da8d428e4af07c64af60eec09b61>@@_K_KD@?$basic_string@DU?$char_traits@D@std@@V?$allocator@D@2@@std@@QEAAAEAV01@_KV<lambda_b986da8d428e4af07c64af60eec09b61>@@_K2D@Z 000000014004ea3c     main.obj
 0002:00016a4c       $chain$5$??$_Reallocate_grow_by@V<lambda_b986da8d428e4af07c64af60eec09b61>@@_K_KD@?$basic_string@DU?$char_traits@D@std@@V?$allocator@D@2@@std@@QEAAAEAV01@_KV<lambda_b986da8d428e4af07c64af60eec09b61>@@_K2D@Z 000000014004ea4c     main.obj
 0002:00016a68       $chain$6$??$_Reallocate_grow_by@V<lambda_b986da8d428e4af07c64af60eec09b61>@@_K_KD@?$basic_string@DU?$char_traits@D@std@@V?$allocator@D@2@@std@@QEAAAEAV01@_KV<lambda_b986da8d428e4af07c64af60eec09b61>@@_K2D@Z 000000014004ea68     main.obj
 0002:00016a88       $unwind$?_Growmap@?$deque@GV?$allocator@G@std@@@std@@IEAAX_K@Z 000000014004ea88     main.obj
 0002:00016a94       $chain$2$?_Growmap@?$deque@GV?$allocator@G@std@@@std@@IEAAX_K@Z 000000014004ea94     main.obj
 0002:00016ab0       $chain$4$?_Growmap@?$deque@GV?$allocator@G@std@@@std@@IEAAX_K@Z 000000014004eab0     main.obj
 0002:00016ac8       $chain$5$?_Growmap@?$deque@GV?$allocator@G@std@@@std@@IEAAX_K@Z 000000014004eac8     main.obj
 0002:00016ad8       $chain$7$?_Growmap@?$deque@GV?$allocator@G@std@@@std@@IEAAX_K@Z 000000014004ead8     main.obj
 0002:00016af4       $chain$8$?_Growmap@?$deque@GV?$allocator@G@std@@@std@@IEAAX_K@Z 000000014004eaf4     main.obj
 0002:00016b04       $chain$0$?reserve@?$basic_string@DU?$char_traits@D@std@@V?$allocator@D@2@@std@@QEAAX_K@Z 000000014004eb04     main.obj
 0002:00016b18       $chain$1$?reserve@?$basic_string@DU?$char_traits@D@std@@V?$allocator@D@2@@std@@QEAAX_K@Z 000000014004eb18     main.obj
 0002:00016b28       $chain$2$?reserve@?$basic_string@DU?$char_traits@D@std@@V?$allocator@D@2@@std@@QEAAX_K@Z 000000014004eb28     main.obj
 0002:00016b3c       $unwind$?insert@?$basic_string@DU?$char_traits@D@std@@V?$allocator@D@2@@std@@QEAAAEAV12@_KAEBV12@@Z 000000014004eb3c     main.obj
 0002:00016b4c       $chain$1$?insert@?$basic_string@DU?$char_traits@D@std@@V?$allocator@D@2@@std@@QEAAAEAV12@_KAEBV12@@Z 000000014004eb4c     main.obj
 0002:00016b64       $chain$2$?insert@?$basic_string@DU?$char_traits@D@std@@V?$allocator@D@2@@std@@QEAAAEAV12@_KAEBV12@@Z 000000014004eb64     main.obj
 0002:00016b74       $unwind$?put@?$basic_ostream@DU?$char_traits@D@std@@@std@@QEAAAEAV12@D@Z 000000014004eb74     main.obj
 0002:00016b8c       $stateUnwindMap$?put@?$basic_ostream@DU?$char_traits@D@std@@@std@@QEAAAEAV12@D@Z 000000014004eb8c     main.obj
 0002:00016bbc       $tryMap$?put@?$basic_ostream@DU?$char_traits@D@std@@@std@@QEAAAEAV12@D@Z 000000014004ebbc     main.obj
 0002:00016bd0       $handlerMap$0$?put@?$basic_ostream@DU?$char_traits@D@std@@@std@@QEAAAEAV12@D@Z 000000014004ebd0     main.obj
 0002:00016bf0       $ip2state$?put@?$basic_ostream@DU?$char_traits@D@std@@@std@@QEAAAEAV12@D@Z 000000014004ebf0     main.obj
 0002:00016c48       $unwind$?catch$8@?0??put@?$basic_ostream@DU?$char_traits@D@std@@@std@@QEAAAEAV12@D@Z@4HA 000000014004ec48     main.obj
 0002:00016c58       $unwind$?_Init@?$numpunct@D@std@@IEAAXAEBV_Locinfo@2@_N@Z 000000014004ec58     main.obj
 0002:00016c74       $tryMap$?_Init@?$numpunct@D@std@@IEAAXAEBV_Locinfo@2@_N@Z 000000014004ec74     main.obj
 0002:00016c88       $handlerMap$0$?_Init@?$numpunct@D@std@@IEAAXAEBV_Locinfo@2@_N@Z 000000014004ec88     main.obj
 0002:00016ca0       $ip2state$?_Init@?$numpunct@D@std@@IEAAXAEBV_Locinfo@2@_N@Z 000000014004eca0     main.obj
 0002:00016cd8       $unwind$?catch$0@?0??_Init@?$numpunct@D@std@@IEAAXAEBV_Locinfo@2@_N@Z@4HA 000000014004ecd8     main.obj
 0002:00016ce8       $unwind$??$?5DU?$char_traits@D@std@@V?$allocator@D@1@@std@@YAAEAV?$basic_istream@DU?$char_traits@D@std@@@0@$$QEAV10@AEAV?$basic_string@DU?$char_traits@D@std@@V?$allocator@D@2@@0@@Z 000000014004ece8     main.obj
 0002:00016d08       $stateUnwindMap$??$?5DU?$char_traits@D@std@@V?$allocator@D@1@@std@@YAAEAV?$basic_istream@DU?$char_traits@D@std@@@0@$$QEAV10@AEAV?$basic_string@DU?$char_traits@D@std@@V?$allocator@D@2@@0@@Z 000000014004ed08     main.obj
 0002:00016d48       $tryMap$??$?5DU?$char_traits@D@std@@V?$allocator@D@1@@std@@YAAEAV?$basic_istream@DU?$char_traits@D@std@@@0@$$QEAV10@AEAV?$basic_string@DU?$char_traits@D@std@@V?$allocator@D@2@@0@@Z 000000014004ed48     main.obj
 0002:00016d5c       $handlerMap$0$??$?5DU?$char_traits@D@std@@V?$allocator@D@1@@std@@YAAEAV?$basic_istream@DU?$char_traits@D@std@@@0@$$QEAV10@AEAV?$basic_string@DU?$char_traits@D@std@@V?$allocator@D@2@@0@@Z 000000014004ed5c     main.obj
 0002:00016d70       $ip2state$??$?5DU?$char_traits@D@std@@V?$allocator@D@1@@std@@YAAEAV?$basic_istream@DU?$char_traits@D@std@@@0@$$QEAV10@AEAV?$basic_string@DU?$char_traits@D@std@@V?$allocator@D@2@@0@@Z 000000014004ed70     main.obj
 0002:00016df0       $unwind$?catch$37@?0???$?5DU?$char_traits@D@std@@V?$allocator@D@1@@std@@YAAEAV?$basic_istream@DU?$char_traits@D@std@@@0@$$QEAV10@AEAV?$basic_string@DU?$char_traits@D@std@@V?$allocator@D@2@@0@@Z@4HA 000000014004edf0     main.obj
 0002:00016e00       $unwind$??$getline@DU?$char_traits@D@std@@V?$allocator@D@2@@std@@YAAEAV?$basic_istream@DU?$char_traits@D@std@@@0@$$QEAV10@AEAV?$basic_string@DU?$char_traits@D@std@@V?$allocator@D@2@@0@D@Z 000000014004ee00     main.obj
 0002:00016e20       $stateUnwindMap$??$getline@DU?$char_traits@D@std@@V?$allocator@D@2@@std@@YAAEAV?$basic_istream@DU?$char_traits@D@std@@@0@$$QEAV10@AEAV?$basic_string@DU?$char_traits@D@std@@V?$allocator@D@2@@0@D@Z 000000014004ee20     main.obj
 0002:00016e48       $tryMap$??$getline@DU?$char_traits@D@std@@V?$allocator@D@2@@std@@YAAEAV?$basic_istream@DU?$char_traits@D@std@@@0@$$QEAV10@AEAV?$basic_string@DU?$char_traits@D@std@@V?$allocator@D@2@@0@D@Z 000000014004ee48     main.obj
 0002:00016e5c       $handlerMap$0$??$getline@DU?$char_traits@D@std@@V?$allocator@D@2@@std@@YAAEAV?$basic_istream@DU?$char_traits@D@std@@@0@$$QEAV10@AEAV?$basic_string@DU?$char_traits@D@std@@V?$allocator@D@2@@0@D@Z 000000014004ee5c     main.obj
 0002:00016e70       $ip2state$??$getline@DU?$char_traits@D@std@@V?$allocator@D@2@@std@@YAAEAV?$basic_istream@DU?$char_traits@D@std@@@0@$$QEAV10@AEAV?$basic_string@DU?$char_traits@D@std@@V?$allocator@D@2@@0@D@Z 000000014004ee70     main.obj
 0002:00016ed0       $unwind$?catch$36@?0???$getline@DU?$char_traits@D@std@@V?$allocator@D@2@@std@@YAAEAV?$basic_istream@DU?$char_traits@D@std@@@0@$$QEAV10@AEAV?$basic_string@DU?$char_traits@D@std@@V?$allocator@D@2@@0@D@Z@4HA 000000014004eed0     main.obj
 0002:00016ee0       $unwind$??$_Insert_string@DU?$char_traits@D@std@@_K@std@@YAAEAV?$basic_ostream@DU?$char_traits@D@std@@@0@AEAV10@QEBD_K@Z 000000014004eee0     main.obj
 0002:00016efc       $stateUnwindMap$??$_Insert_string@DU?$char_traits@D@std@@_K@std@@YAAEAV?$basic_ostream@DU?$char_traits@D@std@@@0@AEAV10@QEBD_K@Z 000000014004eefc     main.obj
 0002:00016f2c       $tryMap$??$_Insert_string@DU?$char_traits@D@std@@_K@std@@YAAEAV?$basic_ostream@DU?$char_traits@D@std@@@0@AEAV10@QEBD_K@Z 000000014004ef2c     main.obj
 0002:00016f40       $handlerMap$0$??$_Insert_string@DU?$char_traits@D@std@@_K@std@@YAAEAV?$basic_ostream@DU?$char_traits@D@std@@@0@AEAV10@QEBD_K@Z 000000014004ef40     main.obj
 0002:00016f60       $ip2state$??$_Insert_string@DU?$char_traits@D@std@@_K@std@@YAAEAV?$basic_ostream@DU?$char_traits@D@std@@@0@AEAV10@QEBD_K@Z 000000014004ef60     main.obj
 0002:00016fc8       $unwind$?catch$12@?0???$_Insert_string@DU?$char_traits@D@std@@_K@std@@YAAEAV?$basic_ostream@DU?$char_traits@D@std@@@0@AEAV10@QEBD_K@Z@4HA 000000014004efc8     main.obj
 0002:00016fd8       $unwind$??$_Reallocate_grow_by@V<lambda_9013ee9e23efe4882b67eff5b0ecf103>@@$$V@?$basic_string@DU?$char_traits@D@std@@V?$allocator@D@2@@std@@QEAAAEAV01@_KV<lambda_9013ee9e23efe4882b67eff5b0ecf103>@@@Z 000000014004efd8     main.obj
 0002:00016fe4       $chain$2$??$_Reallocate_grow_by@V<lambda_9013ee9e23efe4882b67eff5b0ecf103>@@$$V@?$basic_string@DU?$char_traits@D@std@@V?$allocator@D@2@@std@@QEAAAEAV01@_KV<lambda_9013ee9e23efe4882b67eff5b0ecf103>@@@Z 000000014004efe4     main.obj
 0002:00017000       $chain$3$??$_Reallocate_grow_by@V<lambda_9013ee9e23efe4882b67eff5b0ecf103>@@$$V@?$basic_string@DU?$char_traits@D@std@@V?$allocator@D@2@@std@@QEAAAEAV01@_KV<lambda_9013ee9e23efe4882b67eff5b0ecf103>@@@Z 000000014004f000     main.obj
 0002:00017010       $chain$4$??$_Reallocate_grow_by@V<lambda_9013ee9e23efe4882b67eff5b0ecf103>@@$$V@?$basic_string@DU?$char_traits@D@std@@V?$allocator@D@2@@std@@QEAAAEAV01@_KV<lambda_9013ee9e23efe4882b67eff5b0ecf103>@@@Z 000000014004f010     main.obj
 0002:0001702c       $unwind$??$_Reallocate_grow_by@V<lambda_f3a66ab6a0570788f31503db83886f49>@@_KPEBD_K@?$basic_string@DU?$char_traits@D@std@@V?$allocator@D@2@@std@@QEAAAEAV01@_KV<lambda_f3a66ab6a0570788f31503db83886f49>@@_KPEBD2@Z 000000014004f02c     main.obj
 0002:0001703c       $chain$2$??$_Reallocate_grow_by@V<lambda_f3a66ab6a0570788f31503db83886f49>@@_KPEBD_K@?$basic_string@DU?$char_traits@D@std@@V?$allocator@D@2@@std@@QEAAAEAV01@_KV<lambda_f3a66ab6a0570788f31503db83886f49>@@_KPEBD2@Z 000000014004f03c     main.obj
 0002:00017058       $chain$3$??$_Reallocate_grow_by@V<lambda_f3a66ab6a0570788f31503db83886f49>@@_KPEBD_K@?$basic_string@DU?$char_traits@D@std@@V?$allocator@D@2@@std@@QEAAAEAV01@_KV<lambda_f3a66ab6a0570788f31503db83886f49>@@_KPEBD2@Z 000000014004f058     main.obj
 0002:00017068       $chain$4$??$_Reallocate_grow_by@V<lambda_f3a66ab6a0570788f31503db83886f49>@@_KPEBD_K@?$basic_string@DU?$char_traits@D@std@@V?$allocator@D@2@@std@@QEAAAEAV01@_KV<lambda_f3a66ab6a0570788f31503db83886f49>@@_KPEBD2@Z 000000014004f068     main.obj
 0002:00017084       $unwind$??1sentry@?$basic_istream@DU?$char_traits@D@std@@@std@@QEAA@XZ 000000014004f084     main.obj
 0002:00017098       $ip2state$??1sentry@?$basic_istream@DU?$char_traits@D@std@@@std@@QEAA@XZ 000000014004f098     main.obj
 0002:000170b0       $unwind$?_Ipfx@?$basic_istream@DU?$char_traits@D@std@@@std@@QEAA_N_N@Z 000000014004f0b0     main.obj
 0002:000170cc       $stateUnwindMap$?_Ipfx@?$basic_istream@DU?$char_traits@D@std@@@std@@QEAA_N_N@Z 000000014004f0cc     main.obj
 0002:000170f4       $tryMap$?_Ipfx@?$basic_istream@DU?$char_traits@D@std@@@std@@QEAA_N_N@Z 000000014004f0f4     main.obj
 0002:00017108       $handlerMap$0$?_Ipfx@?$basic_istream@DU?$char_traits@D@std@@@std@@QEAA_N_N@Z 000000014004f108     main.obj
 0002:00017120       $ip2state$?_Ipfx@?$basic_istream@DU?$char_traits@D@std@@@std@@QEAA_N_N@Z 000000014004f120     main.obj
 0002:00017178       $unwind$?catch$13@?0??_Ipfx@?$basic_istream@DU?$char_traits@D@std@@@std@@QEAA_N_N@Z@4HA 000000014004f178     main.obj
 0002:00017188       $unwind$??$_Buynode@AEBU?$pair@$$CBV?$basic_string@DU?$char_traits@D@std@@V?$allocator@D@2@@std@@G@std@@@?$_Tree_comp_alloc@V?$_Tmap_traits@V?$basic_string@DU?$char_traits@D@std@@V?$allocator@D@2@@std@@GU?$less@V?$basic_string@DU?$char_traits@D@std@@V?$allocator@D@2@@std@@@2@V?$allocator@U?$pair@$$CBV?$basic_string@DU?$char_traits@D@std@@V?$allocator@D@2@@std@@G@std@@@2@$0A@@std@@@std@@QEAAPEAU?$_Tree_node@U?$pair@$$CBV?$basic_string@DU?$char_traits@D@std@@V?$allocator@D@2@@std@@G@std@@PEAX@1@AEBU?$pair@$$CBV?$basic_string@DU?$char_traits@D@std@@V?$allocator@D@2@@std@@G@1@@Z 000000014004f188     main.obj
 0002:0001719c       $stateUnwindMap$??$_Buynode@AEBU?$pair@$$CBV?$basic_string@DU?$char_traits@D@std@@V?$allocator@D@2@@std@@G@std@@@?$_Tree_comp_alloc@V?$_Tmap_traits@V?$basic_string@DU?$char_traits@D@std@@V?$allocator@D@2@@std@@GU?$less@V?$basic_string@DU?$char_traits@D@std@@V?$allocator@D@2@@std@@@2@V?$allocator@U?$pair@$$CBV?$basic_string@DU?$char_traits@D@std@@V?$allocator@D@2@@std@@G@std@@@2@$0A@@std@@@std@@QEAAPEAU?$_Tree_node@U?$pair@$$CBV?$basic_string@DU?$char_traits@D@std@@V?$allocator@D@2@@std@@G@std@@PEAX@1@AEBU?$pair@$$CBV?$basic_string@DU?$char_traits@D@std@@V?$allocator@D@2@@std@@G@1@@Z 000000014004f19c     main.obj
 0002:000171b4       $tryMap$??$_Buynode@AEBU?$pair@$$CBV?$basic_string@DU?$char_traits@D@std@@V?$allocator@D@2@@std@@G@std@@@?$_Tree_comp_alloc@V?$_Tmap_traits@V?$basic_string@DU?$char_traits@D@std@@V?$allocator@D@2@@std@@GU?$less@V?$basic_string@DU?$char_traits@D@std@@V?$allocator@D@2@@std@@@2@V?$allocator@U?$pair@$$CBV?$basic_string@DU?$char_traits@D@std@@V?$allocator@D@2@@std@@G@std@@@2@$0A@@std@@@std@@QEAAPEAU?$_Tree_node@U?$pair@$$CBV?$basic_string@DU?$char_traits@D@std@@V?$allocator@D@2@@std@@G@std@@PEAX@1@AEBU?$pair@$$CBV?$basic_string@DU?$char_traits@D@std@@V?$allocator@D@2@@std@@G@1@@Z 000000014004f1b4     main.obj
 0002:000171c8       $handlerMap$0$??$_Buynode@AEBU?$pair@$$CBV?$basic_string@DU?$char_traits@D@std@@V?$allocator@D@2@@std@@G@std@@@?$_Tree_comp_alloc@V?$_Tmap_traits@V?$basic_string@DU?$char_traits@D@std@@V?$allocator@D@2@@std@@GU?$less@V?$basic_string@DU?$char_traits@D@std@@V?$allocator@D@2@@std@@@2@V?$allocator@U?$pair@$$CBV?$basic_string@DU?$char_traits@D@std@@V?$allocator@D@2@@std@@G@std@@@2@$0A@@std@@@std@@QEAAPEAU?$_Tree_node@U?$pair@$$CBV?$basic_string@DU?$char_traits@D@std@@V?$allocator@D@2@@std@@G@std@@PEAX@1@AEBU?$pair@$$CBV?$basic_string@DU?$char_traits@D@std@@V?$allocator@D@2@@std@@G@1@@Z 000000014004f1c8     main.obj
 0002:000171e0       $ip2state$??$_Buynode@AEBU?$pair@$$CBV?$basic_string@DU?$char_traits@D@std@@V?$allocator@D@2@@std@@G@std@@@?$_Tree_comp_alloc@V?$_Tmap_traits@V?$basic_string@DU?$char_traits@D@std@@V?$allocator@D@2@@std@@GU?$less@V?$basic_string@DU?$char_traits@D@std@@V?$allocator@D@2@@std@@@2@V?$allocator@U?$pair@$$CBV?$basic_string@DU?$char_traits@D@std@@V?$allocator@D@2@@std@@G@std@@@2@$0A@@std@@@std@@QEAAPEAU?$_Tree_node@U?$pair@$$CBV?$basic_string@DU?$char_traits@D@std@@V?$allocator@D@2@@std@@G@std@@PEAX@1@AEBU?$pair@$$CBV?$basic_string@DU?$char_traits@D@std@@V?$allocator@D@2@@std@@G@1@@Z 000000014004f1e0     main.obj
 0002:00017210       $unwind$?catch$8@?0???$_Buynode@AEBU?$pair@$$CBV?$basic_string@DU?$char_traits@D@std@@V?$allocator@D@2@@std@@G@std@@@?$_Tree_comp_alloc@V?$_Tmap_traits@V?$basic_string@DU?$char_traits@D@std@@V?$allocator@D@2@@std@@GU?$less@V?$basic_string@DU?$char_traits@D@std@@V?$allocator@D@2@@std@@@2@V?$allocator@U?$pair@$$CBV?$basic_string@DU?$char_traits@D@std@@V?$allocator@D@2@@std@@G@std@@@2@$0A@@std@@@std@@QEAAPEAU?$_Tree_node@U?$pair@$$CBV?$basic_string@DU?$char_traits@D@std@@V?$allocator@D@2@@std@@G@std@@PEAX@1@AEBU?$pair@$$CBV?$basic_string@DU?$char_traits@D@std@@V?$allocator@D@2@@std@@G@1@@Z@4HA 000000014004f210     main.obj
 0002:00017220       $unwind$??$_Insert_hint@AEAU?$pair@$$CBV?$basic_string@DU?$char_traits@D@std@@V?$allocator@D@2@@std@@G@std@@PEAU?$_Tree_node@U?$pair@$$CBV?$basic_string@DU?$char_traits@D@std@@V?$allocator@D@2@@std@@G@std@@PEAX@2@@?$_Tree@V?$_Tmap_traits@V?$basic_string@DU?$char_traits@D@std@@V?$allocator@D@2@@std@@GU?$less@V?$basic_string@DU?$char_traits@D@std@@V?$allocator@D@2@@std@@@2@V?$allocator@U?$pair@$$CBV?$basic_string@DU?$char_traits@D@std@@V?$allocator@D@2@@std@@G@std@@@2@$0A@@std@@@std@@IEAA?AV?$_Tree_iterator@V?$_Tree_val@U?$_Tree_simple_types@U?$pair@$$CBV?$basic_string@DU?$char_traits@D@std@@V?$allocator@D@2@@std@@G@std@@@std@@@std@@@1@V?$_Tree_const_iterator@V?$_Tree_val@U?$_Tree_simple_types@U?$pair@$$CBV?$basic_string@DU?$char_traits@D@std@@V?$allocator@D@2@@std@@G@std@@@std@@@std@@@1@AEAU?$pair@$$CBV?$basic_string@DU?$char_traits@D@std@@V?$allocator@D@2@@std@@G@1@PEAU?$_Tree_node@U?$pair@$$CBV?$basic_string@DU?$char_traits@D@std@@V?$allocator@D@2@@std@@G@std@@PEAX@1@@Z 000000014004f220     main.obj
 0002:00017240       $tryMap$??$_Insert_hint@AEAU?$pair@$$CBV?$basic_string@DU?$char_traits@D@std@@V?$allocator@D@2@@std@@G@std@@PEAU?$_Tree_node@U?$pair@$$CBV?$basic_string@DU?$char_traits@D@std@@V?$allocator@D@2@@std@@G@std@@PEAX@2@@?$_Tree@V?$_Tmap_traits@V?$basic_string@DU?$char_traits@D@std@@V?$allocator@D@2@@std@@GU?$less@V?$basic_string@DU?$char_traits@D@std@@V?$allocator@D@2@@std@@@2@V?$allocator@U?$pair@$$CBV?$basic_string@DU?$char_traits@D@std@@V?$allocator@D@2@@std@@G@std@@@2@$0A@@std@@@std@@IEAA?AV?$_Tree_iterator@V?$_Tree_val@U?$_Tree_simple_types@U?$pair@$$CBV?$basic_string@DU?$char_traits@D@std@@V?$allocator@D@2@@std@@G@std@@@std@@@std@@@1@V?$_Tree_const_iterator@V?$_Tree_val@U?$_Tree_simple_types@U?$pair@$$CBV?$basic_string@DU?$char_traits@D@std@@V?$allocator@D@2@@std@@G@std@@@std@@@std@@@1@AEAU?$pair@$$CBV?$basic_string@DU?$char_traits@D@std@@V?$allocator@D@2@@std@@G@1@PEAU?$_Tree_node@U?$pair@$$CBV?$basic_string@DU?$char_traits@D@std@@V?$allocator@D@2@@std@@G@std@@PEAX@1@@Z 000000014004f240     main.obj
 0002:00017254       $handlerMap$0$??$_Insert_hint@AEAU?$pair@$$CBV?$basic_string@DU?$char_traits@D@std@@V?$allocator@D@2@@std@@G@std@@PEAU?$_Tree_node@U?$pair@$$CBV?$basic_string@DU?$char_traits@D@std@@V?$allocator@D@2@@std@@G@std@@PEAX@2@@?$_Tree@V?$_Tmap_traits@V?$basic_string@DU?$char_traits@D@std@@V?$allocator@D@2@@std@@GU?$less@V?$basic_string@DU?$char_traits@D@std@@V?$allocator@D@2@@std@@@2@V?$allocator@U?$pair@$$CBV?$basic_string@DU?$char_traits@D@std@@V?$allocator@D@2@@std@@G@std@@@2@$0A@@std@@@std@@IEAA?AV?$_Tree_iterator@V?$_Tree_val@U?$_Tree_simple_types@U?$pair@$$CBV?$basic_string@DU?$char_traits@D@std@@V?$allocator@D@2@@std@@G@std@@@std@@@std@@@1@V?$_Tree_const_iterator@V?$_Tree_val@U?$_Tree_simple_types@U?$pair@$$CBV?$basic_string@DU?$char_traits@D@std@@V?$allocator@D@2@@std@@G@std@@@std@@@std@@@1@AEAU?$pair@$$CBV?$basic_string@DU?$char_traits@D@std@@V?$allocator@D@2@@std@@G@1@PEAU?$_Tree_node@U?$pair@$$CBV?$basic_string@DU?$char_traits@D@std@@V?$allocator@D@2@@std@@G@std@@PEAX@1@@Z 000000014004f254     main.obj
 0002:00017268       $ip2state$??$_Insert_hint@AEAU?$pair@$$CBV?$basic_string@DU?$char_traits@D@std@@V?$allocator@D@2@@std@@G@std@@PEAU?$_Tree_node@U?$pair@$$CBV?$basic_string@DU?$char_traits@D@std@@V?$allocator@D@2@@std@@G@std@@PEAX@2@@?$_Tree@V?$_Tmap_traits@V?$basic_string@DU?$char_traits@D@std@@V?$allocator@D@2@@std@@GU?$less@V?$basic_string@DU?$char_traits@D@std@@V?$allocator@D@2@@std@@@2@V?$allocator@U?$pair@$$CBV?$basic_string@DU?$char_traits@D@std@@V?$allocator@D@2@@std@@G@std@@@2@$0A@@std@@@std@@IEAA?AV?$_Tree_iterator@V?$_Tree_val@U?$_Tree_simple_types@U?$pair@$$CBV?$basic_string@DU?$char_traits@D@std@@V?$allocator@D@2@@std@@G@std@@@std@@@std@@@1@V?$_Tree_const_iterator@V?$_Tree_val@U?$_Tree_simple_types@U?$pair@$$CBV?$basic_string@DU?$char_traits@D@std@@V?$allocator@D@2@@std@@G@std@@@std@@@std@@@1@AEAU?$pair@$$CBV?$basic_string@DU?$char_traits@D@std@@V?$allocator@D@2@@std@@G@1@PEAU?$_Tree_node@U?$pair@$$CBV?$basic_string@DU?$char_traits@D@std@@V?$allocator@D@2@@std@@G@std@@PEAX@1@@Z 000000014004f268     main.obj
 0002:00017290       $unwind$?catch$232@?0???$_Insert_hint@AEAU?$pair@$$CBV?$basic_string@DU?$char_traits@D@std@@V?$allocator@D@2@@std@@G@std@@PEAU?$_Tree_node@U?$pair@$$CBV?$basic_string@DU?$char_traits@D@std@@V?$allocator@D@2@@std@@G@std@@PEAX@2@@?$_Tree@V?$_Tmap_traits@V?$basic_string@DU?$char_traits@D@std@@V?$allocator@D@2@@std@@GU?$less@V?$basic_string@DU?$char_traits@D@std@@V?$allocator@D@2@@std@@@2@V?$allocator@U?$pair@$$CBV?$basic_string@DU?$char_traits@D@std@@V?$allocator@D@2@@std@@G@std@@@2@$0A@@std@@@std@@IEAA?AV?$_Tree_iterator@V?$_Tree_val@U?$_Tree_simple_types@U?$pair@$$CBV?$basic_string@DU?$char_traits@D@std@@V?$allocator@D@2@@std@@G@std@@@std@@@std@@@1@V?$_Tree_const_iterator@V?$_Tree_val@U?$_Tree_simple_types@U?$pair@$$CBV?$basic_string@DU?$char_traits@D@std@@V?$allocator@D@2@@std@@G@std@@@std@@@std@@@1@AEAU?$pair@$$CBV?$basic_string@DU?$char_traits@D@std@@V?$allocator@D@2@@std@@G@1@PEAU?$_Tree_node@U?$pair@$$CBV?$basic_string@DU?$char_traits@D@std@@V?$allocator@D@2@@std@@G@std@@PEAX@1@@Z@4HA 000000014004f290     main.obj
 0002:000172a0       $unwind$??$_Uninitialized_copy_al_unchecked@PEBV?$basic_string@DU?$char_traits@D@std@@V?$allocator@D@2@@std@@PEAV12@V?$allocator@V?$basic_string@DU?$char_traits@D@std@@V?$allocator@D@2@@std@@@2@@std@@YAPEAV?$basic_string@DU?$char_traits@D@std@@V?$allocator@D@2@@0@PEBV10@0PEAV10@AEAV?$allocator@V?$basic_string@DU?$char_traits@D@std@@V?$allocator@D@2@@std@@@0@U_General_ptr_iterator_tag@0@U_Unused_parameter@0@@Z 000000014004f2a0     main.obj
 0002:000172b4       $stateUnwindMap$??$_Uninitialized_copy_al_unchecked@PEBV?$basic_string@DU?$char_traits@D@std@@V?$allocator@D@2@@std@@PEAV12@V?$allocator@V?$basic_string@DU?$char_traits@D@std@@V?$allocator@D@2@@std@@@2@@std@@YAPEAV?$basic_string@DU?$char_traits@D@std@@V?$allocator@D@2@@0@PEBV10@0PEAV10@AEAV?$allocator@V?$basic_string@DU?$char_traits@D@std@@V?$allocator@D@2@@std@@@0@U_General_ptr_iterator_tag@0@U_Unused_parameter@0@@Z 000000014004f2b4     main.obj
 0002:000172cc       $tryMap$??$_Uninitialized_copy_al_unchecked@PEBV?$basic_string@DU?$char_traits@D@std@@V?$allocator@D@2@@std@@PEAV12@V?$allocator@V?$basic_string@DU?$char_traits@D@std@@V?$allocator@D@2@@std@@@2@@std@@YAPEAV?$basic_string@DU?$char_traits@D@std@@V?$allocator@D@2@@0@PEBV10@0PEAV10@AEAV?$allocator@V?$basic_string@DU?$char_traits@D@std@@V?$allocator@D@2@@std@@@0@U_General_ptr_iterator_tag@0@U_Unused_parameter@0@@Z 000000014004f2cc     main.obj
 0002:000172e0       $handlerMap$0$??$_Uninitialized_copy_al_unchecked@PEBV?$basic_string@DU?$char_traits@D@std@@V?$allocator@D@2@@std@@PEAV12@V?$allocator@V?$basic_string@DU?$char_traits@D@std@@V?$allocator@D@2@@std@@@2@@std@@YAPEAV?$basic_string@DU?$char_traits@D@std@@V?$allocator@D@2@@0@PEBV10@0PEAV10@AEAV?$allocator@V?$basic_string@DU?$char_traits@D@std@@V?$allocator@D@2@@std@@@0@U_General_ptr_iterator_tag@0@U_Unused_parameter@0@@Z 000000014004f2e0     main.obj
 0002:000172f8       $ip2state$??$_Uninitialized_copy_al_unchecked@PEBV?$basic_string@DU?$char_traits@D@std@@V?$allocator@D@2@@std@@PEAV12@V?$allocator@V?$basic_string@DU?$char_traits@D@std@@V?$allocator@D@2@@std@@@2@@std@@YAPEAV?$basic_string@DU?$char_traits@D@std@@V?$allocator@D@2@@0@PEBV10@0PEAV10@AEAV?$allocator@V?$basic_string@DU?$char_traits@D@std@@V?$allocator@D@2@@std@@@0@U_General_ptr_iterator_tag@0@U_Unused_parameter@0@@Z 000000014004f2f8     main.obj
 0002:00017330       $unwind$?catch$2@?0???$_Uninitialized_copy_al_unchecked@PEBV?$basic_string@DU?$char_traits@D@std@@V?$allocator@D@2@@std@@PEAV12@V?$allocator@V?$basic_string@DU?$char_traits@D@std@@V?$allocator@D@2@@std@@@2@@std@@YAPEAV?$basic_string@DU?$char_traits@D@std@@V?$allocator@D@2@@0@PEBV10@0PEAV10@AEAV?$allocator@V?$basic_string@DU?$char_traits@D@std@@V?$allocator@D@2@@std@@@0@U_General_ptr_iterator_tag@0@U_Unused_parameter@0@@Z@4HA 000000014004f330     main.obj
 0002:00017340       $unwind$??$_Insert_nohint@AEAU?$pair@$$CBV?$basic_string@DU?$char_traits@D@std@@V?$allocator@D@2@@std@@G@std@@PEAU?$_Tree_node@U?$pair@$$CBV?$basic_string@DU?$char_traits@D@std@@V?$allocator@D@2@@std@@G@std@@PEAX@2@@?$_Tree@V?$_Tmap_traits@V?$basic_string@DU?$char_traits@D@std@@V?$allocator@D@2@@std@@GU?$less@V?$basic_string@DU?$char_traits@D@std@@V?$allocator@D@2@@std@@@2@V?$allocator@U?$pair@$$CBV?$basic_string@DU?$char_traits@D@std@@V?$allocator@D@2@@std@@G@std@@@2@$0A@@std@@@std@@IEAA?AU?$pair@V?$_Tree_iterator@V?$_Tree_val@U?$_Tree_simple_types@U?$pair@$$CBV?$basic_string@DU?$char_traits@D@std@@V?$allocator@D@2@@std@@G@std@@@std@@@std@@@std@@_N@1@_NAEAU?$pair@$$CBV?$basic_string@DU?$char_traits@D@std@@V?$allocator@D@2@@std@@G@1@PEAU?$_Tree_node@U?$pair@$$CBV?$basic_string@DU?$char_traits@D@std@@V?$allocator@D@2@@std@@G@std@@PEAX@1@@Z 000000014004f340     main.obj
 0002:00017360       $tryMap$??$_Insert_nohint@AEAU?$pair@$$CBV?$basic_string@DU?$char_traits@D@std@@V?$allocator@D@2@@std@@G@std@@PEAU?$_Tree_node@U?$pair@$$CBV?$basic_string@DU?$char_traits@D@std@@V?$allocator@D@2@@std@@G@std@@PEAX@2@@?$_Tree@V?$_Tmap_traits@V?$basic_string@DU?$char_traits@D@std@@V?$allocator@D@2@@std@@GU?$less@V?$basic_string@DU?$char_traits@D@std@@V?$allocator@D@2@@std@@@2@V?$allocator@U?$pair@$$CBV?$basic_string@DU?$char_traits@D@std@@V?$allocator@D@2@@std@@G@std@@@2@$0A@@std@@@std@@IEAA?AU?$pair@V?$_Tree_iterator@V?$_Tree_val@U?$_Tree_simple_types@U?$pair@$$CBV?$basic_string@DU?$char_traits@D@std@@V?$allocator@D@2@@std@@G@std@@@std@@@std@@@std@@_N@1@_NAEAU?$pair@$$CBV?$basic_string@DU?$char_traits@D@std@@V?$allocator@D@2@@std@@G@1@PEAU?$_Tree_node@U?$pair@$$CBV?$basic_string@DU?$char_traits@D@std@@V?$allocator@D@2@@std@@G@std@@PEAX@1@@Z 000000014004f360     main.obj
 0002:00017374       $handlerMap$0$??$_Insert_nohint@AEAU?$pair@$$CBV?$basic_string@DU?$char_traits@D@std@@V?$allocator@D@2@@std@@G@std@@PEAU?$_Tree_node@U?$pair@$$CBV?$basic_string@DU?$char_traits@D@std@@V?$allocator@D@2@@std@@G@std@@PEAX@2@@?$_Tree@V?$_Tmap_traits@V?$basic_string@DU?$char_traits@D@std@@V?$allocator@D@2@@std@@GU?$less@V?$basic_string@DU?$char_traits@D@std@@V?$allocator@D@2@@std@@@2@V?$allocator@U?$pair@$$CBV?$basic_string@DU?$char_traits@D@std@@V?$allocator@D@2@@std@@G@std@@@2@$0A@@std@@@std@@IEAA?AU?$pair@V?$_Tree_iterator@V?$_Tree_val@U?$_Tree_simple_types@U?$pair@$$CBV?$basic_string@DU?$char_traits@D@std@@V?$allocator@D@2@@std@@G@std@@@std@@@std@@@std@@_N@1@_NAEAU?$pair@$$CBV?$basic_string@DU?$char_traits@D@std@@V?$allocator@D@2@@std@@G@1@PEAU?$_Tree_node@U?$pair@$$CBV?$basic_string@DU?$char_traits@D@std@@V?$allocator@D@2@@std@@G@std@@PEAX@1@@Z 000000014004f374     main.obj
 0002:00017388       $ip2state$??$_Insert_nohint@AEAU?$pair@$$CBV?$basic_string@DU?$char_traits@D@std@@V?$allocator@D@2@@std@@G@std@@PEAU?$_Tree_node@U?$pair@$$CBV?$basic_string@DU?$char_traits@D@std@@V?$allocator@D@2@@std@@G@std@@PEAX@2@@?$_Tree@V?$_Tmap_traits@V?$basic_string@DU?$char_traits@D@std@@V?$allocator@D@2@@std@@GU?$less@V?$basic_string@DU?$char_traits@D@std@@V?$allocator@D@2@@std@@@2@V?$allocator@U?$pair@$$CBV?$basic_string@DU?$char_traits@D@std@@V?$allocator@D@2@@std@@G@std@@@2@$0A@@std@@@std@@IEAA?AU?$pair@V?$_Tree_iterator@V?$_Tree_val@U?$_Tree_simple_types@U?$pair@$$CBV?$basic_string@DU?$char_traits@D@std@@V?$allocator@D@2@@std@@G@std@@@std@@@std@@@std@@_N@1@_NAEAU?$pair@$$CBV?$basic_string@DU?$char_traits@D@std@@V?$allocator@D@2@@std@@G@1@PEAU?$_Tree_node@U?$pair@$$CBV?$basic_string@DU?$char_traits@D@std@@V?$allocator@D@2@@std@@G@std@@PEAX@1@@Z 000000014004f388     main.obj
 0002:000173a0       $unwind$?catch$87@?0???$_Insert_nohint@AEAU?$pair@$$CBV?$basic_string@DU?$char_traits@D@std@@V?$allocator@D@2@@std@@G@std@@PEAU?$_Tree_node@U?$pair@$$CBV?$basic_string@DU?$char_traits@D@std@@V?$allocator@D@2@@std@@G@std@@PEAX@2@@?$_Tree@V?$_Tmap_traits@V?$basic_string@DU?$char_traits@D@std@@V?$allocator@D@2@@std@@GU?$less@V?$basic_string@DU?$char_traits@D@std@@V?$allocator@D@2@@std@@@2@V?$allocator@U?$pair@$$CBV?$basic_string@DU?$char_traits@D@std@@V?$allocator@D@2@@std@@G@std@@@2@$0A@@std@@@std@@IEAA?AU?$pair@V?$_Tree_iterator@V?$_Tree_val@U?$_Tree_simple_types@U?$pair@$$CBV?$basic_string@DU?$char_traits@D@std@@V?$allocator@D@2@@std@@G@std@@@std@@@std@@@std@@_N@1@_NAEAU?$pair@$$CBV?$basic_string@DU?$char_traits@D@std@@V?$allocator@D@2@@std@@G@1@PEAU?$_Tree_node@U?$pair@$$CBV?$basic_string@DU?$char_traits@D@std@@V?$allocator@D@2@@std@@G@std@@PEAX@1@@Z@4HA 000000014004f3a0     main.obj
 0002:000173b0       $unwind$??__Fcout@std@@YAXXZ 000000014004f3b0     libcpmt:cout.obj
 0002:000173c0       $ip2state$??__Fcout@std@@YAXXZ 000000014004f3c0     libcpmt:cout.obj
 0002:000173d8       $unwind$??_G_Fac_node@std@@QEAAPEAXI@Z 000000014004f3d8     libcpmt:locale0.obj
 0002:000173f8       $ip2state$??_G_Fac_node@std@@QEAAPEAXI@Z 000000014004f3f8     libcpmt:locale0.obj
 0002:00017410       $unwind$?_Locimp_dtor@_Locimp@locale@std@@CAXPEAV123@@Z 000000014004f410     libcpmt:locale0.obj
 0002:00017430       $ip2state$?_Locimp_dtor@_Locimp@locale@std@@CAXPEAV123@@Z 000000014004f430     libcpmt:locale0.obj
 0002:00017448       $unwind$??_G_Locimp@locale@std@@MEAAPEAXI@Z 000000014004f448     libcpmt:locale0.obj
 0002:00017460       $ip2state$??_G_Locimp@locale@std@@MEAAPEAXI@Z 000000014004f460     libcpmt:locale0.obj
 0002:00017478       $unwind$?_Init@locale@std@@CAPEAV_Locimp@12@_N@Z 000000014004f478     libcpmt:locale0.obj
 0002:00017490       $stateUnwindMap$?_Init@locale@std@@CAPEAV_Locimp@12@_N@Z 000000014004f490     libcpmt:locale0.obj
 0002:00017490       $stateUnwindMap$?_Locimp_dtor@_Locimp@locale@std@@CAXPEAV123@@Z 000000014004f490     libcpmt:locale0.obj
 0002:00017498       $ip2state$?_Init@locale@std@@CAPEAV_Locimp@12@_N@Z 000000014004f498     libcpmt:locale0.obj
 0002:000174b0       $unwind$??__Fclassic_locale@std@@YAXXZ 000000014004f4b0     libcpmt:locale0.obj
 0002:000174c8       $ip2state$??__Fclassic_locale@std@@YAXXZ 000000014004f4c8     libcpmt:locale0.obj
 0002:000174e0       $unwind$??__Fcin@std@@YAXXZ 000000014004f4e0     libcpmt:cin.obj
 0002:000174f0       $ip2state$??__Fcin@std@@YAXXZ 000000014004f4f0     libcpmt:cin.obj
 0002:00017508       $unwind$?_Xlength_error@std@@YAXPEBD@Z 000000014004f508     libcpmt:xthrow.obj
 0002:00017508       $unwind$_raise_exc         000000014004f508     libucrt:fpexcept.obj
 0002:00017508       $unwind$_raise_excf        000000014004f508     libucrt:fpexcept.obj
 0002:00017508       $unwind$?_Xout_of_range@std@@YAXPEBD@Z 000000014004f508     libcpmt:xthrow.obj
 0002:00017508       $unwind$?__scrt_throw_std_bad_array_new_length@@YAXXZ 000000014004f508     LIBCMT:throw_bad_alloc.obj
 0002:00017508       $unwind$?_Xbad_alloc@std@@YAXXZ 000000014004f508     libcpmt:xthrow.obj
 0002:00017508       $unwind$?__scrt_throw_std_bad_alloc@@YAXXZ 000000014004f508     LIBCMT:throw_bad_alloc.obj
 0002:00017510       $unwind$_Tolower           000000014004f510     libcpmt:_tolower.obj
 0002:00017520       $unwind$_Toupper           000000014004f520     libcpmt:_toupper.obj
 0002:00017534       $unwind$??__Finit_atexit@@YAXXZ 000000014004f534     libcpmt:iosptrs.obj
 0002:00017548       $ip2state$??__Finit_atexit@@YAXXZ 000000014004f548     libcpmt:iosptrs.obj
 0002:00017560       $unwind$__crtLCMapStringA  000000014004f560     libcpmt:StlLCMapStringA.obj
 0002:00017588       $unwind$_mbtowc_l          000000014004f588     libucrt:mbtowc.obj
 0002:00017588       $unwind$__crtLCMapStringEx 000000014004f588     libcpmt:winapinls.obj
 0002:000175a0       $unwind$_chsize_nolock     000000014004f5a0     libucrt:chsize.obj
 0002:000175a0       $unwind$GetTableIndexFromLocaleName 000000014004f5a0     libcpmt:winapinls.obj
 0002:000175a0       $unwind$TranslateName      000000014004f5a0     libucrt:getqloc_downlevel.obj
 0002:000175b8       $xdatasym                  000000014004f5b8     LIBCMT:_amdsecgs_.obj
 0002:000175bc       $unwind$??_M@YAXPEAX_K1P6AX0@Z@Z 000000014004f5bc     LIBCMT:ehvecdtr.obj
 0002:000175e4       $unwind$?__ArrayUnwind@@YAXPEAX_K1P6AX0@Z@Z 000000014004f5e4     LIBCMT:ehvecdtr.obj
 0002:00017610       $unwind$__scrt_is_nonwritable_in_current_image 000000014004f610     LIBCMT:utility.obj
 0002:00017630       $unwind$__scrt_is_nonwritable_in_current_image$filt$0 000000014004f630     LIBCMT:utility.obj
 0002:00017638       $unwind$__scrt_initialize_onexit_tables 000000014004f638     LIBCMT:utility.obj
 0002:00017644       $unwind$?__scrt_common_main_seh@@YAHXZ 000000014004f644     LIBCMT:exe_main.obj
 0002:0001767c       $unwind$__GSHandlerCheckCommon 000000014004f67c     LIBCMT:_gshandler_.obj
 0002:00017688       $xdatasym                  000000014004f688     LIBCMT:_chkstk_.obj
 0002:00017690       $unwind$__report_securityfailure 000000014004f690     LIBCMT:gs_report.obj
 0002:00017698       $unwind$__report_gsfailure 000000014004f698     LIBCMT:gs_report.obj
 0002:000176a0       $unwind$capture_current_context 000000014004f6a0     LIBCMT:gs_report.obj
 0002:000176ac       $unwind$capture_previous_context 000000014004f6ac     LIBCMT:gs_report.obj
 0002:000176b8       $unwind$__isa_available_init 000000014004f6b8     LIBCMT:_cpu_disp_.obj
 0002:000176cc       $unwind$__scrt_fastfail    000000014004f6cc     LIBCMT:utility_desktop.obj
 0002:000176dc       $unwind$__security_init_cookie 000000014004f6dc     LIBCMT:gs_support.obj
 0002:000176e8       $xdatasym                  000000014004f6e8     LIBCMT:_guard_dispatch_.obj
 0002:000176f0       $xdatasym                  000000014004f6f0     LIBCMT:_rfgfailure_.obj
 0002:00017700       $unwind$?_GetEstablisherFrame@@YAPEA_KPEA_KPEAU_xDISPATCHER_CONTEXT@@PEBU_s_FuncInfo@@0@Z 000000014004f700     libvcruntime:risctrnsctrl.obj
 0002:00017718       $unwind$?__FrameUnwindToEmptyState@@YAXPEA_KPEAU_xDISPATCHER_CONTEXT@@PEBU_s_FuncInfo@@@Z 000000014004f718     libvcruntime:risctrnsctrl.obj
 0002:0001772c       $unwind$_CallSETranslator  000000014004f72c     libvcruntime:risctrnsctrl.obj
 0002:00017750       $unwind$_CallSETranslator$filt$0 000000014004f750     libvcruntime:risctrnsctrl.obj
 0002:0001775c       $unwind$??R<lambda_a10e4b102d4a2c3aac6f4f48bbdf488f>@@QEBAHXZ 000000014004f75c     libucrt:onexit.obj
 0002:0001775c       $unwind$?_GetRangeOfTrysToCheck@@YAPEBU_s_TryBlockMapEntry@@PEA_KPEBU_s_FuncInfo@@HHPEAI2PEAU_xDISPATCHER_CONTEXT@@@Z 000000014004f75c     libvcruntime:risctrnsctrl.obj
 0002:0001775c       $unwind$TranslateName      000000014004f75c     libucrt:get_qualified_locale.obj
 0002:0001775c       $unwind$__crtInitOnceExecuteOnce 000000014004f75c     libcpmt:winapisupp.obj
 0002:0001775c       $unwind$??$parse_command_line@D@@YAXPEADPEAPEAD0PEA_K2@Z 000000014004f75c     libucrt:argv_parsing.obj
 0002:00017778       $unwind$_UnwindNestedFrames 000000014004f778     libvcruntime:risctrnsctrl.obj
 0002:0001778c       $unwind$__CxxFrameHandler3 000000014004f78c     libvcruntime:risctrnsctrl.obj
 0002:0001779c       $unwind$__acrt_lowio_set_os_handle 000000014004f79c     libucrt:osfinfo.obj
 0002:0001779c       $unwind$?initialize_stdio_handles_nolock@@YAXXZ 000000014004f79c     libucrt:ioinit.obj
 0002:0001779c       $unwind$__acrt_stdio_refill_and_read_narrow_nolock 000000014004f79c     libucrt:_filbuf.obj
 0002:0001779c       $unwind$__std_exception_copy 000000014004f79c     libvcruntime:std_exception.obj
 0002:0001779c       $unwind$_wcstombs_s_l      000000014004f79c     libucrt:wcstombs.obj
 0002:000177b0       $xdatasym                  000000014004f7b0     libvcruntime:memcpy.obj
 0002:000177b8       $xdatasym                  000000014004f7b8     libvcruntime:memchr.obj
 0002:000177bc       $unwind$__DestructExceptionObject 000000014004f7bc     libvcruntime:ehhelpers.obj
 0002:000177e0       $unwind$_CxxThrowException 000000014004f7e0     libvcruntime:throw.obj
 0002:000177f8       $xdatasym                  000000014004f7f8     libvcruntime:memset.obj
 0002:00017800       $xdatasym                  000000014004f800     libvcruntime:memcmp.obj
 0002:00017804       $unwind$__CxxCallCatchBlock 000000014004f804     libvcruntime:frame.obj
 0002:00017840       $unwind$__CxxCallCatchBlock$fin$1 000000014004f840     libvcruntime:frame.obj
 0002:0001784c       $unwind$__BuildCatchObject 000000014004f84c     libvcruntime:frame.obj
 0002:00017878       $unwind$__acrt_initialize_stdio 000000014004f878     libucrt:_file.obj
 0002:00017878       $unwind$__GSHandlerCheck_EH 000000014004f878     LIBCMT:gshandlereh.obj
 0002:00017878       $unwind$??$_Xfiopen@D@std@@YAPEAU_iobuf@@PEBDHH@Z 000000014004f878     libcpmt:fiopen.obj
 0002:00017878       $unwind$__TypeMatch        000000014004f878     libvcruntime:frame.obj
 0002:00017890       $unwind$__InternalCxxFrameHandler 000000014004f890     libvcruntime:frame.obj
 0002:00017890       $unwind$__acrt_locale_initialize_numeric 000000014004f890     libucrt:initnum.obj
 0002:00017890       $unwind$__C_specific_handler 000000014004f890     libvcruntime:_riscchandler_.obj
 0002:000178ac       $unwind$__FrameUnwindToState 000000014004f8ac     libvcruntime:frame.obj
 0002:000178f8       $unwind$?FindHandler@@YAXPEAUEHExceptionRecord@@PEA_KPEAU_CONTEXT@@PEAU_xDISPATCHER_CONTEXT@@PEBU_s_FuncInfo@@EH1@Z 000000014004f8f8     libvcruntime:frame.obj
 0002:00017918       $unwind$?CatchIt@@YAXPEAUEHExceptionRecord@@PEA_KPEAU_CONTEXT@@PEAU_xDISPATCHER_CONTEXT@@PEBU_s_FuncInfo@@PEBU_s_HandlerType@@PEBU_s_CatchableType@@PEBU_s_TryBlockMapEntry@@H1EE@Z 000000014004f918     libvcruntime:frame.obj
 0002:00017930       $unwind$?FindHandlerForForeignException@@YAXPEAUEHExceptionRecord@@PEA_KPEAU_CONTEXT@@PEAU_xDISPATCHER_CONTEXT@@PEBU_s_FuncInfo@@HH1@Z 000000014004f930     libvcruntime:frame.obj
 0002:00017948       $unwind$__BuildCatchObjectHelper 000000014004f948     libvcruntime:frame.obj
 0002:00017988       $xdatasym                  000000014004f988     libvcruntime:_jmpuwind_.obj
 0002:0001799c       $unwind$__acrt_stdio_end_temporary_buffering_nolock 000000014004f99c     libucrt:_sftbuf.obj
 0002:0001799c       $unwind$__vcrt_uninitialize_winapi_thunks 000000014004f99c     libvcruntime:winapi_downlevel.obj
 0002:000179a4       $unwind$_fwrite_nolock     000000014004f9a4     libucrt:fwrite.obj
 0002:000179a4       $unwind$?try_get_function@@YAPEAXW4function_id@?A0x391cf84c@@QEBDQEBW4module_id@2@2@Z 000000014004f9a4     libucrt:winapi_thunks.obj
 0002:000179a4       $unwind$?IsInExceptionSpec@@YAEPEAUEHExceptionRecord@@PEBU_s_ESTypeList@@@Z 000000014004f9a4     libvcruntime:frame.obj
 0002:000179a4       $unwind$??R<lambda_f03950bc5685219e0bcd2087efbe011e>@@QEBAHXZ 000000014004f9a4     libucrt:onexit.obj
 0002:000179a4       $unwind$?try_get_function@@YAPEAXW4function_id@?A0xc646a32c@@QEBDQEBW4module_id@2@2@Z 000000014004f9a4     libvcruntime:winapi_downlevel.obj
 0002:000179c0       $xdatasym                  000000014004f9c0     libvcruntime:handlers.obj
 0002:000179c8       $unwind$setlocale          000000014004f9c8     libucrt:setlocale.obj
 0002:000179d0       $unwind$??R<lambda_082c17da81b0962e08c0587ee0fac50c>@@QEBAPEADXZ 000000014004f9d0     libucrt:setlocale.obj
 0002:000179e8       $unwind$??$?RV<lambda_9bd929c17696992ce54f1d748594fc62>@@AEAV<lambda_082c17da81b0962e08c0587ee0fac50c>@@V<lambda_9c08ac857f4975304d44e9f601d9b878>@@@?$__crt_seh_guarded_call@PEAD@@QEAAPEAD$$QEAV<lambda_9bd929c17696992ce54f1d748594fc62>@@AEAV<lambda_082c17da81b0962e08c0587ee0fac50c>@@$$QEAV<lambda_9c08ac857f4975304d44e9f601d9b878>@@@Z 000000014004f9e8     libucrt:setlocale.obj
 0002:00017a0c       $unwind$fputc              000000014004fa0c     libucrt:fputc.obj
 0002:00017a40       $unwind$?common_flush_all@@YAH_N@Z 000000014004fa40     libucrt:fflush.obj
 0002:00017a48       $unwind$??$?RV<lambda_842d9ff0dc9ef11c61343bbaebe7f885>@@AEAV<lambda_c5860995281e5c4ce005b3de8f5874ee>@@V<lambda_d90129c13df834fdcbf8d2b88dafcf2d>@@@?$__crt_seh_guarded_call@X@@QEAAX$$QEAV<lambda_842d9ff0dc9ef11c61343bbaebe7f885>@@AEAV<lambda_c5860995281e5c4ce005b3de8f5874ee>@@$$QEAV<lambda_d90129c13df834fdcbf8d2b88dafcf2d>@@@Z 000000014004fa48     libucrt:fflush.obj
 0002:00017a6c       $unwind$??$?RV<lambda_886d6c58226a84441f68b9f2b8217b83>@@AEAV<lambda_ab61a845afdef5b7c387490eaf3616ee>@@V<lambda_f7f22ab5edc0698d5f6905b0d3f44752>@@@?$__crt_seh_guarded_call@X@@QEAAX$$QEAV<lambda_886d6c58226a84441f68b9f2b8217b83>@@AEAV<lambda_ab61a845afdef5b7c387490eaf3616ee>@@$$QEAV<lambda_f7f22ab5edc0698d5f6905b0d3f44752>@@@Z 000000014004fa6c     libucrt:fflush.obj
 0002:00017a94       $unwind$??$?RV<lambda_c376a267cfb53b6959b3b692ec76b120>@@AEAV<lambda_9a32fed5bf61b6b509b2d3f6003082a1>@@V<lambda_572fbb9fa0ab338edf41edfd4b5fcc8d>@@@?$__crt_seh_guarded_call@H@@QEAAH$$QEAV<lambda_c376a267cfb53b6959b3b692ec76b120>@@AEAV<lambda_9a32fed5bf61b6b509b2d3f6003082a1>@@$$QEAV<lambda_572fbb9fa0ab338edf41edfd4b5fcc8d>@@@Z 000000014004fa94     libucrt:fflush.obj
 0002:00017ab8       $unwind$fclose             000000014004fab8     libucrt:fclose.obj
 0002:00017adc       $unwind$strcspn            000000014004fadc     libucrt:strcspn.obj
 0002:00017adc       $unwind$strpbrk            000000014004fadc     libucrt:strpbrk.obj
 0002:00017aec       $unwind$?write_string@?$string_output_adapter@D@__crt_stdio_output@@QEBAXQEBDHQEAHAEAV__crt_deferred_errno_cache@@@Z 000000014004faec     libucrt:output.obj
 0002:00017b04       $unwind$??$common_vsprintf@Vformat_validation_base@__crt_stdio_output@@D@@YAH_KQEAD0QEBDQEAU__crt_locale_pointers@@1@Z 000000014004fb04     libucrt:output.obj
 0002:00017b24       $unwind$__vcrt_InitializeCriticalSectionEx 000000014004fb24     libvcruntime:winapi_downlevel.obj
 0002:00017b24       $unwind$__acrt_lowio_create_handle_array 000000014004fb24     libucrt:osfinfo.obj
 0002:00017b24       $unwind$?_ExecutionInCatch@@YAHPEAU_xDISPATCHER_CONTEXT@@PEBU_s_FuncInfo@@@Z 000000014004fb24     libvcruntime:risctrnsctrl.obj
 0002:00017b24       $unwind$?common_fseek_nolock@@YAHV__crt_stdio_stream@@_JH@Z 000000014004fb24     libucrt:fseek.obj
 0002:00017b24       $unwind$_initterm          000000014004fb24     libucrt:initterm.obj
 0002:00017b24       $unwind$?setSBCS@@YAXPEAU__crt_multibyte_data@@@Z 000000014004fb24     libucrt:mbctype.obj
 0002:00017b24       $unwind$__acrt_free_locale 000000014004fb24     libucrt:locale_refcounting.obj
 0002:00017b24       $unwind$?find_or_allocate_unused_stream_nolock@@YA?AV__crt_stdio_stream@@XZ 000000014004fb24     libucrt:stream.obj
 0002:00017b24       $unwind$_recalloc_base     000000014004fb24     libucrt:recalloc.obj
 0002:00017b24       $unwind$_seh_filter_exe    000000014004fb24     libucrt:exception_filter.obj
 0002:00017b24       $unwind$??$common_ftell_nolock@_J@@YA_JV__crt_stdio_stream@@@Z 000000014004fb24     libucrt:ftell.obj
 0002:00017b24       $unwind$__crtInitializeCriticalSectionEx 000000014004fb24     libcpmt:winapisupp.obj
 0002:00017b24       $unwind$??$ensure_buffer_is_big_enough@D@formatting_buffer@__crt_stdio_output@@QEAA_N_K@Z 000000014004fb24     libucrt:output.obj
 0002:00017b24       $unwind$?process@?$output_processor@DV?$string_output_adapter@D@__crt_stdio_output@@V?$format_validation_base@DV?$string_output_adapter@D@__crt_stdio_output@@@2@@__crt_stdio_output@@QEAAHXZ 000000014004fb24     libucrt:output.obj
 0002:00017b38       $unwind$?parse_int_from_format_string@?$output_processor@DV?$string_output_adapter@D@__crt_stdio_output@@V?$format_validation_base@DV?$string_output_adapter@D@__crt_stdio_output@@@2@@__crt_stdio_output@@AEAA_NQEAH@Z 000000014004fb38     libucrt:output.obj
 0002:00017b4c       $unwind$?type_case_a@?$output_processor@DV?$string_output_adapter@D@__crt_stdio_output@@V?$format_validation_base@DV?$string_output_adapter@D@__crt_stdio_output@@@2@@__crt_stdio_output@@AEAA_NXZ 000000014004fb4c     libucrt:output.obj
 0002:00017b58       $unwind$?write_stored_string_tchar@?$output_processor@DV?$string_output_adapter@D@__crt_stdio_output@@V?$format_validation_base@DV?$string_output_adapter@D@__crt_stdio_output@@@2@@__crt_stdio_output@@AEAA_ND@Z 000000014004fb58     libucrt:output.obj
 0002:00017b70       $unwind$fgetc              000000014004fb70     libucrt:fgetc.obj
 0002:00017ba4       $unwind$__acrt_call_reportfault 000000014004fba4     libucrt:invalid_parameter.obj
 0002:00017bc4       $unwind$__lc_lctowcs       000000014004fbc4     libucrt:wsetlocale.obj
 0002:00017bc4       $unwind$_invalid_parameter 000000014004fbc4     libucrt:invalid_parameter.obj
 0002:00017bc4       $unwind$__acrt_LCIDToLocaleName 000000014004fbc4     libucrt:winapi_thunks.obj
 0002:00017bc4       $unwind$__acrt_GetLocaleInfoEx 000000014004fbc4     libucrt:winapi_thunks.obj
 0002:00017bc4       $unwind$__acrt_DownlevelLCIDToLocaleName 000000014004fbc4     libucrt:lcidtoname_downlevel.obj
 0002:00017bc4       $unwind$_wcsdup            000000014004fbc4     libucrt:wcsdup.obj
 0002:00017bd8       $unwind$system             000000014004fbd8     libucrt:system.obj
 0002:00017bf0       $unwind$terminate          000000014004fbf0     libucrt:terminate.obj
 0002:00017c10       $unwind$fwrite             000000014004fc10     libucrt:fwrite.obj
 0002:00017c18       $unwind$??$?RV<lambda_bdbcead8b570fa3d5ec6d9679862a6e5>@@AEAV<lambda_96f4279ff90247a4c5c5d9824f56f8c1>@@V<lambda_4606be27f17b5e5579e09050fab91818>@@@?$__crt_seh_guarded_call@_K@@QEAA_K$$QEAV<lambda_bdbcead8b570fa3d5ec6d9679862a6e5>@@AEAV<lambda_96f4279ff90247a4c5c5d9824f56f8c1>@@$$QEAV<lambda_4606be27f17b5e5579e09050fab91818>@@@Z 000000014004fc18     libucrt:fwrite.obj
 0002:00017c3c       $unwind$setvbuf            000000014004fc3c     libucrt:setvbuf.obj
 0002:00017c44       $unwind$??$?RV<lambda_84ec643ea9557e2f7dc01bb0e9624395>@@AEAV<lambda_ca71763b3c0644891230e4f79ea54fa6>@@V<lambda_439a761618c59b0600e24586724d733b>@@@?$__crt_seh_guarded_call@H@@QEAAH$$QEAV<lambda_84ec643ea9557e2f7dc01bb0e9624395>@@AEAV<lambda_ca71763b3c0644891230e4f79ea54fa6>@@$$QEAV<lambda_439a761618c59b0600e24586724d733b>@@@Z 000000014004fc44     libucrt:setvbuf.obj
 0002:00017c68       $unwind$??$parse_integer@KV?$c_string_character_source@D@__crt_strtox@@@__crt_strtox@@YAKQEAU__crt_locale_pointers@@V?$c_string_character_source@D@0@H_N@Z 000000014004fc68     libucrt:atox.obj
 0002:00017c84       $unwind$??$parse_integer@KV?$c_string_character_source@_W@__crt_strtox@@@__crt_strtox@@YAKQEAU__crt_locale_pointers@@V?$c_string_character_source@_W@0@H_N@Z 000000014004fc84     libucrt:atox.obj
 0002:00017c9c       $unwind$ungetc             000000014004fc9c     libucrt:ungetc.obj
 0002:00017cc0       $unwind$frexp              000000014004fcc0     libucrt:frexp.obj
 0002:00017cd4       $unwind$?common_fseek@@YAHV__crt_stdio_stream@@_JH@Z 000000014004fcd4     libucrt:fseek.obj
 0002:00017cfc       $unwind$??$common_fsopen@D@@YAPEAU_iobuf@@QEBD0H@Z 000000014004fcfc     libucrt:fopen.obj
 0002:00017d24       $unwind$__acrt_locale_initialize_ctype 000000014004fd24     libucrt:initctype.obj
 0002:00017d4c       $unwind$?x_ismbbtype_l@@YAHPEAU__crt_locale_pointers@@IHH@Z 000000014004fd4c     libucrt:ismbbyte.obj
 0002:00017d5c       $unwind$?divide@__crt_strtox@@YA_KAEAUbig_integer@1@AEBU21@@Z 000000014004fd5c     libucrt:strtod.obj
 0002:00017d7c       $chain$5$?divide@__crt_strtox@@YA_KAEAUbig_integer@1@AEBU21@@Z 000000014004fd7c     libucrt:strtod.obj
 0002:00017d90       $chain$6$?divide@__crt_strtox@@YA_KAEAUbig_integer@1@AEBU21@@Z 000000014004fd90     libucrt:strtod.obj
 0002:00017da0       $xdatasym                  000000014004fda0     libucrt:pow.obj
 0002:00017db0       $xdatasym                  000000014004fdb0     libucrt:powf.obj
 0002:00017dc0       $unwind$_tolower_l         000000014004fdc0     libucrt:tolower_toupper.obj
 0002:00017dd0       $unwind$_query_new_handler 000000014004fdd0     libucrt:new_handler.obj
 0002:00017df0       $unwind$?common_exit@@YAXHW4_crt_exit_cleanup_mode@@W4_crt_exit_return_mode@@@Z 000000014004fdf0     libucrt:exit.obj
 0002:00017dfc       $unwind$??R<lambda_6e4b09c48022b2350581041d5f6b0c4c>@@QEBA@XZ 000000014004fdfc     libucrt:exit.obj
 0002:00017e1c       $unwind$??$?RV<lambda_d80eeec6fff315bfe5c115232f3240e3>@@AEAV<lambda_6e4b09c48022b2350581041d5f6b0c4c>@@V<lambda_2358e3775559c9db80273638284d5e45>@@@?$__crt_seh_guarded_call@X@@QEAAX$$QEAV<lambda_d80eeec6fff315bfe5c115232f3240e3>@@AEAV<lambda_6e4b09c48022b2350581041d5f6b0c4c>@@$$QEAV<lambda_2358e3775559c9db80273638284d5e45>@@@Z 000000014004fe1c     libucrt:exit.obj
 0002:00017e40       $unwind$_configure_narrow_argv 000000014004fe40     libucrt:argv_parsing.obj
 0002:00017e54       $unwind$??$initialize_environment_by_cloning_nolock@D@@YAHXZ 000000014004fe54     libucrt:environment_initialization.obj
 0002:00017e64       $unwind$_register_onexit_function 000000014004fe64     libucrt:onexit.obj
 0002:00017e6c       $unwind$_execute_onexit_table 000000014004fe6c     libucrt:onexit.obj
 0002:00017e74       $unwind$??$?RV<lambda_8369fcb7c4df1e85de37618bd2b85f07>@@AEAV<lambda_a10e4b102d4a2c3aac6f4f48bbdf488f>@@V<lambda_5b7707bd6d7a0c4713179f36c7fd995d>@@@?$__crt_seh_guarded_call@H@@QEAAH$$QEAV<lambda_8369fcb7c4df1e85de37618bd2b85f07>@@AEAV<lambda_a10e4b102d4a2c3aac6f4f48bbdf488f>@@$$QEAV<lambda_5b7707bd6d7a0c4713179f36c7fd995d>@@@Z 000000014004fe74     libucrt:onexit.obj
 0002:00017e98       $unwind$??$?RV<lambda_7777bce6b2f8c936911f934f8298dc43>@@AEAV<lambda_f03950bc5685219e0bcd2087efbe011e>@@V<lambda_3883c3dff614d5e0c5f61bb1ac94921c>@@@?$__crt_seh_guarded_call@H@@QEAAH$$QEAV<lambda_7777bce6b2f8c936911f934f8298dc43>@@AEAV<lambda_f03950bc5685219e0bcd2087efbe011e>@@$$QEAV<lambda_3883c3dff614d5e0c5f61bb1ac94921c>@@@Z 000000014004fe98     libucrt:onexit.obj
 0002:00017ebc       $unwind$_setmode_nolock    000000014004febc     libucrt:setmode.obj
 0002:00017ec8       $unwind$__acrt_copy_locale_name 000000014004fec8     libucrt:wsetlocale.obj
 0002:00017ed8       $unwind$_wsetlocale        000000014004fed8     libucrt:wsetlocale.obj
 0002:00017ee0       $unwind$_expandlocale      000000014004fee0     libucrt:wsetlocale.obj
 0002:00017f00       $unwind$_wcscats           000000014004ff00     libucrt:wsetlocale.obj
 0002:00017f10       $unwind$_wsetlocale_set_cat 000000014004ff10     libucrt:wsetlocale.obj
 0002:00017f34       $unwind$_wsetlocale_nolock 000000014004ff34     libucrt:wsetlocale.obj
 0002:00017f58       $unwind$__acrt_uninitialize_locale 000000014004ff58     libucrt:wsetlocale.obj
 0002:00017f58       $unwind$__acrt_get_sigabrt_handler 000000014004ff58     libucrt:signal.obj
 0002:00017f60       $unwind$??R<lambda_b163b37eafe0a13f2c371fafeb0365c9>@@QEBA@XZ 000000014004ff60     libucrt:wsetlocale.obj
 0002:00017f6c       $unwind$??$?RV<lambda_410d79af7f07d98d83a3f525b3859a53>@@AEAV<lambda_3e16ef9562a7dcce91392c22ab16ea36>@@V<lambda_38119f0e861e05405d8a144b9b982f0a>@@@?$__crt_seh_guarded_call@X@@QEAAX$$QEAV<lambda_410d79af7f07d98d83a3f525b3859a53>@@AEAV<lambda_3e16ef9562a7dcce91392c22ab16ea36>@@$$QEAV<lambda_38119f0e861e05405d8a144b9b982f0a>@@@Z 000000014004ff6c     libucrt:wsetlocale.obj
 0002:00017f94       $unwind$??$?RV<lambda_9529fede68560d7205a1271ab16b352e>@@AEAV<lambda_ebf8c556deb379764da826e7bb46e993>@@V<lambda_db92443d3c9ace7c8a20b950bb983b5a>@@@?$__crt_seh_guarded_call@X@@QEAAX$$QEAV<lambda_9529fede68560d7205a1271ab16b352e>@@AEAV<lambda_ebf8c556deb379764da826e7bb46e993>@@$$QEAV<lambda_db92443d3c9ace7c8a20b950bb983b5a>@@@Z 000000014004ff94     libucrt:wsetlocale.obj
 0002:00017fb8       $unwind$??$?RV<lambda_d8a01803c7231904df012bb083be9e3a>@@AEAV<lambda_b163b37eafe0a13f2c371fafeb0365c9>@@AEAV<lambda_8dff2cf36a5417162780cd64fa2883ef>@@@?$__crt_seh_guarded_call@X@@QEAAX$$QEAV<lambda_d8a01803c7231904df012bb083be9e3a>@@AEAV<lambda_b163b37eafe0a13f2c371fafeb0365c9>@@AEAV<lambda_8dff2cf36a5417162780cd64fa2883ef>@@@Z 000000014004ffb8     libucrt:wsetlocale.obj
 0002:00017fd8       $unwind$_mbstowcs_s_l      000000014004ffd8     libucrt:mbstowcs.obj
 0002:00017ff0       $unwind$?_mbstowcs_l_helper@@YA_KPEA_WPEBD_KPEAU__crt_locale_pointers@@@Z 000000014004fff0     libucrt:mbstowcs.obj
 0002:0001800c       $unwind$?_wcstombs_l_helper@@YA_KPEADPEB_W_KPEAU__crt_locale_pointers@@@Z 000000014005000c     libucrt:wcstombs.obj
 0002:0001802c       $unwind$__acrt_locale_free_lc_time_if_unreferenced 000000014005002c     libucrt:locale_refcounting.obj
 0002:0001802c       $unwind$__acrt_locale_free_numeric 000000014005002c     libucrt:initnum.obj
 0002:0001802c       $unwind$_free_base         000000014005002c     libucrt:free_base.obj
 0002:0001802c       $unwind$?destroy_fls@@YAXPEAX@Z 000000014005002c     libucrt:per_thread_data.obj
 0002:00018034       $unwind$?construct_ptd_array@@YAXQEAU__acrt_ptd@@@Z 0000000140050034     libucrt:per_thread_data.obj
 0002:0001803c       $unwind$?destroy_ptd_array@@YAXQEAU__acrt_ptd@@@Z 000000014005003c     libucrt:per_thread_data.obj
 0002:00018044       $unwind$??$?RV<lambda_0ae27a3a962d80f24befdcbee591983d>@@AEAV<lambda_8d0ee55de4b1038c4002e0adecdf1839>@@V<lambda_dc504788e8f1664fe9b84e20bfb512f2>@@@?$__crt_seh_guarded_call@X@@QEAAX$$QEAV<lambda_0ae27a3a962d80f24befdcbee591983d>@@AEAV<lambda_8d0ee55de4b1038c4002e0adecdf1839>@@$$QEAV<lambda_dc504788e8f1664fe9b84e20bfb512f2>@@@Z 0000000140050044     libucrt:per_thread_data.obj
 0002:00018068       $unwind$??$?RV<lambda_aa87e3671a710a21b5dc78c0bdf72e11>@@AEAV<lambda_92619d2358a28f41a33ba319515a20b9>@@V<lambda_6992ecaafeb10aed2b74cb1fae11a551>@@@?$__crt_seh_guarded_call@X@@QEAAX$$QEAV<lambda_aa87e3671a710a21b5dc78c0bdf72e11>@@AEAV<lambda_92619d2358a28f41a33ba319515a20b9>@@$$QEAV<lambda_6992ecaafeb10aed2b74cb1fae11a551>@@@Z 0000000140050068     libucrt:per_thread_data.obj
 0002:0001808c       $unwind$??$?RV<lambda_f2e299630e499de9f9a165e60fcd3db5>@@AEAV<lambda_2ae9d31cdba2644fcbeaf08da7c24588>@@V<lambda_40d01ff24d0e7b3814fdbdcee8eab3c7>@@@?$__crt_seh_guarded_call@X@@QEAAX$$QEAV<lambda_f2e299630e499de9f9a165e60fcd3db5>@@AEAV<lambda_2ae9d31cdba2644fcbeaf08da7c24588>@@$$QEAV<lambda_40d01ff24d0e7b3814fdbdcee8eab3c7>@@@Z 000000014005008c     libucrt:per_thread_data.obj
 0002:000180b0       $unwind$??$?RV<lambda_2d41944a1d46af3157314b8a01080d33>@@AEAV<lambda_8f455de75cd7d7f24b4096f044d8b9e6>@@V<lambda_aa500f224e6afead328df44964fe2772>@@@?$__crt_seh_guarded_call@X@@QEAAX$$QEAV<lambda_2d41944a1d46af3157314b8a01080d33>@@AEAV<lambda_8f455de75cd7d7f24b4096f044d8b9e6>@@$$QEAV<lambda_aa500f224e6afead328df44964fe2772>@@@Z 00000001400500b0     libucrt:per_thread_data.obj
 0002:000180d4       $unwind$__vcrt_initialize_winapi_thunks 00000001400500d4     libvcruntime:winapi_downlevel.obj
 0002:000180d4       $unwind$__acrt_initialize_winapi_thunks 00000001400500d4     libucrt:winapi_thunks.obj
 0002:000180dc       $unwind$__acrt_EnumSystemLocalesEx 00000001400500dc     libucrt:winapi_thunks.obj
 0002:000180ec       $unwind$__acrt_CompareStringEx 00000001400500ec     libucrt:winapi_thunks.obj
 0002:000180ec       $unwind$__acrt_LCMapStringW 00000001400500ec     libucrt:lcmapstringw.obj
 0002:000180ec       $unwind$_sopen_nolock      00000001400500ec     libucrt:open.obj
 0002:000180ec       $unwind$__acrt_LCMapStringEx 00000001400500ec     libucrt:winapi_thunks.obj
 0002:000180ec       $unwind$?fp_format_e@@YAHQEBNQEAD_K12H_NIQEAU__crt_locale_pointers@@@Z 00000001400500ec     libucrt:cvt.obj
 0002:00018100       $unwind$??$?RV<lambda_bd00b5aa228bd7e7e5b2b5db5fd2933b>@@AEAV<lambda_777d11615145f89ee95b9466d285deeb>@@V<lambda_6e5e48fbd24f9f8f81b203eb3d877683>@@@?$__crt_seh_guarded_call@H@@QEAAH$$QEAV<lambda_bd00b5aa228bd7e7e5b2b5db5fd2933b>@@AEAV<lambda_777d11615145f89ee95b9466d285deeb>@@$$QEAV<lambda_6e5e48fbd24f9f8f81b203eb3d877683>@@@Z 0000000140050100     libucrt:winapi_thunks.obj
 0002:00018128       $unwind$??$write_buffer_nolock@D@@YA_NDV__crt_stdio_stream@@@Z 0000000140050128     libucrt:_flsbuf.obj
 0002:00018138       $unwind$__acrt_initialize_lowio 0000000140050138     libucrt:ioinit.obj
 0002:00018158       $unwind$?initialize_inherited_file_handles_nolock@@YAXXZ 0000000140050158     libucrt:ioinit.obj
 0002:00018174       $unwind$??$?RV<lambda_a37b2b86f63e897a80ea819b0eb08c01>@@AEAV<lambda_38ce7e780aa69e748d6df282ebc68efe>@@V<lambda_99fb1378e971ab6e7edea83e3a7a83a2>@@@?$__crt_seh_guarded_call@H@@QEAAH$$QEAV<lambda_a37b2b86f63e897a80ea819b0eb08c01>@@AEAV<lambda_38ce7e780aa69e748d6df282ebc68efe>@@$$QEAV<lambda_99fb1378e971ab6e7edea83e3a7a83a2>@@@Z 0000000140050174     libucrt:commit.obj
 0002:00018198       $unwind$_write             0000000140050198     libucrt:write.obj
 0002:000181c8       $unwind$_write_nolock      00000001400501c8     libucrt:write.obj
 0002:000181e0       $unwind$?write_requires_double_translation_nolock@@YA_NH@Z 00000001400501e0     libucrt:write.obj
 0002:000181ec       $unwind$?write_double_translated_ansi_nolock@@YA?AUwrite_result@?A0x17268360@@HQEBDI@Z 00000001400501ec     libucrt:write.obj
 0002:0001820c       $unwind$?write_text_utf16le_nolock@@YA?AUwrite_result@?A0x17268360@@HQEBDI@Z 000000014005020c     libucrt:write.obj
 0002:0001820c       $unwind$?write_text_ansi_nolock@@YA?AUwrite_result@?A0x17268360@@HQEBDI@Z 000000014005020c     libucrt:write.obj
 0002:0001822c       $unwind$?write_text_utf8_nolock@@YA?AUwrite_result@?A0x17268360@@HQEBDI@Z 000000014005022c     libucrt:write.obj
 0002:00018250       $unwind$_close             0000000140050250     libucrt:close.obj
 0002:00018250       $unwind$_commit            0000000140050250     libucrt:commit.obj
 0002:00018258       $unwind$??$?RV<lambda_751a882b2c74d4b022dec766aa51a29a>@@AEAV<lambda_628dfdc04ba53c8bfc02c9951375f3f5>@@V<lambda_f6c7be5f7998530c34de24c7437d6b54>@@@?$__crt_seh_guarded_call@H@@QEAAH$$QEAV<lambda_751a882b2c74d4b022dec766aa51a29a>@@AEAV<lambda_628dfdc04ba53c8bfc02c9951375f3f5>@@$$QEAV<lambda_f6c7be5f7998530c34de24c7437d6b54>@@@Z 0000000140050258     libucrt:close.obj
 0002:0001827c       $unwind$?__acrt_stdio_allocate_stream@@YA?AV__crt_stdio_stream@@XZ 000000014005027c     libucrt:stream.obj
 0002:0001829c       $unwind$__lc_wcstolc       000000014005029c     libucrt:wsetlocale.obj
 0002:0001829c       $unwind$__acrt_copy_path_to_wide_string 000000014005029c     libucrt:string_utilities.obj
 0002:0001829c       $unwind$??$create_environment@D@@YAQEAPEADQEAD@Z 000000014005029c     libucrt:environment_initialization.obj
 0002:000182b4       $unwind$_wctomb_s_l        00000001400502b4     libucrt:wctomb.obj
 0002:000182c4       $unwind$__acrt_fp_format   00000001400502c4     libucrt:cvt.obj
 0002:000182e0       $unwind$?fp_format_nan_or_infinity@@YAHW4__acrt_fp_class@@_NPEAD_K1@Z 00000001400502e0     libucrt:cvt.obj
 0002:000182f4       $unwind$?fp_format_e_internal@@YAHQEAD_KH_NIQEAU_strflt@@2QEAU__crt_locale_pointers@@@Z 00000001400502f4     libucrt:cvt.obj
 0002:0001830c       $unwind$?fp_format_a@@YAHQEBNPEAD_KQEAD2H_NIQEAU__crt_locale_pointers@@@Z 000000014005030c     libucrt:cvt.obj
 0002:00018328       $unwind$?fp_format_g@@YAHQEBNQEAD_K12H_NIQEAU__crt_locale_pointers@@@Z 0000000140050328     libucrt:cvt.obj
 0002:0001833c       $unwind$_invalid_parameter_noinfo_noreturn 000000014005033c     libucrt:invalid_parameter.obj
 0002:0001833c       $unwind$_log10_special     000000014005033c     libucrt:log_special.obj
 0002:0001833c       $unwind$atoi               000000014005033c     libucrt:atox.obj
 0002:0001833c       $unwind$_invalid_parameter_noinfo 000000014005033c     libucrt:invalid_parameter.obj
 0002:0001833c       $unwind$_dupenv_s          000000014005033c     libucrt:getenv.obj
 0002:0001833c       $unwind$wctomb_s           000000014005033c     libucrt:wctomb.obj
 0002:0001833c       $unwind$_wtol              000000014005033c     libucrt:atox.obj
 0002:0001833c       $unwind$fflush             000000014005033c     libucrt:fflush.obj
 0002:0001833c       $unwind$_itow_s            000000014005033c     libucrt:xtoa.obj
 0002:0001833c       $unwind$mbstowcs_s         000000014005033c     libucrt:mbstowcs.obj
 0002:0001833c       $unwind$_sopen_s           000000014005033c     libucrt:open.obj
 0002:00018344       $unwind$??$common_dupenv_s@D@@YAHQEAPEADQEA_KQEBDH2H@Z 0000000140050344     libucrt:getenv.obj
 0002:00018384       $unwind$?fin$0@?0???$common_dupenv_s@D@@YAHQEAPEADQEA_KQEBDH2H@Z@4HA 0000000140050384     libucrt:getenv.obj
 0002:0001838c       $unwind$?accumulate_inheritable_handles@@YA_NQEAPEAEQEA_K_N@Z 000000014005038c     libucrt:spawnv.obj
 0002:00018394       $unwind$??R<lambda_a094494068278ba5130ab06e1292f60a>@@QEBA_NXZ 0000000140050394     libucrt:spawnv.obj
 0002:000183b0       $unwind$??$common_spawnv@D@@YA_JHQEBDQEBQEBD1@Z 00000001400503b0     libucrt:spawnv.obj
 0002:000183cc       $unwind$??$?RV<lambda_a22f0c497e5168315e06dae667770027>@@AEAV<lambda_a094494068278ba5130ab06e1292f60a>@@V<lambda_24dc10c13f43218c635520766e23e324>@@@?$__crt_seh_guarded_call@_N@@QEAA_N$$QEAV<lambda_a22f0c497e5168315e06dae667770027>@@AEAV<lambda_a094494068278ba5130ab06e1292f60a>@@$$QEAV<lambda_24dc10c13f43218c635520766e23e324>@@@Z 00000001400503cc     libucrt:spawnv.obj
 0002:000183f0       $unwind$??$execute_command@D@@YA_JHQEBDQEBQEBD1@Z 00000001400503f0     libucrt:spawnv.obj
 0002:0001840c       $unwind$??$common_spawnvp@D@@YA_JHQEBDQEBQEBD1@Z 000000014005040c     libucrt:spawnvp.obj
 0002:0001842c       $unwind$_waccess_s         000000014005042c     libucrt:waccess.obj
 0002:0001843c       $unwind$_fcloseall         000000014005043c     libucrt:closeall.obj
 0002:00018460       $unwind$?common_ftell_translated_utf8_nolock@@YA_JV__crt_stdio_stream@@_J@Z 0000000140050460     libucrt:ftell.obj
 0002:00018488       $unwind$?common_ftell_read_mode_nolock@@YA_JV__crt_stdio_stream@@_J1@Z 0000000140050488     libucrt:ftell.obj
 0002:000184a4       $unwind$??$common_ftell@_J@@YA_JV__crt_stdio_stream@@@Z 00000001400504a4     libucrt:ftell.obj
 0002:000184c8       $unwind$_isctype_l         00000001400504c8     libucrt:isctype.obj
 0002:000184e4       $unwind$_except1           00000001400504e4     libucrt:fpexcept.obj
 0002:00018504       $unwind$_handle_exc        0000000140050504     libucrt:fpexcept.obj
 0002:00018520       $unwind$_umatherr          0000000140050520     libucrt:fpexcept.obj
 0002:00018528       $unwind$_raise_exc_ex      0000000140050528     libucrt:fpexcept.obj
 0002:0001853c       $unwind$_ctrlfp            000000014005053c     libucrt:fpctrl.obj
 0002:00018564       $unwind$??$common_lseek@_J@@YA_JH_JH@Z 0000000140050564     libucrt:lseek.obj
 0002:00018594       $unwind$_openfile          0000000140050594     libucrt:openfile.obj
 0002:000185a8       $unwind$__acrt_GetLocaleInfoA 00000001400505a8     libucrt:getlocaleinfoa.obj
 0002:000185c8       $unwind$?InternalGetLocaleInfoA@@YAHQEAU__crt_locale_pointers@@QEB_WKQEADH@Z 00000001400505c8     libucrt:getlocaleinfoa.obj
 0002:000185f0       $unwind$__acrt_GetStringTypeA 00000001400505f0     libucrt:getstringtypea.obj
 0002:00018618       $unwind$__acrt_LCMapStringA 0000000140050618     libucrt:lcmapstringa.obj
 0002:00018628       $unwind$?__acrt_LCMapStringA_stat@@YAHPEAU__crt_locale_pointers@@PEB_WKPEBDHPEADHHH@Z 0000000140050628     libucrt:lcmapstringa.obj
 0002:00018650       $unwind$raise              0000000140050650     libucrt:signal.obj
 0002:0001867c       $unwind$??$?RV<lambda_450d765d439847d4c735a33c368b5fc0>@@AEAV<lambda_44731a7d0e6d81c3e6aa82d741081786>@@V<lambda_601a2a7da3b7a96e9554ac7215c4b07c>@@@?$__crt_seh_guarded_call@P6AXH@Z@@QEAAP6AXH@Z$$QEAV<lambda_450d765d439847d4c735a33c368b5fc0>@@AEAV<lambda_44731a7d0e6d81c3e6aa82d741081786>@@$$QEAV<lambda_601a2a7da3b7a96e9554ac7215c4b07c>@@@Z 000000014005067c     libucrt:signal.obj
 0002:000186a0       $unwind$__acrt_initialize_fma3 00000001400506a0     libucrt:fma3_available.obj
 0002:000186a8       $unwind$_powf_special      00000001400506a8     libucrt:pow_special.obj
 0002:000186b8       $unwind$_pow_special       00000001400506b8     libucrt:pow_special.obj
 0002:000186c4       $unwind$_strnicmp_l        00000001400506c4     libucrt:strnicmp.obj
 0002:000186c4       $unwind$_wcsicmp_l         00000001400506c4     libucrt:wcsicmp.obj
 0002:000186c4       $unwind$__dcrt_write_console_w 00000001400506c4     libucrt:initcon.obj
 0002:000186d8       $unwind$__dcrt_lowio_ensure_console_output_initialized 00000001400506d8     libucrt:initcon.obj
 0002:000186d8       $unwind$isdigit            00000001400506d8     libucrt:_ctype.obj
 0002:000186d8       $unwind$_isleadbyte_l      00000001400506d8     libucrt:_wctype.obj
 0002:000186d8       $unwind$?getSystemCP@@YAHH@Z 00000001400506d8     libucrt:mbctype.obj
 0002:000186d8       $unwind$islower            00000001400506d8     libucrt:_ctype.obj
 0002:000186d8       $unwind$isupper            00000001400506d8     libucrt:_ctype.obj
 0002:000186e0       $unwind$??$common_expand_argv_wildcards@D@@YAHQEAPEADQEAPEAPEAD@Z 00000001400506e0     libucrt:argv_wildcards.obj
 0002:000186f8       $unwind$??$copy_and_add_argument_to_buffer@D@@YAHQEBD0_KAEAV?$argument_list@D@?A0x5f5c8891@@@Z 00000001400506f8     libucrt:argv_wildcards.obj
 0002:000186f8       $unwind$_wsetlocale_get_all 00000001400506f8     libucrt:wsetlocale.obj
 0002:00018714       $unwind$??$expand_argument_wildcards@D@@YAHQEAD0AEAV?$argument_list@D@?A0x5f5c8891@@@Z 0000000140050714     libucrt:argv_wildcards.obj
 0002:00018734       $unwind$_setmbcp_nolock    0000000140050734     libucrt:mbctype.obj
 0002:00018754       $unwind$?setSBUpLow@@YAXPEAU__crt_multibyte_data@@@Z 0000000140050754     libucrt:mbctype.obj
 0002:00018770       $unwind$?update_thread_multibyte_data_internal@@YAPEAU__crt_multibyte_data@@QEAU__acrt_ptd@@QEAU1@@Z 0000000140050770     libucrt:mbctype.obj
 0002:00018798       $unwind$?setmbcp_internal@@YAHH_NQEAU__acrt_ptd@@QEAPEAU__crt_multibyte_data@@@Z 0000000140050798     libucrt:mbctype.obj
 0002:000187a8       $unwind$??$?RV<lambda_efdfa57d1f175319df784efa44bb7b81>@@AEAV<lambda_5f0a4c1567f8adc6734073e5d1e1b35c>@@V<lambda_2e8a7d3640ea6ccb4c2413664c2db6fd>@@@?$__crt_seh_guarded_call@X@@QEAAX$$QEAV<lambda_efdfa57d1f175319df784efa44bb7b81>@@AEAV<lambda_5f0a4c1567f8adc6734073e5d1e1b35c>@@$$QEAV<lambda_2e8a7d3640ea6ccb4c2413664c2db6fd>@@@Z 00000001400507a8     libucrt:mbctype.obj
 0002:000187d0       $unwind$??$common_set_variable_in_environment_nolock@D@@YAHQEADH@Z 00000001400507d0     libucrt:setenv.obj
 0002:000187e8       $unwind$??$copy_environment@D@@YAPEAPEADQEAPEAD@Z 00000001400507e8     libucrt:setenv.obj
 0002:000187fc       $unwind$_alloc_osfhnd      00000001400507fc     libucrt:osfinfo.obj
 0002:0001882c       $unwind$_free_osfhnd       000000014005082c     libucrt:osfinfo.obj
 0002:0001883c       $unwind$__acrt_lowio_destroy_handle_array 000000014005083c     libucrt:osfinfo.obj
 0002:0001884c       $unwind$__acrt_lowio_ensure_fh_exists 000000014005084c     libucrt:osfinfo.obj
 0002:00018878       $unwind$__acrt_locale_free_monetary 0000000140050878     libucrt:initmon.obj
 0002:00018880       $unwind$__acrt_locale_free_time 0000000140050880     libucrt:inittime.obj
 0002:00018890       $unwind$?initialize_lc_time@@YA_NQEAU__crt_lc_time_data@@QEAU__crt_locale_data@@@Z 0000000140050890     libucrt:inittime.obj
 0002:00018890       $unwind$__acrt_locale_initialize_monetary 0000000140050890     libucrt:initmon.obj
 0002:000188ac       $unwind$__acrt_update_thread_locale_data 00000001400508ac     libucrt:locale_refcounting.obj
 0002:000188d0       $unwind$__acrt_get_qualified_locale 00000001400508d0     libucrt:get_qualified_locale.obj
 0002:000188ec       $unwind$LangCountryEnumProcEx 00000001400508ec     libucrt:get_qualified_locale.obj
 0002:0001890c       $unwind$LanguageEnumProcEx 000000014005090c     libucrt:get_qualified_locale.obj
 0002:00018928       $unwind$GetLocaleNameFromDefault 0000000140050928     libucrt:get_qualified_locale.obj
 0002:00018940       $unwind$TestDefaultCountry 0000000140050940     libucrt:get_qualified_locale.obj
 0002:00018954       $unwind$__acrt_get_qualified_locale_downlevel 0000000140050954     libucrt:getqloc_downlevel.obj
 0002:00018970       $unwind$LangCountryEnumProc 0000000140050970     libucrt:getqloc_downlevel.obj
 0002:00018990       $unwind$LanguageEnumProc   0000000140050990     libucrt:getqloc_downlevel.obj
 0002:000189ac       $unwind$CountryEnumProc    00000001400509ac     libucrt:getqloc_downlevel.obj
 0002:000189cc       $unwind$?GetTableIndexFromLocaleName@@YAHPEB_W@Z 00000001400509cc     libucrt:lcidtoname_downlevel.obj
 0002:000189e4       $unwind$__acrt_fltout      00000001400509e4     libucrt:cfout.obj
 0002:00018a04       $unwind$_read              0000000140050a04     libucrt:read.obj
 0002:00018a34       $unwind$_read_nolock       0000000140050a34     libucrt:read.obj
 0002:00018a48       $unwind$?translate_ansi_or_utf8_nolock@@YAHHQEAD_KQEA_W1@Z 0000000140050a48     libucrt:read.obj
 0002:00018a60       $unwind$??$translate_text_mode_nolock@D@@YAHHQEAD_K@Z 0000000140050a60     libucrt:read.obj
 0002:00018a78       $unwind$??$translate_text_mode_nolock@_W@@YAHHQEA_W_K@Z 0000000140050a78     libucrt:read.obj
 0002:00018a90       $unwind$_strnicoll_l       0000000140050a90     libucrt:strnicol.obj
 0002:00018aa4       $unwind$__acrt_pack_narrow_command_line_and_environment 0000000140050aa4     libucrt:cenvarg.obj
 0002:00018ac0       $unwind$??$construct_environment_block@D@@YAHQEBQEBDQEAPEAD@Z 0000000140050ac0     libucrt:cenvarg.obj
 0002:00018ae0       $xdatasym                  0000000140050ae0     libucrt:fpsr.obj
 0002:00018ae8       $unwind$?fp_format_f_internal@@YAHQEAD_KHQEAU_strflt@@_NQEAU__crt_locale_pointers@@@Z 0000000140050ae8     libucrt:cvt.obj
 0002:00018ae8       $unwind$__dcrt_get_narrow_environment_from_os 0000000140050ae8     libucrt:get_environment_from_os.obj
 0002:00018ae8       $unwind$_wcsnicmp_l        0000000140050ae8     libucrt:wcsnicmp.obj
 0002:00018b00       $xdatasym                  0000000140050b00     libucrt:strncmp.obj
 0002:00018b04       $unwind$_wsopen_nolock     0000000140050b04     libucrt:open.obj
 0002:00018b20       $unwind$??$common_sopen_dispatch@D@@YAHQEBDHHHQEAHH@Z 0000000140050b20     libucrt:open.obj
 0002:00018b44       $unwind$?fin$0@?0???$common_sopen_dispatch@D@@YAHQEBDHHHQEAHH@Z@4HA 0000000140050b44     libucrt:open.obj
 0002:00018b4c       $unwind$?decode_options@@YA?AUfile_options@?A0xa9d50aae@@HHH@Z 0000000140050b4c     libucrt:open.obj
 0002:00018b60       $unwind$?truncate_ctrl_z_if_present@@YAHH@Z 0000000140050b60     libucrt:open.obj
 0002:00018b70       $unwind$?configure_text_mode@@YAHHUfile_options@?A0xa9d50aae@@HAEAW4__crt_lowio_text_mode@@@Z 0000000140050b70     libucrt:open.obj
 0002:00018b70       $unwind$?state_case_type@?$output_processor@DV?$string_output_adapter@D@__crt_stdio_output@@V?$format_validation_base@DV?$string_output_adapter@D@__crt_stdio_output@@@2@@__crt_stdio_output@@AEAA_NXZ 0000000140050b70     libucrt:output.obj
 0002:00018b88       $unwind$__acrt_fenv_set_control 0000000140050b88     libucrt:_fenvutils.obj
 0002:00018b98       $unwind$_call_matherr      0000000140050b98     libucrt:libm_error.obj
 0002:00018ba0       $unwind$_handle_error      0000000140050ba0     libucrt:libm_error.obj
 0002:00018ba0       $unwind$_handle_errorf     0000000140050ba0     libucrt:libm_error.obj
 0002:00018bc0       $unwind$_towlower_l        0000000140050bc0     libucrt:towlower.obj
 0002:00018bc8       $unwind$qsort              0000000140050bc8     libucrt:qsort.obj
 0002:00018be0       $chain$4$qsort             0000000140050be0     libucrt:qsort.obj
 0002:00018c04       $chain$5$qsort             0000000140050c04     libucrt:qsort.obj
 0002:00018c14       $unwind$?shortsort@@YAXPEAD0_KP6AHPEBX2@Z@Z 0000000140050c14     libucrt:qsort.obj
 0002:00018c24       $chain$2$?shortsort@@YAXPEAD0_KP6AHPEBX2@Z@Z 0000000140050c24     libucrt:qsort.obj
 0002:00018c40       $chain$3$?shortsort@@YAXPEAD0_KP6AHPEBX2@Z@Z 0000000140050c40     libucrt:qsort.obj
 0002:00018c50       $unwind$_mbsdec_l          0000000140050c50     libucrt:mbsdec.obj
 0002:00018c60       $xdatasym                  0000000140050c60     libucrt:log10.obj
 0002:00018c6c       $unwind$__acrt_CompareStringA 0000000140050c6c     libucrt:comparestringa.obj
 0002:00018c7c       $unwind$?InternalCompareStringA@@YAHPEAU__crt_locale_pointers@@PEB_WKPEBDH2HH@Z 0000000140050c7c     libucrt:comparestringa.obj
 0002:00018ca0       $unwind$_log_special_common 0000000140050ca0     libucrt:log_special.obj
 0002:00018cac       $unwind$_IsNonwritableInCurrentImage 0000000140050cac     LIBCMT:pesect.obj
 0002:00018cd0       $unwind$wcschr             0000000140050cd0     libvcruntime:wcschr.obj
 0002:00018cd0       $unwind$strchr             0000000140050cd0     libvcruntime:strchr.obj
 0002:00018cd0       $unwind$strrchr            0000000140050cd0     libvcruntime:strrchr.obj
 0002:000193ee       .idata$6                   00000001400513ee     winmm:WINMM.dll
 0002:0001951a       .idata$6                   000000014005151a     kernel32:KERNEL32.dll
 0002:00019534       .idata$6                   0000000140051534     user32:USER32.dll
 0002:00019556       .idata$6                   0000000140051556     urlmon:urlmon.dll
 0003:00000000       ?init@std@@3JA             0000000140052000     libcpmt:xlock.obj
 0003:00000010       ?atcount_cdecl@@3_KA       0000000140052010     libcpmt:iosptrs.obj
 0003:000000c0       ?__vcrt_flsindex@@3KA      00000001400520c0     libvcruntime:per_thread_data.obj
 0003:00000280       ?errno_no_memory@@3HA      0000000140052280     libucrt:errno.obj
 0003:00000284       ?doserrno_no_memory@@3KA   0000000140052284     libucrt:errno.obj
 0003:000002a0       _ctype_loc_style           00000001400522a0     libucrt:wsetlocale.obj
 0003:000002a8       ?__acrt_flsindex@@3KA      00000001400522a8     libucrt:per_thread_data.obj
 0003:0000046c       ?dazSupported@?1??_ctrlfp@@9@9 000000014005246c     libucrt:fpctrl.obj
 0003:00000470       ?tzstd_program@@3PADA      0000000140052470     libucrt:timeset.obj
 0003:000004b0       ?tzdst_program@@3PADA      00000001400524b0     libucrt:timeset.obj
 0003:000004f0       ?tzname_states@@3PAY01PEADA 00000001400524f0     libucrt:timeset.obj
 0003:00000500       _mbctypes                  0000000140052500     libucrt:mbctype.obj
 0003:00000610       _mbcasemaps                0000000140052610     libucrt:mbctype.obj
 0003:00000710       ?__rgctypeflag@@3PADA      0000000140052710     libucrt:mbctype.obj
 0003:00000720       ?__rgcode_page_info@@3PAUcode_page_info@@A 0000000140052720     libucrt:mbctype.obj
 0003:00000b40       ?__dcrt_lowio_console_output_handle@@3PEAXEA 0000000140052b40     libucrt:initcon.obj
 0003:000013d0       ?initlocks@std@@3V_Init_locks@1@A 00000001400533d0     libcpmt:xlock.obj
 0003:000013e0       ?mtx@std@@3PAU_RTL_CRITICAL_SECTION@@A 00000001400533e0     libcpmt:xlock.obj
 0003:00001520       ?initlocks@@3V_Init_locks@std@@A 0000000140053520     libcpmt:cout.obj
 0003:00001521       ?init_cout@std@@3U_Init_cout@1@A 0000000140053521     libcpmt:cout.obj
 0003:000015a0       ?fout@std@@3V?$basic_filebuf@DU?$char_traits@D@std@@@1@A 00000001400535a0     libcpmt:cout.obj
 0003:00001638       ?_Fac_head@std@@3PEAU_Fac_node@1@EA 0000000140053638     libcpmt:locale0.obj
 0003:00001650       global_locale              0000000140053650     libcpmt:locale0.obj
 0003:00001678       ?classic_locale@std@@3Vlocale@1@A 0000000140053678     libcpmt:locale0.obj
 0003:00001690       ?_Fac_tidy_reg@std@@3U_Fac_tidy_reg_t@1@B 0000000140053690     libcpmt:locale0.obj
 0003:00001691       ?registered@?1??_Setgloballocale@locale@std@@CAXPEAX@Z@4_NA 0000000140053691     libcpmt:locale0.obj
 0003:000016a0       ?initlocks@@3V_Init_locks@std@@A 00000001400536a0     libcpmt:cin.obj
 0003:000016a1       ?init_cin@std@@3U_Init_cin@1@A 00000001400536a1     libcpmt:cin.obj
 0003:000016b0       ?fin@std@@3V?$basic_filebuf@DU?$char_traits@D@std@@@1@A 00000001400536b0     libcpmt:cin.obj
 0003:000017e0       ?stdstr@std@@3PAPEAVios_base@1@A 00000001400537e0     libcpmt:ios.obj
 0003:00001830       ?stdopens@std@@3PADA       0000000140053830     libcpmt:ios.obj
 0003:000019c0       ?atfuns_cdecl@@3PAP6AXXZA  00000001400539c0     libcpmt:iosptrs.obj
 0003:00001a10       ?initlocks@std@@3V_Init_locks@1@A 0000000140053a10     libcpmt:iosptrs.obj
 0003:00001a11       ?init_atexit@@3U_Init_atexit@@A 0000000140053a11     libcpmt:iosptrs.obj
 0003:00001b14       ?module_local_atexit_table_initialized@@3_NA 0000000140053b14     LIBCMT:utility.obj
 0003:00001b20       ?module_local_atexit_table@@3U_onexit_table_t@@A 0000000140053b20     LIBCMT:utility.obj
 0003:00001b38       ?module_local_at_quick_exit_table@@3U_onexit_table_t@@A 0000000140053b38     LIBCMT:utility.obj
 0003:00001b50       ?is_initialized_as_dll@@3_NA 0000000140053b50     LIBCMT:utility.obj
 0003:00001b60       GS_ExceptionRecord         0000000140053b60     LIBCMT:gs_report.obj
 0003:00001c00       GS_ContextRecord           0000000140053c00     LIBCMT:gs_report.obj
 0003:00002100       ?__vcrt_startup_thread_ptd@@3U__vcrt_ptd@@A 0000000140054100     libvcruntime:per_thread_data.obj
 0003:00002180       __vcrt_lock_table          0000000140054180     libvcruntime:locks.obj
 0003:000021a8       __vcrt_locks_initialized   00000001400541a8     libvcruntime:locks.obj
 0003:000021b0       ?module_handles@@3PAPEAUHINSTANCE__@@A 00000001400541b0     libvcruntime:winapi_downlevel.obj
 0003:000021c8       ?encoded_function_pointers@@3PAPEAXA 00000001400541c8     libvcruntime:winapi_downlevel.obj
 0003:00002238       ?heap@@3V_HeapManager@@A   0000000140054238     libvcruntime:undname.obj
 0003:00002260       ?__acrt_invalid_parameter_handler@@3V?$dual_state_global@P6AXPEB_W00I_K@Z@__crt_state_management@@A 0000000140054260     libucrt:invalid_parameter.obj
 0003:00002290       ?__acrt_lock_table@@3PAU_RTL_CRITICAL_SECTION@@A 0000000140054290     libucrt:locks.obj
 0003:000024c0       ?__acrt_locks_initialized@@3IA 00000001400544c0     libucrt:locks.obj
 0003:000024c8       ?__acrt_new_handler@@3V?$dual_state_global@P6AH_K@Z@__crt_state_management@@A 00000001400544c8     libucrt:new_handler.obj
 0003:000024d0       ?c_termination_complete@@3JA 00000001400544d0     libucrt:exit.obj
 0003:000024d8       ?thread_local_exit_callback_func@@3P6AXPEAXK0@ZEA 00000001400544d8     libucrt:exit.obj
 0003:000024f0       ?program_name@?1???$common_configure_argv@D@@YAHW4_crt_argv_mode@@@Z@4PADA 00000001400544f0     libucrt:argv_parsing.obj
 0003:00002648       ?__acrt_app_type@@3W4_crt_app_type@@A 0000000140054648     libucrt:report_runtime_error.obj
 0003:00002650       ?user_matherr@@3V?$dual_state_global@P6AHPEAU_exception@@@Z@__crt_state_management@@A 0000000140054650     libucrt:matherr.obj
 0003:0000268c       ?__acrt_global_new_mode@@3V?$dual_state_global@J@__crt_state_management@@A 000000014005468c     libucrt:new_mode.obj
 0003:000026a0       ?module_handles@@3PAPEAUHINSTANCE__@@A 00000001400546a0     libucrt:winapi_thunks.obj
 0003:00002740       ?encoded_function_pointers@@3PAPEAXA 0000000140054740     libucrt:winapi_thunks.obj
 0003:00002850       ?static_enum_proc@?1??enum_system_locales_ex_nolock@@YAHQ6AHPEA_WK_J@Z@Z@4P6AH0K1@ZEA 0000000140054850     libucrt:winapi_thunks.obj
 0003:00002c68       ?enable_percent_n@@3_KA    0000000140054c68     libucrt:printf_count_output.obj
 0003:00002c90       ?ctrlc_action@@3V?$dual_state_global@P6AXH@Z@__crt_state_management@@A 0000000140054c90     libucrt:signal.obj
 0003:00002c98       ?ctrlbreak_action@@3V?$dual_state_global@P6AXH@Z@__crt_state_management@@A 0000000140054c98     libucrt:signal.obj
 0003:00002ca0       ?abort_action@@3V?$dual_state_global@P6AXH@Z@__crt_state_management@@A 0000000140054ca0     libucrt:signal.obj
 0003:00002ca8       ?term_action@@3V?$dual_state_global@P6AXH@Z@__crt_state_management@@A 0000000140054ca8     libucrt:signal.obj
 0003:00002cc8       ?_tzname@@3V?$dual_state_global@PEAPEAD@__crt_state_management@@A 0000000140054cc8     libucrt:timeset.obj
 0003:00002cd0       ?tz_api_used@@3HA          0000000140054cd0     libucrt:tzset.obj
 0003:00002ce0       ?tz_info@@3U_TIME_ZONE_INFORMATION@@A 0000000140054ce0     libucrt:tzset.obj
 0003:00002da8       ?fSystemSet@@3HA           0000000140054da8     libucrt:mbctype.obj
 0003:00002dac       ?initialized@?1??__acrt_initialize_multibyte@@9@4_NA 0000000140054dac     libucrt:mbctype.obj
 0003:00002e00       ?Numer_zasobu_rar@@3V?$map@V?$basic_string@DU?$char_traits@D@std@@V?$allocator@D@2@@std@@GU?$less@V?$basic_string@DU?$char_traits@D@std@@V?$allocator@D@2@@std@@@2@V?$allocator@U?$pair@$$CBV?$basic_string@DU?$char_traits@D@std@@V?$allocator@D@2@@std@@G@std@@@2@@std@@B 0000000140054e00     main.obj
 0003:00002e10       ?Ruletka_plansza_kolor_col@@3V?$deque@GV?$allocator@G@std@@@std@@B 0000000140054e10     main.obj
 0004:00000000       $pdata$??__ERuletka_plansza_kolor_col@@YAXXZ 0000000140055000     main.obj
 0004:0000000c       $pdata$??__ENumer_zasobu_rar@@YAXXZ 000000014005500c     main.obj
 0004:00000018       $pdata$??__ENazwa_g³osu@@YAXXZ 0000000140055018     main.obj
 0004:00000024       $pdata$??__Einitlocks@std@@YAXXZ 0000000140055024     libcpmt:xlock.obj
 0004:00000030       $pdata$??__Ecout@std@@YAXXZ 0000000140055030     libcpmt:cout.obj
 0004:0000003c       $pdata$??__Efout@std@@YAXXZ 000000014005503c     libcpmt:cout.obj
 0004:00000048       $pdata$??__Einitlocks@@YAXXZ 0000000140055048     libcpmt:cout.obj
 0004:00000054       $pdata$??__Ecin@std@@YAXXZ 0000000140055054     libcpmt:cin.obj
 0004:00000060       $pdata$??__Efin@std@@YAXXZ 0000000140055060     libcpmt:cin.obj
 0004:0000006c       $pdata$??__Einitlocks@@YAXXZ 000000014005506c     libcpmt:cin.obj
 0004:00000078       $pdata$??__Einitlocks@std@@YAXXZ 0000000140055078     libcpmt:iosptrs.obj
 0004:00000084       $pdata$??0exception@std@@QEAA@AEBV01@@Z 0000000140055084     main.obj
 0004:00000090       $pdata$??_Glength_error@std@@UEAAPEAXI@Z 0000000140055090     libcpmt:xthrow.obj
 0004:00000090       $pdata$??_Glogic_error@std@@UEAAPEAXI@Z 0000000140055090     libcpmt:xthrow.obj
 0004:00000090       $pdata$??_Gout_of_range@std@@UEAAPEAXI@Z 0000000140055090     libcpmt:xthrow.obj
 0004:00000090       $pdata$??_Gbad_array_new_length@std@@UEAAPEAXI@Z 0000000140055090     LIBCMT:throw_bad_alloc.obj
 0004:00000090       $pdata$??_Gbad_exception@std@@UEAAPEAXI@Z 0000000140055090     libvcruntime:frame.obj
 0004:00000090       $pdata$??_Gexception@std@@UEAAPEAXI@Z 0000000140055090     main.obj
 0004:00000090       $pdata$??_Gbad_alloc@std@@UEAAPEAXI@Z 0000000140055090     libcpmt:xthrow.obj
 0004:00000090       $pdata$??_Gruntime_error@std@@UEAAPEAXI@Z 0000000140055090     main.obj
 0004:0000009c       $pdata$sprintf_s           000000014005509c     main.obj
 0004:000000a8       $pdata$??0runtime_error@std@@QEAA@PEBD@Z 00000001400550a8     main.obj
 0004:000000b4       $pdata$??0_Locinfo@std@@QEAA@PEBD@Z 00000001400550b4     main.obj
 0004:000000c0       $pdata$??1_Locinfo@std@@QEAA@XZ 00000001400550c0     main.obj
 0004:000000cc       $pdata$??0runtime_error@std@@QEAA@AEBV01@@Z 00000001400550cc     main.obj
 0004:000000d8       $pdata$??_G_Facet_base@std@@UEAAPEAXI@Z 00000001400550d8     main.obj
 0004:000000e4       $pdata$??1locale@std@@QEAA@XZ 00000001400550e4     main.obj
 0004:000000f0       $pdata$?do_tolower@?$ctype@D@std@@MEBAPEBDPEADPEBD@Z 00000001400550f0     main.obj
 0004:000000fc       $pdata$0$?do_tolower@?$ctype@D@std@@MEBAPEBDPEADPEBD@Z 00000001400550fc     main.obj
 0004:00000108       $pdata$1$?do_tolower@?$ctype@D@std@@MEBAPEBDPEADPEBD@Z 0000000140055108     main.obj
 0004:00000114       $pdata$?do_toupper@?$ctype@D@std@@MEBAPEBDPEADPEBD@Z 0000000140055114     main.obj
 0004:00000120       $pdata$0$?do_toupper@?$ctype@D@std@@MEBAPEBDPEADPEBD@Z 0000000140055120     main.obj
 0004:0000012c       $pdata$1$?do_toupper@?$ctype@D@std@@MEBAPEBDPEADPEBD@Z 000000014005512c     main.obj
 0004:00000138       $pdata$?do_widen@?$ctype@D@std@@MEBAPEBDPEBD0PEAD@Z 0000000140055138     main.obj
 0004:00000144       $pdata$?do_narrow@?$ctype@D@std@@MEBAPEBDPEBD0DPEAD@Z 0000000140055144     main.obj
 0004:00000150       $pdata$??_G?$ctype@D@std@@MEAAPEAXI@Z 0000000140055150     main.obj
 0004:0000015c       $pdata$??_G_Iostream_error_category@std@@UEAAPEAXI@Z 000000014005515c     main.obj
 0004:0000015c       $pdata$??_Gerror_category@std@@UEAAPEAXI@Z 000000014005515c     main.obj
 0004:00000168       $pdata$?equivalent@error_category@std@@UEBA_NHAEBVerror_condition@2@@Z 0000000140055168     main.obj
 0004:00000174       $pdata$?make_error_code@std@@YA?AVerror_code@1@W4io_errc@1@@Z 0000000140055174     main.obj
 0004:00000180       $pdata$??_Gfailure@ios_base@std@@UEAAPEAXI@Z 0000000140055180     main.obj
 0004:00000180       $pdata$??_Gsystem_error@std@@UEAAPEAXI@Z 0000000140055180     main.obj
 0004:00000180       $pdata$??_G_System_error@std@@UEAAPEAXI@Z 0000000140055180     main.obj
 0004:0000018c       $pdata$?message@_Iostream_error_category@std@@UEBA?AV?$basic_string@DU?$char_traits@D@std@@V?$allocator@D@2@@2@H@Z 000000014005518c     main.obj
 0004:00000198       $pdata$0$?message@_Iostream_error_category@std@@UEBA?AV?$basic_string@DU?$char_traits@D@std@@V?$allocator@D@2@@2@H@Z 0000000140055198     main.obj
 0004:000001a4       $pdata$1$?message@_Iostream_error_category@std@@UEBA?AV?$basic_string@DU?$char_traits@D@std@@V?$allocator@D@2@@2@H@Z 00000001400551a4     main.obj
 0004:000001b0       $pdata$??0failure@ios_base@std@@QEAA@PEBDAEBVerror_code@2@@Z 00000001400551b0     main.obj
 0004:000001bc       $pdata$?clear@ios_base@std@@QEAAXH_N@Z 00000001400551bc     main.obj
 0004:000001c8       $pdata$??0failure@ios_base@std@@QEAA@AEBV012@@Z 00000001400551c8     main.obj
 0004:000001d4       $pdata$??0system_error@std@@QEAA@AEBV01@@Z 00000001400551d4     main.obj
 0004:000001e0       $pdata$??0_System_error@std@@QEAA@AEBV01@@Z 00000001400551e0     main.obj
 0004:000001ec       $pdata$??_Gios_base@std@@UEAAPEAXI@Z 00000001400551ec     main.obj
 0004:000001f8       $pdata$main                00000001400551f8     main.obj
 0004:00000204       $pdata$??_D?$basic_ofstream@DU?$char_traits@D@std@@@std@@QEAAXXZ 0000000140055204     main.obj
 0004:00000210       $pdata$??_D?$basic_fstream@DU?$char_traits@D@std@@@std@@QEAAXXZ 0000000140055210     main.obj
 0004:0000021c       $pdata$?Obstaw@@YA?AV?$basic_string@DU?$char_traits@D@std@@V?$allocator@D@2@@std@@XZ 000000014005521c     main.obj
 0004:00000228       $pdata$?Wczytaj_Kwotê_Zak³adu@@YAXAEAHAEBH@Z 0000000140055228     main.obj
 0004:00000234       $pdata$?Zakrêæ_Ruletk¹@@YAHXZ 0000000140055234     main.obj
 0004:00000240       $pdata$2$?Zakrêæ_Ruletk¹@@YAHXZ 0000000140055240     main.obj
 0004:0000024c       $pdata$6$?Zakrêæ_Ruletk¹@@YAHXZ 000000014005524c     main.obj
 0004:00000258       $pdata$7$?Zakrêæ_Ruletk¹@@YAHXZ 0000000140055258     main.obj
 0004:00000264       $pdata$8$?Zakrêæ_Ruletk¹@@YAHXZ 0000000140055264     main.obj
 0004:00000270       $pdata$9$?Zakrêæ_Ruletk¹@@YAHXZ 0000000140055270     main.obj
 0004:0000027c       $pdata$?SprawdŸ_Zak³ad@@YAHAEBHAEBV?$basic_string@DU?$char_traits@D@std@@V?$allocator@D@2@@std@@0@Z 000000014005527c     main.obj
 0004:00000288       $pdata$?Czy_Kontynuowaæ@@YA_NAEBH@Z 0000000140055288     main.obj
 0004:00000294       $pdata$?Odczytaj_Liczbê@@YAXAEBHAEBV?$basic_string@DU?$char_traits@D@std@@V?$allocator@D@2@@std@@@Z 0000000140055294     main.obj
 0004:000002a0       $pdata$??_D?$basic_stringstream@DU?$char_traits@D@std@@V?$allocator@D@2@@std@@QEAAXXZ 00000001400552a0     main.obj
 0004:000002ac       $pdata$?__autoclassinit2@?$basic_stringstream@DU?$char_traits@D@std@@V?$allocator@D@2@@std@@QEAAX_K@Z 00000001400552ac     main.obj
 0004:000002b8       $pdata$?Wczytaj_z_Pliku@@YAXAEAV?$basic_ofstream@DU?$char_traits@D@std@@@std@@AEAV?$basic_fstream@DU?$char_traits@D@std@@@2@AEADAEAH33AEAV?$basic_string@DU?$char_traits@D@std@@V?$allocator@D@2@@2@@Z 00000001400552b8     main.obj
 0004:000002c4       $pdata$?SprawdŸ_Pliki@@YAXXZ 00000001400552c4     main.obj
 0004:000002d0       $pdata$?SprawdŸ_Ustawienia@@YAXXZ 00000001400552d0     main.obj
 0004:000002dc       $pdata$??_D?$basic_ifstream@DU?$char_traits@D@std@@@std@@QEAAXXZ 00000001400552dc     main.obj
 0004:000002e8       $pdata$?Og³oœ_Wynik@@YAXAEBH0AEAHAEAV?$basic_ofstream@DU?$char_traits@D@std@@@std@@AEAV?$basic_fstream@DU?$char_traits@D@std@@@2@@Z 00000001400552e8     main.obj
 0004:000002f4       $pdata$?Koniec_Gry@@YAXAEAV?$basic_ofstream@DU?$char_traits@D@std@@@std@@AEAV?$basic_fstream@DU?$char_traits@D@std@@@2@AEBH@Z 00000001400552f4     main.obj
 0004:00000300       $pdata$?Pêtla_G³ówna@@YAXAEAH00AEAV?$basic_ofstream@DU?$char_traits@D@std@@@std@@AEAV?$basic_fstream@DU?$char_traits@D@std@@@2@AEADAEAV?$basic_string@DU?$char_traits@D@std@@V?$allocator@D@2@@2@0@Z 0000000140055300     main.obj
 0004:0000030c       $pdata$1$?Pêtla_G³ówna@@YAXAEAH00AEAV?$basic_ofstream@DU?$char_traits@D@std@@@std@@AEAV?$basic_fstream@DU?$char_traits@D@std@@@2@AEADAEAV?$basic_string@DU?$char_traits@D@std@@V?$allocator@D@2@@2@0@Z 000000014005530c     main.obj
 0004:00000318       $pdata$2$?Pêtla_G³ówna@@YAXAEAH00AEAV?$basic_ofstream@DU?$char_traits@D@std@@@std@@AEAV?$basic_fstream@DU?$char_traits@D@std@@@2@AEADAEAV?$basic_string@DU?$char_traits@D@std@@V?$allocator@D@2@@2@0@Z 0000000140055318     main.obj
 0004:00000324       $pdata$3$?Pêtla_G³ówna@@YAXAEAH00AEAV?$basic_ofstream@DU?$char_traits@D@std@@@std@@AEAV?$basic_fstream@DU?$char_traits@D@std@@@2@AEADAEAV?$basic_string@DU?$char_traits@D@std@@V?$allocator@D@2@@2@0@Z 0000000140055324     main.obj
 0004:00000330       $pdata$?Ustaw_Ustawienia@@YAXAEAV?$basic_string@DU?$char_traits@D@std@@V?$allocator@D@2@@std@@@Z 0000000140055330     main.obj
 0004:0000033c       $pdata$?Wyci¹gnij_z_Programu@@YA_NAEBV?$basic_string@DU?$char_traits@D@std@@V?$allocator@D@2@@std@@G@Z 000000014005533c     main.obj
 0004:00000348       $pdata$0$?Wyci¹gnij_z_Programu@@YA_NAEBV?$basic_string@DU?$char_traits@D@std@@V?$allocator@D@2@@std@@G@Z 0000000140055348     main.obj
 0004:00000354       $pdata$1$?Wyci¹gnij_z_Programu@@YA_NAEBV?$basic_string@DU?$char_traits@D@std@@V?$allocator@D@2@@std@@G@Z 0000000140055354     main.obj
 0004:00000360       $pdata$?Wypakuj_Rar@@YAXAEBV?$basic_string@DU?$char_traits@D@std@@V?$allocator@D@2@@std@@@Z 0000000140055360     main.obj
 0004:0000036c       $pdata$?Przenieœ_Plik@@YA_NAEBV?$basic_string@DU?$char_traits@D@std@@V?$allocator@D@2@@std@@0@Z 000000014005536c     main.obj
 0004:00000378       $pdata$?Usuñ_Folder_Wypakowany_i_Winrar@@YAXAEBV?$basic_string@DU?$char_traits@D@std@@V?$allocator@D@2@@std@@@Z 0000000140055378     main.obj
 0004:00000384       $pdata$??1?$_Tree@V?$_Tmap_traits@V?$basic_string@DU?$char_traits@D@std@@V?$allocator@D@2@@std@@GU?$less@V?$basic_string@DU?$char_traits@D@std@@V?$allocator@D@2@@std@@@2@V?$allocator@U?$pair@$$CBV?$basic_string@DU?$char_traits@D@std@@V?$allocator@D@2@@std@@G@std@@@2@$0A@@std@@@std@@QEAA@XZ 0000000140055384     main.obj
 0004:00000390       $pdata$?at@?$map@V?$basic_string@DU?$char_traits@D@std@@V?$allocator@D@2@@std@@GU?$less@V?$basic_string@DU?$char_traits@D@std@@V?$allocator@D@2@@std@@@2@V?$allocator@U?$pair@$$CBV?$basic_string@DU?$char_traits@D@std@@V?$allocator@D@2@@std@@G@std@@@2@@std@@QEBAAEBGAEBV?$basic_string@DU?$char_traits@D@std@@V?$allocator@D@2@@2@@Z 0000000140055390     main.obj
 0004:0000039c       $pdata$0$?at@?$map@V?$basic_string@DU?$char_traits@D@std@@V?$allocator@D@2@@std@@GU?$less@V?$basic_string@DU?$char_traits@D@std@@V?$allocator@D@2@@std@@@2@V?$allocator@U?$pair@$$CBV?$basic_string@DU?$char_traits@D@std@@V?$allocator@D@2@@std@@G@std@@@2@@std@@QEBAAEBGAEBV?$basic_string@DU?$char_traits@D@std@@V?$allocator@D@2@@2@@Z 000000014005539c     main.obj
 0004:000003a8       $pdata$1$?at@?$map@V?$basic_string@DU?$char_traits@D@std@@V?$allocator@D@2@@std@@GU?$less@V?$basic_string@DU?$char_traits@D@std@@V?$allocator@D@2@@std@@@2@V?$allocator@U?$pair@$$CBV?$basic_string@DU?$char_traits@D@std@@V?$allocator@D@2@@std@@G@std@@@2@@std@@QEBAAEBGAEBV?$basic_string@DU?$char_traits@D@std@@V?$allocator@D@2@@2@@Z 00000001400553a8     main.obj
 0004:000003b4       $pdata$2$?at@?$map@V?$basic_string@DU?$char_traits@D@std@@V?$allocator@D@2@@std@@GU?$less@V?$basic_string@DU?$char_traits@D@std@@V?$allocator@D@2@@std@@@2@V?$allocator@U?$pair@$$CBV?$basic_string@DU?$char_traits@D@std@@V?$allocator@D@2@@std@@G@std@@@2@@std@@QEBAAEBGAEBV?$basic_string@DU?$char_traits@D@std@@V?$allocator@D@2@@2@@Z 00000001400553b4     main.obj
 0004:000003c0       $pdata$3$?at@?$map@V?$basic_string@DU?$char_traits@D@std@@V?$allocator@D@2@@std@@GU?$less@V?$basic_string@DU?$char_traits@D@std@@V?$allocator@D@2@@std@@@2@V?$allocator@U?$pair@$$CBV?$basic_string@DU?$char_traits@D@std@@V?$allocator@D@2@@std@@G@std@@@2@@std@@QEBAAEBGAEBV?$basic_string@DU?$char_traits@D@std@@V?$allocator@D@2@@2@@Z 00000001400553c0     main.obj
 0004:000003cc       $pdata$??1?$_Yarn@D@std@@QEAA@XZ 00000001400553cc     main.obj
 0004:000003cc       $pdata$??1?$_Yarn@_W@std@@QEAA@XZ 00000001400553cc     main.obj
 0004:000003d8       $pdata$?erase@?$basic_string@DU?$char_traits@D@std@@V?$allocator@D@2@@std@@QEAAAEAV12@_K_K@Z 00000001400553d8     main.obj
 0004:000003e4       $pdata$??0?$basic_string@DU?$char_traits@D@std@@V?$allocator@D@2@@std@@QEAA@QEBD@Z 00000001400553e4     main.obj
 0004:000003f0       $pdata$0$??0?$basic_string@DU?$char_traits@D@std@@V?$allocator@D@2@@std@@QEAA@QEBD@Z 00000001400553f0     main.obj
 0004:000003fc       $pdata$1$??0?$basic_string@DU?$char_traits@D@std@@V?$allocator@D@2@@std@@QEAA@QEBD@Z 00000001400553fc     main.obj
 0004:00000408       $pdata$??0?$basic_string@DU?$char_traits@D@std@@V?$allocator@D@2@@std@@QEAA@AEBV01@@Z 0000000140055408     main.obj
 0004:00000414       $pdata$??0?$basic_ofstream@DU?$char_traits@D@std@@@std@@QEAA@XZ 0000000140055414     main.obj
 0004:00000420       $pdata$?imbue@?$basic_filebuf@DU?$char_traits@D@std@@@std@@MEAAXAEBVlocale@2@@Z 0000000140055420     main.obj
 0004:0000042c       $pdata$?sync@?$basic_filebuf@DU?$char_traits@D@std@@@std@@MEAAHXZ 000000014005542c     main.obj
 0004:00000438       $pdata$?setbuf@?$basic_filebuf@DU?$char_traits@D@std@@@std@@MEAAPEAV?$basic_streambuf@DU?$char_traits@D@std@@@2@PEAD_J@Z 0000000140055438     main.obj
 0004:00000444       $pdata$?seekpos@?$basic_filebuf@DU?$char_traits@D@std@@@std@@MEAA?AV?$fpos@U_Mbstatet@@@2@V32@H@Z 0000000140055444     main.obj
 0004:00000450       $pdata$?seekoff@?$basic_filebuf@DU?$char_traits@D@std@@@std@@MEAA?AV?$fpos@U_Mbstatet@@@2@_JHH@Z 0000000140055450     main.obj
 0004:0000045c       $pdata$?uflow@?$basic_filebuf@DU?$char_traits@D@std@@@std@@MEAAHXZ 000000014005545c     main.obj
 0004:00000468       $pdata$?underflow@?$basic_filebuf@DU?$char_traits@D@std@@@std@@MEAAHXZ 0000000140055468     main.obj
 0004:00000474       $pdata$0$?underflow@?$basic_filebuf@DU?$char_traits@D@std@@@std@@MEAAHXZ 0000000140055474     main.obj
 0004:00000480       $pdata$2$?underflow@?$basic_filebuf@DU?$char_traits@D@std@@@std@@MEAAHXZ 0000000140055480     main.obj
 0004:0000048c       $pdata$?pbackfail@?$basic_filebuf@DU?$char_traits@D@std@@@std@@MEAAHH@Z 000000014005548c     main.obj
 0004:00000498       $pdata$?overflow@?$basic_filebuf@DU?$char_traits@D@std@@@std@@MEAAHH@Z 0000000140055498     main.obj
 0004:000004a4       $pdata$??1?$basic_filebuf@DU?$char_traits@D@std@@@std@@UEAA@XZ 00000001400554a4     main.obj
 0004:000004b0       $pdata$?str@?$basic_stringstream@DU?$char_traits@D@std@@V?$allocator@D@2@@std@@QEBA?AV?$basic_string@DU?$char_traits@D@std@@V?$allocator@D@2@@2@XZ 00000001400554b0     main.obj
 0004:000004bc       $pdata$??0?$basic_stringstream@DU?$char_traits@D@std@@V?$allocator@D@2@@std@@QEAA@H@Z 00000001400554bc     main.obj
 0004:000004c8       $pdata$?seekpos@?$basic_stringbuf@DU?$char_traits@D@std@@V?$allocator@D@2@@std@@MEAA?AV?$fpos@U_Mbstatet@@@2@V32@H@Z 00000001400554c8     main.obj
 0004:000004d4       $pdata$?seekoff@?$basic_stringbuf@DU?$char_traits@D@std@@V?$allocator@D@2@@std@@MEAA?AV?$fpos@U_Mbstatet@@@2@_JHH@Z 00000001400554d4     main.obj
 0004:000004e0       $pdata$?overflow@?$basic_stringbuf@DU?$char_traits@D@std@@V?$allocator@D@2@@std@@MEAAHH@Z 00000001400554e0     main.obj
 0004:000004ec       $pdata$0$?overflow@?$basic_stringbuf@DU?$char_traits@D@std@@V?$allocator@D@2@@std@@MEAAHH@Z 00000001400554ec     main.obj
 0004:000004f8       $pdata$2$?overflow@?$basic_stringbuf@DU?$char_traits@D@std@@V?$allocator@D@2@@std@@MEAAHH@Z 00000001400554f8     main.obj
 0004:00000504       $pdata$5$?overflow@?$basic_stringbuf@DU?$char_traits@D@std@@V?$allocator@D@2@@std@@MEAAHH@Z 0000000140055504     main.obj
 0004:00000510       $pdata$10$?overflow@?$basic_stringbuf@DU?$char_traits@D@std@@V?$allocator@D@2@@std@@MEAAHH@Z 0000000140055510     main.obj
 0004:0000051c       $pdata$12$?overflow@?$basic_stringbuf@DU?$char_traits@D@std@@V?$allocator@D@2@@std@@MEAAHH@Z 000000014005551c     main.obj
 0004:00000528       $pdata$13$?overflow@?$basic_stringbuf@DU?$char_traits@D@std@@V?$allocator@D@2@@std@@MEAAHH@Z 0000000140055528     main.obj
 0004:00000534       $pdata$??1?$basic_stringbuf@DU?$char_traits@D@std@@V?$allocator@D@2@@std@@UEAA@XZ 0000000140055534     main.obj
 0004:00000540       $pdata$?flush@?$basic_ostream@DU?$char_traits@D@std@@@std@@QEAAAEAV12@XZ 0000000140055540     main.obj
 0004:0000054c       $pdata$??6?$basic_ostream@DU?$char_traits@D@std@@@std@@QEAAAEAV01@H@Z 000000014005554c     main.obj
 0004:00000558       $pdata$??6?$basic_ostream@DU?$char_traits@D@std@@@std@@QEAAAEAV01@G@Z 0000000140055558     main.obj
 0004:00000564       $pdata$?xsputn@?$basic_streambuf@DU?$char_traits@D@std@@@std@@MEAA_JPEBD_J@Z 0000000140055564     main.obj
 0004:00000570       $pdata$0$?xsputn@?$basic_streambuf@DU?$char_traits@D@std@@@std@@MEAA_JPEBD_J@Z 0000000140055570     main.obj
 0004:0000057c       $pdata$1$?xsputn@?$basic_streambuf@DU?$char_traits@D@std@@@std@@MEAA_JPEBD_J@Z 000000014005557c     main.obj
 0004:00000588       $pdata$?xsgetn@?$basic_streambuf@DU?$char_traits@D@std@@@std@@MEAA_JPEAD_J@Z 0000000140055588     main.obj
 0004:00000594       $pdata$0$?xsgetn@?$basic_streambuf@DU?$char_traits@D@std@@@std@@MEAA_JPEAD_J@Z 0000000140055594     main.obj
 0004:000005a0       $pdata$1$?xsgetn@?$basic_streambuf@DU?$char_traits@D@std@@@std@@MEAA_JPEAD_J@Z 00000001400555a0     main.obj
 0004:000005ac       $pdata$?uflow@?$basic_streambuf@DU?$char_traits@D@std@@@std@@MEAAHXZ 00000001400555ac     main.obj
 0004:000005b8       $pdata$??1?$basic_streambuf@DU?$char_traits@D@std@@@std@@UEAA@XZ 00000001400555b8     main.obj
 0004:000005c4       $pdata$??1?$basic_ios@DU?$char_traits@D@std@@@std@@UEAA@XZ 00000001400555c4     main.obj
 0004:000005d0       $pdata$??_G?$basic_fstream@DU?$char_traits@D@std@@@std@@UEAAPEAXI@Z 00000001400555d0     main.obj
 0004:000005dc       $pdata$??_G?$basic_ofstream@DU?$char_traits@D@std@@@std@@UEAAPEAXI@Z 00000001400555dc     main.obj
 0004:000005e8       $pdata$??_G?$basic_ifstream@DU?$char_traits@D@std@@@std@@UEAAPEAXI@Z 00000001400555e8     main.obj
 0004:000005f4       $pdata$??_G?$basic_filebuf@DU?$char_traits@D@std@@@std@@UEAAPEAXI@Z 00000001400555f4     main.obj
 0004:00000600       $pdata$??_G?$basic_stringstream@DU?$char_traits@D@std@@V?$allocator@D@2@@std@@UEAAPEAXI@Z 0000000140055600     main.obj
 0004:0000060c       $pdata$??_G?$basic_stringbuf@DU?$char_traits@D@std@@V?$allocator@D@2@@std@@UEAAPEAXI@Z 000000014005560c     main.obj
 0004:00000618       $pdata$??_G?$basic_iostream@DU?$char_traits@D@std@@@std@@UEAAPEAXI@Z 0000000140055618     main.obj
 0004:00000624       $pdata$??_G?$basic_ostream@DU?$char_traits@D@std@@@std@@UEAAPEAXI@Z 0000000140055624     main.obj
 0004:00000630       $pdata$??_G?$basic_istream@DU?$char_traits@D@std@@@std@@UEAAPEAXI@Z 0000000140055630     main.obj
 0004:0000063c       $pdata$??_G?$basic_streambuf@DU?$char_traits@D@std@@@std@@UEAAPEAXI@Z 000000014005563c     main.obj
 0004:00000648       $pdata$??_Glocale@std@@QEAAPEAXI@Z 0000000140055648     main.obj
 0004:00000654       $pdata$??_G?$basic_ios@DU?$char_traits@D@std@@@std@@UEAAPEAXI@Z 0000000140055654     main.obj
 0004:00000660       $pdata$??1sentry@?$basic_ostream@DU?$char_traits@D@std@@@std@@QEAA@XZ 0000000140055660     main.obj
 0004:0000066c       $pdata$?do_put@?$num_put@DV?$ostreambuf_iterator@DU?$char_traits@D@std@@@std@@@std@@MEBA?AV?$ostreambuf_iterator@DU?$char_traits@D@std@@@2@V32@AEAVios_base@2@DPEBX@Z 000000014005566c     main.obj
 0004:00000678       $pdata$?do_put@?$num_put@DV?$ostreambuf_iterator@DU?$char_traits@D@std@@@std@@@std@@MEBA?AV?$ostreambuf_iterator@DU?$char_traits@D@std@@@2@V32@AEAVios_base@2@DO@Z 0000000140055678     main.obj
 0004:00000684       $pdata$?do_put@?$num_put@DV?$ostreambuf_iterator@DU?$char_traits@D@std@@@std@@@std@@MEBA?AV?$ostreambuf_iterator@DU?$char_traits@D@std@@@2@V32@AEAVios_base@2@DN@Z 0000000140055684     main.obj
 0004:00000690       $pdata$?do_put@?$num_put@DV?$ostreambuf_iterator@DU?$char_traits@D@std@@@std@@@std@@MEBA?AV?$ostreambuf_iterator@DU?$char_traits@D@std@@@2@V32@AEAVios_base@2@D_K@Z 0000000140055690     main.obj
 0004:0000069c       $pdata$?do_put@?$num_put@DV?$ostreambuf_iterator@DU?$char_traits@D@std@@@std@@@std@@MEBA?AV?$ostreambuf_iterator@DU?$char_traits@D@std@@@2@V32@AEAVios_base@2@D_J@Z 000000014005569c     main.obj
 0004:000006a8       $pdata$?do_put@?$num_put@DV?$ostreambuf_iterator@DU?$char_traits@D@std@@@std@@@std@@MEBA?AV?$ostreambuf_iterator@DU?$char_traits@D@std@@@2@V32@AEAVios_base@2@DK@Z 00000001400556a8     main.obj
 0004:000006b4       $pdata$?do_put@?$num_put@DV?$ostreambuf_iterator@DU?$char_traits@D@std@@@std@@@std@@MEBA?AV?$ostreambuf_iterator@DU?$char_traits@D@std@@@2@V32@AEAVios_base@2@DJ@Z 00000001400556b4     main.obj
 0004:000006c0       $pdata$?do_put@?$num_put@DV?$ostreambuf_iterator@DU?$char_traits@D@std@@@std@@@std@@MEBA?AV?$ostreambuf_iterator@DU?$char_traits@D@std@@@2@V32@AEAVios_base@2@D_N@Z 00000001400556c0     main.obj
 0004:000006cc       $pdata$?_Tidy@?$vector@V?$basic_string@DU?$char_traits@D@std@@V?$allocator@D@2@@std@@V?$allocator@V?$basic_string@DU?$char_traits@D@std@@V?$allocator@D@2@@std@@@2@@std@@AEAAXXZ 00000001400556cc     main.obj
 0004:000006d8       $pdata$0$?_Tidy@?$vector@V?$basic_string@DU?$char_traits@D@std@@V?$allocator@D@2@@std@@V?$allocator@V?$basic_string@DU?$char_traits@D@std@@V?$allocator@D@2@@std@@@2@@std@@AEAAXXZ 00000001400556d8     main.obj
 0004:000006e4       $pdata$1$?_Tidy@?$vector@V?$basic_string@DU?$char_traits@D@std@@V?$allocator@D@2@@std@@V?$allocator@V?$basic_string@DU?$char_traits@D@std@@V?$allocator@D@2@@std@@@2@@std@@AEAAXXZ 00000001400556e4     main.obj
 0004:000006f0       $pdata$??1?$_Deque_alloc@U?$_Deque_base_types@GV?$allocator@G@std@@@std@@@std@@QEAA@XZ 00000001400556f0     main.obj
 0004:000006fc       $pdata$?_Tidy@?$deque@GV?$allocator@G@std@@@std@@IEAAXXZ 00000001400556fc     main.obj
 0004:00000708       $pdata$?_Tidy_deallocate@?$basic_string@DU?$char_traits@D@std@@V?$allocator@D@2@@std@@QEAAXXZ 0000000140055708     main.obj
 0004:00000714       $pdata$?append@?$basic_string@DU?$char_traits@D@std@@V?$allocator@D@2@@std@@QEAAAEAV12@_KD@Z 0000000140055714     main.obj
 0004:00000720       $pdata$0$?append@?$basic_string@DU?$char_traits@D@std@@V?$allocator@D@2@@std@@QEAAAEAV12@_KD@Z 0000000140055720     main.obj
 0004:0000072c       $pdata$1$?append@?$basic_string@DU?$char_traits@D@std@@V?$allocator@D@2@@std@@QEAAAEAV12@_KD@Z 000000014005572c     main.obj
 0004:00000738       $pdata$?append@?$basic_string@DU?$char_traits@D@std@@V?$allocator@D@2@@std@@QEAAAEAV12@QEBD_K@Z 0000000140055738     main.obj
 0004:00000744       $pdata$0$?append@?$basic_string@DU?$char_traits@D@std@@V?$allocator@D@2@@std@@QEAAAEAV12@QEBD_K@Z 0000000140055744     main.obj
 0004:00000750       $pdata$1$?append@?$basic_string@DU?$char_traits@D@std@@V?$allocator@D@2@@std@@QEAAAEAV12@QEBD_K@Z 0000000140055750     main.obj
 0004:0000075c       $pdata$?_Initcvt@?$basic_filebuf@DU?$char_traits@D@std@@@std@@IEAAXPEBV?$codecvt@DDU_Mbstatet@@@2@@Z 000000014005575c     main.obj
 0004:00000768       $pdata$?_Endwrite@?$basic_filebuf@DU?$char_traits@D@std@@@std@@IEAA_NXZ 0000000140055768     main.obj
 0004:00000774       $pdata$?_Init@?$basic_filebuf@DU?$char_traits@D@std@@@std@@IEAAXPEAU_iobuf@@W4_Initfl@12@@Z 0000000140055774     main.obj
 0004:00000780       $pdata$?close@?$basic_filebuf@DU?$char_traits@D@std@@@std@@QEAAPEAV12@XZ 0000000140055780     main.obj
 0004:0000078c       $pdata$0$?close@?$basic_filebuf@DU?$char_traits@D@std@@@std@@QEAAPEAV12@XZ 000000014005578c     main.obj
 0004:00000798       $pdata$1$?close@?$basic_filebuf@DU?$char_traits@D@std@@@std@@QEAAPEAV12@XZ 0000000140055798     main.obj
 0004:000007a4       $pdata$?open@?$basic_filebuf@DU?$char_traits@D@std@@@std@@QEAAPEAV12@PEBDHH@Z 00000001400557a4     main.obj
 0004:000007b0       $pdata$?str@?$basic_stringbuf@DU?$char_traits@D@std@@V?$allocator@D@2@@std@@QEBA?AV?$basic_string@DU?$char_traits@D@std@@V?$allocator@D@2@@2@XZ 00000001400557b0     main.obj
 0004:000007bc       $pdata$??0?$basic_ostream@DU?$char_traits@D@std@@@std@@QEAA@PEAV?$basic_streambuf@DU?$char_traits@D@std@@@1@_N@Z 00000001400557bc     main.obj
 0004:000007c8       $pdata$??0?$basic_istream@DU?$char_traits@D@std@@@std@@QEAA@PEAV?$basic_streambuf@DU?$char_traits@D@std@@@1@_N@Z 00000001400557c8     main.obj
 0004:000007d4       $pdata$??_G?$codecvt@DDU_Mbstatet@@@std@@MEAAPEAXI@Z 00000001400557d4     main.obj
 0004:000007d4       $pdata$??_G?$num_put@DV?$ostreambuf_iterator@DU?$char_traits@D@std@@@std@@@std@@MEAAPEAXI@Z 00000001400557d4     main.obj
 0004:000007e0       $pdata$?do_truename@?$numpunct@D@std@@MEBA?AV?$basic_string@DU?$char_traits@D@std@@V?$allocator@D@2@@2@XZ 00000001400557e0     main.obj
 0004:000007ec       $pdata$?do_falsename@?$numpunct@D@std@@MEBA?AV?$basic_string@DU?$char_traits@D@std@@V?$allocator@D@2@@2@XZ 00000001400557ec     main.obj
 0004:000007f8       $pdata$?do_grouping@?$numpunct@D@std@@MEBA?AV?$basic_string@DU?$char_traits@D@std@@V?$allocator@D@2@@2@XZ 00000001400557f8     main.obj
 0004:00000804       $pdata$??1_Sentry_base@?$basic_istream@DU?$char_traits@D@std@@@std@@QEAA@XZ 0000000140055804     main.obj
 0004:00000804       $pdata$??1_Sentry_base@?$basic_ostream@DU?$char_traits@D@std@@@std@@QEAA@XZ 0000000140055804     main.obj
 0004:00000810       $pdata$?_Iput@?$num_put@DV?$ostreambuf_iterator@DU?$char_traits@D@std@@@std@@@std@@AEBA?AV?$ostreambuf_iterator@DU?$char_traits@D@std@@@2@V32@AEAVios_base@2@DPEAD_K@Z 0000000140055810     main.obj
 0004:0000081c       $pdata$?_Fput@?$num_put@DV?$ostreambuf_iterator@DU?$char_traits@D@std@@@std@@@std@@AEBA?AV?$ostreambuf_iterator@DU?$char_traits@D@std@@@2@V32@AEAVios_base@2@DPEBD_K@Z 000000014005581c     main.obj
 0004:00000828       $pdata$?erase@?$_Tree@V?$_Tmap_traits@V?$basic_string@DU?$char_traits@D@std@@V?$allocator@D@2@@std@@GU?$less@V?$basic_string@DU?$char_traits@D@std@@V?$allocator@D@2@@std@@@2@V?$allocator@U?$pair@$$CBV?$basic_string@DU?$char_traits@D@std@@V?$allocator@D@2@@std@@G@std@@@2@$0A@@std@@@std@@QEAA?AV?$_Tree_iterator@V?$_Tree_val@U?$_Tree_simple_types@U?$pair@$$CBV?$basic_string@DU?$char_traits@D@std@@V?$allocator@D@2@@std@@G@std@@@std@@@std@@@2@V?$_Tree_const_iterator@V?$_Tree_val@U?$_Tree_simple_types@U?$pair@$$CBV?$basic_string@DU?$char_traits@D@std@@V?$allocator@D@2@@std@@G@std@@@std@@@std@@@2@0@Z 0000000140055828     main.obj
 0004:00000834       $pdata$?_Xran@?$_String_val@U?$_Simple_types@D@std@@@std@@SAXXZ 0000000140055834     main.obj
 0004:00000840       $pdata$?_Osfx@?$basic_ostream@DU?$char_traits@D@std@@@std@@QEAAXXZ 0000000140055840     main.obj
 0004:0000084c       $pdata$??0?$basic_streambuf@DU?$char_traits@D@std@@@std@@IEAA@XZ 000000014005584c     main.obj
 0004:00000858       $pdata$?init@?$basic_ios@DU?$char_traits@D@std@@@std@@IEAAXPEAV?$basic_streambuf@DU?$char_traits@D@std@@@2@_N@Z 0000000140055858     main.obj
 0004:00000864       $pdata$??_G?$numpunct@D@std@@MEAAPEAXI@Z 0000000140055864     main.obj
 0004:00000870       $pdata$?_Tidy@?$numpunct@D@std@@AEAAXXZ 0000000140055870     main.obj
 0004:0000087c       $pdata$?_Buyheadnode@?$_Tree_comp_alloc@V?$_Tmap_traits@V?$basic_string@DU?$char_traits@D@std@@V?$allocator@D@2@@std@@GU?$less@V?$basic_string@DU?$char_traits@D@std@@V?$allocator@D@2@@std@@@2@V?$allocator@U?$pair@$$CBV?$basic_string@DU?$char_traits@D@std@@V?$allocator@D@2@@std@@G@std@@@2@$0A@@std@@@std@@QEAAPEAU?$_Tree_node@U?$pair@$$CBV?$basic_string@DU?$char_traits@D@std@@V?$allocator@D@2@@std@@G@std@@PEAX@2@XZ 000000014005587c     main.obj
 0004:00000888       $pdata$?_Erase@?$_Tree@V?$_Tmap_traits@V?$basic_string@DU?$char_traits@D@std@@V?$allocator@D@2@@std@@GU?$less@V?$basic_string@DU?$char_traits@D@std@@V?$allocator@D@2@@std@@@2@V?$allocator@U?$pair@$$CBV?$basic_string@DU?$char_traits@D@std@@V?$allocator@D@2@@std@@G@std@@@2@$0A@@std@@@std@@IEAAXPEAU?$_Tree_node@U?$pair@$$CBV?$basic_string@DU?$char_traits@D@std@@V?$allocator@D@2@@std@@G@std@@PEAX@2@@Z 0000000140055888     main.obj
 0004:00000894       $pdata$??$use_facet@V?$ctype@D@std@@@std@@YAAEBV?$ctype@D@0@AEBVlocale@0@@Z 0000000140055894     main.obj
 0004:000008a0       $pdata$??$?6U?$char_traits@D@std@@@std@@YAAEAV?$basic_ostream@DU?$char_traits@D@std@@@0@AEAV10@D@Z 00000001400558a0     main.obj
 0004:000008ac       $pdata$??$?6U?$char_traits@D@std@@@std@@YAAEAV?$basic_ostream@DU?$char_traits@D@std@@@0@AEAV10@PEBD@Z 00000001400558ac     main.obj
 0004:000008b8       $pdata$??$endl@DU?$char_traits@D@std@@@std@@YAAEAV?$basic_ostream@DU?$char_traits@D@std@@@0@AEAV10@@Z 00000001400558b8     main.obj
 0004:000008c4       $pdata$??$?HDU?$char_traits@D@std@@V?$allocator@D@1@@std@@YA?AV?$basic_string@DU?$char_traits@D@std@@V?$allocator@D@2@@0@$$QEAV10@0@Z 00000001400558c4     main.obj
 0004:000008d0       $pdata$??$?HDU?$char_traits@D@std@@V?$allocator@D@1@@std@@YA?AV?$basic_string@DU?$char_traits@D@std@@V?$allocator@D@2@@0@AEBV10@$$QEAV10@@Z 00000001400558d0     main.obj
 0004:000008dc       $pdata$??$?HDU?$char_traits@D@std@@V?$allocator@D@1@@std@@YA?AV?$basic_string@DU?$char_traits@D@std@@V?$allocator@D@2@@0@AEBV10@0@Z 00000001400558dc     main.obj
 0004:000008e8       $pdata$??$?HDU?$char_traits@D@std@@V?$allocator@D@1@@std@@YA?AV?$basic_string@DU?$char_traits@D@std@@V?$allocator@D@2@@0@$$QEAV10@QEBD@Z 00000001400558e8     main.obj
 0004:000008f4       $pdata$??$?HDU?$char_traits@D@std@@V?$allocator@D@1@@std@@YA?AV?$basic_string@DU?$char_traits@D@std@@V?$allocator@D@2@@0@AEBV10@QEBD@Z 00000001400558f4     main.obj
 0004:00000900       $pdata$??$?HDU?$char_traits@D@std@@V?$allocator@D@1@@std@@YA?AV?$basic_string@DU?$char_traits@D@std@@V?$allocator@D@2@@0@$$QEAV10@D@Z 0000000140055900     main.obj
 0004:0000090c       $pdata$??$?HDU?$char_traits@D@std@@V?$allocator@D@1@@std@@YA?AV?$basic_string@DU?$char_traits@D@std@@V?$allocator@D@2@@0@AEBV10@D@Z 000000014005590c     main.obj
 0004:00000918       $pdata$??$_Range_construct_or_tidy@PEBV?$basic_string@DU?$char_traits@D@std@@V?$allocator@D@2@@std@@@?$vector@V?$basic_string@DU?$char_traits@D@std@@V?$allocator@D@2@@std@@V?$allocator@V?$basic_string@DU?$char_traits@D@std@@V?$allocator@D@2@@std@@@2@@std@@AEAAXPEBV?$basic_string@DU?$char_traits@D@std@@V?$allocator@D@2@@1@0Uforward_iterator_tag@1@@Z 0000000140055918     main.obj
 0004:00000924       $pdata$??$_Construct@PEBG@?$deque@GV?$allocator@G@std@@@std@@QEAAXPEBG0@Z 0000000140055924     main.obj
 0004:00000930       $pdata$??$use_facet@V?$codecvt@DDU_Mbstatet@@@std@@@std@@YAAEBV?$codecvt@DDU_Mbstatet@@@0@AEBVlocale@0@@Z 0000000140055930     main.obj
 0004:0000093c       $pdata$??$use_facet@V?$num_put@DV?$ostreambuf_iterator@DU?$char_traits@D@std@@@std@@@std@@@std@@YAAEBV?$num_put@DV?$ostreambuf_iterator@DU?$char_traits@D@std@@@std@@@0@AEBVlocale@0@@Z 000000014005593c     main.obj
 0004:00000948       $pdata$??$use_facet@V?$numpunct@D@std@@@std@@YAAEBV?$numpunct@D@0@AEBVlocale@0@@Z 0000000140055948     main.obj
 0004:00000954       $pdata$??$_Reallocate_grow_by@V<lambda_319d5e083f45f90dcdce5dce53cbb275>@@D@?$basic_string@DU?$char_traits@D@std@@V?$allocator@D@2@@std@@QEAAAEAV01@_KV<lambda_319d5e083f45f90dcdce5dce53cbb275>@@D@Z 0000000140055954     main.obj
 0004:00000960       $pdata$2$??$_Reallocate_grow_by@V<lambda_319d5e083f45f90dcdce5dce53cbb275>@@D@?$basic_string@DU?$char_traits@D@std@@V?$allocator@D@2@@std@@QEAAAEAV01@_KV<lambda_319d5e083f45f90dcdce5dce53cbb275>@@D@Z 0000000140055960     main.obj
 0004:0000096c       $pdata$3$??$_Reallocate_grow_by@V<lambda_319d5e083f45f90dcdce5dce53cbb275>@@D@?$basic_string@DU?$char_traits@D@std@@V?$allocator@D@2@@std@@QEAAAEAV01@_KV<lambda_319d5e083f45f90dcdce5dce53cbb275>@@D@Z 000000014005596c     main.obj
 0004:00000978       $pdata$4$??$_Reallocate_grow_by@V<lambda_319d5e083f45f90dcdce5dce53cbb275>@@D@?$basic_string@DU?$char_traits@D@std@@V?$allocator@D@2@@std@@QEAAAEAV01@_KV<lambda_319d5e083f45f90dcdce5dce53cbb275>@@D@Z 0000000140055978     main.obj
 0004:00000984       $pdata$??$_Reallocate_for@V<lambda_138c3d7c38c85abb84c7fc7bfe5747b7>@@D@?$basic_string@DU?$char_traits@D@std@@V?$allocator@D@2@@std@@QEAAAEAV01@_KV<lambda_138c3d7c38c85abb84c7fc7bfe5747b7>@@D@Z 0000000140055984     main.obj
 0004:00000990       $pdata$1$??$_Reallocate_for@V<lambda_138c3d7c38c85abb84c7fc7bfe5747b7>@@D@?$basic_string@DU?$char_traits@D@std@@V?$allocator@D@2@@std@@QEAAAEAV01@_KV<lambda_138c3d7c38c85abb84c7fc7bfe5747b7>@@D@Z 0000000140055990     main.obj
 0004:0000099c       $pdata$2$??$_Reallocate_for@V<lambda_138c3d7c38c85abb84c7fc7bfe5747b7>@@D@?$basic_string@DU?$char_traits@D@std@@V?$allocator@D@2@@std@@QEAAAEAV01@_KV<lambda_138c3d7c38c85abb84c7fc7bfe5747b7>@@D@Z 000000014005599c     main.obj
 0004:000009a8       $pdata$3$??$_Reallocate_for@V<lambda_138c3d7c38c85abb84c7fc7bfe5747b7>@@D@?$basic_string@DU?$char_traits@D@std@@V?$allocator@D@2@@std@@QEAAAEAV01@_KV<lambda_138c3d7c38c85abb84c7fc7bfe5747b7>@@D@Z 00000001400559a8     main.obj
 0004:000009b4       $pdata$??$_Reallocate_for@V<lambda_66f57f934f28d61049862f64df852ff0>@@PEBD@?$basic_string@DU?$char_traits@D@std@@V?$allocator@D@2@@std@@QEAAAEAV01@_KV<lambda_66f57f934f28d61049862f64df852ff0>@@PEBD@Z 00000001400559b4     main.obj
 0004:000009c0       $pdata$1$??$_Reallocate_for@V<lambda_66f57f934f28d61049862f64df852ff0>@@PEBD@?$basic_string@DU?$char_traits@D@std@@V?$allocator@D@2@@std@@QEAAAEAV01@_KV<lambda_66f57f934f28d61049862f64df852ff0>@@PEBD@Z 00000001400559c0     main.obj
 0004:000009cc       $pdata$2$??$_Reallocate_for@V<lambda_66f57f934f28d61049862f64df852ff0>@@PEBD@?$basic_string@DU?$char_traits@D@std@@V?$allocator@D@2@@std@@QEAAAEAV01@_KV<lambda_66f57f934f28d61049862f64df852ff0>@@PEBD@Z 00000001400559cc     main.obj
 0004:000009d8       $pdata$3$??$_Reallocate_for@V<lambda_66f57f934f28d61049862f64df852ff0>@@PEBD@?$basic_string@DU?$char_traits@D@std@@V?$allocator@D@2@@std@@QEAAAEAV01@_KV<lambda_66f57f934f28d61049862f64df852ff0>@@PEBD@Z 00000001400559d8     main.obj
 0004:000009e4       $pdata$??$_Reallocate_grow_by@V<lambda_e1befb086ad3257e3f042a63030725f7>@@_KD@?$basic_string@DU?$char_traits@D@std@@V?$allocator@D@2@@std@@QEAAAEAV01@_KV<lambda_e1befb086ad3257e3f042a63030725f7>@@_KD@Z 00000001400559e4     main.obj
 0004:000009f0       $pdata$4$??$_Reallocate_grow_by@V<lambda_e1befb086ad3257e3f042a63030725f7>@@_KD@?$basic_string@DU?$char_traits@D@std@@V?$allocator@D@2@@std@@QEAAAEAV01@_KV<lambda_e1befb086ad3257e3f042a63030725f7>@@_KD@Z 00000001400559f0     main.obj
 0004:000009fc       $pdata$5$??$_Reallocate_grow_by@V<lambda_e1befb086ad3257e3f042a63030725f7>@@_KD@?$basic_string@DU?$char_traits@D@std@@V?$allocator@D@2@@std@@QEAAAEAV01@_KV<lambda_e1befb086ad3257e3f042a63030725f7>@@_KD@Z 00000001400559fc     main.obj
 0004:00000a08       $pdata$6$??$_Reallocate_grow_by@V<lambda_e1befb086ad3257e3f042a63030725f7>@@_KD@?$basic_string@DU?$char_traits@D@std@@V?$allocator@D@2@@std@@QEAAAEAV01@_KV<lambda_e1befb086ad3257e3f042a63030725f7>@@_KD@Z 0000000140055a08     main.obj
 0004:00000a14       $pdata$7$??$_Reallocate_grow_by@V<lambda_e1befb086ad3257e3f042a63030725f7>@@_KD@?$basic_string@DU?$char_traits@D@std@@V?$allocator@D@2@@std@@QEAAAEAV01@_KV<lambda_e1befb086ad3257e3f042a63030725f7>@@_KD@Z 0000000140055a14     main.obj
 0004:00000a20       $pdata$??$_Reallocate_grow_by@V<lambda_65e615be2a453ca0576c979606f46740>@@PEBD_K@?$basic_string@DU?$char_traits@D@std@@V?$allocator@D@2@@std@@QEAAAEAV01@_KV<lambda_65e615be2a453ca0576c979606f46740>@@PEBD_K@Z 0000000140055a20     main.obj
 0004:00000a2c       $pdata$2$??$_Reallocate_grow_by@V<lambda_65e615be2a453ca0576c979606f46740>@@PEBD_K@?$basic_string@DU?$char_traits@D@std@@V?$allocator@D@2@@std@@QEAAAEAV01@_KV<lambda_65e615be2a453ca0576c979606f46740>@@PEBD_K@Z 0000000140055a2c     main.obj
 0004:00000a38       $pdata$3$??$_Reallocate_grow_by@V<lambda_65e615be2a453ca0576c979606f46740>@@PEBD_K@?$basic_string@DU?$char_traits@D@std@@V?$allocator@D@2@@std@@QEAAAEAV01@_KV<lambda_65e615be2a453ca0576c979606f46740>@@PEBD_K@Z 0000000140055a38     main.obj
 0004:00000a44       $pdata$4$??$_Reallocate_grow_by@V<lambda_65e615be2a453ca0576c979606f46740>@@PEBD_K@?$basic_string@DU?$char_traits@D@std@@V?$allocator@D@2@@std@@QEAAAEAV01@_KV<lambda_65e615be2a453ca0576c979606f46740>@@PEBD_K@Z 0000000140055a44     main.obj
 0004:00000a50       $pdata$??$_Destroy_range@V?$allocator@V?$basic_string@DU?$char_traits@D@std@@V?$allocator@D@2@@std@@@std@@@std@@YAXPEAV?$basic_string@DU?$char_traits@D@std@@V?$allocator@D@2@@0@0AEAV?$allocator@V?$basic_string@DU?$char_traits@D@std@@V?$allocator@D@2@@std@@@0@@Z 0000000140055a50     main.obj
 0004:00000a5c       $pdata$??$_Reallocate_grow_by@V<lambda_b986da8d428e4af07c64af60eec09b61>@@_K_KD@?$basic_string@DU?$char_traits@D@std@@V?$allocator@D@2@@std@@QEAAAEAV01@_KV<lambda_b986da8d428e4af07c64af60eec09b61>@@_K2D@Z 0000000140055a5c     main.obj
 0004:00000a68       $pdata$3$??$_Reallocate_grow_by@V<lambda_b986da8d428e4af07c64af60eec09b61>@@_K_KD@?$basic_string@DU?$char_traits@D@std@@V?$allocator@D@2@@std@@QEAAAEAV01@_KV<lambda_b986da8d428e4af07c64af60eec09b61>@@_K2D@Z 0000000140055a68     main.obj
 0004:00000a74       $pdata$4$??$_Reallocate_grow_by@V<lambda_b986da8d428e4af07c64af60eec09b61>@@_K_KD@?$basic_string@DU?$char_traits@D@std@@V?$allocator@D@2@@std@@QEAAAEAV01@_KV<lambda_b986da8d428e4af07c64af60eec09b61>@@_K2D@Z 0000000140055a74     main.obj
 0004:00000a80       $pdata$5$??$_Reallocate_grow_by@V<lambda_b986da8d428e4af07c64af60eec09b61>@@_K_KD@?$basic_string@DU?$char_traits@D@std@@V?$allocator@D@2@@std@@QEAAAEAV01@_KV<lambda_b986da8d428e4af07c64af60eec09b61>@@_K2D@Z 0000000140055a80     main.obj
 0004:00000a8c       $pdata$6$??$_Reallocate_grow_by@V<lambda_b986da8d428e4af07c64af60eec09b61>@@_K_KD@?$basic_string@DU?$char_traits@D@std@@V?$allocator@D@2@@std@@QEAAAEAV01@_KV<lambda_b986da8d428e4af07c64af60eec09b61>@@_K2D@Z 0000000140055a8c     main.obj
 0004:00000a98       $pdata$?_Fail@?$_Default_allocate_traits@$00@std@@SAXXZ 0000000140055a98     main.obj
 0004:00000aa4       $pdata$?_Growmap@?$deque@GV?$allocator@G@std@@@std@@IEAAX_K@Z 0000000140055aa4     main.obj
 0004:00000ab0       $pdata$2$?_Growmap@?$deque@GV?$allocator@G@std@@@std@@IEAAX_K@Z 0000000140055ab0     main.obj
 0004:00000abc       $pdata$4$?_Growmap@?$deque@GV?$allocator@G@std@@@std@@IEAAX_K@Z 0000000140055abc     main.obj
 0004:00000ac8       $pdata$5$?_Growmap@?$deque@GV?$allocator@G@std@@@std@@IEAAX_K@Z 0000000140055ac8     main.obj
 0004:00000ad4       $pdata$7$?_Growmap@?$deque@GV?$allocator@G@std@@@std@@IEAAX_K@Z 0000000140055ad4     main.obj
 0004:00000ae0       $pdata$8$?_Growmap@?$deque@GV?$allocator@G@std@@@std@@IEAAX_K@Z 0000000140055ae0     main.obj
 0004:00000aec       $pdata$?_Xlen@?$basic_string@DU?$char_traits@D@std@@V?$allocator@D@2@@std@@SAXXZ 0000000140055aec     main.obj
 0004:00000af8       $pdata$?reserve@?$basic_string@DU?$char_traits@D@std@@V?$allocator@D@2@@std@@QEAAX_K@Z 0000000140055af8     main.obj
 0004:00000b04       $pdata$0$?reserve@?$basic_string@DU?$char_traits@D@std@@V?$allocator@D@2@@std@@QEAAX_K@Z 0000000140055b04     main.obj
 0004:00000b10       $pdata$1$?reserve@?$basic_string@DU?$char_traits@D@std@@V?$allocator@D@2@@std@@QEAAX_K@Z 0000000140055b10     main.obj
 0004:00000b1c       $pdata$2$?reserve@?$basic_string@DU?$char_traits@D@std@@V?$allocator@D@2@@std@@QEAAX_K@Z 0000000140055b1c     main.obj
 0004:00000b28       $pdata$?insert@?$basic_string@DU?$char_traits@D@std@@V?$allocator@D@2@@std@@QEAAAEAV12@_KAEBV12@@Z 0000000140055b28     main.obj
 0004:00000b34       $pdata$1$?insert@?$basic_string@DU?$char_traits@D@std@@V?$allocator@D@2@@std@@QEAAAEAV12@_KAEBV12@@Z 0000000140055b34     main.obj
 0004:00000b40       $pdata$2$?insert@?$basic_string@DU?$char_traits@D@std@@V?$allocator@D@2@@std@@QEAAAEAV12@_KAEBV12@@Z 0000000140055b40     main.obj
 0004:00000b4c       $pdata$?put@?$basic_ostream@DU?$char_traits@D@std@@@std@@QEAAAEAV12@D@Z 0000000140055b4c     main.obj
 0004:00000b58       $pdata$?_Xlength@?$vector@V?$basic_string@DU?$char_traits@D@std@@V?$allocator@D@2@@std@@V?$allocator@V?$basic_string@DU?$char_traits@D@std@@V?$allocator@D@2@@std@@@2@@std@@CAXXZ 0000000140055b58     main.obj
 0004:00000b64       $pdata$?_Xlen@?$deque@GV?$allocator@G@std@@@std@@IEBAXXZ 0000000140055b64     main.obj
 0004:00000b70       $pdata$?_Init@?$numpunct@D@std@@IEAAXAEBV_Locinfo@2@_N@Z 0000000140055b70     main.obj
 0004:00000b7c       $pdata$??$?5DU?$char_traits@D@std@@V?$allocator@D@1@@std@@YAAEAV?$basic_istream@DU?$char_traits@D@std@@@0@$$QEAV10@AEAV?$basic_string@DU?$char_traits@D@std@@V?$allocator@D@2@@0@@Z 0000000140055b7c     main.obj
 0004:00000b88       $pdata$??$getline@DU?$char_traits@D@std@@V?$allocator@D@2@@std@@YAAEAV?$basic_istream@DU?$char_traits@D@std@@@0@$$QEAV10@AEAV?$basic_string@DU?$char_traits@D@std@@V?$allocator@D@2@@0@D@Z 0000000140055b88     main.obj
 0004:00000b94       $pdata$??$_Insert_string@DU?$char_traits@D@std@@_K@std@@YAAEAV?$basic_ostream@DU?$char_traits@D@std@@@0@AEAV10@QEBD_K@Z 0000000140055b94     main.obj
 0004:00000ba0       $pdata$??$_Reallocate_grow_by@V<lambda_9013ee9e23efe4882b67eff5b0ecf103>@@$$V@?$basic_string@DU?$char_traits@D@std@@V?$allocator@D@2@@std@@QEAAAEAV01@_KV<lambda_9013ee9e23efe4882b67eff5b0ecf103>@@@Z 0000000140055ba0     main.obj
 0004:00000bac       $pdata$2$??$_Reallocate_grow_by@V<lambda_9013ee9e23efe4882b67eff5b0ecf103>@@$$V@?$basic_string@DU?$char_traits@D@std@@V?$allocator@D@2@@std@@QEAAAEAV01@_KV<lambda_9013ee9e23efe4882b67eff5b0ecf103>@@@Z 0000000140055bac     main.obj
 0004:00000bb8       $pdata$3$??$_Reallocate_grow_by@V<lambda_9013ee9e23efe4882b67eff5b0ecf103>@@$$V@?$basic_string@DU?$char_traits@D@std@@V?$allocator@D@2@@std@@QEAAAEAV01@_KV<lambda_9013ee9e23efe4882b67eff5b0ecf103>@@@Z 0000000140055bb8     main.obj
 0004:00000bc4       $pdata$4$??$_Reallocate_grow_by@V<lambda_9013ee9e23efe4882b67eff5b0ecf103>@@$$V@?$basic_string@DU?$char_traits@D@std@@V?$allocator@D@2@@std@@QEAAAEAV01@_KV<lambda_9013ee9e23efe4882b67eff5b0ecf103>@@@Z 0000000140055bc4     main.obj
 0004:00000bd0       $pdata$??$_Reallocate_grow_by@V<lambda_f3a66ab6a0570788f31503db83886f49>@@_KPEBD_K@?$basic_string@DU?$char_traits@D@std@@V?$allocator@D@2@@std@@QEAAAEAV01@_KV<lambda_f3a66ab6a0570788f31503db83886f49>@@_KPEBD2@Z 0000000140055bd0     main.obj
 0004:00000bdc       $pdata$2$??$_Reallocate_grow_by@V<lambda_f3a66ab6a0570788f31503db83886f49>@@_KPEBD_K@?$basic_string@DU?$char_traits@D@std@@V?$allocator@D@2@@std@@QEAAAEAV01@_KV<lambda_f3a66ab6a0570788f31503db83886f49>@@_KPEBD2@Z 0000000140055bdc     main.obj
 0004:00000be8       $pdata$3$??$_Reallocate_grow_by@V<lambda_f3a66ab6a0570788f31503db83886f49>@@_KPEBD_K@?$basic_string@DU?$char_traits@D@std@@V?$allocator@D@2@@std@@QEAAAEAV01@_KV<lambda_f3a66ab6a0570788f31503db83886f49>@@_KPEBD2@Z 0000000140055be8     main.obj
 0004:00000bf4       $pdata$4$??$_Reallocate_grow_by@V<lambda_f3a66ab6a0570788f31503db83886f49>@@_KPEBD_K@?$basic_string@DU?$char_traits@D@std@@V?$allocator@D@2@@std@@QEAAAEAV01@_KV<lambda_f3a66ab6a0570788f31503db83886f49>@@_KPEBD2@Z 0000000140055bf4     main.obj
 0004:00000c00       $pdata$??1sentry@?$basic_istream@DU?$char_traits@D@std@@@std@@QEAA@XZ 0000000140055c00     main.obj
 0004:00000c0c       $pdata$?_Ipfx@?$basic_istream@DU?$char_traits@D@std@@@std@@QEAA_N_N@Z 0000000140055c0c     main.obj
 0004:00000c18       $pdata$??$_Buynode@AEBU?$pair@$$CBV?$basic_string@DU?$char_traits@D@std@@V?$allocator@D@2@@std@@G@std@@@?$_Tree_comp_alloc@V?$_Tmap_traits@V?$basic_string@DU?$char_traits@D@std@@V?$allocator@D@2@@std@@GU?$less@V?$basic_string@DU?$char_traits@D@std@@V?$allocator@D@2@@std@@@2@V?$allocator@U?$pair@$$CBV?$basic_string@DU?$char_traits@D@std@@V?$allocator@D@2@@std@@G@std@@@2@$0A@@std@@@std@@QEAAPEAU?$_Tree_node@U?$pair@$$CBV?$basic_string@DU?$char_traits@D@std@@V?$allocator@D@2@@std@@G@std@@PEAX@1@AEBU?$pair@$$CBV?$basic_string@DU?$char_traits@D@std@@V?$allocator@D@2@@std@@G@1@@Z 0000000140055c18     main.obj
 0004:00000c24       $pdata$??$_Insert_hint@AEAU?$pair@$$CBV?$basic_string@DU?$char_traits@D@std@@V?$allocator@D@2@@std@@G@std@@PEAU?$_Tree_node@U?$pair@$$CBV?$basic_string@DU?$char_traits@D@std@@V?$allocator@D@2@@std@@G@std@@PEAX@2@@?$_Tree@V?$_Tmap_traits@V?$basic_string@DU?$char_traits@D@std@@V?$allocator@D@2@@std@@GU?$less@V?$basic_string@DU?$char_traits@D@std@@V?$allocator@D@2@@std@@@2@V?$allocator@U?$pair@$$CBV?$basic_string@DU?$char_traits@D@std@@V?$allocator@D@2@@std@@G@std@@@2@$0A@@std@@@std@@IEAA?AV?$_Tree_iterator@V?$_Tree_val@U?$_Tree_simple_types@U?$pair@$$CBV?$basic_string@DU?$char_traits@D@std@@V?$allocator@D@2@@std@@G@std@@@std@@@std@@@1@V?$_Tree_const_iterator@V?$_Tree_val@U?$_Tree_simple_types@U?$pair@$$CBV?$basic_string@DU?$char_traits@D@std@@V?$allocator@D@2@@std@@G@std@@@std@@@std@@@1@AEAU?$pair@$$CBV?$basic_string@DU?$char_traits@D@std@@V?$allocator@D@2@@std@@G@1@PEAU?$_Tree_node@U?$pair@$$CBV?$basic_string@DU?$char_traits@D@std@@V?$allocator@D@2@@std@@G@std@@PEAX@1@@Z 0000000140055c24     main.obj
 0004:00000c30       $pdata$?_Buynode0@?$_Tree_comp_alloc@V?$_Tmap_traits@V?$basic_string@DU?$char_traits@D@std@@V?$allocator@D@2@@std@@GU?$less@V?$basic_string@DU?$char_traits@D@std@@V?$allocator@D@2@@std@@@2@V?$allocator@U?$pair@$$CBV?$basic_string@DU?$char_traits@D@std@@V?$allocator@D@2@@std@@G@std@@@2@$0A@@std@@@std@@QEAAPEAU?$_Tree_node@U?$pair@$$CBV?$basic_string@DU?$char_traits@D@std@@V?$allocator@D@2@@std@@G@std@@PEAX@2@XZ 0000000140055c30     main.obj
 0004:00000c3c       $pdata$?_Destroy_if_node@?$_Tree@V?$_Tmap_traits@V?$basic_string@DU?$char_traits@D@std@@V?$allocator@D@2@@std@@GU?$less@V?$basic_string@DU?$char_traits@D@std@@V?$allocator@D@2@@std@@@2@V?$allocator@U?$pair@$$CBV?$basic_string@DU?$char_traits@D@std@@V?$allocator@D@2@@std@@G@std@@@2@$0A@@std@@@std@@IEAAXPEAU?$_Tree_node@U?$pair@$$CBV?$basic_string@DU?$char_traits@D@std@@V?$allocator@D@2@@std@@G@std@@PEAX@2@@Z 0000000140055c3c     main.obj
 0004:00000c48       $pdata$??$_Uninitialized_copy_al_unchecked@PEBV?$basic_string@DU?$char_traits@D@std@@V?$allocator@D@2@@std@@PEAV12@V?$allocator@V?$basic_string@DU?$char_traits@D@std@@V?$allocator@D@2@@std@@@2@@std@@YAPEAV?$basic_string@DU?$char_traits@D@std@@V?$allocator@D@2@@0@PEBV10@0PEAV10@AEAV?$allocator@V?$basic_string@DU?$char_traits@D@std@@V?$allocator@D@2@@std@@@0@U_General_ptr_iterator_tag@0@U_Unused_parameter@0@@Z 0000000140055c48     main.obj
 0004:00000c54       $pdata$??$_Insert_at@AEAU?$pair@$$CBV?$basic_string@DU?$char_traits@D@std@@V?$allocator@D@2@@std@@G@std@@PEAU?$_Tree_node@U?$pair@$$CBV?$basic_string@DU?$char_traits@D@std@@V?$allocator@D@2@@std@@G@std@@PEAX@2@@?$_Tree@V?$_Tmap_traits@V?$basic_string@DU?$char_traits@D@std@@V?$allocator@D@2@@std@@GU?$less@V?$basic_string@DU?$char_traits@D@std@@V?$allocator@D@2@@std@@@2@V?$allocator@U?$pair@$$CBV?$basic_string@DU?$char_traits@D@std@@V?$allocator@D@2@@std@@G@std@@@2@$0A@@std@@@std@@IEAA?AV?$_Tree_iterator@V?$_Tree_val@U?$_Tree_simple_types@U?$pair@$$CBV?$basic_string@DU?$char_traits@D@std@@V?$allocator@D@2@@std@@G@std@@@std@@@std@@@1@_NPEAU?$_Tree_node@U?$pair@$$CBV?$basic_string@DU?$char_traits@D@std@@V?$allocator@D@2@@std@@G@std@@PEAX@1@AEAU?$pair@$$CBV?$basic_string@DU?$char_traits@D@std@@V?$allocator@D@2@@std@@G@1@1@Z 0000000140055c54     main.obj
 0004:00000c60       $pdata$??$_Insert_nohint@AEAU?$pair@$$CBV?$basic_string@DU?$char_traits@D@std@@V?$allocator@D@2@@std@@G@std@@PEAU?$_Tree_node@U?$pair@$$CBV?$basic_string@DU?$char_traits@D@std@@V?$allocator@D@2@@std@@G@std@@PEAX@2@@?$_Tree@V?$_Tmap_traits@V?$basic_string@DU?$char_traits@D@std@@V?$allocator@D@2@@std@@GU?$less@V?$basic_string@DU?$char_traits@D@std@@V?$allocator@D@2@@std@@@2@V?$allocator@U?$pair@$$CBV?$basic_string@DU?$char_traits@D@std@@V?$allocator@D@2@@std@@G@std@@@2@$0A@@std@@@std@@IEAA?AU?$pair@V?$_Tree_iterator@V?$_Tree_val@U?$_Tree_simple_types@U?$pair@$$CBV?$basic_string@DU?$char_traits@D@std@@V?$allocator@D@2@@std@@G@std@@@std@@@std@@@std@@_N@1@_NAEAU?$pair@$$CBV?$basic_string@DU?$char_traits@D@std@@V?$allocator@D@2@@std@@G@1@PEAU?$_Tree_node@U?$pair@$$CBV?$basic_string@DU?$char_traits@D@std@@V?$allocator@D@2@@std@@G@std@@PEAX@1@@Z 0000000140055c60     main.obj
 0004:00000c6c       $pdata$??0_Init_locks@std@@QEAA@XZ 0000000140055c6c     libcpmt:xlock.obj
 0004:00000c78       $pdata$??0_Lockit@std@@QEAA@H@Z 0000000140055c78     libcpmt:xlock.obj
 0004:00000c84       $pdata$??1_Init_locks@std@@QEAA@XZ 0000000140055c84     libcpmt:xlock.obj
 0004:00000c90       $pdata$??1_Lockit@std@@QEAA@XZ 0000000140055c90     libcpmt:xlock.obj
 0004:00000c9c       $pdata$??4?$_Yarn@D@std@@QEAAAEAV01@PEBD@Z 0000000140055c9c     libcpmt:locale0.obj
 0004:00000ca8       $pdata$??_G_Fac_node@std@@QEAAPEAXI@Z 0000000140055ca8     libcpmt:locale0.obj
 0004:00000cb4       $pdata$??_G_Locimp@locale@std@@MEAAPEAXI@Z 0000000140055cb4     libcpmt:locale0.obj
 0004:00000cc0       $pdata$?_Facet_Register@std@@YAXPEAV_Facet_base@1@@Z 0000000140055cc0     libcpmt:locale0.obj
 0004:00000ccc       $pdata$?_Init@locale@std@@CAPEAV_Locimp@12@_N@Z 0000000140055ccc     libcpmt:locale0.obj
 0004:00000cd8       $pdata$?_Locimp_dtor@_Locimp@locale@std@@CAXPEAV123@@Z 0000000140055cd8     libcpmt:locale0.obj
 0004:00000ce4       $pdata$?_Locinfo_ctor@_Locinfo@std@@SAXPEAV12@PEBD@Z 0000000140055ce4     libcpmt:locale0.obj
 0004:00000cf0       $pdata$?_Locinfo_dtor@_Locinfo@std@@SAXPEAV12@@Z 0000000140055cf0     libcpmt:locale0.obj
 0004:00000cfc       $pdata$?_New_Locimp@_Locimp@locale@std@@CAPEAV123@_N@Z 0000000140055cfc     libcpmt:locale0.obj
 0004:00000d08       $pdata$_Deletegloballocale 0000000140055d08     libcpmt:locale0.obj
 0004:00000d14       $pdata$tidy_global         0000000140055d14     libcpmt:locale0.obj
 0004:00000d20       $pdata$??0bad_alloc@std@@QEAA@AEBV01@@Z 0000000140055d20     libcpmt:xthrow.obj
 0004:00000d2c       $pdata$??0length_error@std@@QEAA@AEBV01@@Z 0000000140055d2c     libcpmt:xthrow.obj
 0004:00000d38       $pdata$??0length_error@std@@QEAA@PEBD@Z 0000000140055d38     libcpmt:xthrow.obj
 0004:00000d44       $pdata$??0logic_error@std@@QEAA@AEBV01@@Z 0000000140055d44     libcpmt:xthrow.obj
 0004:00000d50       $pdata$??0out_of_range@std@@QEAA@AEBV01@@Z 0000000140055d50     libcpmt:xthrow.obj
 0004:00000d5c       $pdata$??0out_of_range@std@@QEAA@PEBD@Z 0000000140055d5c     libcpmt:xthrow.obj
 0004:00000d68       $pdata$?_Xlength_error@std@@YAXPEBD@Z 0000000140055d68     libcpmt:xthrow.obj
 0004:00000d74       $pdata$?_Xout_of_range@std@@YAXPEBD@Z 0000000140055d74     libcpmt:xthrow.obj
 0004:00000d80       $pdata$?_Addstd@ios_base@std@@SAXPEAV12@@Z 0000000140055d80     libcpmt:ios.obj
 0004:00000d8c       $pdata$?_Ios_base_dtor@ios_base@std@@CAXPEAV12@@Z 0000000140055d8c     libcpmt:ios.obj
 0004:00000d98       $pdata$?_Tidy@ios_base@std@@AEAAXXZ 0000000140055d98     libcpmt:ios.obj
 0004:00000da4       $pdata$??$_Xfiopen@D@std@@YAPEAU_iobuf@@PEBDHH@Z 0000000140055da4     libcpmt:fiopen.obj
 0004:00000db0       $pdata$?_Random_device@std@@YAIXZ 0000000140055db0     libcpmt:xrngdev.obj
 0004:00000dbc       $pdata$_Getctype           0000000140055dbc     libcpmt:_tolower.obj
 0004:00000dc8       $pdata$_Tolower            0000000140055dc8     libcpmt:_tolower.obj
 0004:00000dd4       $pdata$_Getcvt             0000000140055dd4     libcpmt:xwctomb.obj
 0004:00000de0       $pdata$_Toupper            0000000140055de0     libcpmt:_toupper.obj
 0004:00000dec       $pdata$?initialize_pointers@@YAHXZ 0000000140055dec     libcpmt:winapisupp.obj
 0004:00000df8       $pdata$__crtInitOnceExecuteOnce 0000000140055df8     libcpmt:winapisupp.obj
 0004:00000e04       $pdata$__crtInitializeCriticalSectionEx 0000000140055e04     libcpmt:winapisupp.obj
 0004:00000e10       $pdata$?_Atexit@@YAXP6AXXZ@Z 0000000140055e10     libcpmt:iosptrs.obj
 0004:00000e1c       $pdata$__crtLCMapStringA   0000000140055e1c     libcpmt:StlLCMapStringA.obj
 0004:00000e28       $pdata$GetTableIndexFromLocaleName 0000000140055e28     libcpmt:winapinls.obj
 0004:00000e34       $pdata$__crtDownlevelLocaleNameToLCID 0000000140055e34     libcpmt:winapinls.obj
 0004:00000e40       $pdata$__crtLCMapStringEx  0000000140055e40     libcpmt:winapinls.obj
 0004:00000e58       $pdata$??2@YAPEAX_K@Z      0000000140055e58     LIBCMT:new_scalar.obj
 0004:00000e64       $pdata$??_M@YAXPEAX_K1P6AX0@Z@Z 0000000140055e64     LIBCMT:ehvecdtr.obj
 0004:00000e70       $pdata$?__ArrayUnwind@@YAXPEAX_K1P6AX0@Z@Z 0000000140055e70     LIBCMT:ehvecdtr.obj
 0004:00000e7c       $pdata$__scrt_acquire_startup_lock 0000000140055e7c     LIBCMT:utility.obj
 0004:00000e88       $pdata$__scrt_initialize_crt 0000000140055e88     LIBCMT:utility.obj
 0004:00000e94       $pdata$__scrt_initialize_onexit_tables 0000000140055e94     LIBCMT:utility.obj
 0004:00000ea0       $pdata$__scrt_is_nonwritable_in_current_image 0000000140055ea0     LIBCMT:utility.obj
 0004:00000eac       $pdata$__scrt_release_startup_lock 0000000140055eac     LIBCMT:utility.obj
 0004:00000eb8       $pdata$__scrt_uninitialize_crt 0000000140055eb8     LIBCMT:utility.obj
 0004:00000ec4       $pdata$_onexit             0000000140055ec4     LIBCMT:utility.obj
 0004:00000ed0       $pdata$atexit              0000000140055ed0     LIBCMT:utility.obj
 0004:00000edc       $pdata$??_Gtype_info@@UEAAPEAXI@Z 0000000140055edc     LIBCMT:std_type_info_static.obj
 0004:00000ee8       $pdata$?pre_c_initialization@@YAHXZ 0000000140055ee8     LIBCMT:exe_main.obj
 0004:00000ef4       $pdata$?post_pgo_initialization@@YAHXZ 0000000140055ef4     LIBCMT:exe_main.obj
 0004:00000f00       $pdata$?pre_cpp_initialization@@YAXXZ 0000000140055f00     LIBCMT:exe_main.obj
 0004:00000f0c       $pdata$?__scrt_common_main_seh@@YAHXZ 0000000140055f0c     LIBCMT:exe_main.obj
 0004:00000f18       $pdata$mainCRTStartup      0000000140055f18     LIBCMT:exe_main.obj
 0004:00000f24       $pdata$__GSHandlerCheck    0000000140055f24     LIBCMT:_gshandler_.obj
 0004:00000f30       $pdata$__GSHandlerCheckCommon 0000000140055f30     LIBCMT:_gshandler_.obj
 0004:00000f3c       $pdata$__GSHandlerCheck_EH 0000000140055f3c     LIBCMT:gshandlereh.obj
 0004:00000f54       $pdata$__raise_securityfailure 0000000140055f54     LIBCMT:gs_report.obj
 0004:00000f60       $pdata$__report_gsfailure  0000000140055f60     LIBCMT:gs_report.obj
 0004:00000f6c       $pdata$__report_rangecheckfailure 0000000140055f6c     LIBCMT:gs_report.obj
 0004:00000f78       $pdata$__report_securityfailure 0000000140055f78     LIBCMT:gs_report.obj
 0004:00000f84       $pdata$capture_current_context 0000000140055f84     LIBCMT:gs_report.obj
 0004:00000f90       $pdata$capture_previous_context 0000000140055f90     LIBCMT:gs_report.obj
 0004:00000f9c       $pdata$??0bad_array_new_length@std@@QEAA@AEBV01@@Z 0000000140055f9c     LIBCMT:throw_bad_alloc.obj
 0004:00000fa8       $pdata$?__scrt_throw_std_bad_alloc@@YAXXZ 0000000140055fa8     LIBCMT:throw_bad_alloc.obj
 0004:00000fa8       $pdata$?_Xbad_alloc@std@@YAXXZ 0000000140055fa8     libcpmt:xthrow.obj
 0004:00000fb4       $pdata$?__scrt_throw_std_bad_array_new_length@@YAXXZ 0000000140055fb4     LIBCMT:throw_bad_alloc.obj
 0004:00000fc0       $pdata$__isa_available_init 0000000140055fc0     LIBCMT:_cpu_disp_.obj
 0004:00000fcc       $pdata$__scrt_fastfail     0000000140055fcc     LIBCMT:utility_desktop.obj
 0004:00000fd8       $pdata$__scrt_is_managed_app 0000000140055fd8     LIBCMT:utility_desktop.obj
 0004:00000fe4       $pdata$__scrt_unhandled_exception_filter 0000000140055fe4     LIBCMT:utility_desktop.obj
 0004:00000ff0       $pdata$__security_init_cookie 0000000140055ff0     LIBCMT:gs_support.obj
 0004:00000ffc       $pdata$__scrt_initialize_default_local_stdio_options 0000000140055ffc     LIBCMT:default_local_stdio_options.obj
 0004:00001008       $pdata$_RTC_Initialize     0000000140056008     LIBCMT:_initsect_.obj
 0004:00001014       $pdata$_RTC_Terminate      0000000140056014     LIBCMT:_initsect_.obj
 0004:00001020       $pdata$?_ExecutionInCatch@@YAHPEAU_xDISPATCHER_CONTEXT@@PEBU_s_FuncInfo@@@Z 0000000140056020     libvcruntime:risctrnsctrl.obj
 0004:0000102c       $pdata$?_GetEstablisherFrame@@YAPEA_KPEA_KPEAU_xDISPATCHER_CONTEXT@@PEBU_s_FuncInfo@@0@Z 000000014005602c     libvcruntime:risctrnsctrl.obj
 0004:00001038       $pdata$?_GetRangeOfTrysToCheck@@YAPEBU_s_TryBlockMapEntry@@PEA_KPEBU_s_FuncInfo@@HHPEAI2PEAU_xDISPATCHER_CONTEXT@@@Z 0000000140056038     libvcruntime:risctrnsctrl.obj
 0004:00001044       $pdata$?__FrameUnwindToEmptyState@@YAXPEA_KPEAU_xDISPATCHER_CONTEXT@@PEBU_s_FuncInfo@@@Z 0000000140056044     libvcruntime:risctrnsctrl.obj
 0004:00001050       $pdata$_CallSETranslator   0000000140056050     libvcruntime:risctrnsctrl.obj
 0004:0000105c       $pdata$_CreateFrameInfo    000000014005605c     libvcruntime:risctrnsctrl.obj
 0004:00001068       $pdata$_FindAndUnlinkFrame 0000000140056068     libvcruntime:risctrnsctrl.obj
 0004:00001074       $pdata$_GetImageBase       0000000140056074     libvcruntime:risctrnsctrl.obj
 0004:00001080       $pdata$_GetThrowImageBase  0000000140056080     libvcruntime:risctrnsctrl.obj
 0004:0000108c       $pdata$_SetImageBase       000000014005608c     libvcruntime:risctrnsctrl.obj
 0004:00001098       $pdata$_SetThrowImageBase  0000000140056098     libvcruntime:risctrnsctrl.obj
 0004:000010a4       $pdata$_UnwindNestedFrames 00000001400560a4     libvcruntime:risctrnsctrl.obj
 0004:000010b0       $pdata$__CxxFrameHandler3  00000001400560b0     libvcruntime:risctrnsctrl.obj
 0004:000010bc       $pdata$__std_exception_copy 00000001400560bc     libvcruntime:std_exception.obj
 0004:000010c8       $pdata$__std_exception_destroy 00000001400560c8     libvcruntime:std_exception.obj
 0004:000010e0       $pdata$_purecall           00000001400560e0     libvcruntime:purevirt.obj
 0004:000010f8       $pdata$__DestructExceptionObject 00000001400560f8     libvcruntime:ehhelpers.obj
 0004:00001104       $pdata$_IsExceptionObjectToBeDestroyed 0000000140056104     libvcruntime:ehhelpers.obj
 0004:00001110       $pdata$__FrameUnwindFilter 0000000140056110     libvcruntime:ehhelpers.obj
 0004:0000111c       $pdata$__std_terminate     000000014005611c     libvcruntime:ehhelpers.obj
 0004:00001128       $pdata$__uncaught_exceptions 0000000140056128     libvcruntime:ehhelpers.obj
 0004:00001134       $pdata$_CxxThrowException  0000000140056134     libvcruntime:throw.obj
 0004:00001158       $pdata$__C_specific_handler 0000000140056158     libvcruntime:_riscchandler_.obj
 0004:00001164       $pdata$__vcrt_initialize   0000000140056164     libvcruntime:initialization.obj
 0004:00001170       $pdata$__vcrt_uninitialize 0000000140056170     libvcruntime:initialization.obj
 0004:0000117c       $pdata$__vcrt_freefls      000000014005617c     libvcruntime:per_thread_data.obj
 0004:00001188       $pdata$__vcrt_getptd       0000000140056188     libvcruntime:per_thread_data.obj
 0004:00001194       $pdata$__vcrt_getptd_noexit 0000000140056194     libvcruntime:per_thread_data.obj
 0004:000011a0       $pdata$__vcrt_getptd_noinit 00000001400561a0     libvcruntime:per_thread_data.obj
 0004:000011ac       $pdata$__vcrt_initialize_ptd 00000001400561ac     libvcruntime:per_thread_data.obj
 0004:000011b8       $pdata$__vcrt_uninitialize_ptd 00000001400561b8     libvcruntime:per_thread_data.obj
 0004:000011c4       $pdata$?__GetCurrentState@@YAHPEA_KPEAU_xDISPATCHER_CONTEXT@@PEBU_s_FuncInfo@@@Z 00000001400561c4     libvcruntime:riscehstate.obj
 0004:000011d0       $pdata$?__GetUnwindTryBlock@@YAHPEA_KPEAU_xDISPATCHER_CONTEXT@@PEBU_s_FuncInfo@@@Z 00000001400561d0     libvcruntime:riscehstate.obj
 0004:000011dc       $pdata$?__SetUnwindTryBlock@@YAXPEA_KPEAU_xDISPATCHER_CONTEXT@@PEBU_s_FuncInfo@@H@Z 00000001400561dc     libvcruntime:riscehstate.obj
 0004:000011e8       $pdata$?__StateFromIp@@YAHPEBU_s_FuncInfo@@PEAU_xDISPATCHER_CONTEXT@@_K@Z 00000001400561e8     libvcruntime:riscehstate.obj
 0004:000011f4       $pdata$??0bad_exception@std@@QEAA@AEBV01@@Z 00000001400561f4     libvcruntime:frame.obj
 0004:00001200       $pdata$?CatchIt@@YAXPEAUEHExceptionRecord@@PEA_KPEAU_CONTEXT@@PEAU_xDISPATCHER_CONTEXT@@PEBU_s_FuncInfo@@PEBU_s_HandlerType@@PEBU_s_CatchableType@@PEBU_s_TryBlockMapEntry@@H1EE@Z 0000000140056200     libvcruntime:frame.obj
 0004:0000120c       $pdata$?ExFilterRethrow@@YAHPEAU_EXCEPTION_POINTERS@@PEAUEHExceptionRecord@@PEAH@Z 000000014005620c     libvcruntime:frame.obj
 0004:00001218       $pdata$?FindHandler@@YAXPEAUEHExceptionRecord@@PEA_KPEAU_CONTEXT@@PEAU_xDISPATCHER_CONTEXT@@PEBU_s_FuncInfo@@EH1@Z 0000000140056218     libvcruntime:frame.obj
 0004:00001224       $pdata$?FindHandlerForForeignException@@YAXPEAUEHExceptionRecord@@PEA_KPEAU_CONTEXT@@PEAU_xDISPATCHER_CONTEXT@@PEBU_s_FuncInfo@@HH1@Z 0000000140056224     libvcruntime:frame.obj
 0004:00001230       $pdata$?IsInExceptionSpec@@YAEPEAUEHExceptionRecord@@PEBU_s_ESTypeList@@@Z 0000000140056230     libvcruntime:frame.obj
 0004:0000123c       $pdata$__BuildCatchObject  000000014005623c     libvcruntime:frame.obj
 0004:00001248       $pdata$__BuildCatchObjectHelper 0000000140056248     libvcruntime:frame.obj
 0004:00001254       $pdata$__CxxCallCatchBlock 0000000140056254     libvcruntime:frame.obj
 0004:00001260       $pdata$__FrameUnwindToState 0000000140056260     libvcruntime:frame.obj
 0004:0000126c       $pdata$__InternalCxxFrameHandler 000000014005626c     libvcruntime:frame.obj
 0004:00001278       $pdata$__TypeMatch         0000000140056278     libvcruntime:frame.obj
 0004:000012b4       $pdata$__vcrt_initialize_locks 00000001400562b4     libvcruntime:locks.obj
 0004:000012c0       $pdata$__vcrt_uninitialize_locks 00000001400562c0     libvcruntime:locks.obj
 0004:000012cc       $pdata$?try_get_function@@YAPEAXW4function_id@?A0xc646a32c@@QEBDQEBW4module_id@2@2@Z 00000001400562cc     libvcruntime:winapi_downlevel.obj
 0004:000012d8       $pdata$__vcrt_FlsAlloc     00000001400562d8     libvcruntime:winapi_downlevel.obj
 0004:000012e4       $pdata$__vcrt_FlsFree      00000001400562e4     libvcruntime:winapi_downlevel.obj
 0004:000012f0       $pdata$__vcrt_FlsGetValue  00000001400562f0     libvcruntime:winapi_downlevel.obj
 0004:000012fc       $pdata$__vcrt_FlsSetValue  00000001400562fc     libvcruntime:winapi_downlevel.obj
 0004:00001308       $pdata$__vcrt_InitializeCriticalSectionEx 0000000140056308     libvcruntime:winapi_downlevel.obj
 0004:00001314       $pdata$__vcrt_initialize_winapi_thunks 0000000140056314     libvcruntime:winapi_downlevel.obj
 0004:00001320       $pdata$__vcrt_uninitialize_winapi_thunks 0000000140056320     libvcruntime:winapi_downlevel.obj
 0004:00001338       $pdata$??$?RV<lambda_9bd929c17696992ce54f1d748594fc62>@@AEAV<lambda_082c17da81b0962e08c0587ee0fac50c>@@V<lambda_9c08ac857f4975304d44e9f601d9b878>@@@?$__crt_seh_guarded_call@PEAD@@QEAAPEAD$$QEAV<lambda_9bd929c17696992ce54f1d748594fc62>@@AEAV<lambda_082c17da81b0962e08c0587ee0fac50c>@@$$QEAV<lambda_9c08ac857f4975304d44e9f601d9b878>@@@Z 0000000140056338     libucrt:setlocale.obj
 0004:00001344       $pdata$??R<lambda_082c17da81b0962e08c0587ee0fac50c>@@QEBAPEADXZ 0000000140056344     libucrt:setlocale.obj
 0004:00001350       $pdata$setlocale           0000000140056350     libucrt:setlocale.obj
 0004:0000135c       $pdata$fputc               000000014005635c     libucrt:fputc.obj
 0004:00001368       $pdata$rand                0000000140056368     libucrt:rand.obj
 0004:00001374       $pdata$srand               0000000140056374     libucrt:rand.obj
 0004:00001380       $pdata$??$?RV<lambda_842d9ff0dc9ef11c61343bbaebe7f885>@@AEAV<lambda_c5860995281e5c4ce005b3de8f5874ee>@@V<lambda_d90129c13df834fdcbf8d2b88dafcf2d>@@@?$__crt_seh_guarded_call@X@@QEAAX$$QEAV<lambda_842d9ff0dc9ef11c61343bbaebe7f885>@@AEAV<lambda_c5860995281e5c4ce005b3de8f5874ee>@@$$QEAV<lambda_d90129c13df834fdcbf8d2b88dafcf2d>@@@Z 0000000140056380     libucrt:fflush.obj
 0004:0000138c       $pdata$??$?RV<lambda_886d6c58226a84441f68b9f2b8217b83>@@AEAV<lambda_ab61a845afdef5b7c387490eaf3616ee>@@V<lambda_f7f22ab5edc0698d5f6905b0d3f44752>@@@?$__crt_seh_guarded_call@X@@QEAAX$$QEAV<lambda_886d6c58226a84441f68b9f2b8217b83>@@AEAV<lambda_ab61a845afdef5b7c387490eaf3616ee>@@$$QEAV<lambda_f7f22ab5edc0698d5f6905b0d3f44752>@@@Z 000000014005638c     libucrt:fflush.obj
 0004:00001398       $pdata$??$?RV<lambda_c376a267cfb53b6959b3b692ec76b120>@@AEAV<lambda_9a32fed5bf61b6b509b2d3f6003082a1>@@V<lambda_572fbb9fa0ab338edf41edfd4b5fcc8d>@@@?$__crt_seh_guarded_call@H@@QEAAH$$QEAV<lambda_c376a267cfb53b6959b3b692ec76b120>@@AEAV<lambda_9a32fed5bf61b6b509b2d3f6003082a1>@@$$QEAV<lambda_572fbb9fa0ab338edf41edfd4b5fcc8d>@@@Z 0000000140056398     libucrt:fflush.obj
 0004:000013a4       $pdata$?common_flush_all@@YAH_N@Z 00000001400563a4     libucrt:fflush.obj
 0004:000013b0       $pdata$__acrt_stdio_flush_nolock 00000001400563b0     libucrt:fflush.obj
 0004:000013bc       $pdata$_fflush_nolock      00000001400563bc     libucrt:fflush.obj
 0004:000013c8       $pdata$fflush              00000001400563c8     libucrt:fflush.obj
 0004:000013d4       $pdata$_fclose_nolock      00000001400563d4     libucrt:fclose.obj
 0004:000013e0       $pdata$fclose              00000001400563e0     libucrt:fclose.obj
 0004:000013ec       $pdata$remove              00000001400563ec     libucrt:unlink.obj
 0004:000013f8       $pdata$strcspn             00000001400563f8     libucrt:strcspn.obj
 0004:00001404       $pdata$??$common_vsprintf@Vformat_validation_base@__crt_stdio_output@@D@@YAH_KQEAD0QEBDQEAU__crt_locale_pointers@@1@Z 0000000140056404     libucrt:output.obj
 0004:00001410       $pdata$??$ensure_buffer_is_big_enough@D@formatting_buffer@__crt_stdio_output@@QEAA_N_K@Z 0000000140056410     libucrt:output.obj
 0004:0000141c       $pdata$??$type_case_integer_parse_into_buffer@I@?$output_processor@DV?$string_output_adapter@D@__crt_stdio_output@@V?$format_validation_base@DV?$string_output_adapter@D@__crt_stdio_output@@@2@@__crt_stdio_output@@AEAAXII_N@Z 000000014005641c     libucrt:output.obj
 0004:00001428       $pdata$??$type_case_integer_parse_into_buffer@_K@?$output_processor@DV?$string_output_adapter@D@__crt_stdio_output@@V?$format_validation_base@DV?$string_output_adapter@D@__crt_stdio_output@@@2@@__crt_stdio_output@@AEAAX_KI_N@Z 0000000140056428     libucrt:output.obj
 0004:00001434       $pdata$??$write_multiple_characters@V?$string_output_adapter@D@__crt_stdio_output@@D@__crt_stdio_output@@YAXAEBV?$string_output_adapter@D@0@DHQEAH@Z 0000000140056434     libucrt:output.obj
 0004:00001440       $pdata$??0_LocaleUpdate@@QEAA@QEAU__crt_locale_pointers@@@Z 0000000140056440     libucrt:output.obj
 0004:0000144c       $pdata$?force_decimal_point@__crt_stdio_output@@YAXPEADQEAU__crt_locale_pointers@@@Z 000000014005644c     libucrt:output.obj
 0004:00001458       $pdata$?parse_int_from_format_string@?$output_processor@DV?$string_output_adapter@D@__crt_stdio_output@@V?$format_validation_base@DV?$string_output_adapter@D@__crt_stdio_output@@@2@@__crt_stdio_output@@AEAA_NQEAH@Z 0000000140056458     libucrt:output.obj
 0004:00001464       $pdata$?process@?$output_processor@DV?$string_output_adapter@D@__crt_stdio_output@@V?$format_validation_base@DV?$string_output_adapter@D@__crt_stdio_output@@@2@@__crt_stdio_output@@QEAAHXZ 0000000140056464     libucrt:output.obj
 0004:00001470       $pdata$?state_case_normal@?$output_processor@DV?$string_output_adapter@D@__crt_stdio_output@@V?$format_validation_base@DV?$string_output_adapter@D@__crt_stdio_output@@@2@@__crt_stdio_output@@AEAA_NXZ 0000000140056470     libucrt:output.obj
 0004:0000147c       $pdata$?state_case_normal_tchar@?$output_processor@DV?$string_output_adapter@D@__crt_stdio_output@@V?$format_validation_base@DV?$string_output_adapter@D@__crt_stdio_output@@@2@@__crt_stdio_output@@AEAA_ND@Z 000000014005647c     libucrt:output.obj
 0004:00001488       $pdata$?state_case_size@?$output_processor@DV?$string_output_adapter@D@__crt_stdio_output@@V?$format_validation_base@DV?$string_output_adapter@D@__crt_stdio_output@@@2@@__crt_stdio_output@@AEAA_NXZ 0000000140056488     libucrt:output.obj
 0004:00001494       $pdata$?state_case_type@?$output_processor@DV?$string_output_adapter@D@__crt_stdio_output@@V?$format_validation_base@DV?$string_output_adapter@D@__crt_stdio_output@@@2@@__crt_stdio_output@@AEAA_NXZ 0000000140056494     libucrt:output.obj
 0004:000014a0       $pdata$?type_case_Z@?$output_processor@DV?$string_output_adapter@D@__crt_stdio_output@@V?$format_validation_base@DV?$string_output_adapter@D@__crt_stdio_output@@@2@@__crt_stdio_output@@AEAA_NXZ 00000001400564a0     libucrt:output.obj
 0004:000014ac       $pdata$?type_case_a@?$output_processor@DV?$string_output_adapter@D@__crt_stdio_output@@V?$format_validation_base@DV?$string_output_adapter@D@__crt_stdio_output@@@2@@__crt_stdio_output@@AEAA_NXZ 00000001400564ac     libucrt:output.obj
 0004:000014b8       $pdata$?type_case_c_tchar@?$output_processor@DV?$string_output_adapter@D@__crt_stdio_output@@V?$format_validation_base@DV?$string_output_adapter@D@__crt_stdio_output@@@2@@__crt_stdio_output@@AEAA_ND@Z 00000001400564b8     libucrt:output.obj
 0004:000014c4       $pdata$?type_case_integer@?$output_processor@DV?$string_output_adapter@D@__crt_stdio_output@@V?$format_validation_base@DV?$string_output_adapter@D@__crt_stdio_output@@@2@@__crt_stdio_output@@AEAA_NI_N@Z 00000001400564c4     libucrt:output.obj
 0004:000014d0       $pdata$?type_case_n@?$output_processor@DV?$string_output_adapter@D@__crt_stdio_output@@V?$format_validation_base@DV?$string_output_adapter@D@__crt_stdio_output@@@2@@__crt_stdio_output@@AEAA_NXZ 00000001400564d0     libucrt:output.obj
 0004:000014dc       $pdata$?type_case_s@?$output_processor@DV?$string_output_adapter@D@__crt_stdio_output@@V?$format_validation_base@DV?$string_output_adapter@D@__crt_stdio_output@@@2@@__crt_stdio_output@@AEAA_NXZ 00000001400564dc     libucrt:output.obj
 0004:000014e8       $pdata$?write_stored_string_tchar@?$output_processor@DV?$string_output_adapter@D@__crt_stdio_output@@V?$format_validation_base@DV?$string_output_adapter@D@__crt_stdio_output@@@2@@__crt_stdio_output@@AEAA_ND@Z 00000001400564e8     libucrt:output.obj
 0004:000014f4       $pdata$?write_string@?$string_output_adapter@D@__crt_stdio_output@@QEBAXQEBDHQEAHAEAV__crt_deferred_errno_cache@@@Z 00000001400564f4     libucrt:output.obj
 0004:00001500       $pdata$__stdio_common_vsprintf_s 0000000140056500     libucrt:output.obj
 0004:0000150c       $pdata$_fgetc_nolock       000000014005650c     libucrt:fgetc.obj
 0004:00001518       $pdata$fgetc               0000000140056518     libucrt:fgetc.obj
 0004:00001524       $pdata$__acrt_call_reportfault 0000000140056524     libucrt:invalid_parameter.obj
 0004:00001530       $pdata$_invalid_parameter  0000000140056530     libucrt:invalid_parameter.obj
 0004:0000153c       $pdata$_invalid_parameter_noinfo 000000014005653c     libucrt:invalid_parameter.obj
 0004:00001548       $pdata$_invalid_parameter_noinfo_noreturn 0000000140056548     libucrt:invalid_parameter.obj
 0004:00001554       $pdata$_invoke_watson      0000000140056554     libucrt:invalid_parameter.obj
 0004:00001560       $pdata$system              0000000140056560     libucrt:system.obj
 0004:0000156c       $pdata$_access             000000014005656c     libucrt:access.obj
 0004:00001578       $pdata$_access_s           0000000140056578     libucrt:access.obj
 0004:00001584       $pdata$terminate           0000000140056584     libucrt:terminate.obj
 0004:00001590       $pdata$__acrt_initialize_stdio 0000000140056590     libucrt:_file.obj
 0004:0000159c       $pdata$__acrt_uninitialize_stdio 000000014005659c     libucrt:_file.obj
 0004:000015a8       $pdata$_get_stream_buffer_pointers 00000001400565a8     libucrt:_file.obj
 0004:000015b4       $pdata$localeconv          00000001400565b4     libucrt:localeconv.obj
 0004:000015c0       $pdata$??$?RV<lambda_bdbcead8b570fa3d5ec6d9679862a6e5>@@AEAV<lambda_96f4279ff90247a4c5c5d9824f56f8c1>@@V<lambda_4606be27f17b5e5579e09050fab91818>@@@?$__crt_seh_guarded_call@_K@@QEAA_K$$QEAV<lambda_bdbcead8b570fa3d5ec6d9679862a6e5>@@AEAV<lambda_96f4279ff90247a4c5c5d9824f56f8c1>@@$$QEAV<lambda_4606be27f17b5e5579e09050fab91818>@@@Z 00000001400565c0     libucrt:fwrite.obj
 0004:000015cc       $pdata$??R<lambda_96f4279ff90247a4c5c5d9824f56f8c1>@@QEBA_KXZ 00000001400565cc     libucrt:fwrite.obj
 0004:000015d8       $pdata$_fwrite_nolock      00000001400565d8     libucrt:fwrite.obj
 0004:000015e4       $pdata$fwrite              00000001400565e4     libucrt:fwrite.obj
 0004:000015f0       $pdata$__acrt_errno_map_os_error 00000001400565f0     libucrt:errno.obj
 0004:000015fc       $pdata$__doserrno          00000001400565fc     libucrt:errno.obj
 0004:00001608       $pdata$_errno              0000000140056608     libucrt:errno.obj
 0004:00001614       $pdata$fgetpos             0000000140056614     libucrt:fgetpos.obj
 0004:00001620       $pdata$??$?RV<lambda_84ec643ea9557e2f7dc01bb0e9624395>@@AEAV<lambda_ca71763b3c0644891230e4f79ea54fa6>@@V<lambda_439a761618c59b0600e24586724d733b>@@@?$__crt_seh_guarded_call@H@@QEAAH$$QEAV<lambda_84ec643ea9557e2f7dc01bb0e9624395>@@AEAV<lambda_ca71763b3c0644891230e4f79ea54fa6>@@$$QEAV<lambda_439a761618c59b0600e24586724d733b>@@@Z 0000000140056620     libucrt:setvbuf.obj
 0004:0000162c       $pdata$??R<lambda_ca71763b3c0644891230e4f79ea54fa6>@@QEBAHXZ 000000014005662c     libucrt:setvbuf.obj
 0004:00001638       $pdata$setvbuf             0000000140056638     libucrt:setvbuf.obj
 0004:00001644       $pdata$??$common_timespec_get@U_timespec64@@@@YAHQEAU_timespec64@@H@Z 0000000140056644     libucrt:time.obj
 0004:00001650       $pdata$_time64             0000000140056650     libucrt:time.obj
 0004:0000165c       $pdata$??$parse_integer@KV?$c_string_character_source@D@__crt_strtox@@@__crt_strtox@@YAKQEAU__crt_locale_pointers@@V?$c_string_character_source@D@0@H_N@Z 000000014005665c     libucrt:atox.obj
 0004:00001668       $pdata$??$parse_integer@KV?$c_string_character_source@_W@__crt_strtox@@@__crt_strtox@@YAKQEAU__crt_locale_pointers@@V?$c_string_character_source@_W@0@H_N@Z 0000000140056668     libucrt:atox.obj
 0004:00001674       $pdata$_wtol               0000000140056674     libucrt:atox.obj
 0004:00001680       $pdata$atoi                0000000140056680     libucrt:atox.obj
 0004:0000168c       $pdata$_ungetc_nolock      000000014005668c     libucrt:ungetc.obj
 0004:00001698       $pdata$ungetc              0000000140056698     libucrt:ungetc.obj
 0004:000016a4       $pdata$frexp               00000001400566a4     libucrt:frexp.obj
 0004:000016b0       $pdata$fsetpos             00000001400566b0     libucrt:fsetpos.obj
 0004:000016bc       $pdata$?common_fseek@@YAHV__crt_stdio_stream@@_JH@Z 00000001400566bc     libucrt:fseek.obj
 0004:000016c8       $pdata$?common_fseek_binary_mode_read_only_fast_track_nolock@@YA_NV__crt_stdio_stream@@_JH@Z 00000001400566c8     libucrt:fseek.obj
 0004:000016d4       $pdata$?common_fseek_nolock@@YAHV__crt_stdio_stream@@_JH@Z 00000001400566d4     libucrt:fseek.obj
 0004:000016e0       $pdata$__acrt_initialize_locks 00000001400566e0     libucrt:locks.obj
 0004:000016ec       $pdata$__acrt_uninitialize_locks 00000001400566ec     libucrt:locks.obj
 0004:000016f8       $pdata$_lock_locales       00000001400566f8     libucrt:locks.obj
 0004:00001704       $pdata$??$common_fsopen@D@@YAPEAU_iobuf@@QEBD0H@Z 0000000140056704     libucrt:fopen.obj
 0004:00001710       $pdata$rand_s              0000000140056710     libucrt:rand_s.obj
 0004:0000171c       $pdata$_calloc_base        000000014005671c     libucrt:calloc_base.obj
 0004:00001728       $pdata$__pctype_func       0000000140056728     libucrt:ctype.obj
 0004:00001734       $pdata$isdigit             0000000140056734     libucrt:_ctype.obj
 0004:00001740       $pdata$islower             0000000140056740     libucrt:_ctype.obj
 0004:0000174c       $pdata$isupper             000000014005674c     libucrt:_ctype.obj
 0004:00001758       $pdata$_wcsdup             0000000140056758     libucrt:wcsdup.obj
 0004:00001764       $pdata$___lc_codepage_func 0000000140056764     libucrt:initctype.obj
 0004:00001770       $pdata$___lc_locale_name_func 0000000140056770     libucrt:initctype.obj
 0004:0000177c       $pdata$___mb_cur_max_func  000000014005677c     libucrt:initctype.obj
 0004:00001788       $pdata$__acrt_locale_initialize_ctype 0000000140056788     libucrt:initctype.obj
 0004:00001794       $pdata$?x_ismbbtype_l@@YAHPEAU__crt_locale_pointers@@IHH@Z 0000000140056794     libucrt:ismbbyte.obj
 0004:000017a0       $pdata$abort               00000001400567a0     libucrt:abort.obj
 0004:000017ac       $pdata$_malloc_base        00000001400567ac     libucrt:malloc_base.obj
 0004:000017b8       $pdata$_realloc_base       00000001400567b8     libucrt:realloc_base.obj
 0004:000017c4       $pdata$?divide@__crt_strtox@@YA_KAEAUbig_integer@1@AEBU21@@Z 00000001400567c4     libucrt:strtod.obj
 0004:000017d0       $pdata$5$?divide@__crt_strtox@@YA_KAEAUbig_integer@1@AEBU21@@Z 00000001400567d0     libucrt:strtod.obj
 0004:000017dc       $pdata$6$?divide@__crt_strtox@@YA_KAEAUbig_integer@1@AEBU21@@Z 00000001400567dc     libucrt:strtod.obj
 0004:00001800       $pdata$_free_base          0000000140056800     libucrt:free_base.obj
 0004:0000180c       $pdata$?internal_isupper_l@@YA_NHQEAU__crt_locale_pointers@@@Z 000000014005680c     libucrt:tolower_toupper.obj
 0004:00001818       $pdata$_tolower_l          0000000140056818     libucrt:tolower_toupper.obj
 0004:00001824       $pdata$tolower             0000000140056824     libucrt:tolower_toupper.obj
 0004:00001830       $pdata$wcscpy_s            0000000140056830     libucrt:wcscpy_s.obj
 0004:0000183c       $pdata$_callnewh           000000014005683c     libucrt:new_handler.obj
 0004:00001848       $pdata$_query_new_handler  0000000140056848     libucrt:new_handler.obj
 0004:00001854       $pdata$_seh_filter_exe     0000000140056854     libucrt:exception_filter.obj
 0004:00001860       $pdata$??$?RV<lambda_d80eeec6fff315bfe5c115232f3240e3>@@AEAV<lambda_6e4b09c48022b2350581041d5f6b0c4c>@@V<lambda_2358e3775559c9db80273638284d5e45>@@@?$__crt_seh_guarded_call@X@@QEAAX$$QEAV<lambda_d80eeec6fff315bfe5c115232f3240e3>@@AEAV<lambda_6e4b09c48022b2350581041d5f6b0c4c>@@$$QEAV<lambda_2358e3775559c9db80273638284d5e45>@@@Z 0000000140056860     libucrt:exit.obj
 0004:0000186c       $pdata$??R<lambda_6e4b09c48022b2350581041d5f6b0c4c>@@QEBA@XZ 000000014005686c     libucrt:exit.obj
 0004:00001878       $pdata$?common_exit@@YAXHW4_crt_exit_cleanup_mode@@W4_crt_exit_return_mode@@@Z 0000000140056878     libucrt:exit.obj
 0004:00001884       $pdata$?exit_or_terminate_process@@YAXI@Z 0000000140056884     libucrt:exit.obj
 0004:00001890       $pdata$?try_cor_exit_process@@YAXI@Z 0000000140056890     libucrt:exit.obj
 0004:0000189c       $pdata$_register_thread_local_exe_atexit_callback 000000014005689c     libucrt:exit.obj
 0004:000018a8       $pdata$??$parse_command_line@D@@YAXPEADPEAPEAD0PEA_K2@Z 00000001400568a8     libucrt:argv_parsing.obj
 0004:000018b4       $pdata$__acrt_allocate_buffer_for_argv 00000001400568b4     libucrt:argv_parsing.obj
 0004:000018c0       $pdata$_configure_narrow_argv 00000001400568c0     libucrt:argv_parsing.obj
 0004:000018cc       $pdata$??$common_initialize_environment_nolock@D@@YAHXZ 00000001400568cc     libucrt:environment_initialization.obj
 0004:000018d8       $pdata$??$create_environment@D@@YAQEAPEADQEAD@Z 00000001400568d8     libucrt:environment_initialization.obj
 0004:000018e4       $pdata$??$free_environment@_W@@YAXQEAPEA_W@Z 00000001400568e4     libucrt:environment_initialization.obj
 0004:000018e4       $pdata$??$free_environment@D@@YAXQEAPEAD@Z 00000001400568e4     libucrt:environment_initialization.obj
 0004:000018f0       $pdata$??$initialize_environment_by_cloning_nolock@D@@YAHXZ 00000001400568f0     libucrt:environment_initialization.obj
 0004:000018fc       $pdata$??$uninitialize_environment_internal@D@@YAXAEAPEAPEAD@Z 00000001400568fc     libucrt:environment_initialization.obj
 0004:00001908       $pdata$??$uninitialize_environment_internal@_W@@YAXAEAPEAPEA_W@Z 0000000140056908     libucrt:environment_initialization.obj
 0004:00001914       $pdata$__dcrt_get_or_create_narrow_environment_nolock 0000000140056914     libucrt:environment_initialization.obj
 0004:00001920       $pdata$__dcrt_uninitialize_environments_nolock 0000000140056920     libucrt:environment_initialization.obj
 0004:0000192c       $pdata$_get_initial_narrow_environment 000000014005692c     libucrt:environment_initialization.obj
 0004:00001938       $pdata$??$?RV<lambda_7777bce6b2f8c936911f934f8298dc43>@@AEAV<lambda_f03950bc5685219e0bcd2087efbe011e>@@V<lambda_3883c3dff614d5e0c5f61bb1ac94921c>@@@?$__crt_seh_guarded_call@H@@QEAAH$$QEAV<lambda_7777bce6b2f8c936911f934f8298dc43>@@AEAV<lambda_f03950bc5685219e0bcd2087efbe011e>@@$$QEAV<lambda_3883c3dff614d5e0c5f61bb1ac94921c>@@@Z 0000000140056938     libucrt:onexit.obj
 0004:00001944       $pdata$??$?RV<lambda_8369fcb7c4df1e85de37618bd2b85f07>@@AEAV<lambda_a10e4b102d4a2c3aac6f4f48bbdf488f>@@V<lambda_5b7707bd6d7a0c4713179f36c7fd995d>@@@?$__crt_seh_guarded_call@H@@QEAAH$$QEAV<lambda_8369fcb7c4df1e85de37618bd2b85f07>@@AEAV<lambda_a10e4b102d4a2c3aac6f4f48bbdf488f>@@$$QEAV<lambda_5b7707bd6d7a0c4713179f36c7fd995d>@@@Z 0000000140056944     libucrt:onexit.obj
 0004:00001950       $pdata$??R<lambda_a10e4b102d4a2c3aac6f4f48bbdf488f>@@QEBAHXZ 0000000140056950     libucrt:onexit.obj
 0004:0000195c       $pdata$??R<lambda_f03950bc5685219e0bcd2087efbe011e>@@QEBAHXZ 000000014005695c     libucrt:onexit.obj
 0004:00001968       $pdata$_execute_onexit_table 0000000140056968     libucrt:onexit.obj
 0004:00001974       $pdata$_register_onexit_function 0000000140056974     libucrt:onexit.obj
 0004:00001980       $pdata$initialize_c        0000000140056980     libucrt:initialization.obj
 0004:0000198c       $pdata$uninitialize_environment 000000014005698c     libucrt:initialization.obj
 0004:00001998       $pdata$initialize_pointers 0000000140056998     libucrt:initialization.obj
 0004:000019a4       $pdata$uninitialize_allocated_memory 00000001400569a4     libucrt:initialization.obj
 0004:000019b0       $pdata$__acrt_uninitialize 00000001400569b0     libucrt:initialization.obj
 0004:000019bc       $pdata$_initterm           00000001400569bc     libucrt:initterm.obj
 0004:000019c8       $pdata$_initterm_e         00000001400569c8     libucrt:initterm.obj
 0004:000019d4       $pdata$_get_fmode          00000001400569d4     libucrt:setmode.obj
 0004:000019e0       $pdata$_set_fmode          00000001400569e0     libucrt:setmode.obj
 0004:000019ec       $pdata$_setmode_nolock     00000001400569ec     libucrt:setmode.obj
 0004:000019f8       $pdata$__acrt_initialize_command_line 00000001400569f8     libucrt:argv_data.obj
 0004:00001a04       $pdata$??$?RV<lambda_410d79af7f07d98d83a3f525b3859a53>@@AEAV<lambda_3e16ef9562a7dcce91392c22ab16ea36>@@V<lambda_38119f0e861e05405d8a144b9b982f0a>@@@?$__crt_seh_guarded_call@X@@QEAAX$$QEAV<lambda_410d79af7f07d98d83a3f525b3859a53>@@AEAV<lambda_3e16ef9562a7dcce91392c22ab16ea36>@@$$QEAV<lambda_38119f0e861e05405d8a144b9b982f0a>@@@Z 0000000140056a04     libucrt:wsetlocale.obj
 0004:00001a10       $pdata$??$?RV<lambda_9529fede68560d7205a1271ab16b352e>@@AEAV<lambda_ebf8c556deb379764da826e7bb46e993>@@V<lambda_db92443d3c9ace7c8a20b950bb983b5a>@@@?$__crt_seh_guarded_call@X@@QEAAX$$QEAV<lambda_9529fede68560d7205a1271ab16b352e>@@AEAV<lambda_ebf8c556deb379764da826e7bb46e993>@@$$QEAV<lambda_db92443d3c9ace7c8a20b950bb983b5a>@@@Z 0000000140056a10     libucrt:wsetlocale.obj
 0004:00001a1c       $pdata$??$?RV<lambda_d8a01803c7231904df012bb083be9e3a>@@AEAV<lambda_b163b37eafe0a13f2c371fafeb0365c9>@@AEAV<lambda_8dff2cf36a5417162780cd64fa2883ef>@@@?$__crt_seh_guarded_call@X@@QEAAX$$QEAV<lambda_d8a01803c7231904df012bb083be9e3a>@@AEAV<lambda_b163b37eafe0a13f2c371fafeb0365c9>@@AEAV<lambda_8dff2cf36a5417162780cd64fa2883ef>@@@Z 0000000140056a1c     libucrt:wsetlocale.obj
 0004:00001a28       $pdata$??R<lambda_b163b37eafe0a13f2c371fafeb0365c9>@@QEBA@XZ 0000000140056a28     libucrt:wsetlocale.obj
 0004:00001a34       $pdata$__acrt_copy_locale_name 0000000140056a34     libucrt:wsetlocale.obj
 0004:00001a40       $pdata$__acrt_uninitialize_locale 0000000140056a40     libucrt:wsetlocale.obj
 0004:00001a4c       $pdata$__lc_lctowcs        0000000140056a4c     libucrt:wsetlocale.obj
 0004:00001a58       $pdata$__lc_wcstolc        0000000140056a58     libucrt:wsetlocale.obj
 0004:00001a64       $pdata$_configthreadlocale 0000000140056a64     libucrt:wsetlocale.obj
 0004:00001a70       $pdata$_copytlocinfo_nolock 0000000140056a70     libucrt:wsetlocale.obj
 0004:00001a7c       $pdata$_expandlocale       0000000140056a7c     libucrt:wsetlocale.obj
 0004:00001a88       $pdata$_wcscats            0000000140056a88     libucrt:wsetlocale.obj
 0004:00001a94       $pdata$_wsetlocale         0000000140056a94     libucrt:wsetlocale.obj
 0004:00001aa0       $pdata$_wsetlocale_get_all 0000000140056aa0     libucrt:wsetlocale.obj
 0004:00001aac       $pdata$_wsetlocale_nolock  0000000140056aac     libucrt:wsetlocale.obj
 0004:00001ab8       $pdata$_wsetlocale_set_cat 0000000140056ab8     libucrt:wsetlocale.obj
 0004:00001ac4       $pdata$_set_new_mode       0000000140056ac4     libucrt:new_mode.obj
 0004:00001ad0       $pdata$strcpy_s            0000000140056ad0     libucrt:strcpy_s.obj
 0004:00001adc       $pdata$?_mbstowcs_l_helper@@YA_KPEA_WPEBD_KPEAU__crt_locale_pointers@@@Z 0000000140056adc     libucrt:mbstowcs.obj
 0004:00001ae8       $pdata$_mbstowcs_s_l       0000000140056ae8     libucrt:mbstowcs.obj
 0004:00001af4       $pdata$mbstowcs_s          0000000140056af4     libucrt:mbstowcs.obj
 0004:00001b00       $pdata$?_wcstombs_l_helper@@YA_KPEADPEB_W_KPEAU__crt_locale_pointers@@@Z 0000000140056b00     libucrt:wcstombs.obj
 0004:00001b0c       $pdata$_wcstombs_s_l       0000000140056b0c     libucrt:wcstombs.obj
 0004:00001b18       $pdata$??$?RV<lambda_0ae27a3a962d80f24befdcbee591983d>@@AEAV<lambda_8d0ee55de4b1038c4002e0adecdf1839>@@V<lambda_dc504788e8f1664fe9b84e20bfb512f2>@@@?$__crt_seh_guarded_call@X@@QEAAX$$QEAV<lambda_0ae27a3a962d80f24befdcbee591983d>@@AEAV<lambda_8d0ee55de4b1038c4002e0adecdf1839>@@$$QEAV<lambda_dc504788e8f1664fe9b84e20bfb512f2>@@@Z 0000000140056b18     libucrt:per_thread_data.obj
 0004:00001b24       $pdata$??$?RV<lambda_2d41944a1d46af3157314b8a01080d33>@@AEAV<lambda_8f455de75cd7d7f24b4096f044d8b9e6>@@V<lambda_aa500f224e6afead328df44964fe2772>@@@?$__crt_seh_guarded_call@X@@QEAAX$$QEAV<lambda_2d41944a1d46af3157314b8a01080d33>@@AEAV<lambda_8f455de75cd7d7f24b4096f044d8b9e6>@@$$QEAV<lambda_aa500f224e6afead328df44964fe2772>@@@Z 0000000140056b24     libucrt:per_thread_data.obj
 0004:00001b30       $pdata$??$?RV<lambda_aa87e3671a710a21b5dc78c0bdf72e11>@@AEAV<lambda_92619d2358a28f41a33ba319515a20b9>@@V<lambda_6992ecaafeb10aed2b74cb1fae11a551>@@@?$__crt_seh_guarded_call@X@@QEAAX$$QEAV<lambda_aa87e3671a710a21b5dc78c0bdf72e11>@@AEAV<lambda_92619d2358a28f41a33ba319515a20b9>@@$$QEAV<lambda_6992ecaafeb10aed2b74cb1fae11a551>@@@Z 0000000140056b30     libucrt:per_thread_data.obj
 0004:00001b3c       $pdata$??$?RV<lambda_f2e299630e499de9f9a165e60fcd3db5>@@AEAV<lambda_2ae9d31cdba2644fcbeaf08da7c24588>@@V<lambda_40d01ff24d0e7b3814fdbdcee8eab3c7>@@@?$__crt_seh_guarded_call@X@@QEAAX$$QEAV<lambda_f2e299630e499de9f9a165e60fcd3db5>@@AEAV<lambda_2ae9d31cdba2644fcbeaf08da7c24588>@@$$QEAV<lambda_40d01ff24d0e7b3814fdbdcee8eab3c7>@@@Z 0000000140056b3c     libucrt:per_thread_data.obj
 0004:00001b48       $pdata$?construct_ptd_array@@YAXQEAU__acrt_ptd@@@Z 0000000140056b48     libucrt:per_thread_data.obj
 0004:00001b54       $pdata$?destroy_fls@@YAXPEAX@Z 0000000140056b54     libucrt:per_thread_data.obj
 0004:00001b60       $pdata$?destroy_ptd_array@@YAXQEAU__acrt_ptd@@@Z 0000000140056b60     libucrt:per_thread_data.obj
 0004:00001b6c       $pdata$?replace_current_thread_locale_nolock@@YAXQEAU__acrt_ptd@@QEAU__crt_locale_data@@@Z 0000000140056b6c     libucrt:per_thread_data.obj
 0004:00001b78       $pdata$__acrt_getptd       0000000140056b78     libucrt:per_thread_data.obj
 0004:00001b84       $pdata$__acrt_getptd_head  0000000140056b84     libucrt:per_thread_data.obj
 0004:00001b90       $pdata$__acrt_getptd_noexit 0000000140056b90     libucrt:per_thread_data.obj
 0004:00001b9c       $pdata$__acrt_initialize_ptd 0000000140056b9c     libucrt:per_thread_data.obj
 0004:00001ba8       $pdata$__acrt_uninitialize_ptd 0000000140056ba8     libucrt:per_thread_data.obj
 0004:00001bb4       $pdata$??$?RV<lambda_bd00b5aa228bd7e7e5b2b5db5fd2933b>@@AEAV<lambda_777d11615145f89ee95b9466d285deeb>@@V<lambda_6e5e48fbd24f9f8f81b203eb3d877683>@@@?$__crt_seh_guarded_call@H@@QEAAH$$QEAV<lambda_bd00b5aa228bd7e7e5b2b5db5fd2933b>@@AEAV<lambda_777d11615145f89ee95b9466d285deeb>@@$$QEAV<lambda_6e5e48fbd24f9f8f81b203eb3d877683>@@@Z 0000000140056bb4     libucrt:winapi_thunks.obj
 0004:00001bc0       $pdata$?try_get_function@@YAPEAXW4function_id@?A0x391cf84c@@QEBDQEBW4module_id@2@2@Z 0000000140056bc0     libucrt:winapi_thunks.obj
 0004:00001bcc       $pdata$__acrt_AppPolicyGetProcessTerminationMethodInternal 0000000140056bcc     libucrt:winapi_thunks.obj
 0004:00001bd8       $pdata$__acrt_AreFileApisANSI 0000000140056bd8     libucrt:winapi_thunks.obj
 0004:00001be4       $pdata$__acrt_CompareStringEx 0000000140056be4     libucrt:winapi_thunks.obj
 0004:00001bf0       $pdata$__acrt_EnumSystemLocalesEx 0000000140056bf0     libucrt:winapi_thunks.obj
 0004:00001bfc       $pdata$__acrt_FlsAlloc     0000000140056bfc     libucrt:winapi_thunks.obj
 0004:00001c08       $pdata$__acrt_FlsFree      0000000140056c08     libucrt:winapi_thunks.obj
 0004:00001c14       $pdata$__acrt_FlsGetValue  0000000140056c14     libucrt:winapi_thunks.obj
 0004:00001c20       $pdata$__acrt_FlsSetValue  0000000140056c20     libucrt:winapi_thunks.obj
 0004:00001c2c       $pdata$__acrt_GetLocaleInfoEx 0000000140056c2c     libucrt:winapi_thunks.obj
 0004:00001c38       $pdata$__acrt_GetSystemTimePreciseAsFileTime 0000000140056c38     libucrt:winapi_thunks.obj
 0004:00001c44       $pdata$__acrt_GetUserDefaultLocaleName 0000000140056c44     libucrt:winapi_thunks.obj
 0004:00001c50       $pdata$__acrt_InitializeCriticalSectionEx 0000000140056c50     libucrt:winapi_thunks.obj
 0004:00001c5c       $pdata$__acrt_IsValidLocaleName 0000000140056c5c     libucrt:winapi_thunks.obj
 0004:00001c68       $pdata$__acrt_LCIDToLocaleName 0000000140056c68     libucrt:winapi_thunks.obj
 0004:00001c74       $pdata$__acrt_LCMapStringEx 0000000140056c74     libucrt:winapi_thunks.obj
 0004:00001c80       $pdata$__acrt_LocaleNameToLCID 0000000140056c80     libucrt:winapi_thunks.obj
 0004:00001c8c       $pdata$__acrt_RtlGenRandom 0000000140056c8c     libucrt:winapi_thunks.obj
 0004:00001c98       $pdata$__acrt_can_use_vista_locale_apis 0000000140056c98     libucrt:winapi_thunks.obj
 0004:00001ca4       $pdata$__acrt_eagerly_load_locale_apis 0000000140056ca4     libucrt:winapi_thunks.obj
 0004:00001cb0       $pdata$__acrt_initialize_winapi_thunks 0000000140056cb0     libucrt:winapi_thunks.obj
 0004:00001cbc       $pdata$__acrt_uninitialize_winapi_thunks 0000000140056cbc     libucrt:winapi_thunks.obj
 0004:00001cc8       $pdata$_fileno             0000000140056cc8     libucrt:fileno.obj
 0004:00001cd4       $pdata$??$write_buffer_nolock@D@@YA_NDV__crt_stdio_stream@@@Z 0000000140056cd4     libucrt:_flsbuf.obj
 0004:00001ce0       $pdata$__acrt_stdio_flush_and_write_narrow_nolock 0000000140056ce0     libucrt:_flsbuf.obj
 0004:00001cec       $pdata$?initialize_inherited_file_handles_nolock@@YAXXZ 0000000140056cec     libucrt:ioinit.obj
 0004:00001cf8       $pdata$?initialize_stdio_handles_nolock@@YAXXZ 0000000140056cf8     libucrt:ioinit.obj
 0004:00001d04       $pdata$__acrt_initialize_lowio 0000000140056d04     libucrt:ioinit.obj
 0004:00001d10       $pdata$__acrt_uninitialize_lowio 0000000140056d10     libucrt:ioinit.obj
 0004:00001d1c       $pdata$??$?RV<lambda_a37b2b86f63e897a80ea819b0eb08c01>@@AEAV<lambda_38ce7e780aa69e748d6df282ebc68efe>@@V<lambda_99fb1378e971ab6e7edea83e3a7a83a2>@@@?$__crt_seh_guarded_call@H@@QEAAH$$QEAV<lambda_a37b2b86f63e897a80ea819b0eb08c01>@@AEAV<lambda_38ce7e780aa69e748d6df282ebc68efe>@@$$QEAV<lambda_99fb1378e971ab6e7edea83e3a7a83a2>@@@Z 0000000140056d1c     libucrt:commit.obj
 0004:00001d28       $pdata$_commit             0000000140056d28     libucrt:commit.obj
 0004:00001d34       $pdata$?write_double_translated_ansi_nolock@@YA?AUwrite_result@?A0x17268360@@HQEBDI@Z 0000000140056d34     libucrt:write.obj
 0004:00001d40       $pdata$?write_requires_double_translation_nolock@@YA_NH@Z 0000000140056d40     libucrt:write.obj
 0004:00001d4c       $pdata$?write_text_ansi_nolock@@YA?AUwrite_result@?A0x17268360@@HQEBDI@Z 0000000140056d4c     libucrt:write.obj
 0004:00001d58       $pdata$?write_text_utf16le_nolock@@YA?AUwrite_result@?A0x17268360@@HQEBDI@Z 0000000140056d58     libucrt:write.obj
 0004:00001d64       $pdata$?write_text_utf8_nolock@@YA?AUwrite_result@?A0x17268360@@HQEBDI@Z 0000000140056d64     libucrt:write.obj
 0004:00001d70       $pdata$_write              0000000140056d70     libucrt:write.obj
 0004:00001d7c       $pdata$_write_nolock       0000000140056d7c     libucrt:write.obj
 0004:00001d88       $pdata$??$?RV<lambda_751a882b2c74d4b022dec766aa51a29a>@@AEAV<lambda_628dfdc04ba53c8bfc02c9951375f3f5>@@V<lambda_f6c7be5f7998530c34de24c7437d6b54>@@@?$__crt_seh_guarded_call@H@@QEAAH$$QEAV<lambda_751a882b2c74d4b022dec766aa51a29a>@@AEAV<lambda_628dfdc04ba53c8bfc02c9951375f3f5>@@$$QEAV<lambda_f6c7be5f7998530c34de24c7437d6b54>@@@Z 0000000140056d88     libucrt:close.obj
 0004:00001d94       $pdata$_close              0000000140056d94     libucrt:close.obj
 0004:00001da0       $pdata$_close_nolock       0000000140056da0     libucrt:close.obj
 0004:00001dac       $pdata$?__acrt_stdio_allocate_stream@@YA?AV__crt_stdio_stream@@XZ 0000000140056dac     libucrt:stream.obj
 0004:00001db8       $pdata$?find_or_allocate_unused_stream_nolock@@YA?AV__crt_stdio_stream@@XZ 0000000140056db8     libucrt:stream.obj
 0004:00001dc4       $pdata$__acrt_stdio_free_buffer_nolock 0000000140056dc4     libucrt:_freebuf.obj
 0004:00001dd0       $pdata$__acrt_copy_path_to_wide_string 0000000140056dd0     libucrt:string_utilities.obj
 0004:00001ddc       $pdata$_wremove            0000000140056ddc     libucrt:wunlink.obj
 0004:00001de8       $pdata$strtol              0000000140056de8     libucrt:strtox.obj
 0004:00001df4       $pdata$_mbtowc_l           0000000140056df4     libucrt:mbtowc.obj
 0004:00001e00       $pdata$_wctomb_s_l         0000000140056e00     libucrt:wctomb.obj
 0004:00001e0c       $pdata$wctomb_s            0000000140056e0c     libucrt:wctomb.obj
 0004:00001e18       $pdata$__acrt_update_locale_info 0000000140056e18     libucrt:locale_update.obj
 0004:00001e24       $pdata$__acrt_update_multibyte_info 0000000140056e24     libucrt:locale_update.obj
 0004:00001e30       $pdata$?fp_format_a@@YAHQEBNPEAD_KQEAD2H_NIQEAU__crt_locale_pointers@@@Z 0000000140056e30     libucrt:cvt.obj
 0004:00001e3c       $pdata$?fp_format_e@@YAHQEBNQEAD_K12H_NIQEAU__crt_locale_pointers@@@Z 0000000140056e3c     libucrt:cvt.obj
 0004:00001e48       $pdata$?fp_format_e_internal@@YAHQEAD_KH_NIQEAU_strflt@@2QEAU__crt_locale_pointers@@@Z 0000000140056e48     libucrt:cvt.obj
 0004:00001e54       $pdata$?fp_format_f_internal@@YAHQEAD_KHQEAU_strflt@@_NQEAU__crt_locale_pointers@@@Z 0000000140056e54     libucrt:cvt.obj
 0004:00001e60       $pdata$?fp_format_g@@YAHQEBNQEAD_K12H_NIQEAU__crt_locale_pointers@@@Z 0000000140056e60     libucrt:cvt.obj
 0004:00001e6c       $pdata$?fp_format_nan_or_infinity@@YAHW4__acrt_fp_class@@_NPEAD_K1@Z 0000000140056e6c     libucrt:cvt.obj
 0004:00001e78       $pdata$__acrt_fp_format    0000000140056e78     libucrt:cvt.obj
 0004:00001e84       $pdata$__acrt_stdio_begin_temporary_buffering_nolock 0000000140056e84     libucrt:_sftbuf.obj
 0004:00001e90       $pdata$__acrt_stdio_end_temporary_buffering_nolock 0000000140056e90     libucrt:_sftbuf.obj
 0004:00001e9c       $pdata$__acrt_stdio_refill_and_read_narrow_nolock 0000000140056e9c     libucrt:_filbuf.obj
 0004:00001ea8       $pdata$??$common_dupenv_s@D@@YAHQEAPEADQEA_KQEBDH2H@Z 0000000140056ea8     libucrt:getenv.obj
 0004:00001eb4       $pdata$??$common_getenv_nolock@D@@YAPEADQEBD@Z 0000000140056eb4     libucrt:getenv.obj
 0004:00001ec0       $pdata$_dupenv_s           0000000140056ec0     libucrt:getenv.obj
 0004:00001ecc       $pdata$??$?RV<lambda_a22f0c497e5168315e06dae667770027>@@AEAV<lambda_a094494068278ba5130ab06e1292f60a>@@V<lambda_24dc10c13f43218c635520766e23e324>@@@?$__crt_seh_guarded_call@_N@@QEAA_N$$QEAV<lambda_a22f0c497e5168315e06dae667770027>@@AEAV<lambda_a094494068278ba5130ab06e1292f60a>@@$$QEAV<lambda_24dc10c13f43218c635520766e23e324>@@@Z 0000000140056ecc     libucrt:spawnv.obj
 0004:00001ed8       $pdata$??$common_spawnv@D@@YA_JHQEBDQEBQEBD1@Z 0000000140056ed8     libucrt:spawnv.obj
 0004:00001ee4       $pdata$??$execute_command@D@@YA_JHQEBDQEBQEBD1@Z 0000000140056ee4     libucrt:spawnv.obj
 0004:00001ef0       $pdata$??R<lambda_a094494068278ba5130ab06e1292f60a>@@QEBA_NXZ 0000000140056ef0     libucrt:spawnv.obj
 0004:00001efc       $pdata$?accumulate_inheritable_handles@@YA_NQEAPEAEQEA_K_N@Z 0000000140056efc     libucrt:spawnv.obj
 0004:00001f08       $pdata$??$common_spawnvp@D@@YA_JHQEBDQEBQEBD1@Z 0000000140056f08     libucrt:spawnvp.obj
 0004:00001f14       $pdata$_waccess_s          0000000140056f14     libucrt:waccess.obj
 0004:00001f20       $pdata$_fcloseall          0000000140056f20     libucrt:closeall.obj
 0004:00001f2c       $pdata$??$common_ftell@_J@@YA_JV__crt_stdio_stream@@@Z 0000000140056f2c     libucrt:ftell.obj
 0004:00001f38       $pdata$??$common_ftell_nolock@_J@@YA_JV__crt_stdio_stream@@@Z 0000000140056f38     libucrt:ftell.obj
 0004:00001f44       $pdata$?common_ftell_read_mode_nolock@@YA_JV__crt_stdio_stream@@_J1@Z 0000000140056f44     libucrt:ftell.obj
 0004:00001f50       $pdata$?common_ftell_translated_utf8_nolock@@YA_JV__crt_stdio_stream@@_J@Z 0000000140056f50     libucrt:ftell.obj
 0004:00001f5c       $pdata$iswctype            0000000140056f5c     libucrt:iswctype.obj
 0004:00001f68       $pdata$_isctype_l          0000000140056f68     libucrt:isctype.obj
 0004:00001f74       $pdata$__acrt_stdio_allocate_buffer_nolock 0000000140056f74     libucrt:_getbuf.obj
 0004:00001f80       $pdata$_except1            0000000140056f80     libucrt:fpexcept.obj
 0004:00001f8c       $pdata$_handle_exc         0000000140056f8c     libucrt:fpexcept.obj
 0004:00001f98       $pdata$_raise_exc          0000000140056f98     libucrt:fpexcept.obj
 0004:00001fa4       $pdata$_raise_exc_ex       0000000140056fa4     libucrt:fpexcept.obj
 0004:00001fb0       $pdata$_raise_excf         0000000140056fb0     libucrt:fpexcept.obj
 0004:00001fbc       $pdata$_set_errno_from_matherr 0000000140056fbc     libucrt:fpexcept.obj
 0004:00001fc8       $pdata$_umatherr           0000000140056fc8     libucrt:fpexcept.obj
 0004:00001fd4       $pdata$_clrfp              0000000140056fd4     libucrt:fpctrl.obj
 0004:00001fe0       $pdata$_ctrlfp             0000000140056fe0     libucrt:fpctrl.obj
 0004:00001fec       $pdata$_set_statfp         0000000140056fec     libucrt:fpctrl.obj
 0004:00001ff8       $pdata$_statfp             0000000140056ff8     libucrt:fpctrl.obj
 0004:00002004       $pdata$??$common_lseek@_J@@YA_JH_JH@Z 0000000140057004     libucrt:lseek.obj
 0004:00002010       $pdata$??$common_lseek_nolock@_J@@YA_JH_JH@Z 0000000140057010     libucrt:lseek.obj
 0004:0000201c       $pdata$??$__acrt_stdio_parse_mode@D@@YA?AU__acrt_stdio_stream_mode@@QEBD@Z 000000014005701c     libucrt:openfile.obj
 0004:00002028       $pdata$_openfile           0000000140057028     libucrt:openfile.obj
 0004:00002034       $pdata$__acrt_initialize_heap 0000000140057034     libucrt:heap_handle.obj
 0004:00002040       $pdata$?InternalGetLocaleInfoA@@YAHQEAU__crt_locale_pointers@@QEB_WKQEADH@Z 0000000140057040     libucrt:getlocaleinfoa.obj
 0004:0000204c       $pdata$__acrt_GetLocaleInfoA 000000014005704c     libucrt:getlocaleinfoa.obj
 0004:00002058       $pdata$__acrt_GetStringTypeA 0000000140057058     libucrt:getstringtypea.obj
 0004:00002064       $pdata$?__acrt_LCMapStringA_stat@@YAHPEAU__crt_locale_pointers@@PEB_WKPEBDHPEADHHH@Z 0000000140057064     libucrt:lcmapstringa.obj
 0004:00002070       $pdata$__acrt_LCMapStringA 0000000140057070     libucrt:lcmapstringa.obj
 0004:0000207c       $pdata$??$?RV<lambda_450d765d439847d4c735a33c368b5fc0>@@AEAV<lambda_44731a7d0e6d81c3e6aa82d741081786>@@V<lambda_601a2a7da3b7a96e9554ac7215c4b07c>@@@?$__crt_seh_guarded_call@P6AXH@Z@@QEAAP6AXH@Z$$QEAV<lambda_450d765d439847d4c735a33c368b5fc0>@@AEAV<lambda_44731a7d0e6d81c3e6aa82d741081786>@@$$QEAV<lambda_601a2a7da3b7a96e9554ac7215c4b07c>@@@Z 000000014005707c     libucrt:signal.obj
 0004:00002088       $pdata$__acrt_get_sigabrt_handler 0000000140057088     libucrt:signal.obj
 0004:00002094       $pdata$raise               0000000140057094     libucrt:signal.obj
 0004:000020a0       $pdata$__acrt_initialize_fma3 00000001400570a0     libucrt:fma3_available.obj
 0004:000020ac       $pdata$_pow_special        00000001400570ac     libucrt:pow_special.obj
 0004:000020b8       $pdata$_powf_special       00000001400570b8     libucrt:pow_special.obj
 0004:000020c4       $pdata$_wcsicmp            00000001400570c4     libucrt:wcsicmp.obj
 0004:000020d0       $pdata$_wcsicmp_l          00000001400570d0     libucrt:wcsicmp.obj
 0004:000020dc       $pdata$_isleadbyte_l       00000001400570dc     libucrt:_wctype.obj
 0004:000020e8       $pdata$__acrt_get_process_end_policy 00000001400570e8     libucrt:win_policies.obj
 0004:000020f4       $pdata$??$common_expand_argv_wildcards@D@@YAHQEAPEADQEAPEAPEAD@Z 00000001400570f4     libucrt:argv_wildcards.obj
 0004:00002100       $pdata$??$copy_and_add_argument_to_buffer@D@@YAHQEBD0_KAEAV?$argument_list@D@?A0x5f5c8891@@@Z 0000000140057100     libucrt:argv_wildcards.obj
 0004:0000210c       $pdata$??$expand_argument_wildcards@D@@YAHQEAD0AEAV?$argument_list@D@?A0x5f5c8891@@@Z 000000014005710c     libucrt:argv_wildcards.obj
 0004:00002118       $pdata$??$?RV<lambda_efdfa57d1f175319df784efa44bb7b81>@@AEAV<lambda_5f0a4c1567f8adc6734073e5d1e1b35c>@@V<lambda_2e8a7d3640ea6ccb4c2413664c2db6fd>@@@?$__crt_seh_guarded_call@X@@QEAAX$$QEAV<lambda_efdfa57d1f175319df784efa44bb7b81>@@AEAV<lambda_5f0a4c1567f8adc6734073e5d1e1b35c>@@$$QEAV<lambda_2e8a7d3640ea6ccb4c2413664c2db6fd>@@@Z 0000000140057118     libucrt:mbctype.obj
 0004:00002124       $pdata$?getSystemCP@@YAHH@Z 0000000140057124     libucrt:mbctype.obj
 0004:00002130       $pdata$?setSBCS@@YAXPEAU__crt_multibyte_data@@@Z 0000000140057130     libucrt:mbctype.obj
 0004:0000213c       $pdata$?setSBUpLow@@YAXPEAU__crt_multibyte_data@@@Z 000000014005713c     libucrt:mbctype.obj
 0004:00002148       $pdata$?setmbcp_internal@@YAHH_NQEAU__acrt_ptd@@QEAPEAU__crt_multibyte_data@@@Z 0000000140057148     libucrt:mbctype.obj
 0004:00002154       $pdata$?update_thread_multibyte_data_internal@@YAPEAU__crt_multibyte_data@@QEAU__acrt_ptd@@QEAU1@@Z 0000000140057154     libucrt:mbctype.obj
 0004:00002160       $pdata$__acrt_initialize_multibyte 0000000140057160     libucrt:mbctype.obj
 0004:0000216c       $pdata$__acrt_update_thread_multibyte_data 000000014005716c     libucrt:mbctype.obj
 0004:00002178       $pdata$_setmbcp_nolock     0000000140057178     libucrt:mbctype.obj
 0004:00002184       $pdata$__dcrt_get_narrow_environment_from_os 0000000140057184     libucrt:get_environment_from_os.obj
 0004:00002190       $pdata$??$common_set_variable_in_environment_nolock@D@@YAHQEADH@Z 0000000140057190     libucrt:setenv.obj
 0004:0000219c       $pdata$??$copy_environment@D@@YAPEAPEADQEAPEAD@Z 000000014005719c     libucrt:setenv.obj
 0004:000021a8       $pdata$_recalloc_base      00000001400571a8     libucrt:recalloc.obj
 0004:000021b4       $pdata$__acrt_execute_initializers 00000001400571b4     libucrt:shared_initialization.obj
 0004:000021c0       $pdata$__acrt_execute_uninitializers 00000001400571c0     libucrt:shared_initialization.obj
 0004:000021cc       $pdata$wcscat_s            00000001400571cc     libucrt:wcscat_s.obj
 0004:000021d8       $pdata$wcsncpy_s           00000001400571d8     libucrt:wcsncpy_s.obj
 0004:000021e4       $pdata$__acrt_lowio_create_handle_array 00000001400571e4     libucrt:osfinfo.obj
 0004:000021f0       $pdata$__acrt_lowio_destroy_handle_array 00000001400571f0     libucrt:osfinfo.obj
 0004:000021fc       $pdata$__acrt_lowio_ensure_fh_exists 00000001400571fc     libucrt:osfinfo.obj
 0004:00002208       $pdata$__acrt_lowio_set_os_handle 0000000140057208     libucrt:osfinfo.obj
 0004:00002214       $pdata$_alloc_osfhnd       0000000140057214     libucrt:osfinfo.obj
 0004:00002220       $pdata$_free_osfhnd        0000000140057220     libucrt:osfinfo.obj
 0004:0000222c       $pdata$_get_osfhandle      000000014005722c     libucrt:osfinfo.obj
 0004:00002238       $pdata$__acrt_locale_free_monetary 0000000140057238     libucrt:initmon.obj
 0004:00002244       $pdata$__acrt_locale_initialize_monetary 0000000140057244     libucrt:initmon.obj
 0004:00002250       $pdata$__acrt_locale_free_numeric 0000000140057250     libucrt:initnum.obj
 0004:0000225c       $pdata$__acrt_locale_initialize_numeric 000000014005725c     libucrt:initnum.obj
 0004:00002268       $pdata$?free_crt_array_internal@@YAXQEAPEBX_K@Z 0000000140057268     libucrt:inittime.obj
 0004:00002274       $pdata$?initialize_lc_time@@YA_NQEAU__crt_lc_time_data@@QEAU__crt_locale_data@@@Z 0000000140057274     libucrt:inittime.obj
 0004:00002280       $pdata$__acrt_locale_free_time 0000000140057280     libucrt:inittime.obj
 0004:0000228c       $pdata$__acrt_locale_initialize_time 000000014005728c     libucrt:inittime.obj
 0004:00002298       $pdata$__acrt_free_locale  0000000140057298     libucrt:locale_refcounting.obj
 0004:000022a4       $pdata$__acrt_locale_free_lc_time_if_unreferenced 00000001400572a4     libucrt:locale_refcounting.obj
 0004:000022b0       $pdata$__acrt_release_locale_ref 00000001400572b0     libucrt:locale_refcounting.obj
 0004:000022bc       $pdata$__acrt_update_thread_locale_data 00000001400572bc     libucrt:locale_refcounting.obj
 0004:000022c8       $pdata$_updatetlocinfoEx_nolock 00000001400572c8     libucrt:locale_refcounting.obj
 0004:000022d4       $pdata$GetLocaleNameFromDefault 00000001400572d4     libucrt:get_qualified_locale.obj
 0004:000022e0       $pdata$GetLocaleNameFromLangCountry 00000001400572e0     libucrt:get_qualified_locale.obj
 0004:000022ec       $pdata$GetLocaleNameFromLanguage 00000001400572ec     libucrt:get_qualified_locale.obj
 0004:000022f8       $pdata$LangCountryEnumProcEx 00000001400572f8     libucrt:get_qualified_locale.obj
 0004:00002304       $pdata$LanguageEnumProcEx  0000000140057304     libucrt:get_qualified_locale.obj
 0004:00002310       $pdata$ProcessCodePage     0000000140057310     libucrt:get_qualified_locale.obj
 0004:0000231c       $pdata$TestDefaultCountry  000000014005731c     libucrt:get_qualified_locale.obj
 0004:00002328       $pdata$TranslateName       0000000140057328     libucrt:get_qualified_locale.obj
 0004:00002334       $pdata$__acrt_get_qualified_locale 0000000140057334     libucrt:get_qualified_locale.obj
 0004:00002340       $pdata$CountryEnumProc     0000000140057340     libucrt:getqloc_downlevel.obj
 0004:0000234c       $pdata$GetLcidFromLangCountry 000000014005734c     libucrt:getqloc_downlevel.obj
 0004:00002358       $pdata$GetLcidFromLanguage 0000000140057358     libucrt:getqloc_downlevel.obj
 0004:00002364       $pdata$LangCountryEnumProc 0000000140057364     libucrt:getqloc_downlevel.obj
 0004:00002370       $pdata$LanguageEnumProc    0000000140057370     libucrt:getqloc_downlevel.obj
 0004:0000237c       $pdata$ProcessCodePage     000000014005737c     libucrt:getqloc_downlevel.obj
 0004:00002388       $pdata$TestDefaultLanguage 0000000140057388     libucrt:getqloc_downlevel.obj
 0004:00002394       $pdata$TranslateName       0000000140057394     libucrt:getqloc_downlevel.obj
 0004:000023a0       $pdata$__acrt_get_qualified_locale_downlevel 00000001400573a0     libucrt:getqloc_downlevel.obj
 0004:000023ac       $pdata$?GetTableIndexFromLocaleName@@YAHPEB_W@Z 00000001400573ac     libucrt:lcidtoname_downlevel.obj
 0004:000023b8       $pdata$__acrt_DownlevelLCIDToLocaleName 00000001400573b8     libucrt:lcidtoname_downlevel.obj
 0004:000023c4       $pdata$__acrt_DownlevelLocaleNameToLCID 00000001400573c4     libucrt:lcidtoname_downlevel.obj
 0004:000023d0       $pdata$_isatty             00000001400573d0     libucrt:isatty.obj
 0004:000023dc       $pdata$_putwch_nolock      00000001400573dc     libucrt:putwch.obj
 0004:000023e8       $pdata$__acrt_fp_strflt_to_string 00000001400573e8     libucrt:_fptostr.obj
 0004:000023f4       $pdata$__acrt_fltout       00000001400573f4     libucrt:cfout.obj
 0004:00002400       $pdata$memcpy_s            0000000140057400     libucrt:strtod.obj
 0004:00002400       $pdata$memcpy_s            0000000140057400     libucrt:cfout.obj
 0004:0000240c       $pdata$??$translate_text_mode_nolock@D@@YAHHQEAD_K@Z 000000014005740c     libucrt:read.obj
 0004:00002418       $pdata$??$translate_text_mode_nolock@_W@@YAHHQEA_W_K@Z 0000000140057418     libucrt:read.obj
 0004:00002424       $pdata$?translate_ansi_or_utf8_nolock@@YAHHQEAD_KQEA_W1@Z 0000000140057424     libucrt:read.obj
 0004:00002430       $pdata$_read               0000000140057430     libucrt:read.obj
 0004:0000243c       $pdata$_read_nolock        000000014005743c     libucrt:read.obj
 0004:00002448       $pdata$_strnicoll_l        0000000140057448     libucrt:strnicol.obj
 0004:00002454       $pdata$strcat_s            0000000140057454     libucrt:strcat_s.obj
 0004:00002460       $pdata$??$construct_environment_block@D@@YAHQEBQEBDQEAPEAD@Z 0000000140057460     libucrt:cenvarg.obj
 0004:0000246c       $pdata$__acrt_pack_narrow_command_line_and_environment 000000014005746c     libucrt:cenvarg.obj
 0004:00002478       $pdata$__acrt_getpath      0000000140057478     libucrt:getpath.obj
 0004:00002490       $pdata$_wcsnicmp           0000000140057490     libucrt:wcsnicmp.obj
 0004:0000249c       $pdata$_wcsnicmp_l         000000014005749c     libucrt:wcsnicmp.obj
 0004:000024b4       $pdata$_strnicmp           00000001400574b4     libucrt:strnicmp.obj
 0004:000024c0       $pdata$_strnicmp_l         00000001400574c0     libucrt:strnicmp.obj
 0004:000024cc       $pdata$??$common_sopen_dispatch@D@@YAHQEBDHHHQEAHH@Z 00000001400574cc     libucrt:open.obj
 0004:000024d8       $pdata$?configure_text_mode@@YAHHUfile_options@?A0xa9d50aae@@HAEAW4__crt_lowio_text_mode@@@Z 00000001400574d8     libucrt:open.obj
 0004:000024e4       $pdata$?decode_options@@YA?AUfile_options@?A0xa9d50aae@@HHH@Z 00000001400574e4     libucrt:open.obj
 0004:000024f0       $pdata$?truncate_ctrl_z_if_present@@YAHH@Z 00000001400574f0     libucrt:open.obj
 0004:000024fc       $pdata$_sopen_nolock       00000001400574fc     libucrt:open.obj
 0004:00002508       $pdata$_sopen_s            0000000140057508     libucrt:open.obj
 0004:00002514       $pdata$_wsopen_nolock      0000000140057514     libucrt:open.obj
 0004:00002520       $pdata$strncpy_s           0000000140057520     libucrt:strncpy_s.obj
 0004:0000252c       $pdata$__acrt_fenv_set_control 000000014005752c     libucrt:_fenvutils.obj
 0004:00002538       $pdata$_call_matherr       0000000140057538     libucrt:libm_error.obj
 0004:00002544       $pdata$_exception_enabled  0000000140057544     libucrt:libm_error.obj
 0004:00002550       $pdata$_handle_error       0000000140057550     libucrt:libm_error.obj
 0004:0000255c       $pdata$_handle_errorf      000000014005755c     libucrt:libm_error.obj
 0004:00002568       $pdata$_towlower_l         0000000140057568     libucrt:towlower.obj
 0004:00002574       $pdata$?shortsort@@YAXPEAD0_KP6AHPEBX2@Z@Z 0000000140057574     libucrt:qsort.obj
 0004:00002580       $pdata$2$?shortsort@@YAXPEAD0_KP6AHPEBX2@Z@Z 0000000140057580     libucrt:qsort.obj
 0004:0000258c       $pdata$3$?shortsort@@YAXPEAD0_KP6AHPEBX2@Z@Z 000000014005758c     libucrt:qsort.obj
 0004:00002598       $pdata$qsort               0000000140057598     libucrt:qsort.obj
 0004:000025a4       $pdata$4$qsort             00000001400575a4     libucrt:qsort.obj
 0004:000025b0       $pdata$5$qsort             00000001400575b0     libucrt:qsort.obj
 0004:000025bc       $pdata$strpbrk             00000001400575bc     libucrt:strpbrk.obj
 0004:000025c8       $pdata$_mbsdec_l           00000001400575c8     libucrt:mbsdec.obj
 0004:000025d4       $pdata$?initialize_multibyte@@YAHXZ 00000001400575d4     libucrt:multibyte_initializer.obj
 0004:000025e0       $pdata$_msize_base         00000001400575e0     libucrt:msize.obj
 0004:000025ec       $pdata$??$common_xtox@K_W@@YAHKQEA_W_KI_N@Z 00000001400575ec     libucrt:xtoa.obj
 0004:000025f8       $pdata$??$common_xtox_s@K_W@@YAHKQEA_W_KI_N@Z 00000001400575f8     libucrt:xtoa.obj
 0004:00002604       $pdata$_itow_s             0000000140057604     libucrt:xtoa.obj
 0004:00002610       $pdata$__dcrt_lowio_ensure_console_output_initialized 0000000140057610     libucrt:initcon.obj
 0004:0000261c       $pdata$__dcrt_terminate_console_output 000000014005761c     libucrt:initcon.obj
 0004:00002628       $pdata$__dcrt_write_console_w 0000000140057628     libucrt:initcon.obj
 0004:00002634       $pdata$fegetenv            0000000140057634     libucrt:fegetenv.obj
 0004:00002640       $pdata$fesetenv            0000000140057640     libucrt:fesetenv.obj
 0004:0000264c       $pdata$feholdexcept        000000014005764c     libucrt:feholdexcept.obj
 0004:00002664       $pdata$?InternalCompareStringA@@YAHPEAU__crt_locale_pointers@@PEB_WKPEBDH2HH@Z 0000000140057664     libucrt:comparestringa.obj
 0004:00002670       $pdata$__acrt_CompareStringA 0000000140057670     libucrt:comparestringa.obj
 0004:0000267c       $pdata$_chsize_nolock      000000014005767c     libucrt:chsize.obj
 0004:00002688       $pdata$__acrt_LCMapStringW 0000000140057688     libucrt:lcmapstringw.obj
 0004:00002694       $pdata$_clearfp            0000000140057694     libucrt:ieee.obj
 0004:000026a0       $pdata$_log10_special      00000001400576a0     libucrt:log_special.obj
 0004:000026ac       $pdata$_log_special_common 00000001400576ac     libucrt:log_special.obj
 0004:000026b8       $pdata$_IsNonwritableInCurrentImage 00000001400576b8     LIBCMT:pesect.obj
 0004:000026c4       $pdata$strrchr             00000001400576c4     libvcruntime:strrchr.obj
 0004:000026d0       $pdata$strchr              00000001400576d0     libvcruntime:strchr.obj
 0004:000026dc       $pdata$wcschr              00000001400576dc     libvcruntime:wcschr.obj
 0004:00002724       $pdata$?dtor$45@?0???__ENumer_zasobu_rar@@YAXXZ@4HA 0000000140057724     main.obj
 0004:00002730       $pdata$?dtor$10@?0???__ENazwa_g³osu@@YAXXZ@4HA 0000000140057730     main.obj
 0004:0000273c       $pdata$main$dtor$5         000000014005773c     main.obj
 0004:00002748       $pdata$?dtor$0@?0??Obstaw@@YA?AV?$basic_string@DU?$char_traits@D@std@@V?$allocator@D@2@@std@@XZ@4HA 0000000140057748     main.obj
 0004:00002754       $pdata$?dtor$87@?0??Odczytaj_Liczbê@@YAXAEBHAEBV?$basic_string@DU?$char_traits@D@std@@V?$allocator@D@2@@std@@@Z@4HA 0000000140057754     main.obj
 0004:00002760       $pdata$?dtor$108@?0??Odczytaj_Liczbê@@YAXAEBHAEBV?$basic_string@DU?$char_traits@D@std@@V?$allocator@D@2@@std@@@Z@4HA 0000000140057760     main.obj
 0004:0000276c       $pdata$?dtor$141@?0??Odczytaj_Liczbê@@YAXAEBHAEBV?$basic_string@DU?$char_traits@D@std@@V?$allocator@D@2@@std@@@Z@4HA 000000014005776c     main.obj
 0004:00002778       $pdata$?dtor$162@?0??Odczytaj_Liczbê@@YAXAEBHAEBV?$basic_string@DU?$char_traits@D@std@@V?$allocator@D@2@@std@@@Z@4HA 0000000140057778     main.obj
 0004:00002784       $pdata$?dtor$195@?0??Odczytaj_Liczbê@@YAXAEBHAEBV?$basic_string@DU?$char_traits@D@std@@V?$allocator@D@2@@std@@@Z@4HA 0000000140057784     main.obj
 0004:00002790       $pdata$?dtor$216@?0??Odczytaj_Liczbê@@YAXAEBHAEBV?$basic_string@DU?$char_traits@D@std@@V?$allocator@D@2@@std@@@Z@4HA 0000000140057790     main.obj
 0004:0000279c       $pdata$?dtor$239@?0??Odczytaj_Liczbê@@YAXAEBHAEBV?$basic_string@DU?$char_traits@D@std@@V?$allocator@D@2@@std@@@Z@4HA 000000014005779c     main.obj
 0004:000027a8       $pdata$?dtor$315@?0??Odczytaj_Liczbê@@YAXAEBHAEBV?$basic_string@DU?$char_traits@D@std@@V?$allocator@D@2@@std@@@Z@4HA 00000001400577a8     main.obj
 0004:000027b4       $pdata$?dtor$246@?0??SprawdŸ_Pliki@@YAXXZ@4HA 00000001400577b4     main.obj
 0004:000027c0       $pdata$?dtor$267@?0??SprawdŸ_Pliki@@YAXXZ@4HA 00000001400577c0     main.obj
 0004:000027cc       $pdata$?dtor$285@?0??SprawdŸ_Pliki@@YAXXZ@4HA 00000001400577cc     main.obj
 0004:000027d8       $pdata$?dtor$303@?0??SprawdŸ_Pliki@@YAXXZ@4HA 00000001400577d8     main.obj
 0004:000027e4       $pdata$?dtor$316@?0??SprawdŸ_Pliki@@YAXXZ@4HA 00000001400577e4     main.obj
 0004:000027f0       $pdata$?dtor$345@?0??SprawdŸ_Pliki@@YAXXZ@4HA 00000001400577f0     main.obj
 0004:000027fc       $pdata$?dtor$361@?0??SprawdŸ_Pliki@@YAXXZ@4HA 00000001400577fc     main.obj
 0004:00002808       $pdata$?dtor$429@?0??SprawdŸ_Pliki@@YAXXZ@4HA 0000000140057808     main.obj
 0004:00002814       $pdata$?dtor$450@?0??SprawdŸ_Pliki@@YAXXZ@4HA 0000000140057814     main.obj
 0004:00002820       $pdata$?dtor$468@?0??SprawdŸ_Pliki@@YAXXZ@4HA 0000000140057820     main.obj
 0004:0000282c       $pdata$?dtor$486@?0??SprawdŸ_Pliki@@YAXXZ@4HA 000000014005782c     main.obj
 0004:00002838       $pdata$?dtor$499@?0??SprawdŸ_Pliki@@YAXXZ@4HA 0000000140057838     main.obj
 0004:00002844       $pdata$?dtor$528@?0??SprawdŸ_Pliki@@YAXXZ@4HA 0000000140057844     main.obj
 0004:00002850       $pdata$?dtor$544@?0??SprawdŸ_Pliki@@YAXXZ@4HA 0000000140057850     main.obj
 0004:0000285c       $pdata$?dtor$612@?0??SprawdŸ_Pliki@@YAXXZ@4HA 000000014005785c     main.obj
 0004:00002868       $pdata$?dtor$633@?0??SprawdŸ_Pliki@@YAXXZ@4HA 0000000140057868     main.obj
 0004:00002874       $pdata$?dtor$651@?0??SprawdŸ_Pliki@@YAXXZ@4HA 0000000140057874     main.obj
 0004:00002880       $pdata$?dtor$669@?0??SprawdŸ_Pliki@@YAXXZ@4HA 0000000140057880     main.obj
 0004:0000288c       $pdata$?dtor$682@?0??SprawdŸ_Pliki@@YAXXZ@4HA 000000014005788c     main.obj
 0004:00002898       $pdata$?dtor$711@?0??SprawdŸ_Pliki@@YAXXZ@4HA 0000000140057898     main.obj
 0004:000028a4       $pdata$?dtor$727@?0??SprawdŸ_Pliki@@YAXXZ@4HA 00000001400578a4     main.obj
 0004:000028b0       $pdata$?dtor$795@?0??SprawdŸ_Pliki@@YAXXZ@4HA 00000001400578b0     main.obj
 0004:000028bc       $pdata$?dtor$816@?0??SprawdŸ_Pliki@@YAXXZ@4HA 00000001400578bc     main.obj
 0004:000028c8       $pdata$?dtor$834@?0??SprawdŸ_Pliki@@YAXXZ@4HA 00000001400578c8     main.obj
 0004:000028d4       $pdata$?dtor$852@?0??SprawdŸ_Pliki@@YAXXZ@4HA 00000001400578d4     main.obj
 0004:000028e0       $pdata$?dtor$865@?0??SprawdŸ_Pliki@@YAXXZ@4HA 00000001400578e0     main.obj
 0004:000028ec       $pdata$?dtor$894@?0??SprawdŸ_Pliki@@YAXXZ@4HA 00000001400578ec     main.obj
 0004:000028f8       $pdata$?dtor$910@?0??SprawdŸ_Pliki@@YAXXZ@4HA 00000001400578f8     main.obj
 0004:00002904       $pdata$?dtor$978@?0??SprawdŸ_Pliki@@YAXXZ@4HA 0000000140057904     main.obj
 0004:00002910       $pdata$?dtor$999@?0??SprawdŸ_Pliki@@YAXXZ@4HA 0000000140057910     main.obj
 0004:0000291c       $pdata$?dtor$1017@?0??SprawdŸ_Pliki@@YAXXZ@4HA 000000014005791c     main.obj
 0004:00002928       $pdata$?dtor$1035@?0??SprawdŸ_Pliki@@YAXXZ@4HA 0000000140057928     main.obj
 0004:00002934       $pdata$?dtor$1048@?0??SprawdŸ_Pliki@@YAXXZ@4HA 0000000140057934     main.obj
 0004:00002940       $pdata$?dtor$1077@?0??SprawdŸ_Pliki@@YAXXZ@4HA 0000000140057940     main.obj
 0004:0000294c       $pdata$?dtor$1093@?0??SprawdŸ_Pliki@@YAXXZ@4HA 000000014005794c     main.obj
 0004:00002958       $pdata$?dtor$1161@?0??SprawdŸ_Pliki@@YAXXZ@4HA 0000000140057958     main.obj
 0004:00002964       $pdata$?dtor$1182@?0??SprawdŸ_Pliki@@YAXXZ@4HA 0000000140057964     main.obj
 0004:00002970       $pdata$?dtor$1200@?0??SprawdŸ_Pliki@@YAXXZ@4HA 0000000140057970     main.obj
 0004:0000297c       $pdata$?dtor$1218@?0??SprawdŸ_Pliki@@YAXXZ@4HA 000000014005797c     main.obj
 0004:00002988       $pdata$?dtor$4@?0??SprawdŸ_Ustawienia@@YAXXZ@4HA 0000000140057988     main.obj
 0004:00002994       $pdata$?dtor$16@?0??Wypakuj_Rar@@YAXAEBV?$basic_string@DU?$char_traits@D@std@@V?$allocator@D@2@@std@@@Z@4HA 0000000140057994     main.obj
 0004:00002994       $pdata$?dtor$1@?0??Og³oœ_Wynik@@YAXAEBH0AEAHAEAV?$basic_ofstream@DU?$char_traits@D@std@@@std@@AEAV?$basic_fstream@DU?$char_traits@D@std@@@2@@Z@4HA 0000000140057994     main.obj
 0004:000029a0       $pdata$?dtor$21@?0??Usuñ_Folder_Wypakowany_i_Winrar@@YAXAEBV?$basic_string@DU?$char_traits@D@std@@V?$allocator@D@2@@std@@@Z@4HA 00000001400579a0     main.obj
 0004:000029ac       $pdata$?dtor$42@?0??Usuñ_Folder_Wypakowany_i_Winrar@@YAXAEBV?$basic_string@DU?$char_traits@D@std@@V?$allocator@D@2@@std@@@Z@4HA 00000001400579ac     main.obj
 0004:000029b8       $pdata$?dtor$63@?0??Usuñ_Folder_Wypakowany_i_Winrar@@YAXAEBV?$basic_string@DU?$char_traits@D@std@@V?$allocator@D@2@@std@@@Z@4HA 00000001400579b8     main.obj
 0004:000029c4       $pdata$?dtor$84@?0??Usuñ_Folder_Wypakowany_i_Winrar@@YAXAEBV?$basic_string@DU?$char_traits@D@std@@V?$allocator@D@2@@std@@@Z@4HA 00000001400579c4     main.obj
 0004:000029d0       $pdata$?dtor$105@?0??Usuñ_Folder_Wypakowany_i_Winrar@@YAXAEBV?$basic_string@DU?$char_traits@D@std@@V?$allocator@D@2@@std@@@Z@4HA 00000001400579d0     main.obj
 0004:000029dc       $pdata$?dtor$126@?0??Usuñ_Folder_Wypakowany_i_Winrar@@YAXAEBV?$basic_string@DU?$char_traits@D@std@@V?$allocator@D@2@@std@@@Z@4HA 00000001400579dc     main.obj
 0004:000029e8       $pdata$?dtor$147@?0??Usuñ_Folder_Wypakowany_i_Winrar@@YAXAEBV?$basic_string@DU?$char_traits@D@std@@V?$allocator@D@2@@std@@@Z@4HA 00000001400579e8     main.obj
 0004:000029f4       $pdata$?dtor$168@?0??Usuñ_Folder_Wypakowany_i_Winrar@@YAXAEBV?$basic_string@DU?$char_traits@D@std@@V?$allocator@D@2@@std@@@Z@4HA 00000001400579f4     main.obj
 0004:00002a00       $pdata$?dtor$242@?0??Usuñ_Folder_Wypakowany_i_Winrar@@YAXAEBV?$basic_string@DU?$char_traits@D@std@@V?$allocator@D@2@@std@@@Z@4HA 0000000140057a00     main.obj
 0004:00002a0c       $pdata$?dtor$432@?0??Usuñ_Folder_Wypakowany_i_Winrar@@YAXAEBV?$basic_string@DU?$char_traits@D@std@@V?$allocator@D@2@@std@@@Z@4HA 0000000140057a0c     main.obj
 0004:00002a18       $pdata$?dtor$0@?0???0?$basic_ofstream@DU?$char_traits@D@std@@@std@@QEAA@XZ@4HA 0000000140057a18     main.obj
 0004:00002a24       $pdata$?dtor$0@?0???0?$basic_stringstream@DU?$char_traits@D@std@@V?$allocator@D@2@@std@@QEAA@H@Z@4HA 0000000140057a24     main.obj
 0004:00002a30       $pdata$?catch$9@?0???6?$basic_ostream@DU?$char_traits@D@std@@@std@@QEAAAEAV01@H@Z@4HA 0000000140057a30     main.obj
 0004:00002a3c       $pdata$?catch$9@?0???6?$basic_ostream@DU?$char_traits@D@std@@@std@@QEAAAEAV01@G@Z@4HA 0000000140057a3c     main.obj
 0004:00002a48       $pdata$?dtor$0@?0???0?$basic_ostream@DU?$char_traits@D@std@@@std@@QEAA@PEAV?$basic_streambuf@DU?$char_traits@D@std@@@1@_N@Z@4HA 0000000140057a48     main.obj
 0004:00002a54       $pdata$?dtor$0@?0???0?$basic_istream@DU?$char_traits@D@std@@@std@@QEAA@PEAV?$basic_streambuf@DU?$char_traits@D@std@@@1@_N@Z@4HA 0000000140057a54     main.obj
 0004:00002a60       $pdata$?catch$0@?0??_Osfx@?$basic_ostream@DU?$char_traits@D@std@@@std@@QEAAXXZ@4HA 0000000140057a60     main.obj
 0004:00002a6c       $pdata$?dtor$2@?0???$use_facet@V?$ctype@D@std@@@std@@YAAEBV?$ctype@D@0@AEBVlocale@0@@Z@4HA 0000000140057a6c     main.obj
 0004:00002a78       $pdata$?catch$16@?0???$?6U?$char_traits@D@std@@@std@@YAAEAV?$basic_ostream@DU?$char_traits@D@std@@@0@AEAV10@D@Z@4HA 0000000140057a78     main.obj
 0004:00002a84       $pdata$?catch$13@?0???$?6U?$char_traits@D@std@@@std@@YAAEAV?$basic_ostream@DU?$char_traits@D@std@@@0@AEAV10@PEBD@Z@4HA 0000000140057a84     main.obj
 0004:00002a90       $pdata$?dtor$0@?0???$?HDU?$char_traits@D@std@@V?$allocator@D@1@@std@@YA?AV?$basic_string@DU?$char_traits@D@std@@V?$allocator@D@2@@0@AEBV10@QEBD@Z@4HA 0000000140057a90     main.obj
 0004:00002a90       $pdata$?dtor$0@?0???$?HDU?$char_traits@D@std@@V?$allocator@D@1@@std@@YA?AV?$basic_string@DU?$char_traits@D@std@@V?$allocator@D@2@@0@AEBV10@0@Z@4HA 0000000140057a90     main.obj
 0004:00002a9c       $pdata$?dtor$0@?0???$?HDU?$char_traits@D@std@@V?$allocator@D@1@@std@@YA?AV?$basic_string@DU?$char_traits@D@std@@V?$allocator@D@2@@0@AEBV10@D@Z@4HA 0000000140057a9c     main.obj
 0004:00002aa8       $pdata$?catch$41@?0???$_Range_construct_or_tidy@PEBV?$basic_string@DU?$char_traits@D@std@@V?$allocator@D@2@@std@@@?$vector@V?$basic_string@DU?$char_traits@D@std@@V?$allocator@D@2@@std@@V?$allocator@V?$basic_string@DU?$char_traits@D@std@@V?$allocator@D@2@@std@@@2@@std@@AEAAXPEBV?$basic_string@DU?$char_traits@D@std@@V?$allocator@D@2@@1@0Uforward_iterator_tag@1@@Z@4HA 0000000140057aa8     main.obj
 0004:00002ab4       $pdata$?catch$47@?0???$_Construct@PEBG@?$deque@GV?$allocator@G@std@@@std@@QEAAXPEBG0@Z@4HA 0000000140057ab4     main.obj
 0004:00002ac0       $pdata$?dtor$2@?0???$use_facet@V?$num_put@DV?$ostreambuf_iterator@DU?$char_traits@D@std@@@std@@@std@@@std@@YAAEBV?$num_put@DV?$ostreambuf_iterator@DU?$char_traits@D@std@@@std@@@0@AEBVlocale@0@@Z@4HA 0000000140057ac0     main.obj
 0004:00002ac0       $pdata$?dtor$2@?0???$use_facet@V?$codecvt@DDU_Mbstatet@@@std@@@std@@YAAEBV?$codecvt@DDU_Mbstatet@@@0@AEBVlocale@0@@Z@4HA 0000000140057ac0     main.obj
 0004:00002acc       $pdata$?dtor$2@?0???$use_facet@V?$numpunct@D@std@@@std@@YAAEBV?$numpunct@D@0@AEBVlocale@0@@Z@4HA 0000000140057acc     main.obj
 0004:00002ad8       $pdata$?dtor$3@?0???$use_facet@V?$numpunct@D@std@@@std@@YAAEBV?$numpunct@D@0@AEBVlocale@0@@Z@4HA 0000000140057ad8     main.obj
 0004:00002ae4       $pdata$?catch$8@?0??put@?$basic_ostream@DU?$char_traits@D@std@@@std@@QEAAAEAV12@D@Z@4HA 0000000140057ae4     main.obj
 0004:00002af0       $pdata$?catch$0@?0??_Init@?$numpunct@D@std@@IEAAXAEBV_Locinfo@2@_N@Z@4HA 0000000140057af0     main.obj
 0004:00002afc       $pdata$?catch$37@?0???$?5DU?$char_traits@D@std@@V?$allocator@D@1@@std@@YAAEAV?$basic_istream@DU?$char_traits@D@std@@@0@$$QEAV10@AEAV?$basic_string@DU?$char_traits@D@std@@V?$allocator@D@2@@0@@Z@4HA 0000000140057afc     main.obj
 0004:00002b08       $pdata$?catch$36@?0???$getline@DU?$char_traits@D@std@@V?$allocator@D@2@@std@@YAAEAV?$basic_istream@DU?$char_traits@D@std@@@0@$$QEAV10@AEAV?$basic_string@DU?$char_traits@D@std@@V?$allocator@D@2@@0@D@Z@4HA 0000000140057b08     main.obj
 0004:00002b14       $pdata$?catch$12@?0???$_Insert_string@DU?$char_traits@D@std@@_K@std@@YAAEAV?$basic_ostream@DU?$char_traits@D@std@@@0@AEAV10@QEBD_K@Z@4HA 0000000140057b14     main.obj
 0004:00002b20       $pdata$?catch$13@?0??_Ipfx@?$basic_istream@DU?$char_traits@D@std@@@std@@QEAA_N_N@Z@4HA 0000000140057b20     main.obj
 0004:00002b2c       $pdata$?dtor$5@?0???$_Buynode@AEBU?$pair@$$CBV?$basic_string@DU?$char_traits@D@std@@V?$allocator@D@2@@std@@G@std@@@?$_Tree_comp_alloc@V?$_Tmap_traits@V?$basic_string@DU?$char_traits@D@std@@V?$allocator@D@2@@std@@GU?$less@V?$basic_string@DU?$char_traits@D@std@@V?$allocator@D@2@@std@@@2@V?$allocator@U?$pair@$$CBV?$basic_string@DU?$char_traits@D@std@@V?$allocator@D@2@@std@@G@std@@@2@$0A@@std@@@std@@QEAAPEAU?$_Tree_node@U?$pair@$$CBV?$basic_string@DU?$char_traits@D@std@@V?$allocator@D@2@@std@@G@std@@PEAX@1@AEBU?$pair@$$CBV?$basic_string@DU?$char_traits@D@std@@V?$allocator@D@2@@std@@G@1@@Z@4HA 0000000140057b2c     main.obj
 0004:00002b38       $pdata$?catch$8@?0???$_Buynode@AEBU?$pair@$$CBV?$basic_string@DU?$char_traits@D@std@@V?$allocator@D@2@@std@@G@std@@@?$_Tree_comp_alloc@V?$_Tmap_traits@V?$basic_string@DU?$char_traits@D@std@@V?$allocator@D@2@@std@@GU?$less@V?$basic_string@DU?$char_traits@D@std@@V?$allocator@D@2@@std@@@2@V?$allocator@U?$pair@$$CBV?$basic_string@DU?$char_traits@D@std@@V?$allocator@D@2@@std@@G@std@@@2@$0A@@std@@@std@@QEAAPEAU?$_Tree_node@U?$pair@$$CBV?$basic_string@DU?$char_traits@D@std@@V?$allocator@D@2@@std@@G@std@@PEAX@1@AEBU?$pair@$$CBV?$basic_string@DU?$char_traits@D@std@@V?$allocator@D@2@@std@@G@1@@Z@4HA 0000000140057b38     main.obj
 0004:00002b44       $pdata$?catch$232@?0???$_Insert_hint@AEAU?$pair@$$CBV?$basic_string@DU?$char_traits@D@std@@V?$allocator@D@2@@std@@G@std@@PEAU?$_Tree_node@U?$pair@$$CBV?$basic_string@DU?$char_traits@D@std@@V?$allocator@D@2@@std@@G@std@@PEAX@2@@?$_Tree@V?$_Tmap_traits@V?$basic_string@DU?$char_traits@D@std@@V?$allocator@D@2@@std@@GU?$less@V?$basic_string@DU?$char_traits@D@std@@V?$allocator@D@2@@std@@@2@V?$allocator@U?$pair@$$CBV?$basic_string@DU?$char_traits@D@std@@V?$allocator@D@2@@std@@G@std@@@2@$0A@@std@@@std@@IEAA?AV?$_Tree_iterator@V?$_Tree_val@U?$_Tree_simple_types@U?$pair@$$CBV?$basic_string@DU?$char_traits@D@std@@V?$allocator@D@2@@std@@G@std@@@std@@@std@@@1@V?$_Tree_const_iterator@V?$_Tree_val@U?$_Tree_simple_types@U?$pair@$$CBV?$basic_string@DU?$char_traits@D@std@@V?$allocator@D@2@@std@@G@std@@@std@@@std@@@1@AEAU?$pair@$$CBV?$basic_string@DU?$char_traits@D@std@@V?$allocator@D@2@@std@@G@1@PEAU?$_Tree_node@U?$pair@$$CBV?$basic_string@DU?$char_traits@D@std@@V?$allocator@D@2@@std@@G@std@@PEAX@1@@Z@4HA 0000000140057b44     main.obj
 0004:00002b50       $pdata$?dtor$0@?0???$_Uninitialized_copy_al_unchecked@PEBV?$basic_string@DU?$char_traits@D@std@@V?$allocator@D@2@@std@@PEAV12@V?$allocator@V?$basic_string@DU?$char_traits@D@std@@V?$allocator@D@2@@std@@@2@@std@@YAPEAV?$basic_string@DU?$char_traits@D@std@@V?$allocator@D@2@@0@PEBV10@0PEAV10@AEAV?$allocator@V?$basic_string@DU?$char_traits@D@std@@V?$allocator@D@2@@std@@@0@U_General_ptr_iterator_tag@0@U_Unused_parameter@0@@Z@4HA 0000000140057b50     main.obj
 0004:00002b5c       $pdata$?catch$2@?0???$_Uninitialized_copy_al_unchecked@PEBV?$basic_string@DU?$char_traits@D@std@@V?$allocator@D@2@@std@@PEAV12@V?$allocator@V?$basic_string@DU?$char_traits@D@std@@V?$allocator@D@2@@std@@@2@@std@@YAPEAV?$basic_string@DU?$char_traits@D@std@@V?$allocator@D@2@@0@PEBV10@0PEAV10@AEAV?$allocator@V?$basic_string@DU?$char_traits@D@std@@V?$allocator@D@2@@std@@@0@U_General_ptr_iterator_tag@0@U_Unused_parameter@0@@Z@4HA 0000000140057b5c     main.obj
 0004:00002b68       $pdata$?catch$87@?0???$_Insert_nohint@AEAU?$pair@$$CBV?$basic_string@DU?$char_traits@D@std@@V?$allocator@D@2@@std@@G@std@@PEAU?$_Tree_node@U?$pair@$$CBV?$basic_string@DU?$char_traits@D@std@@V?$allocator@D@2@@std@@G@std@@PEAX@2@@?$_Tree@V?$_Tmap_traits@V?$basic_string@DU?$char_traits@D@std@@V?$allocator@D@2@@std@@GU?$less@V?$basic_string@DU?$char_traits@D@std@@V?$allocator@D@2@@std@@@2@V?$allocator@U?$pair@$$CBV?$basic_string@DU?$char_traits@D@std@@V?$allocator@D@2@@std@@G@std@@@2@$0A@@std@@@std@@IEAA?AU?$pair@V?$_Tree_iterator@V?$_Tree_val@U?$_Tree_simple_types@U?$pair@$$CBV?$basic_string@DU?$char_traits@D@std@@V?$allocator@D@2@@std@@G@std@@@std@@@std@@@std@@_N@1@_NAEAU?$pair@$$CBV?$basic_string@DU?$char_traits@D@std@@V?$allocator@D@2@@std@@G@1@PEAU?$_Tree_node@U?$pair@$$CBV?$basic_string@DU?$char_traits@D@std@@V?$allocator@D@2@@std@@G@std@@PEAX@1@@Z@4HA 0000000140057b68     main.obj
 0004:00002b74       $pdata$?fin$0@?0???_M@YAXPEAX_K1P6AX0@Z@Z@4HA 0000000140057b74     LIBCMT:ehvecdtr.obj
 0004:00002b80       $pdata$?filt$0@?0??__ArrayUnwind@@YAXPEAX_K1P6AX0@Z@Z@4HA 0000000140057b80     LIBCMT:ehvecdtr.obj
 0004:00002b8c       $pdata$__scrt_is_nonwritable_in_current_image$filt$0 0000000140057b8c     LIBCMT:utility.obj
 0004:00002b98       $pdata$?filt$0@?0??__scrt_common_main_seh@@YAHXZ@4HA 0000000140057b98     LIBCMT:exe_main.obj
 0004:00002ba4       $pdata$_CallSETranslator$filt$0 0000000140057ba4     libvcruntime:risctrnsctrl.obj
 0004:00002bb0       $pdata$__DestructExceptionObject$filt$0 0000000140057bb0     libvcruntime:ehhelpers.obj
 0004:00002bbc       $pdata$__CxxCallCatchBlock$filt$0 0000000140057bbc     libvcruntime:frame.obj
 0004:00002bc8       $pdata$__CxxCallCatchBlock$fin$1 0000000140057bc8     libvcruntime:frame.obj
 0004:00002bd4       $pdata$__FrameUnwindToState$filt$0 0000000140057bd4     libvcruntime:frame.obj
 0004:00002be0       $pdata$__FrameUnwindToState$fin$1 0000000140057be0     libvcruntime:frame.obj
 0004:00002bec       $pdata$fputc$fin$0         0000000140057bec     libucrt:fputc.obj
 0004:00002bf8       $pdata$?fin$0@?0???$?RV<lambda_886d6c58226a84441f68b9f2b8217b83>@@AEAV<lambda_ab61a845afdef5b7c387490eaf3616ee>@@V<lambda_f7f22ab5edc0698d5f6905b0d3f44752>@@@?$__crt_seh_guarded_call@X@@QEAAX$$QEAV<lambda_886d6c58226a84441f68b9f2b8217b83>@@AEAV<lambda_ab61a845afdef5b7c387490eaf3616ee>@@$$QEAV<lambda_f7f22ab5edc0698d5f6905b0d3f44752>@@@Z@4HA 0000000140057bf8     libucrt:fflush.obj
 0004:00002c04       $pdata$?fin$0@?0???$?RV<lambda_842d9ff0dc9ef11c61343bbaebe7f885>@@AEAV<lambda_c5860995281e5c4ce005b3de8f5874ee>@@V<lambda_d90129c13df834fdcbf8d2b88dafcf2d>@@@?$__crt_seh_guarded_call@X@@QEAAX$$QEAV<lambda_842d9ff0dc9ef11c61343bbaebe7f885>@@AEAV<lambda_c5860995281e5c4ce005b3de8f5874ee>@@$$QEAV<lambda_d90129c13df834fdcbf8d2b88dafcf2d>@@@Z@4HA 0000000140057c04     libucrt:fflush.obj
 0004:00002c04       $pdata$?fin$0@?0???$?RV<lambda_84ec643ea9557e2f7dc01bb0e9624395>@@AEAV<lambda_ca71763b3c0644891230e4f79ea54fa6>@@V<lambda_439a761618c59b0600e24586724d733b>@@@?$__crt_seh_guarded_call@H@@QEAAH$$QEAV<lambda_84ec643ea9557e2f7dc01bb0e9624395>@@AEAV<lambda_ca71763b3c0644891230e4f79ea54fa6>@@$$QEAV<lambda_439a761618c59b0600e24586724d733b>@@@Z@4HA 0000000140057c04     libucrt:setvbuf.obj
 0004:00002c04       $pdata$?fin$0@?0???$?RV<lambda_c376a267cfb53b6959b3b692ec76b120>@@AEAV<lambda_9a32fed5bf61b6b509b2d3f6003082a1>@@V<lambda_572fbb9fa0ab338edf41edfd4b5fcc8d>@@@?$__crt_seh_guarded_call@H@@QEAAH$$QEAV<lambda_c376a267cfb53b6959b3b692ec76b120>@@AEAV<lambda_9a32fed5bf61b6b509b2d3f6003082a1>@@$$QEAV<lambda_572fbb9fa0ab338edf41edfd4b5fcc8d>@@@Z@4HA 0000000140057c04     libucrt:fflush.obj
 0004:00002c04       $pdata$?fin$0@?0???$?RV<lambda_bdbcead8b570fa3d5ec6d9679862a6e5>@@AEAV<lambda_96f4279ff90247a4c5c5d9824f56f8c1>@@V<lambda_4606be27f17b5e5579e09050fab91818>@@@?$__crt_seh_guarded_call@_K@@QEAA_K$$QEAV<lambda_bdbcead8b570fa3d5ec6d9679862a6e5>@@AEAV<lambda_96f4279ff90247a4c5c5d9824f56f8c1>@@$$QEAV<lambda_4606be27f17b5e5579e09050fab91818>@@@Z@4HA 0000000140057c04     libucrt:fwrite.obj
 0004:00002c10       $pdata$fgetc$fin$0         0000000140057c10     libucrt:fgetc.obj
 0004:00002c1c       $pdata$ungetc$fin$0        0000000140057c1c     libucrt:ungetc.obj
 0004:00002c28       $pdata$fclose$fin$0        0000000140057c28     libucrt:fclose.obj
 0004:00002c28       $pdata$?fin$0@?0??common_fseek@@YAHV__crt_stdio_stream@@_JH@Z@4HA 0000000140057c28     libucrt:fseek.obj
 0004:00002c28       $pdata$?fin$0@?0???$common_ftell@_J@@YA_JV__crt_stdio_stream@@@Z@4HA 0000000140057c28     libucrt:ftell.obj
 0004:00002c34       $pdata$?fin$0@?0???$common_fsopen@D@@YAPEAU_iobuf@@QEBD0H@Z@4HA 0000000140057c34     libucrt:fopen.obj
 0004:00002c40       $pdata$_query_new_handler$fin$0 0000000140057c40     libucrt:new_handler.obj
 0004:00002c4c       $pdata$?filt$0@?0???R<lambda_6e4b09c48022b2350581041d5f6b0c4c>@@QEBA@XZ@4HA 0000000140057c4c     libucrt:exit.obj
 0004:00002c58       $pdata$?fin$0@?0???$?RV<lambda_410d79af7f07d98d83a3f525b3859a53>@@AEAV<lambda_3e16ef9562a7dcce91392c22ab16ea36>@@V<lambda_38119f0e861e05405d8a144b9b982f0a>@@@?$__crt_seh_guarded_call@X@@QEAAX$$QEAV<lambda_410d79af7f07d98d83a3f525b3859a53>@@AEAV<lambda_3e16ef9562a7dcce91392c22ab16ea36>@@$$QEAV<lambda_38119f0e861e05405d8a144b9b982f0a>@@@Z@4HA 0000000140057c58     libucrt:wsetlocale.obj
 0004:00002c64       $pdata$?fin$0@?0???$?RV<lambda_d8a01803c7231904df012bb083be9e3a>@@AEAV<lambda_b163b37eafe0a13f2c371fafeb0365c9>@@AEAV<lambda_8dff2cf36a5417162780cd64fa2883ef>@@@?$__crt_seh_guarded_call@X@@QEAAX$$QEAV<lambda_d8a01803c7231904df012bb083be9e3a>@@AEAV<lambda_b163b37eafe0a13f2c371fafeb0365c9>@@AEAV<lambda_8dff2cf36a5417162780cd64fa2883ef>@@@Z@4HA 0000000140057c64     libucrt:wsetlocale.obj
 0004:00002c70       $pdata$?fin$0@?0???$?RV<lambda_450d765d439847d4c735a33c368b5fc0>@@AEAV<lambda_44731a7d0e6d81c3e6aa82d741081786>@@V<lambda_601a2a7da3b7a96e9554ac7215c4b07c>@@@?$__crt_seh_guarded_call@P6AXH@Z@@QEAAP6AXH@Z$$QEAV<lambda_450d765d439847d4c735a33c368b5fc0>@@AEAV<lambda_44731a7d0e6d81c3e6aa82d741081786>@@$$QEAV<lambda_601a2a7da3b7a96e9554ac7215c4b07c>@@@Z@4HA 0000000140057c70     libucrt:signal.obj
 0004:00002c70       $pdata$?fin$0@?0???$?RV<lambda_0ae27a3a962d80f24befdcbee591983d>@@AEAV<lambda_8d0ee55de4b1038c4002e0adecdf1839>@@V<lambda_dc504788e8f1664fe9b84e20bfb512f2>@@@?$__crt_seh_guarded_call@X@@QEAAX$$QEAV<lambda_0ae27a3a962d80f24befdcbee591983d>@@AEAV<lambda_8d0ee55de4b1038c4002e0adecdf1839>@@$$QEAV<lambda_dc504788e8f1664fe9b84e20bfb512f2>@@@Z@4HA 0000000140057c70     libucrt:per_thread_data.obj
 0004:00002c70       $pdata$?fin$0@?0???$?RV<lambda_bd00b5aa228bd7e7e5b2b5db5fd2933b>@@AEAV<lambda_777d11615145f89ee95b9466d285deeb>@@V<lambda_6e5e48fbd24f9f8f81b203eb3d877683>@@@?$__crt_seh_guarded_call@H@@QEAAH$$QEAV<lambda_bd00b5aa228bd7e7e5b2b5db5fd2933b>@@AEAV<lambda_777d11615145f89ee95b9466d285deeb>@@$$QEAV<lambda_6e5e48fbd24f9f8f81b203eb3d877683>@@@Z@4HA 0000000140057c70     libucrt:winapi_thunks.obj
 0004:00002c70       $pdata$?fin$0@?0???$?RV<lambda_d80eeec6fff315bfe5c115232f3240e3>@@AEAV<lambda_6e4b09c48022b2350581041d5f6b0c4c>@@V<lambda_2358e3775559c9db80273638284d5e45>@@@?$__crt_seh_guarded_call@X@@QEAAX$$QEAV<lambda_d80eeec6fff315bfe5c115232f3240e3>@@AEAV<lambda_6e4b09c48022b2350581041d5f6b0c4c>@@$$QEAV<lambda_2358e3775559c9db80273638284d5e45>@@@Z@4HA 0000000140057c70     libucrt:exit.obj
 0004:00002c70       $pdata$?fin$0@?0???$?RV<lambda_efdfa57d1f175319df784efa44bb7b81>@@AEAV<lambda_5f0a4c1567f8adc6734073e5d1e1b35c>@@V<lambda_2e8a7d3640ea6ccb4c2413664c2db6fd>@@@?$__crt_seh_guarded_call@X@@QEAAX$$QEAV<lambda_efdfa57d1f175319df784efa44bb7b81>@@AEAV<lambda_5f0a4c1567f8adc6734073e5d1e1b35c>@@$$QEAV<lambda_2e8a7d3640ea6ccb4c2413664c2db6fd>@@@Z@4HA 0000000140057c70     libucrt:mbctype.obj
 0004:00002c70       $pdata$?fin$0@?0???$?RV<lambda_f2e299630e499de9f9a165e60fcd3db5>@@AEAV<lambda_2ae9d31cdba2644fcbeaf08da7c24588>@@V<lambda_40d01ff24d0e7b3814fdbdcee8eab3c7>@@@?$__crt_seh_guarded_call@X@@QEAAX$$QEAV<lambda_f2e299630e499de9f9a165e60fcd3db5>@@AEAV<lambda_2ae9d31cdba2644fcbeaf08da7c24588>@@$$QEAV<lambda_40d01ff24d0e7b3814fdbdcee8eab3c7>@@@Z@4HA 0000000140057c70     libucrt:per_thread_data.obj
 0004:00002c70       $pdata$?fin$0@?0???$?RV<lambda_a22f0c497e5168315e06dae667770027>@@AEAV<lambda_a094494068278ba5130ab06e1292f60a>@@V<lambda_24dc10c13f43218c635520766e23e324>@@@?$__crt_seh_guarded_call@_N@@QEAA_N$$QEAV<lambda_a22f0c497e5168315e06dae667770027>@@AEAV<lambda_a094494068278ba5130ab06e1292f60a>@@$$QEAV<lambda_24dc10c13f43218c635520766e23e324>@@@Z@4HA 0000000140057c70     libucrt:spawnv.obj
 0004:00002c70       $pdata$?fin$0@?0???$?RV<lambda_9bd929c17696992ce54f1d748594fc62>@@AEAV<lambda_082c17da81b0962e08c0587ee0fac50c>@@V<lambda_9c08ac857f4975304d44e9f601d9b878>@@@?$__crt_seh_guarded_call@PEAD@@QEAAPEAD$$QEAV<lambda_9bd929c17696992ce54f1d748594fc62>@@AEAV<lambda_082c17da81b0962e08c0587ee0fac50c>@@$$QEAV<lambda_9c08ac857f4975304d44e9f601d9b878>@@@Z@4HA 0000000140057c70     libucrt:setlocale.obj
 0004:00002c70       $pdata$?fin$0@?0???$?RV<lambda_2d41944a1d46af3157314b8a01080d33>@@AEAV<lambda_8f455de75cd7d7f24b4096f044d8b9e6>@@V<lambda_aa500f224e6afead328df44964fe2772>@@@?$__crt_seh_guarded_call@X@@QEAAX$$QEAV<lambda_2d41944a1d46af3157314b8a01080d33>@@AEAV<lambda_8f455de75cd7d7f24b4096f044d8b9e6>@@$$QEAV<lambda_aa500f224e6afead328df44964fe2772>@@@Z@4HA 0000000140057c70     libucrt:per_thread_data.obj
 0004:00002c70       $pdata$?fin$0@?0???$?RV<lambda_8369fcb7c4df1e85de37618bd2b85f07>@@AEAV<lambda_a10e4b102d4a2c3aac6f4f48bbdf488f>@@V<lambda_5b7707bd6d7a0c4713179f36c7fd995d>@@@?$__crt_seh_guarded_call@H@@QEAAH$$QEAV<lambda_8369fcb7c4df1e85de37618bd2b85f07>@@AEAV<lambda_a10e4b102d4a2c3aac6f4f48bbdf488f>@@$$QEAV<lambda_5b7707bd6d7a0c4713179f36c7fd995d>@@@Z@4HA 0000000140057c70     libucrt:onexit.obj
 0004:00002c70       $pdata$?fin$0@?0???$?RV<lambda_7777bce6b2f8c936911f934f8298dc43>@@AEAV<lambda_f03950bc5685219e0bcd2087efbe011e>@@V<lambda_3883c3dff614d5e0c5f61bb1ac94921c>@@@?$__crt_seh_guarded_call@H@@QEAAH$$QEAV<lambda_7777bce6b2f8c936911f934f8298dc43>@@AEAV<lambda_f03950bc5685219e0bcd2087efbe011e>@@$$QEAV<lambda_3883c3dff614d5e0c5f61bb1ac94921c>@@@Z@4HA 0000000140057c70     libucrt:onexit.obj
 0004:00002c70       $pdata$?fin$0@?0???$?RV<lambda_9529fede68560d7205a1271ab16b352e>@@AEAV<lambda_ebf8c556deb379764da826e7bb46e993>@@V<lambda_db92443d3c9ace7c8a20b950bb983b5a>@@@?$__crt_seh_guarded_call@X@@QEAAX$$QEAV<lambda_9529fede68560d7205a1271ab16b352e>@@AEAV<lambda_ebf8c556deb379764da826e7bb46e993>@@$$QEAV<lambda_db92443d3c9ace7c8a20b950bb983b5a>@@@Z@4HA 0000000140057c70     libucrt:wsetlocale.obj
 0004:00002c70       $pdata$?fin$0@?0???$?RV<lambda_aa87e3671a710a21b5dc78c0bdf72e11>@@AEAV<lambda_92619d2358a28f41a33ba319515a20b9>@@V<lambda_6992ecaafeb10aed2b74cb1fae11a551>@@@?$__crt_seh_guarded_call@X@@QEAAX$$QEAV<lambda_aa87e3671a710a21b5dc78c0bdf72e11>@@AEAV<lambda_92619d2358a28f41a33ba319515a20b9>@@$$QEAV<lambda_6992ecaafeb10aed2b74cb1fae11a551>@@@Z@4HA 0000000140057c70     libucrt:per_thread_data.obj
 0004:00002c7c       $pdata$_write$fin$0        0000000140057c7c     libucrt:write.obj
 0004:00002c7c       $pdata$_read$fin$0         0000000140057c7c     libucrt:read.obj
 0004:00002c7c       $pdata$?fin$0@?0???$common_lseek@_J@@YA_JH_JH@Z@4HA 0000000140057c7c     libucrt:lseek.obj
 0004:00002c88       $pdata$?fin$0@?0???$?RV<lambda_a37b2b86f63e897a80ea819b0eb08c01>@@AEAV<lambda_38ce7e780aa69e748d6df282ebc68efe>@@V<lambda_99fb1378e971ab6e7edea83e3a7a83a2>@@@?$__crt_seh_guarded_call@H@@QEAAH$$QEAV<lambda_a37b2b86f63e897a80ea819b0eb08c01>@@AEAV<lambda_38ce7e780aa69e748d6df282ebc68efe>@@$$QEAV<lambda_99fb1378e971ab6e7edea83e3a7a83a2>@@@Z@4HA 0000000140057c88     libucrt:commit.obj
 0004:00002c88       $pdata$?fin$0@?0???$?RV<lambda_751a882b2c74d4b022dec766aa51a29a>@@AEAV<lambda_628dfdc04ba53c8bfc02c9951375f3f5>@@V<lambda_f6c7be5f7998530c34de24c7437d6b54>@@@?$__crt_seh_guarded_call@H@@QEAAH$$QEAV<lambda_751a882b2c74d4b022dec766aa51a29a>@@AEAV<lambda_628dfdc04ba53c8bfc02c9951375f3f5>@@$$QEAV<lambda_f6c7be5f7998530c34de24c7437d6b54>@@@Z@4HA 0000000140057c88     libucrt:close.obj
 0004:00002c94       $pdata$?fin$0@?0???$common_dupenv_s@D@@YAHQEAPEADQEA_KQEBDH2H@Z@4HA 0000000140057c94     libucrt:getenv.obj
 0004:00002ca0       $pdata$?fin$0@?0??__acrt_stdio_allocate_stream@@YA?AV__crt_stdio_stream@@XZ@4HA 0000000140057ca0     libucrt:stream.obj
 0004:00002ca0       $pdata$_fcloseall$fin$0    0000000140057ca0     libucrt:closeall.obj
 0004:00002cac       $pdata$_ctrlfp$filt$0      0000000140057cac     libucrt:fpctrl.obj
 0004:00002cb8       $pdata$raise$fin$0         0000000140057cb8     libucrt:signal.obj
 0004:00002cc4       $pdata$?fin$0@?0??update_thread_multibyte_data_internal@@YAPEAU__crt_multibyte_data@@QEAU__acrt_ptd@@QEAU1@@Z@4HA 0000000140057cc4     libucrt:mbctype.obj
 0004:00002cd0       $pdata$__acrt_initialize_lowio$fin$0 0000000140057cd0     libucrt:ioinit.obj
 0004:00002cd0       $pdata$__acrt_lowio_ensure_fh_exists$fin$0 0000000140057cd0     libucrt:osfinfo.obj
 0004:00002cd0       $pdata$_alloc_osfhnd$fin$0 0000000140057cd0     libucrt:osfinfo.obj
 0004:00002cdc       $pdata$__acrt_update_thread_locale_data$fin$0 0000000140057cdc     libucrt:locale_refcounting.obj
 0004:00002ce8       $pdata$?fin$0@?0???$common_sopen_dispatch@D@@YAHQEBDHHHQEAHH@Z@4HA 0000000140057ce8     libucrt:open.obj
 0004:00002cf4       $pdata$_IsNonwritableInCurrentImage$filt$0 0000000140057cf4     LIBCMT:pesect.obj
 0004:00002d00       $pdata$??__FRuletka_plansza_kolor_col@@YAXXZ 0000000140057d00     main.obj
 0004:00002d0c       $pdata$??__FNumer_zasobu_rar@@YAXXZ 0000000140057d0c     main.obj
 0004:00002d18       $pdata$??__Fcout@std@@YAXXZ 0000000140057d18     libcpmt:cout.obj
 0004:00002d24       $pdata$??__F_Fac_tidy_reg@std@@YAXXZ 0000000140057d24     libcpmt:locale0.obj
 0004:00002d30       $pdata$??__Fclassic_locale@std@@YAXXZ 0000000140057d30     libcpmt:locale0.obj
 0004:00002d3c       $pdata$??__Fcin@std@@YAXXZ 0000000140057d3c     libcpmt:cin.obj
 0004:00002d48       $pdata$??__Finit_atexit@@YAXXZ 0000000140057d48     libcpmt:iosptrs.obj
 0005:00000a20       $R000000                   0000000140058a20     Resource.res
 0005:000079f8       $R006FD8                   000000014005f9f8     Resource.res
 0005:00007a10       $R006FF0                   000000014005fa10     Resource.res
 0005:0005dc80       $R05D260                   00000001400b5c80     Resource.res
 0005:000df000       $R0DE5E0                   0000000140137000     Resource.res
 0005:00135270       $R134850                   000000014018d270     Resource.res
 0005:0028db40       $R28D120                   00000001402e5b40     Resource.res
 0005:0039eee0       $R39E4C0                   00000001403f6ee0     Resource.res
 0005:0047b9d0       $R47AFB0                   00000001404d39d0     Resource.res
 0005:00542728       $R541D08                   000000014059a728     Resource.res
 0005:00609488       $R608A68                   0000000140661488     Resource.res
 0005:006b0808       $R6AFDE8                   0000000140708808     Resource.res
 0005:007c17e8       $R7C0DC8                   00000001408197e8     Resource.res
 0005:008c3180       $R8C2760                   000000014091b180     Resource.res
 0005:009b2778       $R9B1D58                   0000000140a0a778     Resource.res
 0005:00a891a8       $RA88788                   0000000140ae11a8     Resource.res
 0005:00b56c98       $RB56278                   0000000140baec98     Resource.res
 0005:00c55440       $RC54A20                   0000000140cad440     Resource.res
 0005:00d3aa28       $RD3A008                   0000000140d92a28     Resource.res
 0005:00e08520       $RE07B00                   0000000140e60520     Resource.res
 0005:00ec3848       $REC2E28                   0000000140f1b848     Resource.res
 0005:00f6b368       $RF6A948                   0000000140fc3368     Resource.res
 0005:010786e0       $R077CC0                   00000001410d06e0     Resource.res
 0005:01168410       $R1679F0                   00000001411c0410     Resource.res
 0005:01239d90       $R239370                   0000000141291d90     Resource.res
 0005:012fcf28       $R2FC508                   0000000141354f28     Resource.res
 0005:013ba510       $R3B9AF0                   0000000141412510     Resource.res
 0005:014a1260       $R4A0840                   00000001414f9260     Resource.res
 0005:01567b68       $R567148                   00000001415bfb68     Resource.res
 0005:01619640       $R618C20                   0000000141671640     Resource.res
 0005:016bae40       $R6BA420                   0000000141712e40     Resource.res
 0005:0174c618       $R74BBF8                   00000001417a4618     Resource.res
 0005:01859658       $R858C38                   00000001418b1658     Resource.res
 0005:01945ac8       $R9450A8                   000000014199dac8     Resource.res
 0005:01a21d38       $RA21318                   0000000141a79d38     Resource.res
 0005:01aea6c8       $RAE9CA8                   0000000141b426c8     Resource.res
 0005:01b99a00       $RB98FE0                   0000000141bf1a00     Resource.res
 0005:01c77330       $RC76910                   0000000141ccf330     Resource.res
 0005:01d362f8       $RD358D8                   0000000141d8e2f8     Resource.res
 0005:01de3db8       $RDE3398                   0000000141e3bdb8     Resource.res
 0005:01e804b8       $RE7FA98                   0000000141ed84b8     Resource.res
 0005:01f0da48       $RF0D028                   0000000141f65a48     Resource.res
 0005:02013648       $R012C28                   000000014206b648     Resource.res
 0005:0210ba58       $R10B038                   0000000142163a58     Resource.res
 0005:021ee1a8       $R1ED788                   00000001422461a8     Resource.res
 0005:022b9170       $R2B8750                   0000000142311170     Resource.res
 0005:02373760       $R372D40                   00000001423cb760     Resource.res
 0005:024643f0       $R4639D0                   00000001424bc3f0     Resource.res
 0005:0253f290       $R53E870                   0000000142597290     Resource.res
 0005:02607328       $R606908                   000000014265f328     Resource.res
 0005:026ba4e0       $R6B9AC0                   00000001427124e0     Resource.res
 0005:0275b450       $R75AA30                   00000001427b3450     Resource.res

 Exports

  ordinal    name

