 Ruletka

 Timestamp is 5a3a71a2 (Wed Dec 20 15:20:18 2017)

 Preferred load address is 0000000140000000

 Start         Length     Name                   Class
 0001:00000000 000b937dH .textbss                DATA
 0002:00000000 000118c0H .text$di                CODE
 0002:000118c0 0016a8b0H .text$mn                CODE
 0002:0017c170 00001110H .text$mn$00             CODE
 0002:0017d280 0000b7b0H .text$x                 CODE
 0002:00188a30 000012baH .text$yd                CODE
 0003:00000000 00000110H .CRT$XCA                DATA
 0003:00000110 00000110H .CRT$XCAA               DATA
 0003:00000220 000003a8H .CRT$XCC                DATA
 0003:000005c8 00000148H .CRT$XCL                DATA
 0003:00000710 00000170H .CRT$XCU                DATA
 0003:00000880 00000110H .CRT$XCZ                DATA
 0003:00000990 00000110H .CRT$XIA                DATA
 0003:00000aa0 00000110H .CRT$XIAA               DATA
 0003:00000bb0 00000110H .CRT$XIAC               DATA
 0003:00000cc0 00000158H .CRT$XIC                DATA
 0003:00000e18 00000110H .CRT$XIZ                DATA
 0003:00000f28 00000110H .CRT$XPA                DATA
 0003:00001038 00000120H .CRT$XPX                DATA
 0003:00001158 00000110H .CRT$XPXA               DATA
 0003:00001268 00000110H .CRT$XPZ                DATA
 0003:00001378 00000110H .CRT$XTA                DATA
 0003:00001488 00000118H .CRT$XTZ                DATA
 0003:000015a0 00045230H .rdata                  DATA
 0003:000467d0 00003d80H .rdata$r                DATA
 0003:0004a550 000001b8H .rdata$zzzdbg           DATA
 0003:0004a708 00000110H .rtc$IAA                DATA
 0003:0004a818 00000110H .rtc$IMZ                DATA
 0003:0004a928 00000110H .rtc$IZZ                DATA
 0003:0004aa38 00000110H .rtc$TAA                DATA
 0003:0004ab48 00000110H .rtc$TMZ                DATA
 0003:0004ac58 00000118H .rtc$TZZ                DATA
 0003:0004ad70 0001b5f8H .xdata                  DATA
 0003:00066368 00000756H .xdata$x                DATA
 0003:00066abe 00000000H .edata                  DATA
 0004:00000000 00000f80H .data                   DATA
 0004:00000f80 00001970H .data$r                 DATA
 0004:000028f0 00002f80H .bss                    DATA
 0005:00000000 00014b74H .pdata                  DATA
 0006:00000000 000005d8H .idata$5                DATA
 0006:000005d8 00000050H .idata$2                DATA
 0006:00000628 00000018H .idata$3                DATA
 0006:00000640 000005d8H .idata$4                DATA
 0006:00000c18 00000ae2H .idata$6                DATA
 0007:00000000 0000013fH .00cfg                  DATA
 0008:00000000 00000d80H .rsrc$01                DATA
 0008:00000d80 02fdfc36H .rsrc$02                DATA

  Address         Publics by Value              Rva+Base               Lib:Object

 0000:00000000       __hybrid_code_map_count    0000000000000000     <absolute>
 0000:00000000       __hybrid_code_map          0000000000000000     <absolute>
 0000:00000000       __hybrid_auxiliary_iat     0000000000000000     <absolute>
 0000:00000000       __guard_fids_table         0000000000000000     <absolute>
 0000:00000000       __guard_iat_table          0000000000000000     <absolute>
 0000:00000000       __guard_longjmp_count      0000000000000000     <absolute>
 0000:00000000       __dynamic_value_reloc_table 0000000000000000     <absolute>
 0000:00000000       ___safe_se_handler_table   0000000000000000     <absolute>
 0000:00000000       ___safe_se_handler_count   0000000000000000     <absolute>
 0000:00000000       __guard_iat_count          0000000000000000     <absolute>
 0000:00000000       __enclave_config           0000000000000000     <absolute>
 0000:00000000       __guard_longjmp_table      0000000000000000     <absolute>
 0000:00000000       __guard_fids_count         0000000000000000     <absolute>
 0000:00000100       __guard_flags              0000000000000100     <absolute>
 0000:00000000       __ImageBase                0000000140000000     <linker-defined>
 0001:00000000       __enc$textbss$begin        0000000140001000     <linker-defined>
 0001:000b937d       __enc$textbss$end          00000001400ba37d     <linker-defined>
 0002:000118c0       ??$?0$$V@?$_Compressed_pair@V?$allocator@D@std@@V?$_String_val@U?$_Simple_types@D@std@@@2@$00@std@@QEAA@U_Zero_then_variadic_args_t@1@@Z 00000001400cc8c0 f i main.obj
 0002:00011930       ??$?0$$V@?$_Compressed_pair@V?$allocator@U?$_Tree_node@U?$pair@$$CBV?$basic_string@DU?$char_traits@D@std@@V?$allocator@D@2@@std@@G@std@@PEAX@std@@@std@@V?$_Tree_val@U?$_Tree_simple_types@U?$pair@$$CBV?$basic_string@DU?$char_traits@D@std@@V?$allocator@D@2@@std@@G@std@@@std@@@2@$00@std@@QEAA@U_Zero_then_variadic_args_t@1@@Z 00000001400cc930 f i main.obj
 0002:000119a0       ??$?0AEAV?$_Tree_iterator@V?$_Tree_val@U?$_Tree_simple_types@U?$pair@$$CBV?$basic_string@DU?$char_traits@D@std@@V?$allocator@D@2@@std@@G@std@@@std@@@std@@@std@@_N$0A@@?$pair@V?$_Tree_iterator@V?$_Tree_val@U?$_Tree_simple_types@U?$pair@$$CBV?$basic_string@DU?$char_traits@D@std@@V?$allocator@D@2@@std@@G@std@@@std@@@std@@@std@@_N@std@@QEAA@AEAV?$_Tree_iterator@V?$_Tree_val@U?$_Tree_simple_types@U?$pair@$$CBV?$basic_string@DU?$char_traits@D@std@@V?$allocator@D@2@@std@@G@std@@@std@@@std@@@1@$$QEA_N@Z 00000001400cc9a0 f i main.obj
 0002:00011a40       ??$?0AEAY05$$CBDH$0A@@?$pair@$$CBV?$basic_string@DU?$char_traits@D@std@@V?$allocator@D@2@@std@@G@std@@QEAA@AEAY05$$CBD$$QEAH@Z 00000001400cca40 f i main.obj
 0002:00011ae0       ??$?0AEAY06$$CBDH$0A@@?$pair@$$CBV?$basic_string@DU?$char_traits@D@std@@V?$allocator@D@2@@std@@G@std@@QEAA@AEAY06$$CBD$$QEAH@Z 00000001400ccae0 f i main.obj
 0002:00011b80       ??$?0AEAY07$$CBDH$0A@@?$pair@$$CBV?$basic_string@DU?$char_traits@D@std@@V?$allocator@D@2@@std@@G@std@@QEAA@AEAY07$$CBD$$QEAH@Z 00000001400ccb80 f i main.obj
 0002:00011c20       ??$?0AEAY08$$CBDH$0A@@?$pair@$$CBV?$basic_string@DU?$char_traits@D@std@@V?$allocator@D@2@@std@@G@std@@QEAA@AEAY08$$CBD$$QEAH@Z 00000001400ccc20 f i main.obj
 0002:00011cc0       ??$?0AEBU?$less@V?$basic_string@DU?$char_traits@D@std@@V?$allocator@D@2@@std@@@std@@U_Zero_then_variadic_args_t@1@@?$_Compressed_pair@U?$less@V?$basic_string@DU?$char_traits@D@std@@V?$allocator@D@2@@std@@@std@@V?$_Compressed_pair@V?$allocator@U?$_Tree_node@U?$pair@$$CBV?$basic_string@DU?$char_traits@D@std@@V?$allocator@D@2@@std@@G@std@@PEAX@std@@@std@@V?$_Tree_val@U?$_Tree_simple_types@U?$pair@$$CBV?$basic_string@DU?$char_traits@D@std@@V?$allocator@D@2@@std@@G@std@@@std@@@2@$00@2@$00@std@@QEAA@U_One_then_variadic_args_t@1@AEBU?$less@V?$basic_string@DU?$char_traits@D@std@@V?$allocator@D@2@@std@@@1@$$QEAU_Zero_then_variadic_args_t@1@@Z 00000001400cccc0 f i main.obj
 0002:00011d50       ??$?0AEBV?$allocator@D@std@@$$V@?$_Compressed_pair@V?$allocator@D@std@@V?$_String_val@U?$_Simple_types@D@std@@@2@$00@std@@QEAA@U_One_then_variadic_args_t@1@AEBV?$allocator@D@1@@Z 00000001400ccd50 f i main.obj
 0002:00011dd0       ??$?0AEBV?$allocator@D@std@@X@?$_String_alloc@U?$_String_base_types@DV?$allocator@D@std@@@std@@@std@@QEAA@AEBV?$allocator@D@1@@Z 00000001400ccdd0 f i main.obj
 0002:00011e70       ??$?0AEBV?$allocator@G@std@@$$V@?$_Compressed_pair@V?$allocator@G@std@@V?$_Deque_val@U?$_Deque_simple_types@G@std@@@2@$00@std@@QEAA@U_One_then_variadic_args_t@1@AEBV?$allocator@G@1@@Z 00000001400cce70 f i main.obj
 0002:00011ef0       ??$?0AEBV?$allocator@G@std@@X@?$_Deque_alloc@U?$_Deque_base_types@GV?$allocator@G@std@@@std@@@std@@QEAA@AEBV?$allocator@G@1@@Z 00000001400ccef0 f i main.obj
 0002:00011f90       ??$?0AEBV?$allocator@V?$basic_string@DU?$char_traits@D@std@@V?$allocator@D@2@@std@@@std@@$$V@?$_Compressed_pair@V?$allocator@V?$basic_string@DU?$char_traits@D@std@@V?$allocator@D@2@@std@@@std@@V?$_Vector_val@U?$_Simple_types@V?$basic_string@DU?$char_traits@D@std@@V?$allocator@D@2@@std@@@std@@@2@$00@std@@QEAA@U_One_then_variadic_args_t@1@AEBV?$allocator@V?$basic_string@DU?$char_traits@D@std@@V?$allocator@D@2@@std@@@1@@Z 00000001400ccf90 f i main.obj
 0002:00012010       ??$?0AEBV?$allocator@V?$basic_string@DU?$char_traits@D@std@@V?$allocator@D@2@@std@@@std@@X@?$_Vector_alloc@U?$_Vec_base_types@V?$basic_string@DU?$char_traits@D@std@@V?$allocator@D@2@@std@@V?$allocator@V?$basic_string@DU?$char_traits@D@std@@V?$allocator@D@2@@std@@@2@@std@@@std@@QEAA@AEBV?$allocator@V?$basic_string@DU?$char_traits@D@std@@V?$allocator@D@2@@std@@@1@@Z 00000001400cd010 f i main.obj
 0002:000120b0       ??$?0D@?$allocator@U_Container_proxy@std@@@std@@QEAA@AEBV?$allocator@D@1@@Z 00000001400cd0b0 f i main.obj
 0002:00012100       ??$?0G@?$allocator@PEAG@std@@QEAA@AEBV?$allocator@G@1@@Z 00000001400cd100 f i main.obj
 0002:00012150       ??$?0G@?$allocator@U_Container_proxy@std@@@std@@QEAA@AEBV?$allocator@G@1@@Z 00000001400cd150 f i main.obj
 0002:000121a0       ??$?0U?$_Tree_node@U?$pair@$$CBV?$basic_string@DU?$char_traits@D@std@@V?$allocator@D@2@@std@@G@std@@PEAX@std@@@?$allocator@U_Container_proxy@std@@@std@@QEAA@AEBV?$allocator@U?$_Tree_node@U?$pair@$$CBV?$basic_string@DU?$char_traits@D@std@@V?$allocator@D@2@@std@@G@std@@PEAX@std@@@1@@Z 00000001400cd1a0 f i main.obj
 0002:000121f0       ??$?0U?$integral_constant@_N$00@std@@@_Unused_parameter@std@@QEAA@$$QEAU?$integral_constant@_N$00@1@@Z 00000001400cd1f0 f i main.obj
 0002:00012240       ??$?0V?$_Tree_iterator@V?$_Tree_val@U?$_Tree_simple_types@U?$pair@$$CBV?$basic_string@DU?$char_traits@D@std@@V?$allocator@D@2@@std@@G@std@@@std@@@std@@@std@@_N$0A@@?$pair@V?$_Tree_iterator@V?$_Tree_val@U?$_Tree_simple_types@U?$pair@$$CBV?$basic_string@DU?$char_traits@D@std@@V?$allocator@D@2@@std@@G@std@@@std@@@std@@@std@@_N@std@@QEAA@$$QEAV?$_Tree_iterator@V?$_Tree_val@U?$_Tree_simple_types@U?$pair@$$CBV?$basic_string@DU?$char_traits@D@std@@V?$allocator@D@2@@std@@G@std@@@std@@@std@@@1@$$QEA_N@Z 00000001400cd240 f i main.obj
 0002:000122e0       ??$?0V?$allocator@D@std@@$$V@?$_Compressed_pair@V?$allocator@D@std@@V?$_String_val@U?$_Simple_types@D@std@@@2@$00@std@@QEAA@U_One_then_variadic_args_t@1@$$QEAV?$allocator@D@1@@Z 00000001400cd2e0 f i main.obj
 0002:00012360       ??$?0V?$allocator@D@std@@X@?$_String_alloc@U?$_String_base_types@DV?$allocator@D@std@@@std@@@std@@QEAA@$$QEAV?$allocator@D@1@@Z 00000001400cd360 f i main.obj
 0002:00012400       ??$?0V?$basic_string@DU?$char_traits@D@std@@V?$allocator@D@2@@std@@@?$allocator@U_Container_proxy@std@@@std@@QEAA@AEBV?$allocator@V?$basic_string@DU?$char_traits@D@std@@V?$allocator@D@2@@std@@@1@@Z 00000001400cd400 f i main.obj
 0002:00012450       ??$?5DU?$char_traits@D@std@@V?$allocator@D@1@@std@@YAAEAV?$basic_istream@DU?$char_traits@D@std@@@0@$$QEAV10@AEAV?$basic_string@DU?$char_traits@D@std@@V?$allocator@D@2@@0@@Z 00000001400cd450 f i main.obj
 0002:000128e0       ??$?5DU?$char_traits@D@std@@V?$allocator@D@1@@std@@YAAEAV?$basic_istream@DU?$char_traits@D@std@@@0@AEAV10@AEAV?$basic_string@DU?$char_traits@D@std@@V?$allocator@D@2@@0@@Z 00000001400cd8e0 f i main.obj
 0002:00012950       ??$?6DU?$char_traits@D@std@@V?$allocator@D@1@@std@@YAAEAV?$basic_ostream@DU?$char_traits@D@std@@@0@AEAV10@AEBV?$basic_string@DU?$char_traits@D@std@@V?$allocator@D@2@@0@@Z 00000001400cd950 f i main.obj
 0002:000129e0       ??$?6U?$char_traits@D@std@@@std@@YAAEAV?$basic_ostream@DU?$char_traits@D@std@@@0@AEAV10@D@Z 00000001400cd9e0 f i main.obj
 0002:00012ec0       ??$?6U?$char_traits@D@std@@@std@@YAAEAV?$basic_ostream@DU?$char_traits@D@std@@@0@AEAV10@PEBD@Z 00000001400cdec0 f i main.obj
 0002:000133c0       ??$?8DU?$char_traits@D@std@@V?$allocator@D@1@@std@@YA_NAEBV?$basic_string@DU?$char_traits@D@std@@V?$allocator@D@2@@0@QEBD@Z 00000001400ce3c0 f i main.obj
 0002:00013420       ??$?9DD@std@@YA_NAEBV?$allocator@D@0@0@Z 00000001400ce420 f i main.obj
 0002:00013470       ??$?9DU?$char_traits@D@std@@V?$allocator@D@1@@std@@YA_NAEBV?$basic_string@DU?$char_traits@D@std@@V?$allocator@D@2@@0@QEBD@Z 00000001400ce470 f i main.obj
 0002:00013500       ??$?HDU?$char_traits@D@std@@V?$allocator@D@1@@std@@YA?AV?$basic_string@DU?$char_traits@D@std@@V?$allocator@D@2@@0@$$QEAV10@0@Z 00000001400ce500 f i main.obj
 0002:000136c0       ??$?HDU?$char_traits@D@std@@V?$allocator@D@1@@std@@YA?AV?$basic_string@DU?$char_traits@D@std@@V?$allocator@D@2@@0@$$QEAV10@D@Z 00000001400ce6c0 f i main.obj
 0002:00013770       ??$?HDU?$char_traits@D@std@@V?$allocator@D@1@@std@@YA?AV?$basic_string@DU?$char_traits@D@std@@V?$allocator@D@2@@0@$$QEAV10@QEBD@Z 00000001400ce770 f i main.obj
 0002:00013820       ??$?HDU?$char_traits@D@std@@V?$allocator@D@1@@std@@YA?AV?$basic_string@DU?$char_traits@D@std@@V?$allocator@D@2@@0@AEBV10@$$QEAV10@@Z 00000001400ce820 f i main.obj
 0002:000138d0       ??$?HDU?$char_traits@D@std@@V?$allocator@D@1@@std@@YA?AV?$basic_string@DU?$char_traits@D@std@@V?$allocator@D@2@@0@AEBV10@0@Z 00000001400ce8d0 f i main.obj
 0002:00013a30       ??$?HDU?$char_traits@D@std@@V?$allocator@D@1@@std@@YA?AV?$basic_string@DU?$char_traits@D@std@@V?$allocator@D@2@@0@AEBV10@D@Z 00000001400cea30 f i main.obj
 0002:00013b70       ??$?HDU?$char_traits@D@std@@V?$allocator@D@1@@std@@YA?AV?$basic_string@DU?$char_traits@D@std@@V?$allocator@D@2@@0@AEBV10@QEBD@Z 00000001400ceb70 f i main.obj
 0002:00013ce0       ??$?HDU?$char_traits@D@std@@V?$allocator@D@1@@std@@YA?AV?$basic_string@DU?$char_traits@D@std@@V?$allocator@D@2@@0@QEBDAEBV10@@Z 00000001400cece0 f i main.obj
 0002:00013e50       ??$?MDU?$char_traits@D@std@@V?$allocator@D@1@@std@@YA_NAEBV?$basic_string@DU?$char_traits@D@std@@V?$allocator@D@2@@0@0@Z 00000001400cee50 f i main.obj
 0002:00013ee0       ??$?RVrandom_device@std@@@?$uniform_int@H@std@@QEBAHAEAVrandom_device@1@@Z 00000001400ceee0 f i main.obj
 0002:00013f60       ??$_Allocate@U?$_Default_allocate_traits@$00@std@@@std@@YAPEAX_K0_K@Z 00000001400cef60 f i main.obj
 0002:00014190       ??$_Buy_if_not_node@AEAU?$pair@$$CBV?$basic_string@DU?$char_traits@D@std@@V?$allocator@D@2@@std@@G@std@@@?$_Tree@V?$_Tmap_traits@V?$basic_string@DU?$char_traits@D@std@@V?$allocator@D@2@@std@@GU?$less@V?$basic_string@DU?$char_traits@D@std@@V?$allocator@D@2@@std@@@2@V?$allocator@U?$pair@$$CBV?$basic_string@DU?$char_traits@D@std@@V?$allocator@D@2@@std@@G@std@@@2@$0A@@std@@@std@@IEAAPEAU?$_Tree_node@U?$pair@$$CBV?$basic_string@DU?$char_traits@D@std@@V?$allocator@D@2@@std@@G@std@@PEAX@1@PEAU21@AEAU?$pair@$$CBV?$basic_string@DU?$char_traits@D@std@@V?$allocator@D@2@@std@@G@1@@Z 00000001400cf190 f i main.obj
 0002:000141f0       ??$_Buynode@AEBU?$pair@$$CBV?$basic_string@DU?$char_traits@D@std@@V?$allocator@D@2@@std@@G@std@@@?$_Tree_comp_alloc@V?$_Tmap_traits@V?$basic_string@DU?$char_traits@D@std@@V?$allocator@D@2@@std@@GU?$less@V?$basic_string@DU?$char_traits@D@std@@V?$allocator@D@2@@std@@@2@V?$allocator@U?$pair@$$CBV?$basic_string@DU?$char_traits@D@std@@V?$allocator@D@2@@std@@G@std@@@2@$0A@@std@@@std@@QEAAPEAU?$_Tree_node@U?$pair@$$CBV?$basic_string@DU?$char_traits@D@std@@V?$allocator@D@2@@std@@G@std@@PEAX@1@AEBU?$pair@$$CBV?$basic_string@DU?$char_traits@D@std@@V?$allocator@D@2@@std@@G@1@@Z 00000001400cf1f0 f i main.obj
 0002:000142e0       ??$_Construct@PEBG@?$deque@GV?$allocator@G@std@@@std@@QEAAXPEBG0@Z 00000001400cf2e0 f i main.obj
 0002:00014390       ??$_Convert_size@_K@std@@YA_K_K@Z 00000001400cf390 f i main.obj
 0002:000143e0       ??$_Copy_memmove@PEAPEAGPEAPEAG@std@@YAPEAPEAGPEAPEAG00@Z 00000001400cf3e0 f i main.obj
 0002:000144a0       ??$_Deallocate_plain@V?$allocator@U_Container_proxy@std@@@std@@$0A@@std@@YAXAEAV?$allocator@U_Container_proxy@std@@@0@QEAU_Container_proxy@0@@Z 00000001400cf4a0 f i main.obj
 0002:00014510       ??$_Debug_lt_pred@AEAU?$less@V?$basic_string@DU?$char_traits@D@std@@V?$allocator@D@2@@std@@@std@@AEBV?$basic_string@DU?$char_traits@D@std@@V?$allocator@D@2@@2@AEBV32@@std@@YA_NAEAU?$less@V?$basic_string@DU?$char_traits@D@std@@V?$allocator@D@2@@std@@@0@AEBV?$basic_string@DU?$char_traits@D@std@@V?$allocator@D@2@@0@1PEB_WI@Z 00000001400cf510 f i main.obj
 0002:00014650       ??$_Debug_lt_pred@AEBU?$less@V?$basic_string@DU?$char_traits@D@std@@V?$allocator@D@2@@std@@@std@@AEBV?$basic_string@DU?$char_traits@D@std@@V?$allocator@D@2@@2@AEBV32@@std@@YA_NAEBU?$less@V?$basic_string@DU?$char_traits@D@std@@V?$allocator@D@2@@std@@@0@AEBV?$basic_string@DU?$char_traits@D@std@@V?$allocator@D@2@@0@1PEB_WI@Z 00000001400cf650 f i main.obj
 0002:00014790       ??$_Debug_range2@PEBD@std@@YAXPEBD0PEB_WIUrandom_access_iterator_tag@0@@Z 00000001400cf790 f i main.obj
 0002:00014850       ??$_Debug_range2@PEBU?$pair@$$CBV?$basic_string@DU?$char_traits@D@std@@V?$allocator@D@2@@std@@G@std@@@std@@YAXPEBU?$pair@$$CBV?$basic_string@DU?$char_traits@D@std@@V?$allocator@D@2@@std@@G@0@0PEB_WIUrandom_access_iterator_tag@0@@Z 00000001400cf850 f i main.obj
 0002:00014910       ??$_Debug_range@PEBD@std@@YAXPEBD0PEB_WI@Z 00000001400cf910 f i main.obj
 0002:000149a0       ??$_Debug_range@PEBU?$pair@$$CBV?$basic_string@DU?$char_traits@D@std@@V?$allocator@D@2@@std@@G@std@@@std@@YAXPEBU?$pair@$$CBV?$basic_string@DU?$char_traits@D@std@@V?$allocator@D@2@@std@@G@0@0PEB_WI@Z 00000001400cf9a0 f i main.obj
 0002:00014a30       ??$_Destroy_range1@V?$allocator@PEAG@std@@@std@@YAXPEAPEAG0AEAV?$allocator@PEAG@0@U?$integral_constant@_N$00@0@@Z 00000001400cfa30 f i main.obj
 0002:00014a90       ??$_Destroy_range1@V?$allocator@V?$basic_string@DU?$char_traits@D@std@@V?$allocator@D@2@@std@@@std@@@std@@YAXPEAV?$basic_string@DU?$char_traits@D@std@@V?$allocator@D@2@@0@0AEAV?$allocator@V?$basic_string@DU?$char_traits@D@std@@V?$allocator@D@2@@std@@@0@U?$integral_constant@_N$0A@@0@@Z 00000001400cfa90 f i main.obj
 0002:00014b40       ??$_Destroy_range@V?$allocator@PEAG@std@@@std@@YAXPEAPEAG0AEAV?$allocator@PEAG@0@@Z 00000001400cfb40 f i main.obj
 0002:00014bc0       ??$_Destroy_range@V?$allocator@V?$basic_string@DU?$char_traits@D@std@@V?$allocator@D@2@@std@@@std@@@std@@YAXPEAV?$basic_string@DU?$char_traits@D@std@@V?$allocator@D@2@@0@0AEAV?$allocator@V?$basic_string@DU?$char_traits@D@std@@V?$allocator@D@2@@std@@@0@@Z 00000001400cfbc0 f i main.obj
 0002:00014c40       ??$_Distance1@PEBV?$basic_string@DU?$char_traits@D@std@@V?$allocator@D@2@@std@@@std@@YA_JPEBV?$basic_string@DU?$char_traits@D@std@@V?$allocator@D@2@@0@0Urandom_access_iterator_tag@0@@Z 00000001400cfc40 f i main.obj
 0002:00014cb0       ??$_Eval@Vrandom_device@std@@@?$uniform_int@H@std@@AEBAHAEAVrandom_device@1@HH@Z 00000001400cfcb0 f i main.obj
 0002:00014df0       ??$_Fgetc@D@std@@YA_NAEADPEAU_iobuf@@@Z 00000001400cfdf0 f i main.obj
 0002:00014e70       ??$_Fputc@D@std@@YA_NDPEAU_iobuf@@@Z 00000001400cfe70 f i main.obj
 0002:00014f00       ??$_Freenode0@V?$allocator@U?$_Tree_node@U?$pair@$$CBV?$basic_string@DU?$char_traits@D@std@@V?$allocator@D@2@@std@@G@std@@PEAX@std@@@std@@@?$_Tree_node@U?$pair@$$CBV?$basic_string@DU?$char_traits@D@std@@V?$allocator@D@2@@std@@G@std@@PEAX@std@@SAXAEAV?$allocator@U?$_Tree_node@U?$pair@$$CBV?$basic_string@DU?$char_traits@D@std@@V?$allocator@D@2@@std@@G@std@@PEAX@std@@@1@PEAU01@@Z 00000001400cff00 f i main.obj
 0002:00015030       ??$_Getvals@D@?$numpunct@D@std@@IEAAXDPEBUlconv@@U_Cvtvec@@@Z 00000001400d0030 f i main.obj
 0002:00015100       ??$_Immortalize@V_Iostream_error_category@std@@@std@@YAAEAV_Iostream_error_category@0@XZ 00000001400d0100 f i main.obj
 0002:00015170       ??$_Immortalize_impl@V_Iostream_error_category@std@@@std@@YAHPEAX0PEAPEAX@Z 00000001400d0170 f i main.obj
 0002:000151f0       ??$_Insert_at@AEAU?$pair@$$CBV?$basic_string@DU?$char_traits@D@std@@V?$allocator@D@2@@std@@G@std@@PEAU?$_Tree_node@U?$pair@$$CBV?$basic_string@DU?$char_traits@D@std@@V?$allocator@D@2@@std@@G@std@@PEAX@2@@?$_Tree@V?$_Tmap_traits@V?$basic_string@DU?$char_traits@D@std@@V?$allocator@D@2@@std@@GU?$less@V?$basic_string@DU?$char_traits@D@std@@V?$allocator@D@2@@std@@@2@V?$allocator@U?$pair@$$CBV?$basic_string@DU?$char_traits@D@std@@V?$allocator@D@2@@std@@G@std@@@2@$0A@@std@@@std@@IEAA?AV?$_Tree_iterator@V?$_Tree_val@U?$_Tree_simple_types@U?$pair@$$CBV?$basic_string@DU?$char_traits@D@std@@V?$allocator@D@2@@std@@G@std@@@std@@@std@@@1@_NPEAU?$_Tree_node@U?$pair@$$CBV?$basic_string@DU?$char_traits@D@std@@V?$allocator@D@2@@std@@G@std@@PEAX@1@AEAU?$pair@$$CBV?$basic_string@DU?$char_traits@D@std@@V?$allocator@D@2@@std@@G@1@1@Z 00000001400d01f0 f i main.obj
 0002:000156d0       ??$_Insert_hint@AEAU?$pair@$$CBV?$basic_string@DU?$char_traits@D@std@@V?$allocator@D@2@@std@@G@std@@PEAU?$_Tree_node@U?$pair@$$CBV?$basic_string@DU?$char_traits@D@std@@V?$allocator@D@2@@std@@G@std@@PEAX@2@@?$_Tree@V?$_Tmap_traits@V?$basic_string@DU?$char_traits@D@std@@V?$allocator@D@2@@std@@GU?$less@V?$basic_string@DU?$char_traits@D@std@@V?$allocator@D@2@@std@@@2@V?$allocator@U?$pair@$$CBV?$basic_string@DU?$char_traits@D@std@@V?$allocator@D@2@@std@@G@std@@@2@$0A@@std@@@std@@IEAA?AV?$_Tree_iterator@V?$_Tree_val@U?$_Tree_simple_types@U?$pair@$$CBV?$basic_string@DU?$char_traits@D@std@@V?$allocator@D@2@@std@@G@std@@@std@@@std@@@1@V?$_Tree_const_iterator@V?$_Tree_val@U?$_Tree_simple_types@U?$pair@$$CBV?$basic_string@DU?$char_traits@D@std@@V?$allocator@D@2@@std@@G@std@@@std@@@std@@@1@AEAU?$pair@$$CBV?$basic_string@DU?$char_traits@D@std@@V?$allocator@D@2@@std@@G@1@PEAU?$_Tree_node@U?$pair@$$CBV?$basic_string@DU?$char_traits@D@std@@V?$allocator@D@2@@std@@G@std@@PEAX@1@@Z 00000001400d06d0 f i main.obj
 0002:00016cb0       ??$_Insert_nohint@AEAU?$pair@$$CBV?$basic_string@DU?$char_traits@D@std@@V?$allocator@D@2@@std@@G@std@@PEAU?$_Tree_node@U?$pair@$$CBV?$basic_string@DU?$char_traits@D@std@@V?$allocator@D@2@@std@@G@std@@PEAX@2@@?$_Tree@V?$_Tmap_traits@V?$basic_string@DU?$char_traits@D@std@@V?$allocator@D@2@@std@@GU?$less@V?$basic_string@DU?$char_traits@D@std@@V?$allocator@D@2@@std@@@2@V?$allocator@U?$pair@$$CBV?$basic_string@DU?$char_traits@D@std@@V?$allocator@D@2@@std@@G@std@@@2@$0A@@std@@@std@@IEAA?AU?$pair@V?$_Tree_iterator@V?$_Tree_val@U?$_Tree_simple_types@U?$pair@$$CBV?$basic_string@DU?$char_traits@D@std@@V?$allocator@D@2@@std@@G@std@@@std@@@std@@@std@@_N@1@_NAEAU?$pair@$$CBV?$basic_string@DU?$char_traits@D@std@@V?$allocator@D@2@@std@@G@1@PEAU?$_Tree_node@U?$pair@$$CBV?$basic_string@DU?$char_traits@D@std@@V?$allocator@D@2@@std@@G@std@@PEAX@1@@Z 00000001400d1cb0 f i main.obj
 0002:00017380       ??$_Insert_string@DU?$char_traits@D@std@@_K@std@@YAAEAV?$basic_ostream@DU?$char_traits@D@std@@@0@AEAV10@QEBD_K@Z 00000001400d2380 f i main.obj
 0002:00017880       ??$_Kfn@$$CBV?$basic_string@DU?$char_traits@D@std@@V?$allocator@D@2@@std@@G@?$_Tmap_traits@V?$basic_string@DU?$char_traits@D@std@@V?$allocator@D@2@@std@@GU?$less@V?$basic_string@DU?$char_traits@D@std@@V?$allocator@D@2@@std@@@2@V?$allocator@U?$pair@$$CBV?$basic_string@DU?$char_traits@D@std@@V?$allocator@D@2@@std@@G@std@@@2@$0A@@std@@SAAEBV?$basic_string@DU?$char_traits@D@std@@V?$allocator@D@2@@1@AEBU?$pair@$$CBV?$basic_string@DU?$char_traits@D@std@@V?$allocator@D@2@@std@@G@1@@Z 00000001400d2880 f i main.obj
 0002:000178d0       ??$_Lbound@V?$basic_string@DU?$char_traits@D@std@@V?$allocator@D@2@@std@@@?$_Tree@V?$_Tmap_traits@V?$basic_string@DU?$char_traits@D@std@@V?$allocator@D@2@@std@@GU?$less@V?$basic_string@DU?$char_traits@D@std@@V?$allocator@D@2@@std@@@2@V?$allocator@U?$pair@$$CBV?$basic_string@DU?$char_traits@D@std@@V?$allocator@D@2@@std@@G@std@@@2@$0A@@std@@@std@@IEBAPEAU?$_Tree_node@U?$pair@$$CBV?$basic_string@DU?$char_traits@D@std@@V?$allocator@D@2@@std@@G@std@@PEAX@1@AEBV?$basic_string@DU?$char_traits@D@std@@V?$allocator@D@2@@1@@Z 00000001400d28d0 f i main.obj
 0002:000179c0       ??$_Maklocchr@D@std@@YADDPEADAEBU_Cvtvec@@@Z 00000001400d29c0 f i main.obj
 0002:00017a20       ??$_Maklocstr@D@std@@YAPEADPEBDPEADAEBU_Cvtvec@@@Z 00000001400d2a20 f i main.obj
 0002:00017b30       ??$_Max_value@_K@std@@YAAEB_KAEB_K0@Z 00000001400d2b30 f i main.obj
 0002:00017bd0       ??$_Min_value@_K@std@@YAAEB_KAEB_K0@Z 00000001400d2bd0 f i main.obj
 0002:00017c70       ??$_Pocca@V?$allocator@D@std@@@std@@YAXAEAV?$allocator@D@0@AEBV10@@Z 00000001400d2c70 f i main.obj
 0002:00017cf0       ??$_Pocca@V?$allocator@D@std@@@std@@YAXAEAV?$allocator@D@0@AEBV10@U?$integral_constant@_N$0A@@0@@Z 00000001400d2cf0 f i main.obj
 0002:00017d40       ??$_Pocma@V?$allocator@D@std@@@std@@YAXAEAV?$allocator@D@0@0@Z 00000001400d2d40 f i main.obj
 0002:00017dc0       ??$_Pocma@V?$allocator@D@std@@@std@@YAXAEAV?$allocator@D@0@0U?$integral_constant@_N$00@0@@Z 00000001400d2dc0 f i main.obj
 0002:00017e20       ??$_Ptr_copy_cat@$$CBV?$basic_string@DU?$char_traits@D@std@@V?$allocator@D@2@@std@@V12@@std@@YA?AU_General_ptr_iterator_tag@0@AEBQEBV?$basic_string@DU?$char_traits@D@std@@V?$allocator@D@2@@0@AEBQEAV20@@Z 00000001400d2e20 f i main.obj
 0002:00017e90       ??$_Ptr_copy_cat@PEAGPEAG@std@@YA?AU_Really_trivial_ptr_iterator_tag@0@AEBQEAPEAG0@Z 00000001400d2e90 f i main.obj
 0002:00017ef0       ??$_Range_construct_or_tidy@PEBV?$basic_string@DU?$char_traits@D@std@@V?$allocator@D@2@@std@@@?$vector@V?$basic_string@DU?$char_traits@D@std@@V?$allocator@D@2@@std@@V?$allocator@V?$basic_string@DU?$char_traits@D@std@@V?$allocator@D@2@@std@@@2@@std@@AEAAXPEBV?$basic_string@DU?$char_traits@D@std@@V?$allocator@D@2@@1@0Uforward_iterator_tag@1@@Z 00000001400d2ef0 f i main.obj
 0002:00019530       ??$_Rechecked@PEAPEAGPEAPEAG@std@@YAAEAPEAPEAGAEAPEAPEAGPEAPEAG@Z 00000001400d4530 f i main.obj
 0002:000195a0       ??$_Rechecked@PEAV?$basic_string@DU?$char_traits@D@std@@V?$allocator@D@2@@std@@PEAV12@@std@@YAAEAPEAV?$basic_string@DU?$char_traits@D@std@@V?$allocator@D@2@@0@AEAPEAV10@PEAV10@@Z 00000001400d45a0 f i main.obj
 0002:00019610       ??$_Refancy@PEAD$0A@@std@@YAPEADPEAD@Z 00000001400d4610 f i main.obj
 0002:00019660       ??$_Traits_compare@U?$char_traits@D@std@@@std@@YAHQEBD_K01@Z 00000001400d4660 f i main.obj
 0002:00019740       ??$_Traits_equal@U?$char_traits@D@std@@@std@@YA_NQEBD_K01@Z 00000001400d4740 f i main.obj
 0002:00019800       ??$_Traits_find@U?$char_traits@D@std@@@std@@YA_KQEBD_K101@Z 00000001400d4800 f i main.obj
 0002:00019990       ??$_Ucopy@PEBV?$basic_string@DU?$char_traits@D@std@@V?$allocator@D@2@@std@@@?$vector@V?$basic_string@DU?$char_traits@D@std@@V?$allocator@D@2@@std@@V?$allocator@V?$basic_string@DU?$char_traits@D@std@@V?$allocator@D@2@@std@@@2@@std@@AEAAPEAV?$basic_string@DU?$char_traits@D@std@@V?$allocator@D@2@@1@PEBV21@0PEAV21@@Z 00000001400d4990 f i main.obj
 0002:00019a20       ??$_Unchecked@PEAPEAG@std@@YAPEAPEAGPEAPEAG@Z 00000001400d4a20 f i main.obj
 0002:00019a70       ??$_Unchecked@PEAV?$basic_string@DU?$char_traits@D@std@@V?$allocator@D@2@@std@@@std@@YAPEAV?$basic_string@DU?$char_traits@D@std@@V?$allocator@D@2@@0@PEAV10@@Z 00000001400d4a70 f i main.obj
 0002:00019ac0       ??$_Unchecked@PEBV?$basic_string@DU?$char_traits@D@std@@V?$allocator@D@2@@std@@@std@@YAPEBV?$basic_string@DU?$char_traits@D@std@@V?$allocator@D@2@@0@PEBV10@@Z 00000001400d4ac0 f i main.obj
 0002:00019b10       ??$_Unfancy@$$CBD@std@@YAPEBDPEBD@Z 00000001400d4b10 f i main.obj
 0002:00019b60       ??$_Unfancy@D@std@@YAPEADPEAD@Z 00000001400d4b60 f i main.obj
 0002:00019bb0       ??$_Unfancy@G@std@@YAPEAGPEAG@Z 00000001400d4bb0 f i main.obj
 0002:00019c00       ??$_Unfancy@U_Container_proxy@std@@@std@@YAPEAU_Container_proxy@0@PEAU10@@Z 00000001400d4c00 f i main.obj
 0002:00019c50       ??$_Unfancy@V?$basic_string@DU?$char_traits@D@std@@V?$allocator@D@2@@std@@@std@@YAPEAV?$basic_string@DU?$char_traits@D@std@@V?$allocator@D@2@@0@PEAV10@@Z 00000001400d4c50 f i main.obj
 0002:00019ca0       ??$_Ungetc@D@std@@YA_NAEBDPEAU_iobuf@@@Z 00000001400d4ca0 f i main.obj
 0002:00019d30       ??$_Uninitialized_copy@PEAPEAGPEAPEAGV?$allocator@PEAG@std@@@std@@YAPEAPEAGPEAPEAG00AEAV?$allocator@PEAG@0@@Z 00000001400d4d30 f i main.obj
 0002:00019e70       ??$_Uninitialized_copy@PEBV?$basic_string@DU?$char_traits@D@std@@V?$allocator@D@2@@std@@PEAV12@V?$allocator@V?$basic_string@DU?$char_traits@D@std@@V?$allocator@D@2@@std@@@2@@std@@YAPEAV?$basic_string@DU?$char_traits@D@std@@V?$allocator@D@2@@0@PEBV10@0PEAV10@AEAV?$allocator@V?$basic_string@DU?$char_traits@D@std@@V?$allocator@D@2@@std@@@0@@Z 00000001400d4e70 f i main.obj
 0002:00019fd0       ??$_Uninitialized_copy_al_unchecked@PEAGPEAGV?$allocator@PEAG@std@@@std@@YAPEAPEAGPEAPEAG00AEAV?$allocator@PEAG@0@U_Really_trivial_ptr_iterator_tag@0@U?$integral_constant@_N$00@0@@Z 00000001400d4fd0 f i main.obj
 0002:0001a050       ??$_Uninitialized_copy_al_unchecked@PEBV?$basic_string@DU?$char_traits@D@std@@V?$allocator@D@2@@std@@PEAV12@V?$allocator@V?$basic_string@DU?$char_traits@D@std@@V?$allocator@D@2@@std@@@2@@std@@YAPEAV?$basic_string@DU?$char_traits@D@std@@V?$allocator@D@2@@0@PEBV10@0PEAV10@AEAV?$allocator@V?$basic_string@DU?$char_traits@D@std@@V?$allocator@D@2@@std@@@0@U_General_ptr_iterator_tag@0@U_Unused_parameter@0@@Z 00000001400d5050 f i main.obj
 0002:0001a150       ??$_Uninitialized_value_construct_n1@PEAPEAG_KV?$allocator@PEAG@std@@@std@@YAPEAPEAGPEAPEAG_KAEAV?$allocator@PEAG@0@U?$integral_constant@_N$00@0@@Z 00000001400d5150 f i main.obj
 0002:0001a1d0       ??$_Uninitialized_value_construct_n@PEAPEAG_KV?$allocator@PEAG@std@@@std@@YAPEAPEAGPEAPEAG_KAEAV?$allocator@PEAG@0@@Z 00000001400d51d0 f i main.obj
 0002:0001a250       ??$_Zero_range@PEAPEAG@std@@YAPEAPEAGPEAPEAG0@Z 00000001400d5250 f i main.obj
 0002:0001a2e0       ??$__vcrt_va_start_verify_argument_type@QEBD@@YAXXZ 00000001400d52e0 f i main.obj
 0002:0001a310       ??$addressof@$$CBU?$pair@$$CBV?$basic_string@DU?$char_traits@D@std@@V?$allocator@D@2@@std@@G@std@@@std@@YAPEBU?$pair@$$CBV?$basic_string@DU?$char_traits@D@std@@V?$allocator@D@2@@std@@G@0@AEBU10@@Z 00000001400d5310 f i main.obj
 0002:0001a360       ??$addressof@$$CBV?$_Deque_val@U?$_Deque_simple_types@G@std@@@std@@@std@@YAPEBV?$_Deque_val@U?$_Deque_simple_types@G@std@@@0@AEBV10@@Z 00000001400d5360 f i main.obj
 0002:0001a3b0       ??$addressof@$$CBV?$_Tree_val@U?$_Tree_simple_types@U?$pair@$$CBV?$basic_string@DU?$char_traits@D@std@@V?$allocator@D@2@@std@@G@std@@@std@@@std@@@std@@YAPEBV?$_Tree_val@U?$_Tree_simple_types@U?$pair@$$CBV?$basic_string@DU?$char_traits@D@std@@V?$allocator@D@2@@std@@G@std@@@std@@@0@AEBV10@@Z 00000001400d53b0 f i main.obj
 0002:0001a400       ??$addressof@$$CBV?$basic_string@DU?$char_traits@D@std@@V?$allocator@D@2@@std@@@std@@YAPEBV?$basic_string@DU?$char_traits@D@std@@V?$allocator@D@2@@0@AEBV10@@Z 00000001400d5400 f i main.obj
 0002:0001a450       ??$addressof@D@std@@YAPEADAEAD@Z 00000001400d5450 f i main.obj
 0002:0001a4a0       ??$addressof@PEAD@std@@YAPEAPEADAEAPEAD@Z 00000001400d54a0 f i main.obj
 0002:0001a4f0       ??$addressof@PEAG@std@@YAPEAPEAGAEAPEAG@Z 00000001400d54f0 f i main.obj
 0002:0001a540       ??$addressof@PEAU?$_Tree_node@U?$pair@$$CBV?$basic_string@DU?$char_traits@D@std@@V?$allocator@D@2@@std@@G@std@@PEAX@std@@@std@@YAPEAPEAU?$_Tree_node@U?$pair@$$CBV?$basic_string@DU?$char_traits@D@std@@V?$allocator@D@2@@std@@G@std@@PEAX@0@AEAPEAU10@@Z 00000001400d5540 f i main.obj
 0002:0001a590       ??$addressof@U?$pair@$$CBV?$basic_string@DU?$char_traits@D@std@@V?$allocator@D@2@@std@@G@std@@@std@@YAPEAU?$pair@$$CBV?$basic_string@DU?$char_traits@D@std@@V?$allocator@D@2@@std@@G@0@AEAU10@@Z 00000001400d5590 f i main.obj
 0002:0001a5e0       ??$addressof@V?$_Deque_val@U?$_Deque_simple_types@G@std@@@std@@@std@@YAPEAV?$_Deque_val@U?$_Deque_simple_types@G@std@@@0@AEAV10@@Z 00000001400d55e0 f i main.obj
 0002:0001a630       ??$addressof@V?$_String_val@U?$_Simple_types@D@std@@@std@@@std@@YAPEAV?$_String_val@U?$_Simple_types@D@std@@@0@AEAV10@@Z 00000001400d5630 f i main.obj
 0002:0001a680       ??$addressof@V?$_Tree_val@U?$_Tree_simple_types@U?$pair@$$CBV?$basic_string@DU?$char_traits@D@std@@V?$allocator@D@2@@std@@G@std@@@std@@@std@@@std@@YAPEAV?$_Tree_val@U?$_Tree_simple_types@U?$pair@$$CBV?$basic_string@DU?$char_traits@D@std@@V?$allocator@D@2@@std@@G@std@@@std@@@0@AEAV10@@Z 00000001400d5680 f i main.obj
 0002:0001a6d0       ??$addressof@V?$_Vector_val@U?$_Simple_types@V?$basic_string@DU?$char_traits@D@std@@V?$allocator@D@2@@std@@@std@@@std@@@std@@YAPEAV?$_Vector_val@U?$_Simple_types@V?$basic_string@DU?$char_traits@D@std@@V?$allocator@D@2@@std@@@std@@@0@AEAV10@@Z 00000001400d56d0 f i main.obj
 0002:0001a720       ??$addressof@V?$basic_string@DU?$char_traits@D@std@@V?$allocator@D@2@@std@@@std@@YAPEAV?$basic_string@DU?$char_traits@D@std@@V?$allocator@D@2@@0@AEAV10@@Z 00000001400d5720 f i main.obj
 0002:0001a770       ??$construct@GAEBG@?$_Default_allocator_traits@V?$allocator@G@std@@@std@@SAXAEAV?$allocator@G@1@QEAGAEBG@Z 00000001400d5770 f i main.obj
 0002:0001a800       ??$construct@PEADAEBQEAD@?$_Default_allocator_traits@V?$allocator@D@std@@@std@@SAXAEAV?$allocator@D@1@QEAPEADAEBQEAD@Z 00000001400d5800 f i main.obj
 0002:0001a890       ??$construct@PEAU?$_Tree_node@U?$pair@$$CBV?$basic_string@DU?$char_traits@D@std@@V?$allocator@D@2@@std@@G@std@@PEAX@std@@AEAPEAU12@@?$_Default_allocator_traits@V?$allocator@U?$_Tree_node@U?$pair@$$CBV?$basic_string@DU?$char_traits@D@std@@V?$allocator@D@2@@std@@G@std@@PEAX@std@@@std@@@std@@SAXAEAV?$allocator@U?$_Tree_node@U?$pair@$$CBV?$basic_string@DU?$char_traits@D@std@@V?$allocator@D@2@@std@@G@std@@PEAX@std@@@1@QEAPEAU?$_Tree_node@U?$pair@$$CBV?$basic_string@DU?$char_traits@D@std@@V?$allocator@D@2@@std@@G@std@@PEAX@1@AEAPEAU31@@Z 00000001400d5890 f i main.obj
 0002:0001a920       ??$construct@U?$pair@$$CBV?$basic_string@DU?$char_traits@D@std@@V?$allocator@D@2@@std@@G@std@@AEBU12@@?$_Default_allocator_traits@V?$allocator@U?$_Tree_node@U?$pair@$$CBV?$basic_string@DU?$char_traits@D@std@@V?$allocator@D@2@@std@@G@std@@PEAX@std@@@std@@@std@@SAXAEAV?$allocator@U?$_Tree_node@U?$pair@$$CBV?$basic_string@DU?$char_traits@D@std@@V?$allocator@D@2@@std@@G@std@@PEAX@std@@@1@QEAU?$pair@$$CBV?$basic_string@DU?$char_traits@D@std@@V?$allocator@D@2@@std@@G@1@AEBU31@@Z 00000001400d5920 f i main.obj
 0002:0001a9d0       ??$construct@U_Container_proxy@std@@U12@@?$_Default_allocator_traits@V?$allocator@U_Container_proxy@std@@@std@@@std@@SAXAEAV?$allocator@U_Container_proxy@std@@@1@QEAU_Container_proxy@1@$$QEAU31@@Z 00000001400d59d0 f i main.obj
 0002:0001aa70       ??$construct@V?$basic_string@DU?$char_traits@D@std@@V?$allocator@D@2@@std@@AEBV12@@?$_Default_allocator_traits@V?$allocator@V?$basic_string@DU?$char_traits@D@std@@V?$allocator@D@2@@std@@@std@@@std@@SAXAEAV?$allocator@V?$basic_string@DU?$char_traits@D@std@@V?$allocator@D@2@@std@@@1@QEAV?$basic_string@DU?$char_traits@D@std@@V?$allocator@D@2@@1@AEBV31@@Z 00000001400d5a70 f i main.obj
 0002:0001ab20       ??$destroy@G@?$_Default_allocator_traits@V?$allocator@G@std@@@std@@SAXAEAV?$allocator@G@1@QEAG@Z 00000001400d5b20 f i main.obj
 0002:0001ab70       ??$destroy@PEAD@?$_Default_allocator_traits@V?$allocator@D@std@@@std@@SAXAEAV?$allocator@D@1@QEAPEAD@Z 00000001400d5b70 f i main.obj
 0002:0001abc0       ??$destroy@PEAG@?$_Default_allocator_traits@V?$allocator@PEAG@std@@@std@@SAXAEAV?$allocator@PEAG@1@QEAPEAG@Z 00000001400d5bc0 f i main.obj
 0002:0001ac10       ??$destroy@PEAU?$_Tree_node@U?$pair@$$CBV?$basic_string@DU?$char_traits@D@std@@V?$allocator@D@2@@std@@G@std@@PEAX@std@@@?$_Default_allocator_traits@V?$allocator@U?$_Tree_node@U?$pair@$$CBV?$basic_string@DU?$char_traits@D@std@@V?$allocator@D@2@@std@@G@std@@PEAX@std@@@std@@@std@@SAXAEAV?$allocator@U?$_Tree_node@U?$pair@$$CBV?$basic_string@DU?$char_traits@D@std@@V?$allocator@D@2@@std@@G@std@@PEAX@std@@@1@QEAPEAU?$_Tree_node@U?$pair@$$CBV?$basic_string@DU?$char_traits@D@std@@V?$allocator@D@2@@std@@G@std@@PEAX@1@@Z 00000001400d5c10 f i main.obj
 0002:0001ac60       ??$destroy@U?$pair@$$CBV?$basic_string@DU?$char_traits@D@std@@V?$allocator@D@2@@std@@G@std@@@?$_Default_allocator_traits@V?$allocator@U?$_Tree_node@U?$pair@$$CBV?$basic_string@DU?$char_traits@D@std@@V?$allocator@D@2@@std@@G@std@@PEAX@std@@@std@@@std@@SAXAEAV?$allocator@U?$_Tree_node@U?$pair@$$CBV?$basic_string@DU?$char_traits@D@std@@V?$allocator@D@2@@std@@G@std@@PEAX@std@@@1@QEAU?$pair@$$CBV?$basic_string@DU?$char_traits@D@std@@V?$allocator@D@2@@std@@G@1@@Z 00000001400d5c60 f i main.obj
 0002:0001acc0       ??$destroy@U_Container_proxy@std@@@?$_Default_allocator_traits@V?$allocator@U_Container_proxy@std@@@std@@@std@@SAXAEAV?$allocator@U_Container_proxy@std@@@1@QEAU_Container_proxy@1@@Z 00000001400d5cc0 f i main.obj
 0002:0001ad10       ??$destroy@V?$basic_string@DU?$char_traits@D@std@@V?$allocator@D@2@@std@@@?$_Default_allocator_traits@V?$allocator@V?$basic_string@DU?$char_traits@D@std@@V?$allocator@D@2@@std@@@std@@@std@@SAXAEAV?$allocator@V?$basic_string@DU?$char_traits@D@std@@V?$allocator@D@2@@std@@@1@QEAV?$basic_string@DU?$char_traits@D@std@@V?$allocator@D@2@@1@@Z 00000001400d5d10 f i main.obj
 0002:0001ad70       ??$distance@PEBV?$basic_string@DU?$char_traits@D@std@@V?$allocator@D@2@@std@@@std@@YA_JPEBV?$basic_string@DU?$char_traits@D@std@@V?$allocator@D@2@@0@0@Z 00000001400d5d70 f i main.obj
 0002:0001ade0       ??$emplace_back@AEBG@?$deque@GV?$allocator@G@std@@@std@@QEAA@AEBG@Z 00000001400d5de0 f i main.obj
 0002:0001b0f0       ??$emplace_hint@AEBU?$pair@$$CBV?$basic_string@DU?$char_traits@D@std@@V?$allocator@D@2@@std@@G@std@@@?$_Tree@V?$_Tmap_traits@V?$basic_string@DU?$char_traits@D@std@@V?$allocator@D@2@@std@@GU?$less@V?$basic_string@DU?$char_traits@D@std@@V?$allocator@D@2@@std@@@2@V?$allocator@U?$pair@$$CBV?$basic_string@DU?$char_traits@D@std@@V?$allocator@D@2@@std@@G@std@@@2@$0A@@std@@@std@@QEAA?AV?$_Tree_iterator@V?$_Tree_val@U?$_Tree_simple_types@U?$pair@$$CBV?$basic_string@DU?$char_traits@D@std@@V?$allocator@D@2@@std@@G@std@@@std@@@std@@@1@V?$_Tree_const_iterator@V?$_Tree_val@U?$_Tree_simple_types@U?$pair@$$CBV?$basic_string@DU?$char_traits@D@std@@V?$allocator@D@2@@std@@G@std@@@std@@@std@@@1@AEBU?$pair@$$CBV?$basic_string@DU?$char_traits@D@std@@V?$allocator@D@2@@std@@G@1@@Z 00000001400d60f0 f i main.obj
 0002:0001b230       ??$endl@DU?$char_traits@D@std@@@std@@YAAEAV?$basic_ostream@DU?$char_traits@D@std@@@0@AEAV10@@Z 00000001400d6230 f i main.obj
 0002:0001b2d0       ??$forward@AEAPEAU?$_Tree_node@U?$pair@$$CBV?$basic_string@DU?$char_traits@D@std@@V?$allocator@D@2@@std@@G@std@@PEAX@std@@@std@@YAAEAPEAU?$_Tree_node@U?$pair@$$CBV?$basic_string@DU?$char_traits@D@std@@V?$allocator@D@2@@std@@G@std@@PEAX@0@AEAPEAU10@@Z 00000001400d62d0 f i main.obj
 0002:0001b320       ??$forward@AEAU?$pair@$$CBV?$basic_string@DU?$char_traits@D@std@@V?$allocator@D@2@@std@@G@std@@@std@@YAAEAU?$pair@$$CBV?$basic_string@DU?$char_traits@D@std@@V?$allocator@D@2@@std@@G@0@AEAU10@@Z 00000001400d6320 f i main.obj
 0002:0001b370       ??$forward@AEAV?$_Tree_iterator@V?$_Tree_val@U?$_Tree_simple_types@U?$pair@$$CBV?$basic_string@DU?$char_traits@D@std@@V?$allocator@D@2@@std@@G@std@@@std@@@std@@@std@@@std@@YAAEAV?$_Tree_iterator@V?$_Tree_val@U?$_Tree_simple_types@U?$pair@$$CBV?$basic_string@DU?$char_traits@D@std@@V?$allocator@D@2@@std@@G@std@@@std@@@std@@@0@AEAV10@@Z 00000001400d6370 f i main.obj
 0002:0001b3c0       ??$forward@AEAY05$$CBD@std@@YAAEAY05$$CBDAEAY05$$CBD@Z 00000001400d63c0 f i main.obj
 0002:0001b410       ??$forward@AEAY06$$CBD@std@@YAAEAY06$$CBDAEAY06$$CBD@Z 00000001400d6410 f i main.obj
 0002:0001b460       ??$forward@AEAY07$$CBD@std@@YAAEAY07$$CBDAEAY07$$CBD@Z 00000001400d6460 f i main.obj
 0002:0001b4b0       ??$forward@AEAY08$$CBD@std@@YAAEAY08$$CBDAEAY08$$CBD@Z 00000001400d64b0 f i main.obj
 0002:0001b500       ??$forward@AEBG@std@@YAAEBGAEBG@Z 00000001400d6500 f i main.obj
 0002:0001b550       ??$forward@AEBQEAD@std@@YAAEBQEADAEBQEAD@Z 00000001400d6550 f i main.obj
 0002:0001b5a0       ??$forward@AEBU?$less@V?$basic_string@DU?$char_traits@D@std@@V?$allocator@D@2@@std@@@std@@@std@@YAAEBU?$less@V?$basic_string@DU?$char_traits@D@std@@V?$allocator@D@2@@std@@@0@AEBU10@@Z 00000001400d65a0 f i main.obj
 0002:0001b5f0       ??$forward@AEBU?$pair@$$CBV?$basic_string@DU?$char_traits@D@std@@V?$allocator@D@2@@std@@G@std@@@std@@YAAEBU?$pair@$$CBV?$basic_string@DU?$char_traits@D@std@@V?$allocator@D@2@@std@@G@0@AEBU10@@Z 00000001400d65f0 f i main.obj
 0002:0001b640       ??$forward@AEBV?$allocator@D@std@@@std@@YAAEBV?$allocator@D@0@AEBV10@@Z 00000001400d6640 f i main.obj
 0002:0001b690       ??$forward@AEBV?$allocator@G@std@@@std@@YAAEBV?$allocator@G@0@AEBV10@@Z 00000001400d6690 f i main.obj
 0002:0001b6e0       ??$forward@AEBV?$allocator@V?$basic_string@DU?$char_traits@D@std@@V?$allocator@D@2@@std@@@std@@@std@@YAAEBV?$allocator@V?$basic_string@DU?$char_traits@D@std@@V?$allocator@D@2@@std@@@0@AEBV10@@Z 00000001400d66e0 f i main.obj
 0002:0001b730       ??$forward@AEBV?$basic_string@DU?$char_traits@D@std@@V?$allocator@D@2@@std@@@std@@YAAEBV?$basic_string@DU?$char_traits@D@std@@V?$allocator@D@2@@0@AEBV10@@Z 00000001400d6730 f i main.obj
 0002:0001b780       ??$forward@H@std@@YA$$QEAHAEAH@Z 00000001400d6780 f i main.obj
 0002:0001b7d0       ??$forward@U_Container_proxy@std@@@std@@YA$$QEAU_Container_proxy@0@AEAU10@@Z 00000001400d67d0 f i main.obj
 0002:0001b820       ??$forward@U_Zero_then_variadic_args_t@std@@@std@@YA$$QEAU_Zero_then_variadic_args_t@0@AEAU10@@Z 00000001400d6820 f i main.obj
 0002:0001b870       ??$forward@V?$_Tree_iterator@V?$_Tree_val@U?$_Tree_simple_types@U?$pair@$$CBV?$basic_string@DU?$char_traits@D@std@@V?$allocator@D@2@@std@@G@std@@@std@@@std@@@std@@@std@@YA$$QEAV?$_Tree_iterator@V?$_Tree_val@U?$_Tree_simple_types@U?$pair@$$CBV?$basic_string@DU?$char_traits@D@std@@V?$allocator@D@2@@std@@G@std@@@std@@@std@@@0@AEAV10@@Z 00000001400d6870 f i main.obj
 0002:0001b8c0       ??$forward@V?$allocator@D@std@@@std@@YA$$QEAV?$allocator@D@0@AEAV10@@Z 00000001400d68c0 f i main.obj
 0002:0001b910       ??$forward@_N@std@@YA$$QEA_NAEA_N@Z 00000001400d6910 f i main.obj
 0002:0001b960       ??$getline@DU?$char_traits@D@std@@V?$allocator@D@2@@std@@YAAEAV?$basic_istream@DU?$char_traits@D@std@@@0@$$QEAV10@AEAV?$basic_string@DU?$char_traits@D@std@@V?$allocator@D@2@@0@D@Z 00000001400d6960 f i main.obj
 0002:0001bcb0       ??$getline@DU?$char_traits@D@std@@V?$allocator@D@2@@std@@YAAEAV?$basic_istream@DU?$char_traits@D@std@@@0@AEAV10@AEAV?$basic_string@DU?$char_traits@D@std@@V?$allocator@D@2@@0@@Z 00000001400d6cb0 f i main.obj
 0002:0001bd60       ??$insert@PEBU?$pair@$$CBV?$basic_string@DU?$char_traits@D@std@@V?$allocator@D@2@@std@@G@std@@@?$_Tree@V?$_Tmap_traits@V?$basic_string@DU?$char_traits@D@std@@V?$allocator@D@2@@std@@GU?$less@V?$basic_string@DU?$char_traits@D@std@@V?$allocator@D@2@@std@@@2@V?$allocator@U?$pair@$$CBV?$basic_string@DU?$char_traits@D@std@@V?$allocator@D@2@@std@@G@std@@@2@$0A@@std@@@std@@QEAAXPEBU?$pair@$$CBV?$basic_string@DU?$char_traits@D@std@@V?$allocator@D@2@@std@@G@1@0@Z 00000001400d6d60 f i main.obj
 0002:0001bed0       ??$move@AEAD@std@@YA$$QEADAEAD@Z 00000001400d6ed0 f i main.obj
 0002:0001bf20       ??$move@AEAV?$allocator@D@std@@@std@@YA$$QEAV?$allocator@D@0@AEAV10@@Z 00000001400d6f20 f i main.obj
 0002:0001bf70       ??$move@AEAV?$basic_istream@DU?$char_traits@D@std@@@std@@@std@@YA$$QEAV?$basic_istream@DU?$char_traits@D@std@@@0@AEAV10@@Z 00000001400d6f70 f i main.obj
 0002:0001bfc0       ??$move@AEAV?$basic_string@DU?$char_traits@D@std@@V?$allocator@D@2@@std@@@std@@YA$$QEAV?$basic_string@DU?$char_traits@D@std@@V?$allocator@D@2@@0@AEAV10@@Z 00000001400d6fc0 f i main.obj
 0002:0001c010       ??$size@D$0BB@@std@@YA_KAEAY0BB@$$CBD@Z 00000001400d7010 f i main.obj
 0002:0001c060       ??$size@D$0BE@@std@@YA_KAEAY0BE@$$CBD@Z 00000001400d7060 f i main.obj
 0002:0001c0b0       ??$size@D$0BH@@std@@YA_KAEAY0BH@$$CBD@Z 00000001400d70b0 f i main.obj
 0002:0001c100       ??$size@D$0BL@@std@@YA_KAEAY0BL@$$CBD@Z 00000001400d7100 f i main.obj
 0002:0001c150       ??$size@D$0BM@@std@@YA_KAEAY0BM@$$CBD@Z 00000001400d7150 f i main.obj
 0002:0001c1a0       ??$size@D$0BN@@std@@YA_KAEAY0BN@$$CBD@Z 00000001400d71a0 f i main.obj
 0002:0001c1f0       ??$size@D$0CA@@std@@YA_KAEAY0CA@$$CBD@Z 00000001400d71f0 f i main.obj
 0002:0001c240       ??$size@D$0CG@@std@@YA_KAEAY0CG@$$CBD@Z 00000001400d7240 f i main.obj
 0002:0001c290       ??$size@D$0O@@std@@YA_KAEAY0O@$$CBD@Z 00000001400d7290 f i main.obj
 0002:0001c2e0       ??$swap@DX@std@@YAXAEAD0@Z 00000001400d72e0 f i main.obj
 0002:0001c3c0       ??$use_facet@V?$codecvt@DDU_Mbstatet@@@std@@@std@@YAAEBV?$codecvt@DDU_Mbstatet@@@0@AEBVlocale@0@@Z 00000001400d73c0 f i main.obj
 0002:0001c580       ??$use_facet@V?$ctype@D@std@@@std@@YAAEBV?$ctype@D@0@AEBVlocale@0@@Z 00000001400d7580 f i main.obj
 0002:0001c740       ??$use_facet@V?$num_put@DV?$ostreambuf_iterator@DU?$char_traits@D@std@@@std@@@std@@@std@@YAAEBV?$num_put@DV?$ostreambuf_iterator@DU?$char_traits@D@std@@@std@@@0@AEBVlocale@0@@Z 00000001400d7740 f i main.obj
 0002:0001c900       ??$use_facet@V?$numpunct@D@std@@@std@@YAAEBV?$numpunct@D@0@AEBVlocale@0@@Z 00000001400d7900 f i main.obj
 0002:0001cac0       ??0?$_Deque_const_iterator@V?$_Deque_val@U?$_Deque_simple_types@G@std@@@std@@@std@@QEAA@AEBV01@@Z 00000001400d7ac0 f i main.obj
 0002:0001cb50       ??0?$_Deque_const_iterator@V?$_Deque_val@U?$_Deque_simple_types@G@std@@@std@@@std@@QEAA@_KPEBU_Container_base12@1@@Z 00000001400d7b50 f i main.obj
 0002:0001cc00       ??0?$_Deque_iterator@V?$_Deque_val@U?$_Deque_simple_types@G@std@@@std@@@std@@QEAA@AEBV01@@Z 00000001400d7c00 f i main.obj
 0002:0001cc70       ??0?$_Deque_iterator@V?$_Deque_val@U?$_Deque_simple_types@G@std@@@std@@@std@@QEAA@_KPEBU_Container_base12@1@@Z 00000001400d7c70 f i main.obj
 0002:0001ccf0       ??0?$_Deque_val@U?$_Deque_simple_types@G@std@@@std@@QEAA@XZ 00000001400d7cf0 f i main.obj
 0002:0001cda0       ??0?$_Rng_from_urng@IVrandom_device@std@@@std@@QEAA@AEAVrandom_device@1@@Z 00000001400d7da0 f i main.obj
 0002:0001cea0       ??0?$_String_alloc@U?$_String_base_types@DV?$allocator@D@std@@@std@@@std@@QEAA@XZ 00000001400d7ea0 f i main.obj
 0002:0001cf30       ??0?$_String_const_iterator@V?$_String_val@U?$_Simple_types@D@std@@@std@@@std@@QEAA@PEBDPEBU_Container_base12@1@@Z 00000001400d7f30 f i main.obj
 0002:0001cfd0       ??0?$_String_iterator@V?$_String_val@U?$_Simple_types@D@std@@@std@@@std@@QEAA@PEADPEBU_Container_base12@1@@Z 00000001400d7fd0 f i main.obj
 0002:0001d050       ??0?$_String_val@U?$_Simple_types@D@std@@@std@@QEAA@XZ 00000001400d8050 f i main.obj
 0002:0001d100       ??0?$_Tree@V?$_Tmap_traits@V?$basic_string@DU?$char_traits@D@std@@V?$allocator@D@2@@std@@GU?$less@V?$basic_string@DU?$char_traits@D@std@@V?$allocator@D@2@@std@@@2@V?$allocator@U?$pair@$$CBV?$basic_string@DU?$char_traits@D@std@@V?$allocator@D@2@@std@@G@std@@@2@$0A@@std@@@std@@QEAA@AEBU?$less@V?$basic_string@DU?$char_traits@D@std@@V?$allocator@D@2@@std@@@1@@Z 00000001400d8100 f i main.obj
 0002:0001d170       ??0?$_Tree_comp_alloc@V?$_Tmap_traits@V?$basic_string@DU?$char_traits@D@std@@V?$allocator@D@2@@std@@GU?$less@V?$basic_string@DU?$char_traits@D@std@@V?$allocator@D@2@@std@@@2@V?$allocator@U?$pair@$$CBV?$basic_string@DU?$char_traits@D@std@@V?$allocator@D@2@@std@@G@std@@@2@$0A@@std@@@std@@QEAA@AEBU?$less@V?$basic_string@DU?$char_traits@D@std@@V?$allocator@D@2@@std@@@1@@Z 00000001400d8170 f i main.obj
 0002:0001d210       ??0?$_Tree_const_iterator@V?$_Tree_val@U?$_Tree_simple_types@U?$pair@$$CBV?$basic_string@DU?$char_traits@D@std@@V?$allocator@D@2@@std@@G@std@@@std@@@std@@@std@@QEAA@$$QEAV01@@Z 00000001400d8210 f i main.obj
 0002:0001d280       ??0?$_Tree_const_iterator@V?$_Tree_val@U?$_Tree_simple_types@U?$pair@$$CBV?$basic_string@DU?$char_traits@D@std@@V?$allocator@D@2@@std@@G@std@@@std@@@std@@@std@@QEAA@AEBV01@@Z 00000001400d8280 f i main.obj
 0002:0001d2f0       ??0?$_Tree_const_iterator@V?$_Tree_val@U?$_Tree_simple_types@U?$pair@$$CBV?$basic_string@DU?$char_traits@D@std@@V?$allocator@D@2@@std@@G@std@@@std@@@std@@@std@@QEAA@PEAU?$_Tree_node@U?$pair@$$CBV?$basic_string@DU?$char_traits@D@std@@V?$allocator@D@2@@std@@G@std@@PEAX@1@PEBV?$_Tree_val@U?$_Tree_simple_types@U?$pair@$$CBV?$basic_string@DU?$char_traits@D@std@@V?$allocator@D@2@@std@@G@std@@@std@@@1@@Z 00000001400d82f0 f i main.obj
 0002:0001d370       ??0?$_Tree_const_iterator@V?$_Tree_val@U?$_Tree_simple_types@U?$pair@$$CBV?$basic_string@DU?$char_traits@D@std@@V?$allocator@D@2@@std@@G@std@@@std@@@std@@@std@@QEAA@XZ 00000001400d8370 f i main.obj
 0002:0001d3d0       ??0?$_Tree_iterator@V?$_Tree_val@U?$_Tree_simple_types@U?$pair@$$CBV?$basic_string@DU?$char_traits@D@std@@V?$allocator@D@2@@std@@G@std@@@std@@@std@@@std@@QEAA@$$QEAV01@@Z 00000001400d83d0 f i main.obj
 0002:0001d440       ??0?$_Tree_iterator@V?$_Tree_val@U?$_Tree_simple_types@U?$pair@$$CBV?$basic_string@DU?$char_traits@D@std@@V?$allocator@D@2@@std@@G@std@@@std@@@std@@@std@@QEAA@AEBV01@@Z 00000001400d8440 f i main.obj
 0002:0001d4b0       ??0?$_Tree_iterator@V?$_Tree_val@U?$_Tree_simple_types@U?$pair@$$CBV?$basic_string@DU?$char_traits@D@std@@V?$allocator@D@2@@std@@G@std@@@std@@@std@@@std@@QEAA@PEAU?$_Tree_node@U?$pair@$$CBV?$basic_string@DU?$char_traits@D@std@@V?$allocator@D@2@@std@@G@std@@PEAX@1@PEBV?$_Tree_val@U?$_Tree_simple_types@U?$pair@$$CBV?$basic_string@DU?$char_traits@D@std@@V?$allocator@D@2@@std@@G@std@@@std@@@1@@Z 00000001400d84b0 f i main.obj
 0002:0001d530       ??0?$_Tree_unchecked_const_iterator@V?$_Tree_val@U?$_Tree_simple_types@U?$pair@$$CBV?$basic_string@DU?$char_traits@D@std@@V?$allocator@D@2@@std@@G@std@@@std@@@std@@U_Iterator_base12@2@@std@@QEAA@$$QEAV01@@Z 00000001400d8530 f i main.obj
 0002:0001d5c0       ??0?$_Tree_unchecked_const_iterator@V?$_Tree_val@U?$_Tree_simple_types@U?$pair@$$CBV?$basic_string@DU?$char_traits@D@std@@V?$allocator@D@2@@std@@G@std@@@std@@@std@@U_Iterator_base12@2@@std@@QEAA@AEBV01@@Z 00000001400d85c0 f i main.obj
 0002:0001d650       ??0?$_Tree_unchecked_const_iterator@V?$_Tree_val@U?$_Tree_simple_types@U?$pair@$$CBV?$basic_string@DU?$char_traits@D@std@@V?$allocator@D@2@@std@@G@std@@@std@@@std@@U_Iterator_base12@2@@std@@QEAA@PEAU?$_Tree_node@U?$pair@$$CBV?$basic_string@DU?$char_traits@D@std@@V?$allocator@D@2@@std@@G@std@@PEAX@1@PEBV?$_Tree_val@U?$_Tree_simple_types@U?$pair@$$CBV?$basic_string@DU?$char_traits@D@std@@V?$allocator@D@2@@std@@G@std@@@std@@@1@@Z 00000001400d8650 f i main.obj
 0002:0001d6f0       ??0?$_Tree_unchecked_const_iterator@V?$_Tree_val@U?$_Tree_simple_types@U?$pair@$$CBV?$basic_string@DU?$char_traits@D@std@@V?$allocator@D@2@@std@@G@std@@@std@@@std@@U_Iterator_base12@2@@std@@QEAA@XZ 00000001400d86f0 f i main.obj
 0002:0001d760       ??0?$_Tree_val@U?$_Tree_simple_types@U?$pair@$$CBV?$basic_string@DU?$char_traits@D@std@@V?$allocator@D@2@@std@@G@std@@@std@@@std@@QEAA@XZ 00000001400d8760 f i main.obj
 0002:0001d7e0       ??0?$_Vector_val@U?$_Simple_types@V?$basic_string@DU?$char_traits@D@std@@V?$allocator@D@2@@std@@@std@@@std@@QEAA@XZ 00000001400d87e0 f i main.obj
 0002:0001d880       ??0?$_Yarn@D@std@@QEAA@XZ  00000001400d8880 f i main.obj
 0002:0001d8f0       ??0?$_Yarn@_W@std@@QEAA@XZ 00000001400d88f0 f i main.obj
 0002:0001d960       ??0?$allocator@D@std@@QEAA@XZ 00000001400d8960 f i main.obj
 0002:0001d9b0       ??0?$allocator@G@std@@QEAA@XZ 00000001400d89b0 f i main.obj
 0002:0001da00       ??0?$allocator@U?$_Tree_node@U?$pair@$$CBV?$basic_string@DU?$char_traits@D@std@@V?$allocator@D@2@@std@@G@std@@PEAX@std@@@std@@QEAA@XZ 00000001400d8a00 f i main.obj
 0002:0001da50       ??0?$allocator@V?$basic_string@DU?$char_traits@D@std@@V?$allocator@D@2@@std@@@std@@QEAA@XZ 00000001400d8a50 f i main.obj
 0002:0001daa0       ??0?$basic_filebuf@DU?$char_traits@D@std@@@std@@QEAA@PEAU_iobuf@@@Z 00000001400d8aa0 f i main.obj
 0002:0001db40       ??0?$basic_fstream@DU?$char_traits@D@std@@@std@@QEAA@XZ 00000001400d8b40 f i main.obj
 0002:0001dcb0       ??0?$basic_ifstream@DU?$char_traits@D@std@@@std@@QEAA@XZ 00000001400d8cb0 f i main.obj
 0002:0001de10       ??0?$basic_ios@DU?$char_traits@D@std@@@std@@IEAA@XZ 00000001400d8e10 f i main.obj
 0002:0001de80       ??0?$basic_iostream@DU?$char_traits@D@std@@@std@@QEAA@PEAV?$basic_streambuf@DU?$char_traits@D@std@@@1@@Z 00000001400d8e80 f i main.obj
 0002:0001e000       ??0?$basic_istream@DU?$char_traits@D@std@@@std@@QEAA@PEAV?$basic_streambuf@DU?$char_traits@D@std@@@1@_N@Z 00000001400d9000 f i main.obj
 0002:0001e180       ??0?$basic_ofstream@DU?$char_traits@D@std@@@std@@QEAA@XZ 00000001400d9180 f i main.obj
 0002:0001e2e0       ??0?$basic_ostream@DU?$char_traits@D@std@@@std@@QEAA@PEAV?$basic_streambuf@DU?$char_traits@D@std@@@1@_N@Z 00000001400d92e0 f i main.obj
 0002:0001e440       ??0?$basic_ostream@DU?$char_traits@D@std@@@std@@QEAA@W4_Uninitialized@1@_N@Z 00000001400d9440 f i main.obj
 0002:0001e5d0       ??0?$basic_streambuf@DU?$char_traits@D@std@@@std@@IEAA@XZ 00000001400d95d0 f i main.obj
 0002:0001e6c0       ??0?$basic_string@DU?$char_traits@D@std@@V?$allocator@D@2@@std@@QEAA@$$QEAV01@@Z 00000001400d96c0 f i main.obj
 0002:0001e7a0       ??0?$basic_string@DU?$char_traits@D@std@@V?$allocator@D@2@@std@@QEAA@AEBV01@@Z 00000001400d97a0 f i main.obj
 0002:0001e850       ??0?$basic_string@DU?$char_traits@D@std@@V?$allocator@D@2@@std@@QEAA@AEBV01@_K1AEBV?$allocator@D@1@@Z 00000001400d9850 f i main.obj
 0002:0001e910       ??0?$basic_string@DU?$char_traits@D@std@@V?$allocator@D@2@@std@@QEAA@QEBD@Z 00000001400d9910 f i main.obj
 0002:0001e9b0       ??0?$basic_string@DU?$char_traits@D@std@@V?$allocator@D@2@@std@@QEAA@QEBD_K@Z 00000001400d99b0 f i main.obj
 0002:0001ea60       ??0?$basic_string@DU?$char_traits@D@std@@V?$allocator@D@2@@std@@QEAA@XZ 00000001400d9a60 f i main.obj
 0002:0001eae0       ??0?$basic_string@DU?$char_traits@D@std@@V?$allocator@D@2@@std@@QEAA@_KD@Z 00000001400d9ae0 f i main.obj
 0002:0001eb90       ??0?$basic_stringbuf@DU?$char_traits@D@std@@V?$allocator@D@2@@std@@QEAA@H@Z 00000001400d9b90 f i main.obj
 0002:0001ec60       ??0?$basic_stringstream@DU?$char_traits@D@std@@V?$allocator@D@2@@std@@QEAA@H@Z 00000001400d9c60 f i main.obj
 0002:0001ede0       ??0?$codecvt@DDU_Mbstatet@@@std@@QEAA@AEBV_Locinfo@1@_K@Z 00000001400d9de0 f i main.obj
 0002:0001ee90       ??0?$ctype@D@std@@QEAA@AEBV_Locinfo@1@_K@Z 00000001400d9e90 f i main.obj
 0002:0001ef40       ??0?$deque@GV?$allocator@G@std@@@std@@QEAA@V?$initializer_list@G@1@AEBV?$allocator@G@1@@Z 00000001400d9f40 f i main.obj
 0002:0001f010       ??0?$fpos@U_Mbstatet@@@std@@QEAA@U_Mbstatet@@_J@Z 00000001400da010 f i main.obj
 0002:0001f0b0       ??0?$fpos@U_Mbstatet@@@std@@QEAA@_J@Z 00000001400da0b0 f i main.obj
 0002:0001f150       ??0?$initializer_list@G@std@@QEAA@PEBG0@Z 00000001400da150 f i main.obj
 0002:0001f1d0       ??0?$initializer_list@U?$pair@$$CBV?$basic_string@DU?$char_traits@D@std@@V?$allocator@D@2@@std@@G@std@@@std@@QEAA@PEBU?$pair@$$CBV?$basic_string@DU?$char_traits@D@std@@V?$allocator@D@2@@std@@G@1@0@Z 00000001400da1d0 f i main.obj
 0002:0001f250       ??0?$initializer_list@V?$basic_string@DU?$char_traits@D@std@@V?$allocator@D@2@@std@@@std@@QEAA@PEBV?$basic_string@DU?$char_traits@D@std@@V?$allocator@D@2@@1@0@Z 00000001400da250 f i main.obj
 0002:0001f2d0       ??0?$map@V?$basic_string@DU?$char_traits@D@std@@V?$allocator@D@2@@std@@GU?$less@V?$basic_string@DU?$char_traits@D@std@@V?$allocator@D@2@@std@@@2@V?$allocator@U?$pair@$$CBV?$basic_string@DU?$char_traits@D@std@@V?$allocator@D@2@@std@@G@std@@@2@@std@@QEAA@V?$initializer_list@U?$pair@$$CBV?$basic_string@DU?$char_traits@D@std@@V?$allocator@D@2@@std@@G@std@@@1@@Z 00000001400da2d0 f i main.obj
 0002:0001f380       ??0?$mersenne_twister@_K$0EA@$0BDI@$0JM@$0BP@$0?EKPNJAKFFGJJOGBH@$0BN@$0BB@$0HBNGHPPPONKGAAAA@$0CF@$0?IBBCAAAAAAAAA@$0CL@@std@@QEAA@_K00@Z 00000001400da380 f i main.obj
 0002:0001f420       ??0?$mersenne_twister_engine@_K$0EA@$0BDI@$0JM@$0BP@$0?EKPNJAKFFGJJOGBH@$0BN@$0FFFFFFFFFFFFFFFF@$0BB@$0HBNGHPPPONKGAAAA@$0CF@$0?IBBCAAAAAAAAA@$0CL@$0FIFBPECNEMJFHPCN@@std@@QEAA@_K@Z 00000001400da420 f i main.obj
 0002:0001f4a0       ??0?$num_put@DV?$ostreambuf_iterator@DU?$char_traits@D@std@@@std@@@std@@QEAA@AEBV_Locinfo@1@_K@Z 00000001400da4a0 f i main.obj
 0002:0001f550       ??0?$numpunct@D@std@@QEAA@AEBV_Locinfo@1@_K_N@Z 00000001400da550 f i main.obj
 0002:0001f610       ??0?$ostreambuf_iterator@DU?$char_traits@D@std@@@std@@QEAA@PEAV?$basic_streambuf@DU?$char_traits@D@std@@@1@@Z 00000001400da610 f i main.obj
 0002:0001f680       ??0?$pair@$$CBV?$basic_string@DU?$char_traits@D@std@@V?$allocator@D@2@@std@@G@std@@QEAA@AEBU01@@Z 00000001400da680 f i main.obj
 0002:0001f710       ??0?$uniform_int@H@std@@QEAA@HH@Z 00000001400da710 f i main.obj
 0002:0001f790       ??0?$uniform_int_distribution@H@std@@QEAA@HH@Z 00000001400da790 f i main.obj
 0002:0001f810       ??0?$vector@V?$basic_string@DU?$char_traits@D@std@@V?$allocator@D@2@@std@@V?$allocator@V?$basic_string@DU?$char_traits@D@std@@V?$allocator@D@2@@std@@@2@@std@@QEAA@V?$initializer_list@V?$basic_string@DU?$char_traits@D@std@@V?$allocator@D@2@@std@@@1@AEBV?$allocator@V?$basic_string@DU?$char_traits@D@std@@V?$allocator@D@2@@std@@@1@@Z 00000001400da810 f i main.obj
 0002:0001f8e0       ??0S_Ustawienia@@QEAA@XZ   00000001400da8e0 f i main.obj
 0002:0001fa20       ??0_Bxty@?$_String_val@U?$_Simple_types@D@std@@@std@@QEAA@XZ 00000001400daa20 f i main.obj
 0002:0001fa70       ??0_Container_base12@std@@QEAA@XZ 00000001400daa70 f i main.obj
 0002:0001fad0       ??0_Container_proxy@std@@QEAA@XZ 00000001400daad0 f i main.obj
 0002:0001fb40       ??0_Facet_base@std@@QEAA@XZ 00000001400dab40 f i main.obj
 0002:0001fba0       ??0_Generic_error_category@std@@QEAA@XZ 00000001400daba0 f i main.obj
 0002:0001fc20       ??0_Iostream_error_category@std@@QEAA@XZ 00000001400dac20 f i main.obj
 0002:0001fca0       ??0_Iterator_base12@std@@QEAA@AEBU01@@Z 00000001400daca0 f i main.obj
 0002:0001fd30       ??0_Iterator_base12@std@@QEAA@XZ 00000001400dad30 f i main.obj
 0002:0001fda0       ??0_Locinfo@std@@QEAA@PEBD@Z 00000001400dada0 f i main.obj
 0002:0001ff00       ??0_Sentry_base@?$basic_istream@DU?$char_traits@D@std@@@std@@QEAA@AEAV12@@Z 00000001400daf00 f i main.obj
 0002:00020010       ??0_Sentry_base@?$basic_ostream@DU?$char_traits@D@std@@@std@@QEAA@AEAV12@@Z 00000001400db010 f i main.obj
 0002:00020120       ??0_System_error@std@@IEAA@Verror_code@1@AEBV?$basic_string@DU?$char_traits@D@std@@V?$allocator@D@2@@1@@Z 00000001400db120 f i main.obj
 0002:00020270       ??0_System_error@std@@QEAA@AEBV01@@Z 00000001400db270 f i main.obj
 0002:00020320       ??0bad_cast@std@@QEAA@AEBV01@@Z 00000001400db320 f i main.obj
 0002:000203a0       ??0bad_cast@std@@QEAA@XZ   00000001400db3a0 f i main.obj
 0002:00020420       ??0codecvt_base@std@@QEAA@_K@Z 00000001400db420 f i main.obj
 0002:000204a0       ??0ctype_base@std@@QEAA@_K@Z 00000001400db4a0 f i main.obj
 0002:00020520       ??0error_category@std@@QEAA@XZ 00000001400db520 f i main.obj
 0002:000205a0       ??0error_code@std@@QEAA@HAEBVerror_category@1@@Z 00000001400db5a0 f i main.obj
 0002:00020620       ??0error_condition@std@@QEAA@HAEBVerror_category@1@@Z 00000001400db620 f i main.obj
 0002:000206a0       ??0exception@std@@QEAA@AEBV01@@Z 00000001400db6a0 f i main.obj
 0002:00020750       ??0exception@std@@QEAA@QEBD@Z 00000001400db750 f i main.obj
 0002:00020850       ??0exception@std@@QEAA@QEBDH@Z 00000001400db850 f i main.obj
 0002:000208f0       ??0facet@locale@std@@IEAA@_K@Z 00000001400db8f0 f i main.obj
 0002:00020980       ??0failure@ios_base@std@@QEAA@AEBV012@@Z 00000001400db980 f i main.obj
 0002:00020a00       ??0failure@ios_base@std@@QEAA@PEBDAEBVerror_code@2@@Z 00000001400dba00 f i main.obj
 0002:00020ab0       ??0id@locale@std@@QEAA@_K@Z 00000001400dbab0 f i main.obj
 0002:00020b20       ??0ios_base@std@@IEAA@XZ   00000001400dbb20 f i main.obj
 0002:00020b80       ??0locale@std@@QEAA@AEBV01@@Z 00000001400dbb80 f i main.obj
 0002:00020c20       ??0locale@std@@QEAA@XZ     00000001400dbc20 f i main.obj
 0002:00020c90       ??0param_type@?$uniform_int@H@std@@QEAA@HH@Z 00000001400dbc90 f i main.obj
 0002:00020d10       ??0random_device@std@@QEAA@XZ 00000001400dbd10 f i main.obj
 0002:00020d60       ??0runtime_error@std@@QEAA@AEBV01@@Z 00000001400dbd60 f i main.obj
 0002:00020de0       ??0runtime_error@std@@QEAA@AEBV?$basic_string@DU?$char_traits@D@std@@V?$allocator@D@2@@1@@Z 00000001400dbde0 f i main.obj
 0002:00020e70       ??0runtime_error@std@@QEAA@PEBD@Z 00000001400dbe70 f i main.obj
 0002:00020ef0       ??0sentry@?$basic_istream@DU?$char_traits@D@std@@@std@@QEAA@AEAV12@_N@Z 00000001400dbef0 f i main.obj
 0002:00020fa0       ??0sentry@?$basic_ostream@DU?$char_traits@D@std@@@std@@QEAA@AEAV12@@Z 00000001400dbfa0 f i main.obj
 0002:00021130       ??0system_error@std@@QEAA@AEBV01@@Z 00000001400dc130 f i main.obj
 0002:000211b0       ??0system_error@std@@QEAA@Verror_code@1@PEBD@Z 00000001400dc1b0 f i main.obj
 0002:000212a0       ??1?$_Compressed_pair@U?$less@V?$basic_string@DU?$char_traits@D@std@@V?$allocator@D@2@@std@@@std@@V?$_Compressed_pair@V?$allocator@U?$_Tree_node@U?$pair@$$CBV?$basic_string@DU?$char_traits@D@std@@V?$allocator@D@2@@std@@G@std@@PEAX@std@@@std@@V?$_Tree_val@U?$_Tree_simple_types@U?$pair@$$CBV?$basic_string@DU?$char_traits@D@std@@V?$allocator@D@2@@std@@G@std@@@std@@@2@$00@2@$00@std@@QEAA@XZ 00000001400dc2a0 f i main.obj
 0002:00021300       ??1?$_Compressed_pair@V?$allocator@D@std@@V?$_String_val@U?$_Simple_types@D@std@@@2@$00@std@@QEAA@XZ 00000001400dc300 f i main.obj
 0002:00021360       ??1?$_Compressed_pair@V?$allocator@G@std@@V?$_Deque_val@U?$_Deque_simple_types@G@std@@@2@$00@std@@QEAA@XZ 00000001400dc360 f i main.obj
 0002:000213c0       ??1?$_Compressed_pair@V?$allocator@U?$_Tree_node@U?$pair@$$CBV?$basic_string@DU?$char_traits@D@std@@V?$allocator@D@2@@std@@G@std@@PEAX@std@@@std@@V?$_Tree_val@U?$_Tree_simple_types@U?$pair@$$CBV?$basic_string@DU?$char_traits@D@std@@V?$allocator@D@2@@std@@G@std@@@std@@@2@$00@std@@QEAA@XZ 00000001400dc3c0 f i main.obj
 0002:00021420       ??1?$_Compressed_pair@V?$allocator@V?$basic_string@DU?$char_traits@D@std@@V?$allocator@D@2@@std@@@std@@V?$_Vector_val@U?$_Simple_types@V?$basic_string@DU?$char_traits@D@std@@V?$allocator@D@2@@std@@@std@@@2@$00@std@@QEAA@XZ 00000001400dc420 f i main.obj
 0002:00021480       ??1?$_Deque_alloc@U?$_Deque_base_types@GV?$allocator@G@std@@@std@@@std@@QEAA@XZ 00000001400dc480 f i main.obj
 0002:00021500       ??1?$_Deque_const_iterator@V?$_Deque_val@U?$_Deque_simple_types@G@std@@@std@@@std@@QEAA@XZ 00000001400dc500 f i main.obj
 0002:00021550       ??1?$_Deque_iterator@V?$_Deque_val@U?$_Deque_simple_types@G@std@@@std@@@std@@QEAA@XZ 00000001400dc550 f i main.obj
 0002:000215a0       ??1?$_Deque_val@U?$_Deque_simple_types@G@std@@@std@@QEAA@XZ 00000001400dc5a0 f i main.obj
 0002:000215f0       ??1?$_String_alloc@U?$_String_base_types@DV?$allocator@D@std@@@std@@@std@@QEAA@XZ 00000001400dc5f0 f i main.obj
 0002:00021670       ??1?$_String_const_iterator@V?$_String_val@U?$_Simple_types@D@std@@@std@@@std@@QEAA@XZ 00000001400dc670 f i main.obj
 0002:000216c0       ??1?$_String_iterator@V?$_String_val@U?$_Simple_types@D@std@@@std@@@std@@QEAA@XZ 00000001400dc6c0 f i main.obj
 0002:00021710       ??1?$_String_val@U?$_Simple_types@D@std@@@std@@QEAA@XZ 00000001400dc710 f i main.obj
 0002:00021780       ??1?$_Tree@V?$_Tmap_traits@V?$basic_string@DU?$char_traits@D@std@@V?$allocator@D@2@@std@@GU?$less@V?$basic_string@DU?$char_traits@D@std@@V?$allocator@D@2@@std@@@2@V?$allocator@U?$pair@$$CBV?$basic_string@DU?$char_traits@D@std@@V?$allocator@D@2@@std@@G@std@@@2@$0A@@std@@@std@@QEAA@XZ 00000001400dc780 f i main.obj
 0002:000217f0       ??1?$_Tree_comp_alloc@V?$_Tmap_traits@V?$basic_string@DU?$char_traits@D@std@@V?$allocator@D@2@@std@@GU?$less@V?$basic_string@DU?$char_traits@D@std@@V?$allocator@D@2@@std@@@2@V?$allocator@U?$pair@$$CBV?$basic_string@DU?$char_traits@D@std@@V?$allocator@D@2@@std@@G@std@@@2@$0A@@std@@@std@@QEAA@XZ 00000001400dc7f0 f i main.obj
 0002:00021890       ??1?$_Tree_const_iterator@V?$_Tree_val@U?$_Tree_simple_types@U?$pair@$$CBV?$basic_string@DU?$char_traits@D@std@@V?$allocator@D@2@@std@@G@std@@@std@@@std@@@std@@QEAA@XZ 00000001400dc890 f i main.obj
 0002:000218e0       ??1?$_Tree_iterator@V?$_Tree_val@U?$_Tree_simple_types@U?$pair@$$CBV?$basic_string@DU?$char_traits@D@std@@V?$allocator@D@2@@std@@G@std@@@std@@@std@@@std@@QEAA@XZ 00000001400dc8e0 f i main.obj
 0002:00021930       ??1?$_Tree_unchecked_const_iterator@V?$_Tree_val@U?$_Tree_simple_types@U?$pair@$$CBV?$basic_string@DU?$char_traits@D@std@@V?$allocator@D@2@@std@@G@std@@@std@@@std@@U_Iterator_base12@2@@std@@QEAA@XZ 00000001400dc930 f i main.obj
 0002:00021980       ??1?$_Tree_val@U?$_Tree_simple_types@U?$pair@$$CBV?$basic_string@DU?$char_traits@D@std@@V?$allocator@D@2@@std@@G@std@@@std@@@std@@QEAA@XZ 00000001400dc980 f i main.obj
 0002:000219d0       ??1?$_Vector_alloc@U?$_Vec_base_types@V?$basic_string@DU?$char_traits@D@std@@V?$allocator@D@2@@std@@V?$allocator@V?$basic_string@DU?$char_traits@D@std@@V?$allocator@D@2@@std@@@2@@std@@@std@@QEAA@XZ 00000001400dc9d0 f i main.obj
 0002:00021a50       ??1?$_Vector_val@U?$_Simple_types@V?$basic_string@DU?$char_traits@D@std@@V?$allocator@D@2@@std@@@std@@@std@@QEAA@XZ 00000001400dca50 f i main.obj
 0002:00021aa0       ??1?$_Yarn@D@std@@QEAA@XZ  00000001400dcaa0 f i main.obj
 0002:00021b00       ??1?$_Yarn@_W@std@@QEAA@XZ 00000001400dcb00 f i main.obj
 0002:00021b60       ??1?$basic_filebuf@DU?$char_traits@D@std@@@std@@UEAA@XZ 00000001400dcb60 f i main.obj
 0002:00021c20       ??1?$basic_fstream@DU?$char_traits@D@std@@@std@@UEAA@XZ 00000001400dcc20 f i main.obj
 0002:00021d10       ??1?$basic_ifstream@DU?$char_traits@D@std@@@std@@UEAA@XZ 00000001400dcd10 f i main.obj
 0002:00021e00       ??1?$basic_ios@DU?$char_traits@D@std@@@std@@UEAA@XZ 00000001400dce00 f i main.obj
 0002:00021e70       ??1?$basic_iostream@DU?$char_traits@D@std@@@std@@UEAA@XZ 00000001400dce70 f i main.obj
 0002:00021f40       ??1?$basic_istream@DU?$char_traits@D@std@@@std@@UEAA@XZ 00000001400dcf40 f i main.obj
 0002:00021ff0       ??1?$basic_ofstream@DU?$char_traits@D@std@@@std@@UEAA@XZ 00000001400dcff0 f i main.obj
 0002:000220e0       ??1?$basic_ostream@DU?$char_traits@D@std@@@std@@UEAA@XZ 00000001400dd0e0 f i main.obj
 0002:00022190       ??1?$basic_streambuf@DU?$char_traits@D@std@@@std@@UEAA@XZ 00000001400dd190 f i main.obj
 0002:00022250       ??1?$basic_string@DU?$char_traits@D@std@@V?$allocator@D@2@@std@@QEAA@XZ 00000001400dd250 f i main.obj
 0002:000222c0       ??1?$basic_stringbuf@DU?$char_traits@D@std@@V?$allocator@D@2@@std@@UEAA@XZ 00000001400dd2c0 f i main.obj
 0002:00022350       ??1?$basic_stringstream@DU?$char_traits@D@std@@V?$allocator@D@2@@std@@UEAA@XZ 00000001400dd350 f i main.obj
 0002:00022440       ??1?$codecvt@DDU_Mbstatet@@@std@@MEAA@XZ 00000001400dd440 f i main.obj
 0002:000224b0       ??1?$ctype@D@std@@MEAA@XZ  00000001400dd4b0 f i main.obj
 0002:00022540       ??1?$deque@GV?$allocator@G@std@@@std@@QEAA@XZ 00000001400dd540 f i main.obj
 0002:000225b0       ??1?$map@V?$basic_string@DU?$char_traits@D@std@@V?$allocator@D@2@@std@@GU?$less@V?$basic_string@DU?$char_traits@D@std@@V?$allocator@D@2@@std@@@2@V?$allocator@U?$pair@$$CBV?$basic_string@DU?$char_traits@D@std@@V?$allocator@D@2@@std@@G@std@@@2@@std@@QEAA@XZ 00000001400dd5b0 f i main.obj
 0002:00022600       ??1?$num_put@DV?$ostreambuf_iterator@DU?$char_traits@D@std@@@std@@@std@@MEAA@XZ 00000001400dd600 f i main.obj
 0002:00022670       ??1?$numpunct@D@std@@MEAA@XZ 00000001400dd670 f i main.obj
 0002:00022700       ??1?$pair@$$CBV?$basic_string@DU?$char_traits@D@std@@V?$allocator@D@2@@std@@G@std@@QEAA@XZ 00000001400dd700 f i main.obj
 0002:00022760       ??1?$pair@V?$_Tree_iterator@V?$_Tree_val@U?$_Tree_simple_types@U?$pair@$$CBV?$basic_string@DU?$char_traits@D@std@@V?$allocator@D@2@@std@@G@std@@@std@@@std@@@std@@_N@std@@QEAA@XZ 00000001400dd760 f i main.obj
 0002:000227c0       ??1?$vector@V?$basic_string@DU?$char_traits@D@std@@V?$allocator@D@2@@std@@V?$allocator@V?$basic_string@DU?$char_traits@D@std@@V?$allocator@D@2@@std@@@2@@std@@QEAA@XZ 00000001400dd7c0 f i main.obj
 0002:00022830       ??1_Bxty@?$_String_val@U?$_Simple_types@D@std@@@std@@QEAA@XZ 00000001400dd830 f i main.obj
 0002:00022870       ??1_Container_base12@std@@QEAA@XZ 00000001400dd870 f i main.obj
 0002:000228c0       ??1_Facet_base@std@@UEAA@XZ 00000001400dd8c0 f i main.obj
 0002:00022920       ??1_Generic_error_category@std@@UEAA@XZ 00000001400dd920 f i main.obj
 0002:00022970       ??1_Iostream_error_category@std@@UEAA@XZ 00000001400dd970 f i main.obj
 0002:000229c0       ??1_Iterator_base12@std@@QEAA@XZ 00000001400dd9c0 f i main.obj
 0002:00022a80       ??1_Locinfo@std@@QEAA@XZ   00000001400dda80 f i main.obj
 0002:00022b90       ??1_Sentry_base@?$basic_istream@DU?$char_traits@D@std@@@std@@QEAA@XZ 00000001400ddb90 f i main.obj
 0002:00022c90       ??1_Sentry_base@?$basic_ostream@DU?$char_traits@D@std@@@std@@QEAA@XZ 00000001400ddc90 f i main.obj
 0002:00022d90       ??1_System_error@std@@UEAA@XZ 00000001400ddd90 f i main.obj
 0002:00022de0       ??1bad_cast@std@@UEAA@XZ   00000001400ddde0 f i main.obj
 0002:00022e30       ??1codecvt_base@std@@UEAA@XZ 00000001400dde30 f i main.obj
 0002:00022ea0       ??1ctype_base@std@@UEAA@XZ 00000001400ddea0 f i main.obj
 0002:00022f10       ??1error_category@std@@UEAA@XZ 00000001400ddf10 f i main.obj
 0002:00022f70       ??1exception@std@@UEAA@XZ  00000001400ddf70 f i main.obj
 0002:00022fe0       ??1facet@locale@std@@MEAA@XZ 00000001400ddfe0 f i main.obj
 0002:00023050       ??1failure@ios_base@std@@UEAA@XZ 00000001400de050 f i main.obj
 0002:000230a0       ??1ios_base@std@@UEAA@XZ   00000001400de0a0 f i main.obj
 0002:00023120       ??1locale@std@@QEAA@XZ     00000001400de120 f i main.obj
 0002:00023210       ??1runtime_error@std@@UEAA@XZ 00000001400de210 f i main.obj
 0002:00023260       ??1sentry@?$basic_istream@DU?$char_traits@D@std@@@std@@QEAA@XZ 00000001400de260 f i main.obj
 0002:000232b0       ??1sentry@?$basic_ostream@DU?$char_traits@D@std@@@std@@QEAA@XZ 00000001400de2b0 f i main.obj
 0002:00023330       ??1system_error@std@@UEAA@XZ 00000001400de330 f i main.obj
 0002:00023380       ??2@YAPEAX_KPEAX@Z         00000001400de380 f i main.obj
 0002:000233d0       ??2_Crt_new_delete@std@@SAPEAX_K@Z 00000001400de3d0 f i main.obj
 0002:00023450       ??2_Crt_new_delete@std@@SAPEAX_KAEBUnothrow_t@1@@Z 00000001400de450 f i main.obj
 0002:000234f0       ??3@YAXPEAX0@Z             00000001400de4f0 f i main.obj
 0002:00023540       ??3_Crt_new_delete@std@@SAXPEAX@Z 00000001400de540 f i main.obj
 0002:00023590       ??4?$_Tree_const_iterator@V?$_Tree_val@U?$_Tree_simple_types@U?$pair@$$CBV?$basic_string@DU?$char_traits@D@std@@V?$allocator@D@2@@std@@G@std@@@std@@@std@@@std@@QEAAAEAV01@AEBV01@@Z 00000001400de590 f i main.obj
 0002:00023600       ??4?$_Tree_unchecked_const_iterator@V?$_Tree_val@U?$_Tree_simple_types@U?$pair@$$CBV?$basic_string@DU?$char_traits@D@std@@V?$allocator@D@2@@std@@G@std@@@std@@@std@@U_Iterator_base12@2@@std@@QEAAAEAV01@AEBV01@@Z 00000001400de600 f i main.obj
 0002:00023690       ??4?$basic_string@DU?$char_traits@D@std@@V?$allocator@D@2@@std@@QEAAAEAV01@$$QEAV01@@Z 00000001400de690 f i main.obj
 0002:00023790       ??4?$basic_string@DU?$char_traits@D@std@@V?$allocator@D@2@@std@@QEAAAEAV01@AEBV01@@Z 00000001400de790 f i main.obj
 0002:00023870       ??4?$basic_string@DU?$char_traits@D@std@@V?$allocator@D@2@@std@@QEAAAEAV01@QEBD@Z 00000001400de870 f i main.obj
 0002:000238d0       ??4?$ostreambuf_iterator@DU?$char_traits@D@std@@@std@@QEAAAEAV01@D@Z 00000001400de8d0 f i main.obj
 0002:00023990       ??4_Iterator_base12@std@@QEAAAEAU01@AEBU01@@Z 00000001400de990 f i main.obj
 0002:00023ac0       ??6?$basic_ostream@DU?$char_traits@D@std@@@std@@QEAAAEAV01@G@Z 00000001400deac0 f i main.obj
 0002:00023db0       ??6?$basic_ostream@DU?$char_traits@D@std@@@std@@QEAAAEAV01@H@Z 00000001400dedb0 f i main.obj
 0002:00024120       ??6?$basic_ostream@DU?$char_traits@D@std@@@std@@QEAAAEAV01@P6AAEAV01@AEAV01@@Z@Z 00000001400df120 f i main.obj
 0002:00024180       ??8?$_Tree_const_iterator@V?$_Tree_val@U?$_Tree_simple_types@U?$pair@$$CBV?$basic_string@DU?$char_traits@D@std@@V?$allocator@D@2@@std@@G@std@@@std@@@std@@@std@@QEBA_NAEBV01@@Z 00000001400df180 f i main.obj
 0002:000242a0       ??8error_category@std@@QEBA_NAEBV01@@Z 00000001400df2a0 f i main.obj
 0002:00024330       ??8std@@YA_NAEBVerror_condition@0@0@Z 00000001400df330 f i main.obj
 0002:00024420       ??9?$_Tree_const_iterator@V?$_Tree_val@U?$_Tree_simple_types@U?$pair@$$CBV?$basic_string@DU?$char_traits@D@std@@V?$allocator@D@2@@std@@G@std@@@std@@@std@@@std@@QEBA_NAEBV01@@Z 00000001400df420 f i main.obj
 0002:000244b0       ??A?$array@D$0CF@@std@@QEBAAEBD_K@Z 00000001400df4b0 f i main.obj
 0002:00024570       ??A?$basic_string@DU?$char_traits@D@std@@V?$allocator@D@2@@std@@QEAAAEAD_K@Z 00000001400df570 f i main.obj
 0002:00024650       ??A?$basic_string@DU?$char_traits@D@std@@V?$allocator@D@2@@std@@QEBAAEBD_K@Z 00000001400df650 f i main.obj
 0002:00024730       ??A?$deque@GV?$allocator@G@std@@@std@@QEBAAEBG_K@Z 00000001400df730 f i main.obj
 0002:000248b0       ??A?$vector@V?$basic_string@DU?$char_traits@D@std@@V?$allocator@D@2@@std@@V?$allocator@V?$basic_string@DU?$char_traits@D@std@@V?$allocator@D@2@@std@@@2@@std@@QEAAAEAV?$basic_string@DU?$char_traits@D@std@@V?$allocator@D@2@@1@_K@Z 00000001400df8b0 f i main.obj
 0002:00024990       ??B?$fpos@U_Mbstatet@@@std@@QEBA_JXZ 00000001400df990 f i main.obj
 0002:000249f0       ??Bid@locale@std@@QEAA_KXZ 00000001400df9f0 f i main.obj
 0002:00024af0       ??Bsentry@?$basic_istream@DU?$char_traits@D@std@@@std@@QEBA_NXZ 00000001400dfaf0 f i main.obj
 0002:00024b40       ??Bsentry@?$basic_ostream@DU?$char_traits@D@std@@@std@@QEBA_NXZ 00000001400dfb40 f i main.obj
 0002:00024b90       ??C?$_Tree_const_iterator@V?$_Tree_val@U?$_Tree_simple_types@U?$pair@$$CBV?$basic_string@DU?$char_traits@D@std@@V?$allocator@D@2@@std@@G@std@@@std@@@std@@@std@@QEBAPEBU?$pair@$$CBV?$basic_string@DU?$char_traits@D@std@@V?$allocator@D@2@@std@@G@1@XZ 00000001400dfb90 f i main.obj
 0002:00024bf0       ??D?$_Deque_const_iterator@V?$_Deque_val@U?$_Deque_simple_types@G@std@@@std@@@std@@QEBAAEBGXZ 00000001400dfbf0 f i main.obj
 0002:00024d40       ??D?$_Deque_iterator@V?$_Deque_val@U?$_Deque_simple_types@G@std@@@std@@@std@@QEBAAEAGXZ 00000001400dfd40 f i main.obj
 0002:00024d90       ??D?$_String_const_iterator@V?$_String_val@U?$_Simple_types@D@std@@@std@@@std@@QEBAAEBDXZ 00000001400dfd90 f i main.obj
 0002:00024f60       ??D?$_String_iterator@V?$_String_val@U?$_Simple_types@D@std@@@std@@@std@@QEBAAEADXZ 00000001400dff60 f i main.obj
 0002:00024fb0       ??D?$_Tree_const_iterator@V?$_Tree_val@U?$_Tree_simple_types@U?$pair@$$CBV?$basic_string@DU?$char_traits@D@std@@V?$allocator@D@2@@std@@G@std@@@std@@@std@@@std@@QEBAAEBU?$pair@$$CBV?$basic_string@DU?$char_traits@D@std@@V?$allocator@D@2@@std@@G@1@XZ 00000001400dffb0 f i main.obj
 0002:000250a0       ??D?$ostreambuf_iterator@DU?$char_traits@D@std@@@std@@QEAAAEAV01@XZ 00000001400e00a0 f i main.obj
 0002:000250f0       ??E?$_Tree_const_iterator@V?$_Tree_val@U?$_Tree_simple_types@U?$pair@$$CBV?$basic_string@DU?$char_traits@D@std@@V?$allocator@D@2@@std@@G@std@@@std@@@std@@@std@@QEAA?AV01@H@Z 00000001400e00f0 f i main.obj
 0002:00025210       ??E?$_Tree_const_iterator@V?$_Tree_val@U?$_Tree_simple_types@U?$pair@$$CBV?$basic_string@DU?$char_traits@D@std@@V?$allocator@D@2@@std@@G@std@@@std@@@std@@@std@@QEAAAEAV01@XZ 00000001400e0210 f i main.obj
 0002:00025300       ??E?$_Tree_unchecked_const_iterator@V?$_Tree_val@U?$_Tree_simple_types@U?$pair@$$CBV?$basic_string@DU?$char_traits@D@std@@V?$allocator@D@2@@std@@G@std@@@std@@@std@@U_Iterator_base12@2@@std@@QEAAAEAV01@XZ 00000001400e0300 f i main.obj
 0002:00025420       ??E?$ostreambuf_iterator@DU?$char_traits@D@std@@@std@@QEAAAEAV01@XZ 00000001400e0420 f i main.obj
 0002:00025470       ??F?$_Tree_const_iterator@V?$_Tree_val@U?$_Tree_simple_types@U?$pair@$$CBV?$basic_string@DU?$char_traits@D@std@@V?$allocator@D@2@@std@@G@std@@@std@@@std@@@std@@QEAAAEAV01@XZ 00000001400e0470 f i main.obj
 0002:000255c0       ??F?$_Tree_iterator@V?$_Tree_val@U?$_Tree_simple_types@U?$pair@$$CBV?$basic_string@DU?$char_traits@D@std@@V?$allocator@D@2@@std@@G@std@@@std@@@std@@@std@@QEAAAEAV01@XZ 00000001400e05c0 f i main.obj
 0002:00025620       ??F?$_Tree_unchecked_const_iterator@V?$_Tree_val@U?$_Tree_simple_types@U?$pair@$$CBV?$basic_string@DU?$char_traits@D@std@@V?$allocator@D@2@@std@@G@std@@@std@@@std@@U_Iterator_base12@2@@std@@QEAAAEAV01@XZ 00000001400e0620 f i main.obj
 0002:00025770       ??G?$_Deque_iterator@V?$_Deque_val@U?$_Deque_simple_types@G@std@@@std@@@std@@QEBA?AV01@_J@Z 00000001400e0770 f i main.obj
 0002:00025880       ??H?$_Deque_const_iterator@V?$_Deque_val@U?$_Deque_simple_types@G@std@@@std@@@std@@QEBA?AV01@_J@Z 00000001400e0880 f i main.obj
 0002:00026090       ??R?$_Rng_from_urng@IVrandom_device@std@@@std@@QEAAII@Z 00000001400e1090 f i main.obj
 0002:000261f0       ??R?$less@V?$basic_string@DU?$char_traits@D@std@@V?$allocator@D@2@@std@@@std@@QEBA_NAEBV?$basic_string@DU?$char_traits@D@std@@V?$allocator@D@2@@1@0@Z 00000001400e11f0 f i main.obj
 0002:00026260       ??R?$mersenne_twister@_K$0EA@$0BDI@$0JM@$0BP@$0?EKPNJAKFFGJJOGBH@$0BN@$0BB@$0HBNGHPPPONKGAAAA@$0CF@$0?IBBCAAAAAAAAA@$0CL@@std@@QEAA_KXZ 00000001400e1260 f i main.obj
 0002:000263d0       ??Rrandom_device@std@@QEAAIXZ 00000001400e13d0 f i main.obj
 0002:00026420       ??Y?$_Deque_const_iterator@V?$_Deque_val@U?$_Deque_simple_types@G@std@@@std@@@std@@QEAAAEAV01@_J@Z 00000001400e1420 f i main.obj
 0002:00026570       ??Y?$_Deque_iterator@V?$_Deque_val@U?$_Deque_simple_types@G@std@@@std@@@std@@QEAAAEAV01@_J@Z 00000001400e1570 f i main.obj
 0002:000265f0       ??Y?$basic_string@DU?$char_traits@D@std@@V?$allocator@D@2@@std@@QEAAAEAV01@AEBV01@@Z 00000001400e15f0 f i main.obj
 0002:00026650       ??Y?$basic_string@DU?$char_traits@D@std@@V?$allocator@D@2@@std@@QEAAAEAV01@D@Z 00000001400e1650 f i main.obj
 0002:000266c0       ??Y?$basic_string@DU?$char_traits@D@std@@V?$allocator@D@2@@std@@QEAAAEAV01@QEBD@Z 00000001400e16c0 f i main.obj
 0002:00026720       ??Z?$_Deque_iterator@V?$_Deque_val@U?$_Deque_simple_types@G@std@@@std@@@std@@QEAAAEAV01@_J@Z 00000001400e1720 f i main.obj
 0002:00026790       ??_D?$basic_fstream@DU?$char_traits@D@std@@@std@@QEAAXXZ 00000001400e1790 f i main.obj
 0002:00026810       ??_D?$basic_ifstream@DU?$char_traits@D@std@@@std@@QEAAXXZ 00000001400e1810 f i main.obj
 0002:00026890       ??_D?$basic_iostream@DU?$char_traits@D@std@@@std@@QEAAXXZ 00000001400e1890 f i main.obj
 0002:00026900       ??_D?$basic_istream@DU?$char_traits@D@std@@@std@@QEAAXXZ 00000001400e1900 f i main.obj
 0002:00026970       ??_D?$basic_ofstream@DU?$char_traits@D@std@@@std@@QEAAXXZ 00000001400e1970 f i main.obj
 0002:000269f0       ??_D?$basic_ostream@DU?$char_traits@D@std@@@std@@QEAAXXZ 00000001400e19f0 f i main.obj
 0002:00026a60       ??_D?$basic_stringstream@DU?$char_traits@D@std@@V?$allocator@D@2@@std@@QEAAXXZ 00000001400e1a60 f i main.obj
 0002:00026ad8       ??_E?$basic_fstream@DU?$char_traits@D@std@@@std@@$4PPPPPPPM@A@EAAPEAXI@Z 00000001400e1ad8 f i main.obj
 0002:00026ae8       ??_E?$basic_ifstream@DU?$char_traits@D@std@@@std@@$4PPPPPPPM@A@EAAPEAXI@Z 00000001400e1ae8 f i main.obj
 0002:00026af8       ??_E?$basic_iostream@DU?$char_traits@D@std@@@std@@$4PPPPPPPM@A@EAAPEAXI@Z 00000001400e1af8 f i main.obj
 0002:00026b08       ??_E?$basic_istream@DU?$char_traits@D@std@@@std@@$4PPPPPPPM@A@EAAPEAXI@Z 00000001400e1b08 f i main.obj
 0002:00026b18       ??_E?$basic_ofstream@DU?$char_traits@D@std@@@std@@$4PPPPPPPM@A@EAAPEAXI@Z 00000001400e1b18 f i main.obj
 0002:00026b28       ??_E?$basic_ostream@DU?$char_traits@D@std@@@std@@$4PPPPPPPM@A@EAAPEAXI@Z 00000001400e1b28 f i main.obj
 0002:00026b38       ??_E?$basic_stringstream@DU?$char_traits@D@std@@V?$allocator@D@2@@std@@$4PPPPPPPM@A@EAAPEAXI@Z 00000001400e1b38 f i main.obj
 0002:00026b50       ??_G?$basic_filebuf@DU?$char_traits@D@std@@@std@@UEAAPEAXI@Z 00000001400e1b50 f i main.obj
 0002:00026b50       ??_E?$basic_filebuf@DU?$char_traits@D@std@@@std@@UEAAPEAXI@Z 00000001400e1b50 f i main.obj
 0002:00026be0       ??_G?$basic_fstream@DU?$char_traits@D@std@@@std@@UEAAPEAXI@Z 00000001400e1be0 f i main.obj
 0002:00026be0       ??_E?$basic_fstream@DU?$char_traits@D@std@@@std@@UEAAPEAXI@Z 00000001400e1be0 f i main.obj
 0002:00026c90       ??_E?$basic_ifstream@DU?$char_traits@D@std@@@std@@UEAAPEAXI@Z 00000001400e1c90 f i main.obj
 0002:00026c90       ??_G?$basic_ifstream@DU?$char_traits@D@std@@@std@@UEAAPEAXI@Z 00000001400e1c90 f i main.obj
 0002:00026d40       ??_G?$basic_ios@DU?$char_traits@D@std@@@std@@UEAAPEAXI@Z 00000001400e1d40 f i main.obj
 0002:00026d40       ??_E?$basic_ios@DU?$char_traits@D@std@@@std@@UEAAPEAXI@Z 00000001400e1d40 f i main.obj
 0002:00026dd0       ??_G?$basic_iostream@DU?$char_traits@D@std@@@std@@UEAAPEAXI@Z 00000001400e1dd0 f i main.obj
 0002:00026dd0       ??_E?$basic_iostream@DU?$char_traits@D@std@@@std@@UEAAPEAXI@Z 00000001400e1dd0 f i main.obj
 0002:00026e70       ??_E?$basic_istream@DU?$char_traits@D@std@@@std@@UEAAPEAXI@Z 00000001400e1e70 f i main.obj
 0002:00026e70       ??_G?$basic_istream@DU?$char_traits@D@std@@@std@@UEAAPEAXI@Z 00000001400e1e70 f i main.obj
 0002:00026f10       ??_E?$basic_ofstream@DU?$char_traits@D@std@@@std@@UEAAPEAXI@Z 00000001400e1f10 f i main.obj
 0002:00026f10       ??_G?$basic_ofstream@DU?$char_traits@D@std@@@std@@UEAAPEAXI@Z 00000001400e1f10 f i main.obj
 0002:00026fc0       ??_G?$basic_ostream@DU?$char_traits@D@std@@@std@@UEAAPEAXI@Z 00000001400e1fc0 f i main.obj
 0002:00026fc0       ??_E?$basic_ostream@DU?$char_traits@D@std@@@std@@UEAAPEAXI@Z 00000001400e1fc0 f i main.obj
 0002:00027060       ??_G?$basic_streambuf@DU?$char_traits@D@std@@@std@@UEAAPEAXI@Z 00000001400e2060 f i main.obj
 0002:00027060       ??_E?$basic_streambuf@DU?$char_traits@D@std@@@std@@UEAAPEAXI@Z 00000001400e2060 f i main.obj
 0002:000270f0       ??_G?$basic_string@DU?$char_traits@D@std@@V?$allocator@D@2@@std@@QEAAPEAXI@Z 00000001400e20f0 f i main.obj
 0002:00027180       ??_G?$basic_stringbuf@DU?$char_traits@D@std@@V?$allocator@D@2@@std@@UEAAPEAXI@Z 00000001400e2180 f i main.obj
 0002:00027180       ??_E?$basic_stringbuf@DU?$char_traits@D@std@@V?$allocator@D@2@@std@@UEAAPEAXI@Z 00000001400e2180 f i main.obj
 0002:00027210       ??_G?$basic_stringstream@DU?$char_traits@D@std@@V?$allocator@D@2@@std@@UEAAPEAXI@Z 00000001400e2210 f i main.obj
 0002:00027210       ??_E?$basic_stringstream@DU?$char_traits@D@std@@V?$allocator@D@2@@std@@UEAAPEAXI@Z 00000001400e2210 f i main.obj
 0002:000272c0       ??_E?$codecvt@DDU_Mbstatet@@@std@@MEAAPEAXI@Z 00000001400e22c0 f i main.obj
 0002:000272c0       ??_G?$codecvt@DDU_Mbstatet@@@std@@MEAAPEAXI@Z 00000001400e22c0 f i main.obj
 0002:00027370       ??_E?$ctype@D@std@@MEAAPEAXI@Z 00000001400e2370 f i main.obj
 0002:00027370       ??_G?$ctype@D@std@@MEAAPEAXI@Z 00000001400e2370 f i main.obj
 0002:00027420       ??_E?$num_put@DV?$ostreambuf_iterator@DU?$char_traits@D@std@@@std@@@std@@MEAAPEAXI@Z 00000001400e2420 f i main.obj
 0002:00027420       ??_G?$num_put@DV?$ostreambuf_iterator@DU?$char_traits@D@std@@@std@@@std@@MEAAPEAXI@Z 00000001400e2420 f i main.obj
 0002:000274d0       ??_E?$numpunct@D@std@@MEAAPEAXI@Z 00000001400e24d0 f i main.obj
 0002:000274d0       ??_G?$numpunct@D@std@@MEAAPEAXI@Z 00000001400e24d0 f i main.obj
 0002:00027580       ??_G?$pair@$$CBV?$basic_string@DU?$char_traits@D@std@@V?$allocator@D@2@@std@@G@std@@QEAAPEAXI@Z 00000001400e2580 f i main.obj
 0002:00027610       ??_G_Facet_base@std@@UEAAPEAXI@Z 00000001400e2610 f i main.obj
 0002:00027610       ??_E_Facet_base@std@@UEAAPEAXI@Z 00000001400e2610 f i main.obj
 0002:000276a0       ??_G_Generic_error_category@std@@UEAAPEAXI@Z 00000001400e26a0 f i main.obj
 0002:000276a0       ??_E_Generic_error_category@std@@UEAAPEAXI@Z 00000001400e26a0 f i main.obj
 0002:00027730       ??_E_Iostream_error_category@std@@UEAAPEAXI@Z 00000001400e2730 f i main.obj
 0002:00027730       ??_G_Iostream_error_category@std@@UEAAPEAXI@Z 00000001400e2730 f i main.obj
 0002:000277c0       ??_E_System_error@std@@UEAAPEAXI@Z 00000001400e27c0 f i main.obj
 0002:000277c0       ??_G_System_error@std@@UEAAPEAXI@Z 00000001400e27c0 f i main.obj
 0002:00027850       ??_Gbad_cast@std@@UEAAPEAXI@Z 00000001400e2850 f i main.obj
 0002:00027850       ??_Ebad_cast@std@@UEAAPEAXI@Z 00000001400e2850 f i main.obj
 0002:000278e0       ??_Gcodecvt_base@std@@UEAAPEAXI@Z 00000001400e28e0 f i main.obj
 0002:000278e0       ??_Ecodecvt_base@std@@UEAAPEAXI@Z 00000001400e28e0 f i main.obj
 0002:00027990       ??_Ectype_base@std@@UEAAPEAXI@Z 00000001400e2990 f i main.obj
 0002:00027990       ??_Gctype_base@std@@UEAAPEAXI@Z 00000001400e2990 f i main.obj
 0002:00027a40       ??_Eerror_category@std@@UEAAPEAXI@Z 00000001400e2a40 f i main.obj
 0002:00027a40       ??_Gerror_category@std@@UEAAPEAXI@Z 00000001400e2a40 f i main.obj
 0002:00027ad0       ??_Gexception@std@@UEAAPEAXI@Z 00000001400e2ad0 f i main.obj
 0002:00027ad0       ??_Eexception@std@@UEAAPEAXI@Z 00000001400e2ad0 f i main.obj
 0002:00027b60       ??_Efacet@locale@std@@MEAAPEAXI@Z 00000001400e2b60 f i main.obj
 0002:00027b60       ??_Gfacet@locale@std@@MEAAPEAXI@Z 00000001400e2b60 f i main.obj
 0002:00027c10       ??_Gfailure@ios_base@std@@UEAAPEAXI@Z 00000001400e2c10 f i main.obj
 0002:00027c10       ??_Efailure@ios_base@std@@UEAAPEAXI@Z 00000001400e2c10 f i main.obj
 0002:00027ca0       ??_Eios_base@std@@UEAAPEAXI@Z 00000001400e2ca0 f i main.obj
 0002:00027ca0       ??_Gios_base@std@@UEAAPEAXI@Z 00000001400e2ca0 f i main.obj
 0002:00027d30       ??_Glocale@std@@QEAAPEAXI@Z 00000001400e2d30 f i main.obj
 0002:00027de0       ??_Gruntime_error@std@@UEAAPEAXI@Z 00000001400e2de0 f i main.obj
 0002:00027de0       ??_Eruntime_error@std@@UEAAPEAXI@Z 00000001400e2de0 f i main.obj
 0002:00027e70       ??_Esystem_error@std@@UEAAPEAXI@Z 00000001400e2e70 f i main.obj
 0002:00027e70       ??_Gsystem_error@std@@UEAAPEAXI@Z 00000001400e2e70 f i main.obj
 0002:00027f00       ?Change_Col@@YAXAEBH@Z     00000001400e2f00 f   main.obj
 0002:00027f70       ?Czy_Kontynuowa@@YA_NAEBH@Z 00000001400e2f70 f   main.obj
 0002:00028260       ?Hide_Cursor@@YAXXZ        00000001400e3260 f   main.obj
 0002:00028310       ?Inicjacje_Pocztkowe@@YAXXZ 00000001400e3310 f   main.obj
 0002:000283c0       ?Koniec_Gry@@YAXAEAV?$basic_ofstream@DU?$char_traits@D@std@@@std@@AEAV?$basic_fstream@DU?$char_traits@D@std@@@2@AEBH@Z 00000001400e33c0 f   main.obj
 0002:00028780       ?Obstaw@@YA?AV?$basic_string@DU?$char_traits@D@std@@V?$allocator@D@2@@std@@XZ 00000001400e3780 f   main.obj
 0002:000291b0       ?Odczytaj_Liczb@@YAXAEBHAEBV?$basic_string@DU?$char_traits@D@std@@V?$allocator@D@2@@std@@@Z 00000001400e41b0 f   main.obj
 0002:00029a00       ?Ogo_Wynik@@YAXAEBH0AEAHAEAV?$basic_ofstream@DU?$char_traits@D@std@@@std@@AEAV?$basic_fstream@DU?$char_traits@D@std@@@2@@Z 00000001400e4a00 f   main.obj
 0002:0002a170       ?Przenie_Plik@@YA_NAEBV?$basic_string@DU?$char_traits@D@std@@V?$allocator@D@2@@std@@0@Z 00000001400e5170 f   main.obj
 0002:0002a220       ?Ptla_Gwna@@YAXAEAH00AEAV?$basic_ofstream@DU?$char_traits@D@std@@@std@@AEAV?$basic_fstream@DU?$char_traits@D@std@@@2@AEADAEAV?$basic_string@DU?$char_traits@D@std@@V?$allocator@D@2@@2@0@Z 00000001400e5220 f   main.obj
 0002:0002aa20       ?Show_Cursor@@YAXXZ        00000001400e5a20 f   main.obj
 0002:0002aae0       ?Sprawd_Pliki@@YAXXZ      00000001400e5ae0 f   main.obj
 0002:0002e7e0       ?Sprawd_Ustawienia@@YAXXZ 00000001400e97e0 f   main.obj
 0002:0002f240       ?Sprawd_Zakad@@YAHAEBHAEBV?$basic_string@DU?$char_traits@D@std@@V?$allocator@D@2@@std@@0@Z 00000001400ea240 f   main.obj
 0002:0002f880       ?Ustaw_Ustawienia@@YAXAEAV?$basic_string@DU?$char_traits@D@std@@V?$allocator@D@2@@std@@@Z 00000001400ea880 f   main.obj
 0002:00030630       ?Usu_Folder_Wypakowany_i_Winrar@@YAXAEBV?$basic_string@DU?$char_traits@D@std@@V?$allocator@D@2@@std@@@Z 00000001400eb630 f   main.obj
 0002:00030e10       ?Wczytaj_Kwot_Zakadu@@YAXAEAHAEBH@Z 00000001400ebe10 f   main.obj
 0002:00031170       ?Wczytaj_z_Pliku@@YAXAEAV?$basic_ofstream@DU?$char_traits@D@std@@@std@@AEAV?$basic_fstream@DU?$char_traits@D@std@@@2@AEADAEAH33AEAV?$basic_string@DU?$char_traits@D@std@@V?$allocator@D@2@@2@@Z 00000001400ec170 f   main.obj
 0002:00032530       ?Wycignij_z_Programu@@YA_NAEBV?$basic_string@DU?$char_traits@D@std@@V?$allocator@D@2@@std@@G@Z 00000001400ed530 f   main.obj
 0002:000326f0       ?Wylosuj@@YAHAEBH0@Z       00000001400ed6f0 f   main.obj
 0002:00032880       ?Wypakuj_Rar@@YAXAEBV?$basic_string@DU?$char_traits@D@std@@V?$allocator@D@2@@std@@@Z 00000001400ed880 f   main.obj
 0002:00032980       ?Wypakuj_Wszystkie_Gosy@@YAXXZ 00000001400ed980 f   main.obj
 0002:00032a30       ?Zakr_Ruletk@@YAHXZ     00000001400eda30 f   main.obj
 0002:00032e80       ?_Adjust@?$uniform_int@H@std@@CAII@Z 00000001400ede80 f i main.obj
 0002:00032ee0       ?_Adjust@?$uniform_int@H@std@@CAIIU?$integral_constant@_N$00@2@@Z 00000001400edee0 f i main.obj
 0002:00032f60       ?_Adopt@_Iterator_base12@std@@QEAAXPEBU_Container_base12@2@@Z 00000001400edf60 f i main.obj
 0002:000330d0       ?_Alloc_proxy@?$_Deque_alloc@U?$_Deque_base_types@GV?$allocator@G@std@@@std@@@std@@QEAAXXZ 00000001400ee0d0 f i main.obj
 0002:00033230       ?_Alloc_proxy@?$_String_alloc@U?$_String_base_types@DV?$allocator@D@std@@@std@@@std@@QEAAXXZ 00000001400ee230 f i main.obj
 0002:00033390       ?_Alloc_proxy@?$_Tree_comp_alloc@V?$_Tmap_traits@V?$basic_string@DU?$char_traits@D@std@@V?$allocator@D@2@@std@@GU?$less@V?$basic_string@DU?$char_traits@D@std@@V?$allocator@D@2@@std@@@2@V?$allocator@U?$pair@$$CBV?$basic_string@DU?$char_traits@D@std@@V?$allocator@D@2@@std@@G@std@@@2@$0A@@std@@@std@@QEAAXXZ 00000001400ee390 f i main.obj
 0002:000334f0       ?_Alloc_proxy@?$_Vector_alloc@U?$_Vec_base_types@V?$basic_string@DU?$char_traits@D@std@@V?$allocator@D@2@@std@@V?$allocator@V?$basic_string@DU?$char_traits@D@std@@V?$allocator@D@2@@std@@@2@@std@@@std@@QEAAXXZ 00000001400ee4f0 f i main.obj
 0002:00033650       ?_Assign_rv_contents@?$basic_string@DU?$char_traits@D@std@@V?$allocator@D@2@@std@@QEAAX$$QEAV12@U?$integral_constant@_N$00@2@@Z 00000001400ee650 f i main.obj
 0002:000336f0       ?_Assign_rv_contents_with_alloc_always_equal@?$basic_string@DU?$char_traits@D@std@@V?$allocator@D@2@@std@@QEAAX$$QEAV12@U?$integral_constant@_N$00@2@@Z 00000001400ee6f0 f i main.obj
 0002:000337f0       ?_Become_small@?$basic_string@DU?$char_traits@D@std@@V?$allocator@D@2@@std@@QEAAXXZ 00000001400ee7f0 f i main.obj
 0002:00033910       ?_Buy@?$vector@V?$basic_string@DU?$char_traits@D@std@@V?$allocator@D@2@@std@@V?$allocator@V?$basic_string@DU?$char_traits@D@std@@V?$allocator@D@2@@std@@@2@@std@@AEAA_N_K@Z 00000001400ee910 f i main.obj
 0002:00033aa0       ?_Buyheadnode@?$_Tree_comp_alloc@V?$_Tmap_traits@V?$basic_string@DU?$char_traits@D@std@@V?$allocator@D@2@@std@@GU?$less@V?$basic_string@DU?$char_traits@D@std@@V?$allocator@D@2@@std@@@2@V?$allocator@U?$pair@$$CBV?$basic_string@DU?$char_traits@D@std@@V?$allocator@D@2@@std@@G@std@@@2@$0A@@std@@@std@@QEAAPEAU?$_Tree_node@U?$pair@$$CBV?$basic_string@DU?$char_traits@D@std@@V?$allocator@D@2@@std@@G@std@@PEAX@2@XZ 00000001400eeaa0 f i main.obj
 0002:00033bf0       ?_Buynode0@?$_Tree_comp_alloc@V?$_Tmap_traits@V?$basic_string@DU?$char_traits@D@std@@V?$allocator@D@2@@std@@GU?$less@V?$basic_string@DU?$char_traits@D@std@@V?$allocator@D@2@@std@@@2@V?$allocator@U?$pair@$$CBV?$basic_string@DU?$char_traits@D@std@@V?$allocator@D@2@@std@@G@std@@@2@$0A@@std@@@std@@QEAAPEAU?$_Tree_node@U?$pair@$$CBV?$basic_string@DU?$char_traits@D@std@@V?$allocator@D@2@@std@@G@std@@PEAX@2@XZ 00000001400eebf0 f i main.obj
 0002:00033d40       ?_Calculate_growth@?$basic_string@DU?$char_traits@D@std@@V?$allocator@D@2@@std@@QEBA_K_K@Z 00000001400eed40 f i main.obj
 0002:00033ea0       ?_Check_offset@?$_String_val@U?$_Simple_types@D@std@@@std@@QEBAX_K@Z 00000001400eeea0 f i main.obj
 0002:00033f10       ?_Clamp_suffix_size@?$_String_val@U?$_Simple_types@D@std@@@std@@QEBA_K_K0@Z 00000001400eef10 f i main.obj
 0002:00033fa0       ?_Clrcont@_Iterator_base12@std@@QEAAXXZ 00000001400eefa0 f i main.obj
 0002:00033ff0       ?_Compare@?$_Tree@V?$_Tmap_traits@V?$basic_string@DU?$char_traits@D@std@@V?$allocator@D@2@@std@@GU?$less@V?$basic_string@DU?$char_traits@D@std@@V?$allocator@D@2@@std@@@2@V?$allocator@U?$pair@$$CBV?$basic_string@DU?$char_traits@D@std@@V?$allocator@D@2@@std@@G@std@@@2@$0A@@std@@@std@@IEBA_NAEBV?$basic_string@DU?$char_traits@D@std@@V?$allocator@D@2@@2@0@Z 00000001400eeff0 f i main.obj
 0002:00034080       ?_Construct@?$_Tree_comp_alloc@V?$_Tmap_traits@V?$basic_string@DU?$char_traits@D@std@@V?$allocator@D@2@@std@@GU?$less@V?$basic_string@DU?$char_traits@D@std@@V?$allocator@D@2@@std@@@2@V?$allocator@U?$pair@$$CBV?$basic_string@DU?$char_traits@D@std@@V?$allocator@D@2@@std@@G@std@@@2@$0A@@std@@@std@@QEAAXXZ 00000001400ef080 f i main.obj
 0002:00034120       ?_Construct_lv_contents@?$basic_string@DU?$char_traits@D@std@@V?$allocator@D@2@@std@@QEAAXAEBV12@@Z 00000001400ef120 f i main.obj
 0002:00034360       ?_Copy_alloc@?$_String_alloc@U?$_String_base_types@DV?$allocator@D@std@@@std@@@std@@QEAAXAEBV?$allocator@D@2@@Z 00000001400ef360 f i main.obj
 0002:00034400       ?_Deallocate@std@@YAXPEAX_K1_K@Z 00000001400ef400 f i main.obj
 0002:00034660       ?_Decref@facet@locale@std@@UEAAPEAV_Facet_base@3@XZ 00000001400ef660 f i main.obj
 0002:000346e0       ?_Destroy@?$vector@V?$basic_string@DU?$char_traits@D@std@@V?$allocator@D@2@@std@@V?$allocator@V?$basic_string@DU?$char_traits@D@std@@V?$allocator@D@2@@std@@@2@@std@@AEAAXPEAV?$basic_string@DU?$char_traits@D@std@@V?$allocator@D@2@@2@0@Z 00000001400ef6e0 f i main.obj
 0002:00034760       ?_Destroy_if_node@?$_Tree@V?$_Tmap_traits@V?$basic_string@DU?$char_traits@D@std@@V?$allocator@D@2@@std@@GU?$less@V?$basic_string@DU?$char_traits@D@std@@V?$allocator@D@2@@std@@@2@V?$allocator@U?$pair@$$CBV?$basic_string@DU?$char_traits@D@std@@V?$allocator@D@2@@std@@G@std@@@2@$0A@@std@@@std@@IEAAXPEAU?$_Tree_node@U?$pair@$$CBV?$basic_string@DU?$char_traits@D@std@@V?$allocator@D@2@@std@@G@std@@PEAX@2@@Z 00000001400ef760 f i main.obj
 0002:00034800       ?_Endwrite@?$basic_filebuf@DU?$char_traits@D@std@@@std@@IEAA_NXZ 00000001400ef800 f i main.obj
 0002:00034ce0       ?_Eos@?$basic_string@DU?$char_traits@D@std@@V?$allocator@D@2@@std@@QEAAX_K@Z 00000001400efce0 f i main.obj
 0002:00034d80       ?_Equal@?$basic_string@DU?$char_traits@D@std@@V?$allocator@D@2@@std@@QEBA_NQEBD@Z 00000001400efd80 f i main.obj
 0002:00034e40       ?_Erase@?$_Tree@V?$_Tmap_traits@V?$basic_string@DU?$char_traits@D@std@@V?$allocator@D@2@@std@@GU?$less@V?$basic_string@DU?$char_traits@D@std@@V?$allocator@D@2@@std@@@2@V?$allocator@U?$pair@$$CBV?$basic_string@DU?$char_traits@D@std@@V?$allocator@D@2@@std@@G@std@@@2@$0A@@std@@@std@@IEAAXPEAU?$_Tree_node@U?$pair@$$CBV?$basic_string@DU?$char_traits@D@std@@V?$allocator@D@2@@std@@G@std@@PEAX@2@@Z 00000001400efe40 f i main.obj
 0002:00034f30       ?_Extract@?$_Tree@V?$_Tmap_traits@V?$basic_string@DU?$char_traits@D@std@@V?$allocator@D@2@@std@@GU?$less@V?$basic_string@DU?$char_traits@D@std@@V?$allocator@D@2@@std@@@2@V?$allocator@U?$pair@$$CBV?$basic_string@DU?$char_traits@D@std@@V?$allocator@D@2@@std@@G@std@@@2@$0A@@std@@@std@@QEAAPEAU?$_Tree_node@U?$pair@$$CBV?$basic_string@DU?$char_traits@D@std@@V?$allocator@D@2@@std@@G@std@@PEAX@2@V?$_Tree_const_iterator@V?$_Tree_val@U?$_Tree_simple_types@U?$pair@$$CBV?$basic_string@DU?$char_traits@D@std@@V?$allocator@D@2@@std@@G@std@@@std@@@std@@@2@@Z 00000001400eff30 f i main.obj
 0002:00035710       ?_Fail@?$_Default_allocate_traits@$00@std@@SAXXZ 00000001400f0710 f i main.obj
 0002:00035750       ?_Ffmt@?$num_put@DV?$ostreambuf_iterator@DU?$char_traits@D@std@@@std@@@std@@AEBAPEADPEADDH@Z 00000001400f0750 f i main.obj
 0002:000359c0       ?_Fput@?$num_put@DV?$ostreambuf_iterator@DU?$char_traits@D@std@@@std@@@std@@AEBA?AV?$ostreambuf_iterator@DU?$char_traits@D@std@@@2@V32@AEAVios_base@2@DPEBD_K@Z 00000001400f09c0 f i main.obj
 0002:00036380       ?_Free_proxy@?$_Deque_alloc@U?$_Deque_base_types@GV?$allocator@G@std@@@std@@@std@@QEAAXXZ 00000001400f1380 f i main.obj
 0002:00036480       ?_Free_proxy@?$_String_alloc@U?$_String_base_types@DV?$allocator@D@std@@@std@@@std@@QEAAXXZ 00000001400f1480 f i main.obj
 0002:00036580       ?_Free_proxy@?$_Tree_comp_alloc@V?$_Tmap_traits@V?$basic_string@DU?$char_traits@D@std@@V?$allocator@D@2@@std@@GU?$less@V?$basic_string@DU?$char_traits@D@std@@V?$allocator@D@2@@std@@@2@V?$allocator@U?$pair@$$CBV?$basic_string@DU?$char_traits@D@std@@V?$allocator@D@2@@std@@G@std@@@2@$0A@@std@@@std@@QEAAXXZ 00000001400f1580 f i main.obj
 0002:00036680       ?_Free_proxy@?$_Vector_alloc@U?$_Vec_base_types@V?$basic_string@DU?$char_traits@D@std@@V?$allocator@D@2@@std@@V?$allocator@V?$basic_string@DU?$char_traits@D@std@@V?$allocator@D@2@@std@@@2@@std@@@std@@QEAAXXZ 00000001400f1680 f i main.obj
 0002:00036780       ?_Freeheadnode@?$_Tree_comp_alloc@V?$_Tmap_traits@V?$basic_string@DU?$char_traits@D@std@@V?$allocator@D@2@@std@@GU?$less@V?$basic_string@DU?$char_traits@D@std@@V?$allocator@D@2@@std@@@2@V?$allocator@U?$pair@$$CBV?$basic_string@DU?$char_traits@D@std@@V?$allocator@D@2@@std@@G@std@@@2@$0A@@std@@@std@@QEAAXPEAU?$_Tree_node@U?$pair@$$CBV?$basic_string@DU?$char_traits@D@std@@V?$allocator@D@2@@std@@G@std@@PEAX@2@@Z 00000001400f1780 f i main.obj
 0002:000367f0       ?_Freenode0@?$_Tree_comp_alloc@V?$_Tmap_traits@V?$basic_string@DU?$char_traits@D@std@@V?$allocator@D@2@@std@@GU?$less@V?$basic_string@DU?$char_traits@D@std@@V?$allocator@D@2@@std@@@2@V?$allocator@U?$pair@$$CBV?$basic_string@DU?$char_traits@D@std@@V?$allocator@D@2@@std@@G@std@@@2@$0A@@std@@@std@@QEAAXPEAU?$_Tree_node@U?$pair@$$CBV?$basic_string@DU?$char_traits@D@std@@V?$allocator@D@2@@std@@G@std@@PEAX@2@@Z 00000001400f17f0 f i main.obj
 0002:00036860       ?_Get_all_bits@?$_Rng_from_urng@IVrandom_device@std@@@std@@QEAAIXZ 00000001400f1860 f i main.obj
 0002:00036930       ?_Get_bits@?$_Rng_from_urng@IVrandom_device@std@@@std@@AEAAIXZ 00000001400f1930 f i main.obj
 0002:000369c0       ?_Get_bytes@?$_Default_allocate_traits@$00@std@@SAPEAX_K0@Z 00000001400f19c0 f i main.obj
 0002:00036b00       ?_Get_data@?$_Deque_alloc@U?$_Deque_base_types@GV?$allocator@G@std@@@std@@@std@@QEAAAEAV?$_Deque_val@U?$_Deque_simple_types@G@std@@@2@XZ 00000001400f1b00 f i main.obj
 0002:00036b60       ?_Get_data@?$_Deque_alloc@U?$_Deque_base_types@GV?$allocator@G@std@@@std@@@std@@QEBAAEBV?$_Deque_val@U?$_Deque_simple_types@G@std@@@2@XZ 00000001400f1b60 f i main.obj
 0002:00036bc0       ?_Get_data@?$_String_alloc@U?$_String_base_types@DV?$allocator@D@std@@@std@@@std@@QEAAAEAV?$_String_val@U?$_Simple_types@D@std@@@2@XZ 00000001400f1bc0 f i main.obj
 0002:00036c20       ?_Get_data@?$_String_alloc@U?$_String_base_types@DV?$allocator@D@std@@@std@@@std@@QEBAAEBV?$_String_val@U?$_Simple_types@D@std@@@2@XZ 00000001400f1c20 f i main.obj
 0002:00036c80       ?_Get_data@?$_Tree_comp_alloc@V?$_Tmap_traits@V?$basic_string@DU?$char_traits@D@std@@V?$allocator@D@2@@std@@GU?$less@V?$basic_string@DU?$char_traits@D@std@@V?$allocator@D@2@@std@@@2@V?$allocator@U?$pair@$$CBV?$basic_string@DU?$char_traits@D@std@@V?$allocator@D@2@@std@@G@std@@@2@$0A@@std@@@std@@QEAAAEAV?$_Tree_val@U?$_Tree_simple_types@U?$pair@$$CBV?$basic_string@DU?$char_traits@D@std@@V?$allocator@D@2@@std@@G@std@@@std@@@2@XZ 00000001400f1c80 f i main.obj
 0002:00036ce0       ?_Get_data@?$_Tree_comp_alloc@V?$_Tmap_traits@V?$basic_string@DU?$char_traits@D@std@@V?$allocator@D@2@@std@@GU?$less@V?$basic_string@DU?$char_traits@D@std@@V?$allocator@D@2@@std@@@2@V?$allocator@U?$pair@$$CBV?$basic_string@DU?$char_traits@D@std@@V?$allocator@D@2@@std@@G@std@@@2@$0A@@std@@@std@@QEBAAEBV?$_Tree_val@U?$_Tree_simple_types@U?$pair@$$CBV?$basic_string@DU?$char_traits@D@std@@V?$allocator@D@2@@std@@G@std@@@std@@@2@XZ 00000001400f1ce0 f i main.obj
 0002:00036d40       ?_Get_data@?$_Vector_alloc@U?$_Vec_base_types@V?$basic_string@DU?$char_traits@D@std@@V?$allocator@D@2@@std@@V?$allocator@V?$basic_string@DU?$char_traits@D@std@@V?$allocator@D@2@@std@@@2@@std@@@std@@QEAAAEAV?$_Vector_val@U?$_Simple_types@V?$basic_string@DU?$char_traits@D@std@@V?$allocator@D@2@@std@@@std@@@2@XZ 00000001400f1d40 f i main.obj
 0002:00036da0       ?_Get_data@?$_Vector_alloc@U?$_Vec_base_types@V?$basic_string@DU?$char_traits@D@std@@V?$allocator@D@2@@std@@V?$allocator@V?$basic_string@DU?$char_traits@D@std@@V?$allocator@D@2@@std@@@2@@std@@@std@@QEBAAEBV?$_Vector_val@U?$_Simple_types@V?$basic_string@DU?$char_traits@D@std@@V?$allocator@D@2@@std@@@std@@@2@XZ 00000001400f1da0 f i main.obj
 0002:00036e00       ?_Get_first@?$_Compressed_pair@U?$less@V?$basic_string@DU?$char_traits@D@std@@V?$allocator@D@2@@std@@@std@@V?$_Compressed_pair@V?$allocator@U?$_Tree_node@U?$pair@$$CBV?$basic_string@DU?$char_traits@D@std@@V?$allocator@D@2@@std@@G@std@@PEAX@std@@@std@@V?$_Tree_val@U?$_Tree_simple_types@U?$pair@$$CBV?$basic_string@DU?$char_traits@D@std@@V?$allocator@D@2@@std@@G@std@@@std@@@2@$00@2@$00@std@@QEAAAEAU?$less@V?$basic_string@DU?$char_traits@D@std@@V?$allocator@D@2@@std@@@2@XZ 00000001400f1e00 f i main.obj
 0002:00036e50       ?_Get_first@?$_Compressed_pair@U?$less@V?$basic_string@DU?$char_traits@D@std@@V?$allocator@D@2@@std@@@std@@V?$_Compressed_pair@V?$allocator@U?$_Tree_node@U?$pair@$$CBV?$basic_string@DU?$char_traits@D@std@@V?$allocator@D@2@@std@@G@std@@PEAX@std@@@std@@V?$_Tree_val@U?$_Tree_simple_types@U?$pair@$$CBV?$basic_string@DU?$char_traits@D@std@@V?$allocator@D@2@@std@@G@std@@@std@@@2@$00@2@$00@std@@QEBAAEBU?$less@V?$basic_string@DU?$char_traits@D@std@@V?$allocator@D@2@@std@@@2@XZ 00000001400f1e50 f i main.obj
 0002:00036ea0       ?_Get_first@?$_Compressed_pair@V?$allocator@D@std@@V?$_String_val@U?$_Simple_types@D@std@@@2@$00@std@@QEAAAEAV?$allocator@D@2@XZ 00000001400f1ea0 f i main.obj
 0002:00036ef0       ?_Get_first@?$_Compressed_pair@V?$allocator@D@std@@V?$_String_val@U?$_Simple_types@D@std@@@2@$00@std@@QEBAAEBV?$allocator@D@2@XZ 00000001400f1ef0 f i main.obj
 0002:00036f40       ?_Get_first@?$_Compressed_pair@V?$allocator@G@std@@V?$_Deque_val@U?$_Deque_simple_types@G@std@@@2@$00@std@@QEAAAEAV?$allocator@G@2@XZ 00000001400f1f40 f i main.obj
 0002:00036f90       ?_Get_first@?$_Compressed_pair@V?$allocator@G@std@@V?$_Deque_val@U?$_Deque_simple_types@G@std@@@2@$00@std@@QEBAAEBV?$allocator@G@2@XZ 00000001400f1f90 f i main.obj
 0002:00036fe0       ?_Get_first@?$_Compressed_pair@V?$allocator@U?$_Tree_node@U?$pair@$$CBV?$basic_string@DU?$char_traits@D@std@@V?$allocator@D@2@@std@@G@std@@PEAX@std@@@std@@V?$_Tree_val@U?$_Tree_simple_types@U?$pair@$$CBV?$basic_string@DU?$char_traits@D@std@@V?$allocator@D@2@@std@@G@std@@@std@@@2@$00@std@@QEAAAEAV?$allocator@U?$_Tree_node@U?$pair@$$CBV?$basic_string@DU?$char_traits@D@std@@V?$allocator@D@2@@std@@G@std@@PEAX@std@@@2@XZ 00000001400f1fe0 f i main.obj
 0002:00037030       ?_Get_first@?$_Compressed_pair@V?$allocator@U?$_Tree_node@U?$pair@$$CBV?$basic_string@DU?$char_traits@D@std@@V?$allocator@D@2@@std@@G@std@@PEAX@std@@@std@@V?$_Tree_val@U?$_Tree_simple_types@U?$pair@$$CBV?$basic_string@DU?$char_traits@D@std@@V?$allocator@D@2@@std@@G@std@@@std@@@2@$00@std@@QEBAAEBV?$allocator@U?$_Tree_node@U?$pair@$$CBV?$basic_string@DU?$char_traits@D@std@@V?$allocator@D@2@@std@@G@std@@PEAX@std@@@2@XZ 00000001400f2030 f i main.obj
 0002:00037080       ?_Get_first@?$_Compressed_pair@V?$allocator@V?$basic_string@DU?$char_traits@D@std@@V?$allocator@D@2@@std@@@std@@V?$_Vector_val@U?$_Simple_types@V?$basic_string@DU?$char_traits@D@std@@V?$allocator@D@2@@std@@@std@@@2@$00@std@@QEAAAEAV?$allocator@V?$basic_string@DU?$char_traits@D@std@@V?$allocator@D@2@@std@@@2@XZ 00000001400f2080 f i main.obj
 0002:000370d0       ?_Get_first@?$_Compressed_pair@V?$allocator@V?$basic_string@DU?$char_traits@D@std@@V?$allocator@D@2@@std@@@std@@V?$_Vector_val@U?$_Simple_types@V?$basic_string@DU?$char_traits@D@std@@V?$allocator@D@2@@std@@@std@@@2@$00@std@@QEBAAEBV?$allocator@V?$basic_string@DU?$char_traits@D@std@@V?$allocator@D@2@@std@@@2@XZ 00000001400f20d0 f i main.obj
 0002:00037120       ?_Get_second@?$_Compressed_pair@U?$less@V?$basic_string@DU?$char_traits@D@std@@V?$allocator@D@2@@std@@@std@@V?$_Compressed_pair@V?$allocator@U?$_Tree_node@U?$pair@$$CBV?$basic_string@DU?$char_traits@D@std@@V?$allocator@D@2@@std@@G@std@@PEAX@std@@@std@@V?$_Tree_val@U?$_Tree_simple_types@U?$pair@$$CBV?$basic_string@DU?$char_traits@D@std@@V?$allocator@D@2@@std@@G@std@@@std@@@2@$00@2@$00@std@@QEAAAEAV?$_Compressed_pair@V?$allocator@U?$_Tree_node@U?$pair@$$CBV?$basic_string@DU?$char_traits@D@std@@V?$allocator@D@2@@std@@G@std@@PEAX@std@@@std@@V?$_Tree_val@U?$_Tree_simple_types@U?$pair@$$CBV?$basic_string@DU?$char_traits@D@std@@V?$allocator@D@2@@std@@G@std@@@std@@@2@$00@2@XZ 00000001400f2120 f i main.obj
 0002:00037170       ?_Get_second@?$_Compressed_pair@U?$less@V?$basic_string@DU?$char_traits@D@std@@V?$allocator@D@2@@std@@@std@@V?$_Compressed_pair@V?$allocator@U?$_Tree_node@U?$pair@$$CBV?$basic_string@DU?$char_traits@D@std@@V?$allocator@D@2@@std@@G@std@@PEAX@std@@@std@@V?$_Tree_val@U?$_Tree_simple_types@U?$pair@$$CBV?$basic_string@DU?$char_traits@D@std@@V?$allocator@D@2@@std@@G@std@@@std@@@2@$00@2@$00@std@@QEBAAEBV?$_Compressed_pair@V?$allocator@U?$_Tree_node@U?$pair@$$CBV?$basic_string@DU?$char_traits@D@std@@V?$allocator@D@2@@std@@G@std@@PEAX@std@@@std@@V?$_Tree_val@U?$_Tree_simple_types@U?$pair@$$CBV?$basic_string@DU?$char_traits@D@std@@V?$allocator@D@2@@std@@G@std@@@std@@@2@$00@2@XZ 00000001400f2170 f i main.obj
 0002:000371c0       ?_Get_second@?$_Compressed_pair@V?$allocator@D@std@@V?$_String_val@U?$_Simple_types@D@std@@@2@$00@std@@QEAAAEAV?$_String_val@U?$_Simple_types@D@std@@@2@XZ 00000001400f21c0 f i main.obj
 0002:00037210       ?_Get_second@?$_Compressed_pair@V?$allocator@D@std@@V?$_String_val@U?$_Simple_types@D@std@@@2@$00@std@@QEBAAEBV?$_String_val@U?$_Simple_types@D@std@@@2@XZ 00000001400f2210 f i main.obj
 0002:00037260       ?_Get_second@?$_Compressed_pair@V?$allocator@G@std@@V?$_Deque_val@U?$_Deque_simple_types@G@std@@@2@$00@std@@QEAAAEAV?$_Deque_val@U?$_Deque_simple_types@G@std@@@2@XZ 00000001400f2260 f i main.obj
 0002:000372b0       ?_Get_second@?$_Compressed_pair@V?$allocator@G@std@@V?$_Deque_val@U?$_Deque_simple_types@G@std@@@2@$00@std@@QEBAAEBV?$_Deque_val@U?$_Deque_simple_types@G@std@@@2@XZ 00000001400f22b0 f i main.obj
 0002:00037300       ?_Get_second@?$_Compressed_pair@V?$allocator@U?$_Tree_node@U?$pair@$$CBV?$basic_string@DU?$char_traits@D@std@@V?$allocator@D@2@@std@@G@std@@PEAX@std@@@std@@V?$_Tree_val@U?$_Tree_simple_types@U?$pair@$$CBV?$basic_string@DU?$char_traits@D@std@@V?$allocator@D@2@@std@@G@std@@@std@@@2@$00@std@@QEAAAEAV?$_Tree_val@U?$_Tree_simple_types@U?$pair@$$CBV?$basic_string@DU?$char_traits@D@std@@V?$allocator@D@2@@std@@G@std@@@std@@@2@XZ 00000001400f2300 f i main.obj
 0002:00037350       ?_Get_second@?$_Compressed_pair@V?$allocator@U?$_Tree_node@U?$pair@$$CBV?$basic_string@DU?$char_traits@D@std@@V?$allocator@D@2@@std@@G@std@@PEAX@std@@@std@@V?$_Tree_val@U?$_Tree_simple_types@U?$pair@$$CBV?$basic_string@DU?$char_traits@D@std@@V?$allocator@D@2@@std@@G@std@@@std@@@2@$00@std@@QEBAAEBV?$_Tree_val@U?$_Tree_simple_types@U?$pair@$$CBV?$basic_string@DU?$char_traits@D@std@@V?$allocator@D@2@@std@@G@std@@@std@@@2@XZ 00000001400f2350 f i main.obj
 0002:000373a0       ?_Get_second@?$_Compressed_pair@V?$allocator@V?$basic_string@DU?$char_traits@D@std@@V?$allocator@D@2@@std@@@std@@V?$_Vector_val@U?$_Simple_types@V?$basic_string@DU?$char_traits@D@std@@V?$allocator@D@2@@std@@@std@@@2@$00@std@@QEAAAEAV?$_Vector_val@U?$_Simple_types@V?$basic_string@DU?$char_traits@D@std@@V?$allocator@D@2@@std@@@std@@@2@XZ 00000001400f23a0 f i main.obj
 0002:000373f0       ?_Get_second@?$_Compressed_pair@V?$allocator@V?$basic_string@DU?$char_traits@D@std@@V?$allocator@D@2@@std@@@std@@V?$_Vector_val@U?$_Simple_types@V?$basic_string@DU?$char_traits@D@std@@V?$allocator@D@2@@std@@@std@@@2@$00@std@@QEBAAEBV?$_Vector_val@U?$_Simple_types@V?$basic_string@DU?$char_traits@D@std@@V?$allocator@D@2@@std@@@std@@@2@XZ 00000001400f23f0 f i main.obj
 0002:00037440       ?_Getal@?$_Deque_alloc@U?$_Deque_base_types@GV?$allocator@G@std@@@std@@@std@@QEAAAEAV?$allocator@G@2@XZ 00000001400f2440 f i main.obj
 0002:000374a0       ?_Getal@?$_Deque_alloc@U?$_Deque_base_types@GV?$allocator@G@std@@@std@@@std@@QEBAAEBV?$allocator@G@2@XZ 00000001400f24a0 f i main.obj
 0002:00037500       ?_Getal@?$_String_alloc@U?$_String_base_types@DV?$allocator@D@std@@@std@@@std@@QEAAAEAV?$allocator@D@2@XZ 00000001400f2500 f i main.obj
 0002:00037560       ?_Getal@?$_String_alloc@U?$_String_base_types@DV?$allocator@D@std@@@std@@@std@@QEBAAEBV?$allocator@D@2@XZ 00000001400f2560 f i main.obj
 0002:000375c0       ?_Getal@?$_Tree_comp_alloc@V?$_Tmap_traits@V?$basic_string@DU?$char_traits@D@std@@V?$allocator@D@2@@std@@GU?$less@V?$basic_string@DU?$char_traits@D@std@@V?$allocator@D@2@@std@@@2@V?$allocator@U?$pair@$$CBV?$basic_string@DU?$char_traits@D@std@@V?$allocator@D@2@@std@@G@std@@@2@$0A@@std@@@std@@QEAAAEAV?$allocator@U?$_Tree_node@U?$pair@$$CBV?$basic_string@DU?$char_traits@D@std@@V?$allocator@D@2@@std@@G@std@@PEAX@std@@@2@XZ 00000001400f25c0 f i main.obj
 0002:00037620       ?_Getal@?$_Tree_comp_alloc@V?$_Tmap_traits@V?$basic_string@DU?$char_traits@D@std@@V?$allocator@D@2@@std@@GU?$less@V?$basic_string@DU?$char_traits@D@std@@V?$allocator@D@2@@std@@@2@V?$allocator@U?$pair@$$CBV?$basic_string@DU?$char_traits@D@std@@V?$allocator@D@2@@std@@G@std@@@2@$0A@@std@@@std@@QEBAAEBV?$allocator@U?$_Tree_node@U?$pair@$$CBV?$basic_string@DU?$char_traits@D@std@@V?$allocator@D@2@@std@@G@std@@PEAX@std@@@2@XZ 00000001400f2620 f i main.obj
 0002:00037680       ?_Getal@?$_Vector_alloc@U?$_Vec_base_types@V?$basic_string@DU?$char_traits@D@std@@V?$allocator@D@2@@std@@V?$allocator@V?$basic_string@DU?$char_traits@D@std@@V?$allocator@D@2@@std@@@2@@std@@@std@@QEAAAEAV?$allocator@V?$basic_string@DU?$char_traits@D@std@@V?$allocator@D@2@@std@@@2@XZ 00000001400f2680 f i main.obj
 0002:000376e0       ?_Getal@?$_Vector_alloc@U?$_Vec_base_types@V?$basic_string@DU?$char_traits@D@std@@V?$allocator@D@2@@std@@V?$allocator@V?$basic_string@DU?$char_traits@D@std@@V?$allocator@D@2@@std@@@2@@std@@@std@@QEBAAEBV?$allocator@V?$basic_string@DU?$char_traits@D@std@@V?$allocator@D@2@@std@@@2@XZ 00000001400f26e0 f i main.obj
 0002:00037740       ?_Getblock@?$_Deque_alloc@U?$_Deque_base_types@GV?$allocator@G@std@@@std@@@std@@QEBA_K_K@Z 00000001400f2740 f i main.obj
 0002:000377b0       ?_Getblock@?$_Deque_val@U?$_Deque_simple_types@G@std@@@std@@QEBA_K_K@Z 00000001400f27b0 f i main.obj
 0002:00037820       ?_Getcat@?$codecvt@DDU_Mbstatet@@@std@@SA_KPEAPEBVfacet@locale@2@PEBV42@@Z 00000001400f2820 f i main.obj
 0002:000379b0       ?_Getcat@?$ctype@D@std@@SA_KPEAPEBVfacet@locale@2@PEBV42@@Z 00000001400f29b0 f i main.obj
 0002:00037b40       ?_Getcat@?$num_put@DV?$ostreambuf_iterator@DU?$char_traits@D@std@@@std@@@std@@SA_KPEAPEBVfacet@locale@2@PEBV42@@Z 00000001400f2b40 f i main.obj
 0002:00037cd0       ?_Getcat@?$numpunct@D@std@@SA_KPEAPEBVfacet@locale@2@PEBV42@@Z 00000001400f2cd0 f i main.obj
 0002:00037e70       ?_Getcomp@?$_Tree_comp_alloc@V?$_Tmap_traits@V?$basic_string@DU?$char_traits@D@std@@V?$allocator@D@2@@std@@GU?$less@V?$basic_string@DU?$char_traits@D@std@@V?$allocator@D@2@@std@@@2@V?$allocator@U?$pair@$$CBV?$basic_string@DU?$char_traits@D@std@@V?$allocator@D@2@@std@@G@std@@@2@$0A@@std@@@std@@QEAAAEAU?$less@V?$basic_string@DU?$char_traits@D@std@@V?$allocator@D@2@@std@@@2@XZ 00000001400f2e70 f i main.obj
 0002:00037ed0       ?_Getcomp@?$_Tree_comp_alloc@V?$_Tmap_traits@V?$basic_string@DU?$char_traits@D@std@@V?$allocator@D@2@@std@@GU?$less@V?$basic_string@DU?$char_traits@D@std@@V?$allocator@D@2@@std@@@2@V?$allocator@U?$pair@$$CBV?$basic_string@DU?$char_traits@D@std@@V?$allocator@D@2@@std@@G@std@@@2@$0A@@std@@@std@@QEBAAEBU?$less@V?$basic_string@DU?$char_traits@D@std@@V?$allocator@D@2@@std@@@2@XZ 00000001400f2ed0 f i main.obj
 0002:00037f30       ?_Getcont@_Iterator_base12@std@@QEBAPEBU_Container_base12@2@XZ 00000001400f2f30 f i main.obj
 0002:00037fb0       ?_Getctype@_Locinfo@std@@QEBA?AU_Ctypevec@@XZ 00000001400f2fb0 f i main.obj
 0002:00038050       ?_Getcvt@_Locinfo@std@@QEBA?AU_Cvtvec@@XZ 00000001400f3050 f i main.obj
 0002:000380f0       ?_Getfacet@locale@std@@QEBAPEBVfacet@12@_K@Z 00000001400f30f0 f i main.obj
 0002:00038230       ?_Getfalse@_Locinfo@std@@QEBAPEBDXZ 00000001400f3230 f i main.obj
 0002:00038280       ?_Getlconv@_Locinfo@std@@QEBAPEBUlconv@@XZ 00000001400f3280 f i main.obj
 0002:000382d0       ?_Getpfirst@?$_Deque_alloc@U?$_Deque_base_types@GV?$allocator@G@std@@@std@@@std@@QEBAPEAPEAU_Iterator_base12@2@XZ 00000001400f32d0 f i main.obj
 0002:00038330       ?_Getpfirst@?$_Tree_comp_alloc@V?$_Tmap_traits@V?$basic_string@DU?$char_traits@D@std@@V?$allocator@D@2@@std@@GU?$less@V?$basic_string@DU?$char_traits@D@std@@V?$allocator@D@2@@std@@@2@V?$allocator@U?$pair@$$CBV?$basic_string@DU?$char_traits@D@std@@V?$allocator@D@2@@std@@G@std@@@2@$0A@@std@@@std@@QEBAPEAPEAU_Iterator_base12@2@XZ 00000001400f3330 f i main.obj
 0002:00038390       ?_Getpfirst@_Container_base12@std@@QEBAPEAPEAU_Iterator_base12@2@XZ 00000001400f3390 f i main.obj
 0002:00038420       ?_Getpnext@_Iterator_base12@std@@QEAAPEAPEAU12@XZ 00000001400f3420 f i main.obj
 0002:00038470       ?_Getstate@?$basic_stringbuf@DU?$char_traits@D@std@@V?$allocator@D@2@@std@@AEAAHH@Z 00000001400f3470 f i main.obj
 0002:00038530       ?_Gettrue@_Locinfo@std@@QEBAPEBDXZ 00000001400f3530 f i main.obj
 0002:00038580       ?_Gnavail@?$basic_streambuf@DU?$char_traits@D@std@@@std@@IEBA_JXZ 00000001400f3580 f i main.obj
 0002:00038610       ?_Gndec@?$basic_streambuf@DU?$char_traits@D@std@@@std@@IEAAPEADXZ 00000001400f3610 f i main.obj
 0002:000386c0       ?_Gninc@?$basic_streambuf@DU?$char_traits@D@std@@@std@@IEAAPEADXZ 00000001400f36c0 f i main.obj
 0002:00038770       ?_Gnpreinc@?$basic_streambuf@DU?$char_traits@D@std@@@std@@IEAAPEADXZ 00000001400f3770 f i main.obj
 0002:00038820       ?_Growmap@?$deque@GV?$allocator@G@std@@@std@@IEAAX_K@Z 00000001400f3820 f i main.obj
 0002:00038d80       ?_Ifmt@?$num_put@DV?$ostreambuf_iterator@DU?$char_traits@D@std@@@std@@@std@@AEBAPEADPEADPEBDH@Z 00000001400f3d80 f i main.obj
 0002:00038fb0       ?_Incref@facet@locale@std@@UEAAXXZ 00000001400f3fb0 f i main.obj
 0002:00039000       ?_Init@?$basic_filebuf@DU?$char_traits@D@std@@@std@@IEAAXPEAU_iobuf@@W4_Initfl@12@@Z 00000001400f4000 f i main.obj
 0002:000391c0       ?_Init@?$basic_streambuf@DU?$char_traits@D@std@@@std@@IEAAXPEAPEAD0PEAH001@Z 00000001400f41c0 f i main.obj
 0002:000392a0       ?_Init@?$basic_streambuf@DU?$char_traits@D@std@@@std@@IEAAXXZ 00000001400f42a0 f i main.obj
 0002:000393c0       ?_Init@?$basic_stringbuf@DU?$char_traits@D@std@@V?$allocator@D@2@@std@@IEAAXPEBD_KH@Z 00000001400f43c0 f i main.obj
 0002:00039600       ?_Init@?$codecvt@DDU_Mbstatet@@@std@@IEAAXAEBV_Locinfo@2@@Z 00000001400f4600 f i main.obj
 0002:00039650       ?_Init@?$ctype@D@std@@IEAAXAEBV_Locinfo@2@@Z 00000001400f4650 f i main.obj
 0002:000396d0       ?_Init@?$num_put@DV?$ostreambuf_iterator@DU?$char_traits@D@std@@@std@@@std@@IEAAXAEBV_Locinfo@2@@Z 00000001400f46d0 f i main.obj
 0002:00039720       ?_Init@?$numpunct@D@std@@IEAAXAEBV_Locinfo@2@_N@Z 00000001400f4720 f i main.obj
 0002:000399d0       ?_Init@ios_base@std@@IEAAXXZ 00000001400f49d0 f i main.obj
 0002:00039b30       ?_Init@param_type@?$uniform_int@H@std@@QEAAXHH@Z 00000001400f4b30 f i main.obj
 0002:00039c10       ?_Initcvt@?$basic_filebuf@DU?$char_traits@D@std@@@std@@IEAAXPEBV?$codecvt@DDU_Mbstatet@@@2@@Z 00000001400f4c10 f i main.obj
 0002:00039cb0       ?_Ipfx@?$basic_istream@DU?$char_traits@D@std@@@std@@QEAA_N_N@Z 00000001400f4cb0 f i main.obj
 0002:0003a070       ?_Iput@?$num_put@DV?$ostreambuf_iterator@DU?$char_traits@D@std@@@std@@@std@@AEBA?AV?$ostreambuf_iterator@DU?$char_traits@D@std@@@2@V32@AEAVios_base@2@DPEAD_K@Z 00000001400f5070 f i main.obj
 0002:0003a8e0       ?_Key@?$_Tree@V?$_Tmap_traits@V?$basic_string@DU?$char_traits@D@std@@V?$allocator@D@2@@std@@GU?$less@V?$basic_string@DU?$char_traits@D@std@@V?$allocator@D@2@@std@@@2@V?$allocator@U?$pair@$$CBV?$basic_string@DU?$char_traits@D@std@@V?$allocator@D@2@@std@@G@std@@@2@$0A@@std@@@std@@IEBAAEBV?$basic_string@DU?$char_traits@D@std@@V?$allocator@D@2@@2@PEAU?$_Tree_node@U?$pair@$$CBV?$basic_string@DU?$char_traits@D@std@@V?$allocator@D@2@@std@@G@std@@PEAX@2@@Z 00000001400f58e0 f i main.obj
 0002:0003a950       ?_Kfn@?$_Tree@V?$_Tmap_traits@V?$basic_string@DU?$char_traits@D@std@@V?$allocator@D@2@@std@@GU?$less@V?$basic_string@DU?$char_traits@D@std@@V?$allocator@D@2@@std@@@2@V?$allocator@U?$pair@$$CBV?$basic_string@DU?$char_traits@D@std@@V?$allocator@D@2@@std@@G@std@@@2@$0A@@std@@@std@@IEBAAEBV?$basic_string@DU?$char_traits@D@std@@V?$allocator@D@2@@2@AEBU?$pair@$$CBV?$basic_string@DU?$char_traits@D@std@@V?$allocator@D@2@@std@@G@2@@Z 00000001400f5950 f i main.obj
 0002:0003a9b0       ?_Large_string_engaged@?$_String_val@U?$_Simple_types@D@std@@@std@@QEBA_NXZ 00000001400f59b0 f i main.obj
 0002:0003aa30       ?_Lmost@?$_Tree@V?$_Tmap_traits@V?$basic_string@DU?$char_traits@D@std@@V?$allocator@D@2@@std@@GU?$less@V?$basic_string@DU?$char_traits@D@std@@V?$allocator@D@2@@std@@@2@V?$allocator@U?$pair@$$CBV?$basic_string@DU?$char_traits@D@std@@V?$allocator@D@2@@std@@G@std@@@2@$0A@@std@@@std@@IEBAAEAPEAU?$_Tree_node@U?$pair@$$CBV?$basic_string@DU?$char_traits@D@std@@V?$allocator@D@2@@std@@G@std@@PEAX@2@XZ 00000001400f5a30 f i main.obj
 0002:0003aa90       ?_Lock@?$basic_filebuf@DU?$char_traits@D@std@@@std@@UEAAXXZ 00000001400f5a90 f i main.obj
 0002:0003ab00       ?_Lock@?$basic_streambuf@DU?$char_traits@D@std@@@std@@UEAAXXZ 00000001400f5b00 f i main.obj
 0002:0003ab40       ?_Lrotate@?$_Tree@V?$_Tmap_traits@V?$basic_string@DU?$char_traits@D@std@@V?$allocator@D@2@@std@@GU?$less@V?$basic_string@DU?$char_traits@D@std@@V?$allocator@D@2@@std@@@2@V?$allocator@U?$pair@$$CBV?$basic_string@DU?$char_traits@D@std@@V?$allocator@D@2@@std@@G@std@@@2@$0A@@std@@@std@@IEAAXPEAU?$_Tree_node@U?$pair@$$CBV?$basic_string@DU?$char_traits@D@std@@V?$allocator@D@2@@std@@G@std@@PEAX@2@@Z 00000001400f5b40 f i main.obj
 0002:0003aca0       ?_Makestr@_System_error@std@@CA?AV?$basic_string@DU?$char_traits@D@std@@V?$allocator@D@2@@2@Verror_code@2@V32@@Z 00000001400f5ca0 f i main.obj
 0002:0003ade0       ?_Map@?$_Deque_alloc@U?$_Deque_base_types@GV?$allocator@G@std@@@std@@@std@@QEAAAEAPEAPEAGXZ 00000001400f5de0 f i main.obj
 0002:0003ae40       ?_Mapsize@?$_Deque_alloc@U?$_Deque_base_types@GV?$allocator@G@std@@@std@@@std@@QEAAAEA_KXZ 00000001400f5e40 f i main.obj
 0002:0003aea0       ?_Max@?$_Tree_comp_alloc@V?$_Tmap_traits@V?$basic_string@DU?$char_traits@D@std@@V?$allocator@D@2@@std@@GU?$less@V?$basic_string@DU?$char_traits@D@std@@V?$allocator@D@2@@std@@@2@V?$allocator@U?$pair@$$CBV?$basic_string@DU?$char_traits@D@std@@V?$allocator@D@2@@std@@G@std@@@2@$0A@@std@@@std@@SAPEAU?$_Tree_node@U?$pair@$$CBV?$basic_string@DU?$char_traits@D@std@@V?$allocator@D@2@@std@@G@std@@PEAX@2@PEAU32@@Z 00000001400f5ea0 f i main.obj
 0002:0003aef0       ?_Max@?$_Tree_val@U?$_Tree_simple_types@U?$pair@$$CBV?$basic_string@DU?$char_traits@D@std@@V?$allocator@D@2@@std@@G@std@@@std@@@std@@SAPEAU?$_Tree_node@U?$pair@$$CBV?$basic_string@DU?$char_traits@D@std@@V?$allocator@D@2@@std@@G@std@@PEAX@2@PEAU32@@Z 00000001400f5ef0 f i main.obj
 0002:0003af70       ?_Min@?$_Tree_comp_alloc@V?$_Tmap_traits@V?$basic_string@DU?$char_traits@D@std@@V?$allocator@D@2@@std@@GU?$less@V?$basic_string@DU?$char_traits@D@std@@V?$allocator@D@2@@std@@@2@V?$allocator@U?$pair@$$CBV?$basic_string@DU?$char_traits@D@std@@V?$allocator@D@2@@std@@G@std@@@2@$0A@@std@@@std@@SAPEAU?$_Tree_node@U?$pair@$$CBV?$basic_string@DU?$char_traits@D@std@@V?$allocator@D@2@@std@@G@std@@PEAX@2@PEAU32@@Z 00000001400f5f70 f i main.obj
 0002:0003afc0       ?_Min@?$_Tree_val@U?$_Tree_simple_types@U?$pair@$$CBV?$basic_string@DU?$char_traits@D@std@@V?$allocator@D@2@@std@@G@std@@@std@@@std@@SAPEAU?$_Tree_node@U?$pair@$$CBV?$basic_string@DU?$char_traits@D@std@@V?$allocator@D@2@@std@@G@std@@PEAX@2@PEAU32@@Z 00000001400f5fc0 f i main.obj
 0002:0003b040       ?_Move_alloc@?$_String_alloc@U?$_String_base_types@DV?$allocator@D@std@@@std@@@std@@QEAAXAEAV?$allocator@D@2@@Z 00000001400f6040 f i main.obj
 0002:0003b130       ?_Myend@?$_Vector_alloc@U?$_Vec_base_types@V?$basic_string@DU?$char_traits@D@std@@V?$allocator@D@2@@std@@V?$allocator@V?$basic_string@DU?$char_traits@D@std@@V?$allocator@D@2@@std@@@2@@std@@@std@@QEAAAEAPEAV?$basic_string@DU?$char_traits@D@std@@V?$allocator@D@2@@2@XZ 00000001400f6130 f i main.obj
 0002:0003b190       ?_Myend@?$_Vector_alloc@U?$_Vec_base_types@V?$basic_string@DU?$char_traits@D@std@@V?$allocator@D@2@@std@@V?$allocator@V?$basic_string@DU?$char_traits@D@std@@V?$allocator@D@2@@std@@@2@@std@@@std@@QEBAAEBQEAV?$basic_string@DU?$char_traits@D@std@@V?$allocator@D@2@@2@XZ 00000001400f6190 f i main.obj
 0002:0003b1f0       ?_Myfirst@?$_Vector_alloc@U?$_Vec_base_types@V?$basic_string@DU?$char_traits@D@std@@V?$allocator@D@2@@std@@V?$allocator@V?$basic_string@DU?$char_traits@D@std@@V?$allocator@D@2@@std@@@2@@std@@@std@@QEAAAEAPEAV?$basic_string@DU?$char_traits@D@std@@V?$allocator@D@2@@2@XZ 00000001400f61f0 f i main.obj
 0002:0003b250       ?_Myfirst@?$_Vector_alloc@U?$_Vec_base_types@V?$basic_string@DU?$char_traits@D@std@@V?$allocator@D@2@@std@@V?$allocator@V?$basic_string@DU?$char_traits@D@std@@V?$allocator@D@2@@std@@@2@@std@@@std@@QEBAAEBQEAV?$basic_string@DU?$char_traits@D@std@@V?$allocator@D@2@@2@XZ 00000001400f6250 f i main.obj
 0002:0003b2b0       ?_Myhead@?$_Tree_comp_alloc@V?$_Tmap_traits@V?$basic_string@DU?$char_traits@D@std@@V?$allocator@D@2@@std@@GU?$less@V?$basic_string@DU?$char_traits@D@std@@V?$allocator@D@2@@std@@@2@V?$allocator@U?$pair@$$CBV?$basic_string@DU?$char_traits@D@std@@V?$allocator@D@2@@std@@G@std@@@2@$0A@@std@@@std@@QEAAAEAPEAU?$_Tree_node@U?$pair@$$CBV?$basic_string@DU?$char_traits@D@std@@V?$allocator@D@2@@std@@G@std@@PEAX@2@XZ 00000001400f62b0 f i main.obj
 0002:0003b310       ?_Myhead@?$_Tree_comp_alloc@V?$_Tmap_traits@V?$basic_string@DU?$char_traits@D@std@@V?$allocator@D@2@@std@@GU?$less@V?$basic_string@DU?$char_traits@D@std@@V?$allocator@D@2@@std@@@2@V?$allocator@U?$pair@$$CBV?$basic_string@DU?$char_traits@D@std@@V?$allocator@D@2@@std@@G@std@@@2@$0A@@std@@@std@@QEBAAEBQEAU?$_Tree_node@U?$pair@$$CBV?$basic_string@DU?$char_traits@D@std@@V?$allocator@D@2@@std@@G@std@@PEAX@2@XZ 00000001400f6310 f i main.obj
 0002:0003b370       ?_Mylast@?$_Vector_alloc@U?$_Vec_base_types@V?$basic_string@DU?$char_traits@D@std@@V?$allocator@D@2@@std@@V?$allocator@V?$basic_string@DU?$char_traits@D@std@@V?$allocator@D@2@@std@@@2@@std@@@std@@QEAAAEAPEAV?$basic_string@DU?$char_traits@D@std@@V?$allocator@D@2@@2@XZ 00000001400f6370 f i main.obj
 0002:0003b3d0       ?_Mylast@?$_Vector_alloc@U?$_Vec_base_types@V?$basic_string@DU?$char_traits@D@std@@V?$allocator@D@2@@std@@V?$allocator@V?$basic_string@DU?$char_traits@D@std@@V?$allocator@D@2@@std@@@2@@std@@@std@@QEBAAEBQEAV?$basic_string@DU?$char_traits@D@std@@V?$allocator@D@2@@2@XZ 00000001400f63d0 f i main.obj
 0002:0003b430       ?_Myoff@?$_Deque_alloc@U?$_Deque_base_types@GV?$allocator@G@std@@@std@@@std@@QEAAAEA_KXZ 00000001400f6430 f i main.obj
 0002:0003b490       ?_Myoff@?$_Deque_alloc@U?$_Deque_base_types@GV?$allocator@G@std@@@std@@@std@@QEBAAEB_KXZ 00000001400f6490 f i main.obj
 0002:0003b4f0       ?_Myproxy@?$_Deque_alloc@U?$_Deque_base_types@GV?$allocator@G@std@@@std@@@std@@QEAAAEAPEAU_Container_proxy@2@XZ 00000001400f64f0 f i main.obj
 0002:0003b540       ?_Myproxy@?$_String_alloc@U?$_String_base_types@DV?$allocator@D@std@@@std@@@std@@QEAAAEAPEAU_Container_proxy@2@XZ 00000001400f6540 f i main.obj
 0002:0003b590       ?_Myproxy@?$_Tree_comp_alloc@V?$_Tmap_traits@V?$basic_string@DU?$char_traits@D@std@@V?$allocator@D@2@@std@@GU?$less@V?$basic_string@DU?$char_traits@D@std@@V?$allocator@D@2@@std@@@2@V?$allocator@U?$pair@$$CBV?$basic_string@DU?$char_traits@D@std@@V?$allocator@D@2@@std@@G@std@@@2@$0A@@std@@@std@@QEAAAEAPEAU_Container_proxy@2@XZ 00000001400f6590 f i main.obj
 0002:0003b5e0       ?_Myproxy@?$_Vector_alloc@U?$_Vec_base_types@V?$basic_string@DU?$char_traits@D@std@@V?$allocator@D@2@@std@@V?$allocator@V?$basic_string@DU?$char_traits@D@std@@V?$allocator@D@2@@std@@@2@@std@@@std@@QEAAAEAPEAU_Container_proxy@2@XZ 00000001400f65e0 f i main.obj
 0002:0003b630       ?_Myptr@?$_String_val@U?$_Simple_types@D@std@@@std@@QEAAPEADXZ 00000001400f6630 f i main.obj
 0002:0003b6c0       ?_Myptr@?$_String_val@U?$_Simple_types@D@std@@@std@@QEBAPEBDXZ 00000001400f66c0 f i main.obj
 0002:0003b750       ?_Mysize@?$_Deque_alloc@U?$_Deque_base_types@GV?$allocator@G@std@@@std@@@std@@QEAAAEA_KXZ 00000001400f6750 f i main.obj
 0002:0003b7b0       ?_Mysize@?$_Deque_alloc@U?$_Deque_base_types@GV?$allocator@G@std@@@std@@@std@@QEBAAEB_KXZ 00000001400f67b0 f i main.obj
 0002:0003b810       ?_Mysize@?$_Tree_comp_alloc@V?$_Tmap_traits@V?$basic_string@DU?$char_traits@D@std@@V?$allocator@D@2@@std@@GU?$less@V?$basic_string@DU?$char_traits@D@std@@V?$allocator@D@2@@std@@@2@V?$allocator@U?$pair@$$CBV?$basic_string@DU?$char_traits@D@std@@V?$allocator@D@2@@std@@G@std@@@2@$0A@@std@@@std@@QEAAAEA_KXZ 00000001400f6810 f i main.obj
 0002:0003b870       ?_Mysize@?$_Tree_comp_alloc@V?$_Tmap_traits@V?$basic_string@DU?$char_traits@D@std@@V?$allocator@D@2@@std@@GU?$less@V?$basic_string@DU?$char_traits@D@std@@V?$allocator@D@2@@std@@@2@V?$allocator@U?$pair@$$CBV?$basic_string@DU?$char_traits@D@std@@V?$allocator@D@2@@std@@G@std@@@2@$0A@@std@@@std@@QEBAAEB_KXZ 00000001400f6870 f i main.obj
 0002:0003b8d0       ?_Orphan_all@?$_Deque_alloc@U?$_Deque_base_types@GV?$allocator@G@std@@@std@@@std@@QEAAXXZ 00000001400f68d0 f i main.obj
 0002:0003b930       ?_Orphan_all@?$_String_alloc@U?$_String_base_types@DV?$allocator@D@std@@@std@@@std@@QEAAXXZ 00000001400f6930 f i main.obj
 0002:0003b990       ?_Orphan_all@?$_Tree_comp_alloc@V?$_Tmap_traits@V?$basic_string@DU?$char_traits@D@std@@V?$allocator@D@2@@std@@GU?$less@V?$basic_string@DU?$char_traits@D@std@@V?$allocator@D@2@@std@@@2@V?$allocator@U?$pair@$$CBV?$basic_string@DU?$char_traits@D@std@@V?$allocator@D@2@@std@@G@std@@@2@$0A@@std@@@std@@QEAAXXZ 00000001400f6990 f i main.obj
 0002:0003b9f0       ?_Orphan_all@?$_Vector_alloc@U?$_Vec_base_types@V?$basic_string@DU?$char_traits@D@std@@V?$allocator@D@2@@std@@V?$allocator@V?$basic_string@DU?$char_traits@D@std@@V?$allocator@D@2@@std@@@2@@std@@@std@@QEAAXXZ 00000001400f69f0 f i main.obj
 0002:0003ba50       ?_Orphan_all@_Container_base12@std@@QEAAXXZ 00000001400f6a50 f i main.obj
 0002:0003bb80       ?_Orphan_me@_Iterator_base12@std@@QEAAXXZ 00000001400f6b80 f i main.obj
 0002:0003bcc0       ?_Orphan_off@?$deque@GV?$allocator@G@std@@@std@@IEBAX_K@Z 00000001400f6cc0 f i main.obj
 0002:0003bec0       ?_Orphan_ptr@?$_Tree@V?$_Tmap_traits@V?$basic_string@DU?$char_traits@D@std@@V?$allocator@D@2@@std@@GU?$less@V?$basic_string@DU?$char_traits@D@std@@V?$allocator@D@2@@std@@@2@V?$allocator@U?$pair@$$CBV?$basic_string@DU?$char_traits@D@std@@V?$allocator@D@2@@std@@G@std@@@2@$0A@@std@@@std@@IEAAXPEAU?$_Tree_node@U?$pair@$$CBV?$basic_string@DU?$char_traits@D@std@@V?$allocator@D@2@@std@@G@std@@PEAX@2@@Z 00000001400f6ec0 f i main.obj
 0002:0003c050       ?_Osfx@?$basic_ostream@DU?$char_traits@D@std@@@std@@QEAAXXZ 00000001400f7050 f i main.obj
 0002:0003c1c0       ?_Pnavail@?$basic_streambuf@DU?$char_traits@D@std@@@std@@IEBA_JXZ 00000001400f71c0 f i main.obj
 0002:0003c250       ?_Pninc@?$basic_streambuf@DU?$char_traits@D@std@@@std@@IEAAPEADXZ 00000001400f7250 f i main.obj
 0002:0003c300       ?_Put@?$num_put@DV?$ostreambuf_iterator@DU?$char_traits@D@std@@@std@@@std@@AEBA?AV?$ostreambuf_iterator@DU?$char_traits@D@std@@@2@V32@PEBD_K@Z 00000001400f7300 f i main.obj
 0002:0003c3f0       ?_Refill_lower@?$mersenne_twister@_K$0EA@$0BDI@$0JM@$0BP@$0?EKPNJAKFFGJJOGBH@$0BN@$0BB@$0HBNGHPPPONKGAAAA@$0CF@$0?IBBCAAAAAAAAA@$0CL@@std@@IEAAXXZ 00000001400f73f0 f i main.obj
 0002:0003c6f0       ?_Refill_upper@?$mersenne_twister@_K$0EA@$0BDI@$0JM@$0BP@$0?EKPNJAKFFGJJOGBH@$0BN@$0BB@$0HBNGHPPPONKGAAAA@$0CF@$0?IBBCAAAAAAAAA@$0CL@@std@@IEAAXXZ 00000001400f76f0 f i main.obj
 0002:0003c830       ?_Rep@?$num_put@DV?$ostreambuf_iterator@DU?$char_traits@D@std@@@std@@@std@@AEBA?AV?$ostreambuf_iterator@DU?$char_traits@D@std@@@2@V32@D_K@Z 00000001400f7830 f i main.obj
 0002:0003c900       ?_Reset_back@?$basic_filebuf@DU?$char_traits@D@std@@@std@@AEAAXXZ 00000001400f7900 f i main.obj
 0002:0003c9b0       ?_Rmost@?$_Tree@V?$_Tmap_traits@V?$basic_string@DU?$char_traits@D@std@@V?$allocator@D@2@@std@@GU?$less@V?$basic_string@DU?$char_traits@D@std@@V?$allocator@D@2@@std@@@2@V?$allocator@U?$pair@$$CBV?$basic_string@DU?$char_traits@D@std@@V?$allocator@D@2@@std@@G@std@@@2@$0A@@std@@@std@@IEBAAEAPEAU?$_Tree_node@U?$pair@$$CBV?$basic_string@DU?$char_traits@D@std@@V?$allocator@D@2@@std@@G@std@@PEAX@2@XZ 00000001400f79b0 f i main.obj
 0002:0003ca10       ?_Root@?$_Tree@V?$_Tmap_traits@V?$basic_string@DU?$char_traits@D@std@@V?$allocator@D@2@@std@@GU?$less@V?$basic_string@DU?$char_traits@D@std@@V?$allocator@D@2@@std@@@2@V?$allocator@U?$pair@$$CBV?$basic_string@DU?$char_traits@D@std@@V?$allocator@D@2@@std@@G@std@@@2@$0A@@std@@@std@@IEBAAEAPEAU?$_Tree_node@U?$pair@$$CBV?$basic_string@DU?$char_traits@D@std@@V?$allocator@D@2@@std@@G@std@@PEAX@2@XZ 00000001400f7a10 f i main.obj
 0002:0003ca70       ?_Rrotate@?$_Tree@V?$_Tmap_traits@V?$basic_string@DU?$char_traits@D@std@@V?$allocator@D@2@@std@@GU?$less@V?$basic_string@DU?$char_traits@D@std@@V?$allocator@D@2@@std@@@2@V?$allocator@U?$pair@$$CBV?$basic_string@DU?$char_traits@D@std@@V?$allocator@D@2@@std@@G@std@@@2@$0A@@std@@@std@@IEAAXPEAU?$_Tree_node@U?$pair@$$CBV?$basic_string@DU?$char_traits@D@std@@V?$allocator@D@2@@std@@G@std@@PEAX@2@@Z 00000001400f7a70 f i main.obj
 0002:0003cbd0       ?_Set_back@?$basic_filebuf@DU?$char_traits@D@std@@@std@@AEAAXXZ 00000001400f7bd0 f i main.obj
 0002:0003ccc0       ?_Setcont@?$_Deque_const_iterator@V?$_Deque_val@U?$_Deque_simple_types@G@std@@@std@@@std@@QEAAXPEBV?$_Deque_val@U?$_Deque_simple_types@G@std@@@2@@Z 00000001400f7cc0 f i main.obj
 0002:0003cd20       ?_Swap_all@?$_String_alloc@U?$_String_base_types@DV?$allocator@D@std@@@std@@@std@@QEAAXAEAV12@@Z 00000001400f7d20 f i main.obj
 0002:0003cdb0       ?_Swap_all@_Container_base12@std@@QEAAXAEAU12@@Z 00000001400f7db0 f i main.obj
 0002:0003cf00       ?_Tidy@?$_Tree@V?$_Tmap_traits@V?$basic_string@DU?$char_traits@D@std@@V?$allocator@D@2@@std@@GU?$less@V?$basic_string@DU?$char_traits@D@std@@V?$allocator@D@2@@std@@@2@V?$allocator@U?$pair@$$CBV?$basic_string@DU?$char_traits@D@std@@V?$allocator@D@2@@std@@G@std@@@2@$0A@@std@@@std@@IEAAXXZ 00000001400f7f00 f i main.obj
 0002:0003d070       ?_Tidy@?$_Yarn@D@std@@AEAAXXZ 00000001400f8070 f i main.obj
 0002:0003d0f0       ?_Tidy@?$_Yarn@_W@std@@AEAAXXZ 00000001400f80f0 f i main.obj
 0002:0003d170       ?_Tidy@?$basic_stringbuf@DU?$char_traits@D@std@@V?$allocator@D@2@@std@@IEAAXXZ 00000001400f8170 f i main.obj
 0002:0003d2e0       ?_Tidy@?$ctype@D@std@@IEAAXXZ 00000001400f82e0 f i main.obj
 0002:0003d3a0       ?_Tidy@?$deque@GV?$allocator@G@std@@@std@@IEAAXXZ 00000001400f83a0 f i main.obj
 0002:0003d5d0       ?_Tidy@?$numpunct@D@std@@AEAAXXZ 00000001400f85d0 f i main.obj
 0002:0003d650       ?_Tidy@?$vector@V?$basic_string@DU?$char_traits@D@std@@V?$allocator@D@2@@std@@V?$allocator@V?$basic_string@DU?$char_traits@D@std@@V?$allocator@D@2@@std@@@2@@std@@AEAAXXZ 00000001400f8650 f i main.obj
 0002:0003d7b0       ?_Tidy_deallocate@?$basic_string@DU?$char_traits@D@std@@V?$allocator@D@2@@std@@QEAAXXZ 00000001400f87b0 f i main.obj
 0002:0003d8e0       ?_Tidy_init@?$basic_string@DU?$char_traits@D@std@@V?$allocator@D@2@@std@@QEAAXXZ 00000001400f88e0 f i main.obj
 0002:0003d990       ?_Unchecked_begin@?$basic_string@DU?$char_traits@D@std@@V?$allocator@D@2@@std@@QEAAPEADXZ 00000001400f8990 f i main.obj
 0002:0003da00       ?_Unchecked_end@?$basic_string@DU?$char_traits@D@std@@V?$allocator@D@2@@std@@QEAAPEADXZ 00000001400f8a00 f i main.obj
 0002:0003da80       ?_Unlock@?$basic_filebuf@DU?$char_traits@D@std@@@std@@UEAAXXZ 00000001400f8a80 f i main.obj
 0002:0003daf0       ?_Unlock@?$basic_streambuf@DU?$char_traits@D@std@@@std@@UEAAXXZ 00000001400f8af0 f i main.obj
 0002:0003db30       ?_Xlen@?$basic_string@DU?$char_traits@D@std@@V?$allocator@D@2@@std@@SAXXZ 00000001400f8b30 f i main.obj
 0002:0003db80       ?_Xlen@?$deque@GV?$allocator@G@std@@@std@@IEBAXXZ 00000001400f8b80 f i main.obj
 0002:0003dbd0       ?_Xlength@?$vector@V?$basic_string@DU?$char_traits@D@std@@V?$allocator@D@2@@std@@V?$allocator@V?$basic_string@DU?$char_traits@D@std@@V?$allocator@D@2@@std@@@2@@std@@CAXXZ 00000001400f8bd0 f i main.obj
 0002:0003dc20       ?_Xran@?$_String_val@U?$_Simple_types@D@std@@@std@@SAXXZ 00000001400f8c20 f i main.obj
 0002:0003dc70       ?__autoclassinit2@?$_Tree_const_iterator@V?$_Tree_val@U?$_Tree_simple_types@U?$pair@$$CBV?$basic_string@DU?$char_traits@D@std@@V?$allocator@D@2@@std@@G@std@@@std@@@std@@@std@@QEAAX_K@Z 00000001400f8c70 f i main.obj
 0002:0003dcd0       ?__autoclassinit2@?$_Tree_iterator@V?$_Tree_val@U?$_Tree_simple_types@U?$pair@$$CBV?$basic_string@DU?$char_traits@D@std@@V?$allocator@D@2@@std@@G@std@@@std@@@std@@@std@@QEAAX_K@Z 00000001400f8cd0 f i main.obj
 0002:0003dd30       ?__autoclassinit2@?$basic_fstream@DU?$char_traits@D@std@@@std@@QEAAX_K@Z 00000001400f8d30 f i main.obj
 0002:0003dd90       ?__autoclassinit2@?$basic_ifstream@DU?$char_traits@D@std@@@std@@QEAAX_K@Z 00000001400f8d90 f i main.obj
 0002:0003ddf0       ?__autoclassinit2@?$basic_ofstream@DU?$char_traits@D@std@@@std@@QEAAX_K@Z 00000001400f8df0 f i main.obj
 0002:0003de50       ?__autoclassinit2@?$basic_stringstream@DU?$char_traits@D@std@@V?$allocator@D@2@@std@@QEAAX_K@Z 00000001400f8e50 f i main.obj
 0002:0003deb0       ?__autoclassinit2@?$deque@GV?$allocator@G@std@@@std@@QEAAX_K@Z 00000001400f8eb0 f i main.obj
 0002:0003df10       ?__autoclassinit2@?$map@V?$basic_string@DU?$char_traits@D@std@@V?$allocator@D@2@@std@@GU?$less@V?$basic_string@DU?$char_traits@D@std@@V?$allocator@D@2@@std@@@2@V?$allocator@U?$pair@$$CBV?$basic_string@DU?$char_traits@D@std@@V?$allocator@D@2@@std@@G@std@@@2@@std@@QEAAX_K@Z 00000001400f8f10 f i main.obj
 0002:0003df70       ?__autoclassinit2@?$numpunct@D@std@@QEAAX_K@Z 00000001400f8f70 f i main.obj
 0002:0003dfd0       ?__autoclassinit2@?$vector@V?$basic_string@DU?$char_traits@D@std@@V?$allocator@D@2@@std@@V?$allocator@V?$basic_string@DU?$char_traits@D@std@@V?$allocator@D@2@@std@@@2@@std@@QEAAX_K@Z 00000001400f8fd0 f i main.obj
 0002:0003e030       ?__autoclassinit2@locale@std@@QEAAX_K@Z 00000001400f9030 f i main.obj
 0002:0003e090       ?__empty_global_delete@@YAXPEAX@Z 00000001400f9090 f i main.obj
 0002:0003e0d0       ?__empty_global_delete@@YAXPEAXW4align_val_t@std@@@Z 00000001400f90d0 f i main.obj
 0002:0003e120       ?__empty_global_delete@@YAXPEAX_K@Z 00000001400f9120 f i main.obj
 0002:0003e120       ?__global_delete@@YAXPEAX_K@Z 00000001400f9120 f i main.obj
 0002:0003e170       ?__empty_global_delete@@YAXPEAX_KW4align_val_t@std@@@Z 00000001400f9170 f i main.obj
 0002:0003e1c0       ?allocate@?$allocator@D@std@@QEAAPEAD_K@Z 00000001400f91c0 f i main.obj
 0002:0003e230       ?allocate@?$allocator@G@std@@QEAAPEAG_K@Z 00000001400f9230 f i main.obj
 0002:0003e2a0       ?allocate@?$allocator@PEAG@std@@QEAAPEAPEAG_K@Z 00000001400f92a0 f i main.obj
 0002:0003e310       ?allocate@?$allocator@U?$_Tree_node@U?$pair@$$CBV?$basic_string@DU?$char_traits@D@std@@V?$allocator@D@2@@std@@G@std@@PEAX@std@@@std@@QEAAPEAU?$_Tree_node@U?$pair@$$CBV?$basic_string@DU?$char_traits@D@std@@V?$allocator@D@2@@std@@G@std@@PEAX@2@_K@Z 00000001400f9310 f i main.obj
 0002:0003e380       ?allocate@?$allocator@U_Container_proxy@std@@@std@@QEAAPEAU_Container_proxy@2@_K@Z 00000001400f9380 f i main.obj
 0002:0003e3f0       ?allocate@?$allocator@V?$basic_string@DU?$char_traits@D@std@@V?$allocator@D@2@@std@@@std@@QEAAPEAV?$basic_string@DU?$char_traits@D@std@@V?$allocator@D@2@@2@_K@Z 00000001400f93f0 f i main.obj
 0002:0003e460       ?always_noconv@codecvt_base@std@@QEBA_NXZ 00000001400f9460 f i main.obj
 0002:0003e4c0       ?append@?$basic_string@DU?$char_traits@D@std@@V?$allocator@D@2@@std@@QEAAAEAV12@AEBV12@@Z 00000001400f94c0 f i main.obj
 0002:0003e550       ?append@?$basic_string@DU?$char_traits@D@std@@V?$allocator@D@2@@std@@QEAAAEAV12@QEBD@Z 00000001400f9550 f i main.obj
 0002:0003e5d0       ?append@?$basic_string@DU?$char_traits@D@std@@V?$allocator@D@2@@std@@QEAAAEAV12@QEBD_K@Z 00000001400f95d0 f i main.obj
 0002:0003e760       ?append@?$basic_string@DU?$char_traits@D@std@@V?$allocator@D@2@@std@@QEAAAEAV12@_KD@Z 00000001400f9760 f i main.obj
 0002:0003e8f0       ?assign@?$basic_string@DU?$char_traits@D@std@@V?$allocator@D@2@@std@@QEAAAEAV12@$$QEAV12@@Z 00000001400f98f0 f i main.obj
 0002:0003e970       ?assign@?$basic_string@DU?$char_traits@D@std@@V?$allocator@D@2@@std@@QEAAAEAV12@AEBV12@_K_K@Z 00000001400f9970 f i main.obj
 0002:0003ea40       ?assign@?$basic_string@DU?$char_traits@D@std@@V?$allocator@D@2@@std@@QEAAAEAV12@QEBD@Z 00000001400f9a40 f i main.obj
 0002:0003eac0       ?assign@?$basic_string@DU?$char_traits@D@std@@V?$allocator@D@2@@std@@QEAAAEAV12@QEBD_K@Z 00000001400f9ac0 f i main.obj
 0002:0003ec00       ?assign@?$basic_string@DU?$char_traits@D@std@@V?$allocator@D@2@@std@@QEAAAEAV12@_KD@Z 00000001400f9c00 f i main.obj
 0002:0003ed40       ?assign@?$char_traits@D@std@@SAPEADQEAD_KD@Z 00000001400f9d40 f i main.obj
 0002:0003edb0       ?assign@?$char_traits@D@std@@SAXAEADAEBD@Z 00000001400f9db0 f i main.obj
 0002:0003ee10       ?at@?$map@V?$basic_string@DU?$char_traits@D@std@@V?$allocator@D@2@@std@@GU?$less@V?$basic_string@DU?$char_traits@D@std@@V?$allocator@D@2@@std@@@2@V?$allocator@U?$pair@$$CBV?$basic_string@DU?$char_traits@D@std@@V?$allocator@D@2@@std@@G@std@@@2@@std@@QEBAAEBGAEBV?$basic_string@DU?$char_traits@D@std@@V?$allocator@D@2@@2@@Z 00000001400f9e10 f i main.obj
 0002:0003f040       ?back@?$deque@GV?$allocator@G@std@@@std@@QEAAAEAGXZ 00000001400fa040 f i main.obj
 0002:0003f140       ?begin@?$_Tree@V?$_Tmap_traits@V?$basic_string@DU?$char_traits@D@std@@V?$allocator@D@2@@std@@GU?$less@V?$basic_string@DU?$char_traits@D@std@@V?$allocator@D@2@@std@@@2@V?$allocator@U?$pair@$$CBV?$basic_string@DU?$char_traits@D@std@@V?$allocator@D@2@@std@@G@std@@@2@$0A@@std@@@std@@QEAA?AV?$_Tree_iterator@V?$_Tree_val@U?$_Tree_simple_types@U?$pair@$$CBV?$basic_string@DU?$char_traits@D@std@@V?$allocator@D@2@@std@@G@std@@@std@@@std@@@2@XZ 00000001400fa140 f i main.obj
 0002:0003f200       ?begin@?$basic_string@DU?$char_traits@D@std@@V?$allocator@D@2@@std@@QEAA?AV?$_String_iterator@V?$_String_val@U?$_Simple_types@D@std@@@std@@@2@XZ 00000001400fa200 f i main.obj
 0002:0003f2b0       ?begin@?$deque@GV?$allocator@G@std@@@std@@QEBA?AV?$_Deque_const_iterator@V?$_Deque_val@U?$_Deque_simple_types@G@std@@@std@@@2@XZ 00000001400fa2b0 f i main.obj
 0002:0003f370       ?begin@?$initializer_list@G@std@@QEBAPEBGXZ 00000001400fa370 f i main.obj
 0002:0003f3c0       ?begin@?$initializer_list@U?$pair@$$CBV?$basic_string@DU?$char_traits@D@std@@V?$allocator@D@2@@std@@G@std@@@std@@QEBAPEBU?$pair@$$CBV?$basic_string@DU?$char_traits@D@std@@V?$allocator@D@2@@std@@G@2@XZ 00000001400fa3c0 f i main.obj
 0002:0003f410       ?begin@?$initializer_list@V?$basic_string@DU?$char_traits@D@std@@V?$allocator@D@2@@std@@@std@@QEBAPEBV?$basic_string@DU?$char_traits@D@std@@V?$allocator@D@2@@2@XZ 00000001400fa410 f i main.obj
 0002:0003f460       ?c_str@?$_Yarn@D@std@@QEBAPEBDXZ 00000001400fa460 f i main.obj
 0002:0003f4f0       ?c_str@?$basic_string@DU?$char_traits@D@std@@V?$allocator@D@2@@std@@QEBAPEBDXZ 00000001400fa4f0 f i main.obj
 0002:0003f560       ?c_str@locale@std@@QEBAPEBDXZ 00000001400fa560 f i main.obj
 0002:0003f600       ?capacity@?$basic_string@DU?$char_traits@D@std@@V?$allocator@D@2@@std@@QEBA_KXZ 00000001400fa600 f i main.obj
 0002:0003f660       ?capacity@?$vector@V?$basic_string@DU?$char_traits@D@std@@V?$allocator@D@2@@std@@V?$allocator@V?$basic_string@DU?$char_traits@D@std@@V?$allocator@D@2@@std@@@2@@std@@QEBA_KXZ 00000001400fa660 f i main.obj
 0002:0003f6f0       ?category@error_code@std@@QEBAAEBVerror_category@2@XZ 00000001400fa6f0 f i main.obj
 0002:0003f740       ?category@error_condition@std@@QEBAAEBVerror_category@2@XZ 00000001400fa740 f i main.obj
 0002:0003f790       ?clear@?$_Tree@V?$_Tmap_traits@V?$basic_string@DU?$char_traits@D@std@@V?$allocator@D@2@@std@@GU?$less@V?$basic_string@DU?$char_traits@D@std@@V?$allocator@D@2@@std@@@2@V?$allocator@U?$pair@$$CBV?$basic_string@DU?$char_traits@D@std@@V?$allocator@D@2@@std@@G@std@@@2@$0A@@std@@@std@@QEAAXXZ 00000001400fa790 f i main.obj
 0002:0003f8e0       ?clear@?$basic_ios@DU?$char_traits@D@std@@@std@@QEAAXH_N@Z 00000001400fa8e0 f i main.obj
 0002:0003f990       ?clear@ios_base@std@@QEAAXH@Z 00000001400fa990 f i main.obj
 0002:0003f9f0       ?clear@ios_base@std@@QEAAXH_N@Z 00000001400fa9f0 f i main.obj
 0002:0003fbd0       ?close@?$basic_filebuf@DU?$char_traits@D@std@@@std@@QEAAPEAV12@XZ 00000001400fabd0 f i main.obj
 0002:0003fcb0       ?close@?$basic_fstream@DU?$char_traits@D@std@@@std@@QEAAXXZ 00000001400facb0 f i main.obj
 0002:0003fd50       ?compare@?$basic_string@DU?$char_traits@D@std@@V?$allocator@D@2@@std@@QEBAHAEBV12@@Z 00000001400fad50 f i main.obj
 0002:0003fe20       ?compare@?$char_traits@D@std@@SAHQEBD0_K@Z 00000001400fae20 f i main.obj
 0002:0003fe90       ?copy@?$char_traits@D@std@@SAPEADQEADQEBD_K@Z 00000001400fae90 f i main.obj
 0002:0003ff00       ?data@?$basic_string@DU?$char_traits@D@std@@V?$allocator@D@2@@std@@QEBAPEBDXZ 00000001400faf00 f i main.obj
 0002:0003ff70       ?deallocate@?$_Default_allocator_traits@V?$allocator@U?$_Tree_node@U?$pair@$$CBV?$basic_string@DU?$char_traits@D@std@@V?$allocator@D@2@@std@@G@std@@PEAX@std@@@std@@@std@@SAXAEAV?$allocator@U?$_Tree_node@U?$pair@$$CBV?$basic_string@DU?$char_traits@D@std@@V?$allocator@D@2@@std@@G@std@@PEAX@std@@@2@QEAU?$_Tree_node@U?$pair@$$CBV?$basic_string@DU?$char_traits@D@std@@V?$allocator@D@2@@std@@G@std@@PEAX@2@_K@Z 00000001400faf70 f i main.obj
 0002:0003fff0       ?deallocate@?$_Default_allocator_traits@V?$allocator@U_Container_proxy@std@@@std@@@std@@SAXAEAV?$allocator@U_Container_proxy@std@@@2@QEAU_Container_proxy@2@_K@Z 00000001400faff0 f i main.obj
 0002:00040070       ?deallocate@?$allocator@D@std@@QEAAXQEAD_K@Z 00000001400fb070 f i main.obj
 0002:000400f0       ?deallocate@?$allocator@G@std@@QEAAXQEAG_K@Z 00000001400fb0f0 f i main.obj
 0002:00040170       ?deallocate@?$allocator@PEAG@std@@QEAAXQEAPEAG_K@Z 00000001400fb170 f i main.obj
 0002:000401f0       ?deallocate@?$allocator@U?$_Tree_node@U?$pair@$$CBV?$basic_string@DU?$char_traits@D@std@@V?$allocator@D@2@@std@@G@std@@PEAX@std@@@std@@QEAAXQEAU?$_Tree_node@U?$pair@$$CBV?$basic_string@DU?$char_traits@D@std@@V?$allocator@D@2@@std@@G@std@@PEAX@2@_K@Z 00000001400fb1f0 f i main.obj
 0002:00040270       ?deallocate@?$allocator@V?$basic_string@DU?$char_traits@D@std@@V?$allocator@D@2@@std@@@std@@QEAAXQEAV?$basic_string@DU?$char_traits@D@std@@V?$allocator@D@2@@2@_K@Z 00000001400fb270 f i main.obj
 0002:000402f0       ?decimal_point@?$numpunct@D@std@@QEBADXZ 00000001400fb2f0 f i main.obj
 0002:00040350       ?default_error_condition@error_category@std@@UEBA?AVerror_condition@2@H@Z 00000001400fb350 f i main.obj
 0002:000403d0       ?do_always_noconv@?$codecvt@DDU_Mbstatet@@@std@@MEBA_NXZ 00000001400fb3d0 f i main.obj
 0002:00040420       ?do_always_noconv@codecvt_base@std@@MEBA_NXZ 00000001400fb420 f i main.obj
 0002:00040470       ?do_decimal_point@?$numpunct@D@std@@MEBADXZ 00000001400fb470 f i main.obj
 0002:000404c0       ?do_encoding@codecvt_base@std@@MEBAHXZ 00000001400fb4c0 f i main.obj
 0002:00040510       ?do_falsename@?$numpunct@D@std@@MEBA?AV?$basic_string@DU?$char_traits@D@std@@V?$allocator@D@2@@2@XZ 00000001400fb510 f i main.obj
 0002:000405a0       ?do_grouping@?$numpunct@D@std@@MEBA?AV?$basic_string@DU?$char_traits@D@std@@V?$allocator@D@2@@2@XZ 00000001400fb5a0 f i main.obj
 0002:00040630       ?do_in@?$codecvt@DDU_Mbstatet@@@std@@MEBAHAEAU_Mbstatet@@PEBD1AEAPEBDPEAD3AEAPEAD@Z 00000001400fb630 f i main.obj
 0002:00040750       ?do_length@?$codecvt@DDU_Mbstatet@@@std@@MEBAHAEAU_Mbstatet@@PEBD1_K@Z 00000001400fb750 f i main.obj
 0002:00040810       ?do_max_length@codecvt_base@std@@MEBAHXZ 00000001400fb810 f i main.obj
 0002:00040860       ?do_narrow@?$ctype@D@std@@MEBADDD@Z 00000001400fb860 f i main.obj
 0002:000408c0       ?do_narrow@?$ctype@D@std@@MEBAPEBDPEBD0DPEAD@Z 00000001400fb8c0 f i main.obj
 0002:00040980       ?do_out@?$codecvt@DDU_Mbstatet@@@std@@MEBAHAEAU_Mbstatet@@PEBD1AEAPEBDPEAD3AEAPEAD@Z 00000001400fb980 f i main.obj
 0002:00040aa0       ?do_put@?$num_put@DV?$ostreambuf_iterator@DU?$char_traits@D@std@@@std@@@std@@MEBA?AV?$ostreambuf_iterator@DU?$char_traits@D@std@@@2@V32@AEAVios_base@2@DJ@Z 00000001400fbaa0 f i main.obj
 0002:00040c00       ?do_put@?$num_put@DV?$ostreambuf_iterator@DU?$char_traits@D@std@@@std@@@std@@MEBA?AV?$ostreambuf_iterator@DU?$char_traits@D@std@@@2@V32@AEAVios_base@2@DK@Z 00000001400fbc00 f i main.obj
 0002:00040d60       ?do_put@?$num_put@DV?$ostreambuf_iterator@DU?$char_traits@D@std@@@std@@@std@@MEBA?AV?$ostreambuf_iterator@DU?$char_traits@D@std@@@2@V32@AEAVios_base@2@DN@Z 00000001400fbd60 f i main.obj
 0002:000410a0       ?do_put@?$num_put@DV?$ostreambuf_iterator@DU?$char_traits@D@std@@@std@@@std@@MEBA?AV?$ostreambuf_iterator@DU?$char_traits@D@std@@@2@V32@AEAVios_base@2@DO@Z 00000001400fc0a0 f i main.obj
 0002:000413e0       ?do_put@?$num_put@DV?$ostreambuf_iterator@DU?$char_traits@D@std@@@std@@@std@@MEBA?AV?$ostreambuf_iterator@DU?$char_traits@D@std@@@2@V32@AEAVios_base@2@DPEBX@Z 00000001400fc3e0 f i main.obj
 0002:00041510       ?do_put@?$num_put@DV?$ostreambuf_iterator@DU?$char_traits@D@std@@@std@@@std@@MEBA?AV?$ostreambuf_iterator@DU?$char_traits@D@std@@@2@V32@AEAVios_base@2@D_J@Z 00000001400fc510 f i main.obj
 0002:00041670       ?do_put@?$num_put@DV?$ostreambuf_iterator@DU?$char_traits@D@std@@@std@@@std@@MEBA?AV?$ostreambuf_iterator@DU?$char_traits@D@std@@@2@V32@AEAVios_base@2@D_K@Z 00000001400fc670 f i main.obj
 0002:000417d0       ?do_put@?$num_put@DV?$ostreambuf_iterator@DU?$char_traits@D@std@@@std@@@std@@MEBA?AV?$ostreambuf_iterator@DU?$char_traits@D@std@@@2@V32@AEAVios_base@2@D_N@Z 00000001400fc7d0 f i main.obj
 0002:00041c50       ?do_thousands_sep@?$numpunct@D@std@@MEBADXZ 00000001400fcc50 f i main.obj
 0002:00041ca0       ?do_tolower@?$ctype@D@std@@MEBADD@Z 00000001400fcca0 f i main.obj
 0002:00041d10       ?do_tolower@?$ctype@D@std@@MEBAPEBDPEADPEBD@Z 00000001400fcd10 f i main.obj
 0002:00041df0       ?do_toupper@?$ctype@D@std@@MEBADD@Z 00000001400fcdf0 f i main.obj
 0002:00041e60       ?do_toupper@?$ctype@D@std@@MEBAPEBDPEADPEBD@Z 00000001400fce60 f i main.obj
 0002:00041f40       ?do_truename@?$numpunct@D@std@@MEBA?AV?$basic_string@DU?$char_traits@D@std@@V?$allocator@D@2@@2@XZ 00000001400fcf40 f i main.obj
 0002:00041fd0       ?do_unshift@?$codecvt@DDU_Mbstatet@@@std@@MEBAHAEAU_Mbstatet@@PEAD1AEAPEAD@Z 00000001400fcfd0 f i main.obj
 0002:00042040       ?do_widen@?$ctype@D@std@@MEBADD@Z 00000001400fd040 f i main.obj
 0002:00042090       ?do_widen@?$ctype@D@std@@MEBAPEBDPEBD0PEAD@Z 00000001400fd090 f i main.obj
 0002:00042150       ?eback@?$basic_streambuf@DU?$char_traits@D@std@@@std@@IEBAPEADXZ 00000001400fd150 f i main.obj
 0002:000421a0       ?egptr@?$basic_streambuf@DU?$char_traits@D@std@@@std@@IEBAPEADXZ 00000001400fd1a0 f i main.obj
 0002:00042210       ?empty@?$basic_string@DU?$char_traits@D@std@@V?$allocator@D@2@@std@@QEBA_NXZ 00000001400fd210 f i main.obj
 0002:00042290       ?empty@?$deque@GV?$allocator@G@std@@@std@@QEBA_NXZ 00000001400fd290 f i main.obj
 0002:00042310       ?end@?$_Tree@V?$_Tmap_traits@V?$basic_string@DU?$char_traits@D@std@@V?$allocator@D@2@@std@@GU?$less@V?$basic_string@DU?$char_traits@D@std@@V?$allocator@D@2@@std@@@2@V?$allocator@U?$pair@$$CBV?$basic_string@DU?$char_traits@D@std@@V?$allocator@D@2@@std@@G@std@@@2@$0A@@std@@@std@@QEAA?AV?$_Tree_iterator@V?$_Tree_val@U?$_Tree_simple_types@U?$pair@$$CBV?$basic_string@DU?$char_traits@D@std@@V?$allocator@D@2@@std@@G@std@@@std@@@std@@@2@XZ 00000001400fd310 f i main.obj
 0002:000423d0       ?end@?$_Tree@V?$_Tmap_traits@V?$basic_string@DU?$char_traits@D@std@@V?$allocator@D@2@@std@@GU?$less@V?$basic_string@DU?$char_traits@D@std@@V?$allocator@D@2@@std@@@2@V?$allocator@U?$pair@$$CBV?$basic_string@DU?$char_traits@D@std@@V?$allocator@D@2@@std@@G@std@@@2@$0A@@std@@@std@@QEBA?AV?$_Tree_const_iterator@V?$_Tree_val@U?$_Tree_simple_types@U?$pair@$$CBV?$basic_string@DU?$char_traits@D@std@@V?$allocator@D@2@@std@@G@std@@@std@@@std@@@2@XZ 00000001400fd3d0 f i main.obj
 0002:00042490       ?end@?$deque@GV?$allocator@G@std@@@std@@QEAA?AV?$_Deque_iterator@V?$_Deque_val@U?$_Deque_simple_types@G@std@@@std@@@2@XZ 00000001400fd490 f i main.obj
 0002:00042570       ?end@?$initializer_list@G@std@@QEBAPEBGXZ 00000001400fd570 f i main.obj
 0002:000425c0       ?end@?$initializer_list@U?$pair@$$CBV?$basic_string@DU?$char_traits@D@std@@V?$allocator@D@2@@std@@G@std@@@std@@QEBAPEBU?$pair@$$CBV?$basic_string@DU?$char_traits@D@std@@V?$allocator@D@2@@std@@G@2@XZ 00000001400fd5c0 f i main.obj
 0002:00042610       ?end@?$initializer_list@V?$basic_string@DU?$char_traits@D@std@@V?$allocator@D@2@@std@@@std@@QEBAPEBV?$basic_string@DU?$char_traits@D@std@@V?$allocator@D@2@@2@XZ 00000001400fd610 f i main.obj
 0002:00042660       ?entropy@random_device@std@@QEBANXZ 00000001400fd660 f i main.obj
 0002:000426b0       ?eof@?$char_traits@D@std@@SAHXZ 00000001400fd6b0 f i main.obj
 0002:000426f0       ?eof@ios_base@std@@QEBA_NXZ 00000001400fd6f0 f i main.obj
 0002:00042750       ?epptr@?$basic_streambuf@DU?$char_traits@D@std@@@std@@IEBAPEADXZ 00000001400fd750 f i main.obj
 0002:000427c0       ?eq@?$char_traits@D@std@@SA_NAEBD0@Z 00000001400fd7c0 f i main.obj
 0002:00042850       ?eq_int_type@?$char_traits@D@std@@SA_NAEBH0@Z 00000001400fd850 f i main.obj
 0002:000428e0       ?equivalent@error_category@std@@UEBA_NAEBVerror_code@2@H@Z 00000001400fd8e0 f i main.obj
 0002:000429a0       ?equivalent@error_category@std@@UEBA_NHAEBVerror_condition@2@@Z 00000001400fd9a0 f i main.obj
 0002:00042a30       ?erase@?$_Tree@V?$_Tmap_traits@V?$basic_string@DU?$char_traits@D@std@@V?$allocator@D@2@@std@@GU?$less@V?$basic_string@DU?$char_traits@D@std@@V?$allocator@D@2@@std@@@2@V?$allocator@U?$pair@$$CBV?$basic_string@DU?$char_traits@D@std@@V?$allocator@D@2@@std@@G@std@@@2@$0A@@std@@@std@@QEAA?AV?$_Tree_iterator@V?$_Tree_val@U?$_Tree_simple_types@U?$pair@$$CBV?$basic_string@DU?$char_traits@D@std@@V?$allocator@D@2@@std@@G@std@@@std@@@std@@@2@V?$_Tree_const_iterator@V?$_Tree_val@U?$_Tree_simple_types@U?$pair@$$CBV?$basic_string@DU?$char_traits@D@std@@V?$allocator@D@2@@std@@G@std@@@std@@@std@@@2@0@Z 00000001400fda30 f i main.obj
 0002:00042d80       ?erase@?$_Tree@V?$_Tmap_traits@V?$basic_string@DU?$char_traits@D@std@@V?$allocator@D@2@@std@@GU?$less@V?$basic_string@DU?$char_traits@D@std@@V?$allocator@D@2@@std@@@2@V?$allocator@U?$pair@$$CBV?$basic_string@DU?$char_traits@D@std@@V?$allocator@D@2@@std@@G@std@@@2@$0A@@std@@@std@@QEAA?AV?$_Tree_iterator@V?$_Tree_val@U?$_Tree_simple_types@U?$pair@$$CBV?$basic_string@DU?$char_traits@D@std@@V?$allocator@D@2@@std@@G@std@@@std@@@std@@@2@V?$_Tree_const_iterator@V?$_Tree_val@U?$_Tree_simple_types@U?$pair@$$CBV?$basic_string@DU?$char_traits@D@std@@V?$allocator@D@2@@std@@G@std@@@std@@@std@@@2@@Z 00000001400fdd80 f i main.obj
 0002:00043020       ?erase@?$basic_string@DU?$char_traits@D@std@@V?$allocator@D@2@@std@@QEAAAEAV12@_K@Z 00000001400fe020 f i main.obj
 0002:000430b0       ?erase@?$basic_string@DU?$char_traits@D@std@@V?$allocator@D@2@@std@@QEAAAEAV12@_K_K@Z 00000001400fe0b0 f i main.obj
 0002:00043210       ?failed@?$ostreambuf_iterator@DU?$char_traits@D@std@@@std@@QEBA_NXZ 00000001400fe210 f i main.obj
 0002:00043260       ?falsename@?$numpunct@D@std@@QEBA?AV?$basic_string@DU?$char_traits@D@std@@V?$allocator@D@2@@2@XZ 00000001400fe260 f i main.obj
 0002:00043300       ?fill@?$basic_ios@DU?$char_traits@D@std@@@std@@QEBADXZ 00000001400fe300 f i main.obj
 0002:00043350       ?find@?$basic_string@DU?$char_traits@D@std@@V?$allocator@D@2@@std@@QEBA_KQEBD_K@Z 00000001400fe350 f i main.obj
 0002:00043420       ?find@?$char_traits@D@std@@SAPEBDQEBD_KAEBD@Z 00000001400fe420 f i main.obj
 0002:000434a0       ?flags@ios_base@std@@QEBAHXZ 00000001400fe4a0 f i main.obj
 0002:000434f0       ?flush@?$basic_ostream@DU?$char_traits@D@std@@@std@@QEAAAEAV12@XZ 00000001400fe4f0 f i main.obj
 0002:00043670       ?gbump@?$basic_streambuf@DU?$char_traits@D@std@@@std@@IEAAXH@Z 00000001400fe670 f i main.obj
 0002:00043710       ?get_allocator@?$basic_string@DU?$char_traits@D@std@@V?$allocator@D@2@@std@@QEBA?AV?$allocator@D@2@XZ 00000001400fe710 f i main.obj
 0002:00043770       ?getloc@?$basic_streambuf@DU?$char_traits@D@std@@@std@@QEBA?AVlocale@2@XZ 00000001400fe770 f i main.obj
 0002:00043800       ?getloc@ios_base@std@@QEBA?AVlocale@2@XZ 00000001400fe800 f i main.obj
 0002:00043890       ?good@ios_base@std@@QEBA_NXZ 00000001400fe890 f i main.obj
 0002:00043910       ?gptr@?$basic_streambuf@DU?$char_traits@D@std@@@std@@IEBAPEADXZ 00000001400fe910 f i main.obj
 0002:00043960       ?grouping@?$numpunct@D@std@@QEBA?AV?$basic_string@DU?$char_traits@D@std@@V?$allocator@D@2@@2@XZ 00000001400fe960 f i main.obj
 0002:00043a00       ?imbue@?$basic_filebuf@DU?$char_traits@D@std@@@std@@MEAAXAEBVlocale@2@@Z 00000001400fea00 f i main.obj
 0002:00043a70       ?imbue@?$basic_streambuf@DU?$char_traits@D@std@@@std@@MEAAXAEBVlocale@2@@Z 00000001400fea70 f i main.obj
 0002:00043ac0       ?in@?$codecvt@DDU_Mbstatet@@@std@@QEBAHAEAU_Mbstatet@@PEBD1AEAPEBDPEAD3AEAPEAD@Z 00000001400feac0 f i main.obj
 0002:00043b90       ?init@?$basic_ios@DU?$char_traits@D@std@@@std@@IEAAXPEAV?$basic_streambuf@DU?$char_traits@D@std@@@2@_N@Z 00000001400feb90 f i main.obj
 0002:00043c80       ?insert@?$_Tree@V?$_Tmap_traits@V?$basic_string@DU?$char_traits@D@std@@V?$allocator@D@2@@std@@GU?$less@V?$basic_string@DU?$char_traits@D@std@@V?$allocator@D@2@@std@@@2@V?$allocator@U?$pair@$$CBV?$basic_string@DU?$char_traits@D@std@@V?$allocator@D@2@@std@@G@std@@@2@$0A@@std@@@std@@QEAAXV?$initializer_list@U?$pair@$$CBV?$basic_string@DU?$char_traits@D@std@@V?$allocator@D@2@@std@@G@std@@@2@@Z 00000001400fec80 f i main.obj
 0002:00043d10       ?insert@?$basic_string@DU?$char_traits@D@std@@V?$allocator@D@2@@std@@QEAAAEAV12@_K0D@Z 00000001400fed10 f i main.obj
 0002:00043ed0       ?insert@?$basic_string@DU?$char_traits@D@std@@V?$allocator@D@2@@std@@QEAAAEAV12@_KAEBV12@@Z 00000001400feed0 f i main.obj
 0002:00043f70       ?insert@?$basic_string@DU?$char_traits@D@std@@V?$allocator@D@2@@std@@QEAAAEAV12@_KQEBD0@Z 00000001400fef70 f i main.obj
 0002:00044230       ?iostream_category@std@@YAAEBVerror_category@1@XZ 00000001400ff230 f i main.obj
 0002:00044280       ?is@?$ctype@D@std@@QEBA_NFD@Z 00000001400ff280 f i main.obj
 0002:00044320       ?length@?$char_traits@D@std@@SA_KQEBD@Z 00000001400ff320 f i main.obj
 0002:00044370       ?lower_bound@?$_Tree@V?$_Tmap_traits@V?$basic_string@DU?$char_traits@D@std@@V?$allocator@D@2@@std@@GU?$less@V?$basic_string@DU?$char_traits@D@std@@V?$allocator@D@2@@std@@@2@V?$allocator@U?$pair@$$CBV?$basic_string@DU?$char_traits@D@std@@V?$allocator@D@2@@std@@G@std@@@2@$0A@@std@@@std@@QEBA?AV?$_Tree_const_iterator@V?$_Tree_val@U?$_Tree_simple_types@U?$pair@$$CBV?$basic_string@DU?$char_traits@D@std@@V?$allocator@D@2@@std@@G@std@@@std@@@std@@@2@AEBV?$basic_string@DU?$char_traits@D@std@@V?$allocator@D@2@@2@@Z 00000001400ff370 f i main.obj
 0002:00044440       ?make_error_code@std@@YA?AVerror_code@1@W4io_errc@1@@Z 00000001400ff440 f i main.obj
 0002:000444b0       ?max@?$numeric_limits@_J@std@@SA_JXZ 00000001400ff4b0 f i main.obj
 0002:000444f0       ?max@random_device@std@@SAIXZ 00000001400ff4f0 f i main.obj
 0002:00044530       ?max_size@?$_Default_allocator_traits@V?$allocator@D@std@@@std@@SA_KAEBV?$allocator@D@2@@Z 00000001400ff530 f i main.obj
 0002:00044580       ?max_size@?$_Default_allocator_traits@V?$allocator@G@std@@@std@@SA_KAEBV?$allocator@G@2@@Z 00000001400ff580 f i main.obj
 0002:000445d0       ?max_size@?$_Default_allocator_traits@V?$allocator@U?$_Tree_node@U?$pair@$$CBV?$basic_string@DU?$char_traits@D@std@@V?$allocator@D@2@@std@@G@std@@PEAX@std@@@std@@@std@@SA_KAEBV?$allocator@U?$_Tree_node@U?$pair@$$CBV?$basic_string@DU?$char_traits@D@std@@V?$allocator@D@2@@std@@G@std@@PEAX@std@@@2@@Z 00000001400ff5d0 f i main.obj
 0002:00044620       ?max_size@?$_Default_allocator_traits@V?$allocator@V?$basic_string@DU?$char_traits@D@std@@V?$allocator@D@2@@std@@@std@@@std@@SA_KAEBV?$allocator@V?$basic_string@DU?$char_traits@D@std@@V?$allocator@D@2@@std@@@2@@Z 00000001400ff620 f i main.obj
 0002:00044670       ?max_size@?$_Tree@V?$_Tmap_traits@V?$basic_string@DU?$char_traits@D@std@@V?$allocator@D@2@@std@@GU?$less@V?$basic_string@DU?$char_traits@D@std@@V?$allocator@D@2@@std@@@2@V?$allocator@U?$pair@$$CBV?$basic_string@DU?$char_traits@D@std@@V?$allocator@D@2@@std@@G@std@@@2@$0A@@std@@@std@@QEBA_KXZ 00000001400ff670 f i main.obj
 0002:000446d0       ?max_size@?$basic_string@DU?$char_traits@D@std@@V?$allocator@D@2@@std@@QEBA_KXZ 00000001400ff6d0 f i main.obj
 0002:000447e0       ?max_size@?$deque@GV?$allocator@G@std@@@std@@QEBA_KXZ 00000001400ff7e0 f i main.obj
 0002:00044840       ?max_size@?$vector@V?$basic_string@DU?$char_traits@D@std@@V?$allocator@D@2@@std@@V?$allocator@V?$basic_string@DU?$char_traits@D@std@@V?$allocator@D@2@@std@@@2@@std@@QEBA_KXZ 00000001400ff840 f i main.obj
 0002:000448d0       ?message@_Generic_error_category@std@@UEBA?AV?$basic_string@DU?$char_traits@D@std@@V?$allocator@D@2@@2@H@Z 00000001400ff8d0 f i main.obj
 0002:00044970       ?message@_Iostream_error_category@std@@UEBA?AV?$basic_string@DU?$char_traits@D@std@@V?$allocator@D@2@@2@H@Z 00000001400ff970 f i main.obj
 0002:00044a50       ?message@error_code@std@@QEBA?AV?$basic_string@DU?$char_traits@D@std@@V?$allocator@D@2@@2@XZ 00000001400ffa50 f i main.obj
 0002:00044b20       ?min@random_device@std@@SAIXZ 00000001400ffb20 f i main.obj
 0002:00044b60       ?move@?$char_traits@D@std@@SAPEADQEADQEBD_K@Z 00000001400ffb60 f i main.obj
 0002:00044bd0       ?name@_Generic_error_category@std@@UEBAPEBDXZ 00000001400ffbd0 f i main.obj
 0002:00044c20       ?name@_Iostream_error_category@std@@UEBAPEBDXZ 00000001400ffc20 f i main.obj
 0002:00044c70       ?not_eof@?$char_traits@D@std@@SAHAEBH@Z 00000001400ffc70 f i main.obj
 0002:00044d20       ?open@?$basic_filebuf@DU?$char_traits@D@std@@@std@@QEAAPEAV12@PEBDHH@Z 00000001400ffd20 f i main.obj
 0002:00044e60       ?open@?$basic_fstream@DU?$char_traits@D@std@@@std@@QEAAXPEBDHH@Z 00000001400ffe60 f i main.obj
 0002:00044f60       ?open@?$basic_ifstream@DU?$char_traits@D@std@@@std@@QEAAXPEBDHH@Z 00000001400fff60 f i main.obj
 0002:00045060       ?open@?$basic_ofstream@DU?$char_traits@D@std@@@std@@QEAAXPEBDHH@Z 0000000140100060 f i main.obj
 0002:00045160       ?out@?$codecvt@DDU_Mbstatet@@@std@@QEBAHAEAU_Mbstatet@@PEBD1AEAPEBDPEAD3AEAPEAD@Z 0000000140100160 f i main.obj
 0002:00045230       ?overflow@?$basic_filebuf@DU?$char_traits@D@std@@@std@@MEAAHH@Z 0000000140100230 f i main.obj
 0002:000458f0       ?overflow@?$basic_streambuf@DU?$char_traits@D@std@@@std@@MEAAHH@Z 00000001401008f0 f i main.obj
 0002:00045940       ?overflow@?$basic_stringbuf@DU?$char_traits@D@std@@V?$allocator@D@2@@std@@MEAAHH@Z 0000000140100940 f i main.obj
 0002:00045f50       ?pbackfail@?$basic_filebuf@DU?$char_traits@D@std@@@std@@MEAAHH@Z 0000000140100f50 f i main.obj
 0002:000461b0       ?pbackfail@?$basic_streambuf@DU?$char_traits@D@std@@@std@@MEAAHH@Z 00000001401011b0 f i main.obj
 0002:00046200       ?pbackfail@?$basic_stringbuf@DU?$char_traits@D@std@@V?$allocator@D@2@@std@@MEAAHH@Z 0000000140101200 f i main.obj
 0002:000463c0       ?pbase@?$basic_streambuf@DU?$char_traits@D@std@@@std@@IEBAPEADXZ 00000001401013c0 f i main.obj
 0002:00046410       ?pbump@?$basic_streambuf@DU?$char_traits@D@std@@@std@@IEAAXH@Z 0000000140101410 f i main.obj
 0002:000464b0       ?pointer_to@?$pointer_traits@PEAD@std@@SAPEADAEAD@Z 00000001401014b0 f i main.obj
 0002:00046500       ?pointer_to@?$pointer_traits@PEBU?$pair@$$CBV?$basic_string@DU?$char_traits@D@std@@V?$allocator@D@2@@std@@G@std@@@std@@SAPEBU?$pair@$$CBV?$basic_string@DU?$char_traits@D@std@@V?$allocator@D@2@@std@@G@2@AEBU32@@Z 0000000140101500 f i main.obj
 0002:00046550       ?pop_back@?$deque@GV?$allocator@G@std@@@std@@QEAAXXZ 0000000140101550 f i main.obj
 0002:00046750       ?pptr@?$basic_streambuf@DU?$char_traits@D@std@@@std@@IEBAPEADXZ 0000000140101750 f i main.obj
 0002:000467a0       ?precision@ios_base@std@@QEBA_JXZ 00000001401017a0 f i main.obj
 0002:000467f0       ?pubsync@?$basic_streambuf@DU?$char_traits@D@std@@@std@@QEAAHXZ 00000001401017f0 f i main.obj
 0002:00046850       ?push_back@?$basic_string@DU?$char_traits@D@std@@V?$allocator@D@2@@std@@QEAAXD@Z 0000000140101850 f i main.obj
 0002:00046990       ?put@?$basic_ostream@DU?$char_traits@D@std@@@std@@QEAAAEAV12@D@Z 0000000140101990 f i main.obj
 0002:00046b60       ?put@?$num_put@DV?$ostreambuf_iterator@DU?$char_traits@D@std@@@std@@@std@@QEBA?AV?$ostreambuf_iterator@DU?$char_traits@D@std@@@2@V32@AEAVios_base@2@DJ@Z 0000000140101b60 f i main.obj
 0002:00046c30       ?put@?$num_put@DV?$ostreambuf_iterator@DU?$char_traits@D@std@@@std@@@std@@QEBA?AV?$ostreambuf_iterator@DU?$char_traits@D@std@@@2@V32@AEAVios_base@2@DK@Z 0000000140101c30 f i main.obj
 0002:00046d00       ?rdbuf@?$basic_ios@DU?$char_traits@D@std@@@std@@QEBAPEAV?$basic_streambuf@DU?$char_traits@D@std@@@2@XZ 0000000140101d00 f i main.obj
 0002:00046d50       ?rdstate@ios_base@std@@QEBAHXZ 0000000140101d50 f i main.obj
 0002:00046da0       ?reserve@?$basic_string@DU?$char_traits@D@std@@V?$allocator@D@2@@std@@QEAAX_K@Z 0000000140101da0 f i main.obj
 0002:00046ef0       ?resize@?$basic_string@DU?$char_traits@D@std@@V?$allocator@D@2@@std@@QEAAX_KD@Z 0000000140101ef0 f i main.obj
 0002:00046fb0       ?sbumpc@?$basic_streambuf@DU?$char_traits@D@std@@@std@@QEAAHXZ 0000000140101fb0 f i main.obj
 0002:00047060       ?seed@?$mersenne_twister@_K$0EA@$0BDI@$0JM@$0BP@$0?EKPNJAKFFGJJOGBH@$0BN@$0BB@$0HBNGHPPPONKGAAAA@$0CF@$0?IBBCAAAAAAAAA@$0CL@@std@@QEAAX_K0@Z 0000000140102060 f i main.obj
 0002:00047180       ?seekoff@?$basic_filebuf@DU?$char_traits@D@std@@@std@@MEAA?AV?$fpos@U_Mbstatet@@@2@_JHH@Z 0000000140102180 f i main.obj
 0002:00047360       ?seekoff@?$basic_streambuf@DU?$char_traits@D@std@@@std@@MEAA?AV?$fpos@U_Mbstatet@@@2@_JHH@Z 0000000140102360 f i main.obj
 0002:000473e0       ?seekoff@?$basic_stringbuf@DU?$char_traits@D@std@@V?$allocator@D@2@@std@@MEAA?AV?$fpos@U_Mbstatet@@@2@_JHH@Z 00000001401023e0 f i main.obj
 0002:000478b0       ?seekpos@?$basic_filebuf@DU?$char_traits@D@std@@@std@@MEAA?AV?$fpos@U_Mbstatet@@@2@V32@H@Z 00000001401028b0 f i main.obj
 0002:00047aa0       ?seekpos@?$basic_streambuf@DU?$char_traits@D@std@@@std@@MEAA?AV?$fpos@U_Mbstatet@@@2@V32@H@Z 0000000140102aa0 f i main.obj
 0002:00047b20       ?seekpos@?$basic_stringbuf@DU?$char_traits@D@std@@V?$allocator@D@2@@std@@MEAA?AV?$fpos@U_Mbstatet@@@2@V32@H@Z 0000000140102b20 f i main.obj
 0002:00047e40       ?seekpos@?$fpos@U_Mbstatet@@@std@@QEBA_JXZ 0000000140102e40 f i main.obj
 0002:00047e90       ?select_on_container_copy_construction@?$_Default_allocator_traits@V?$allocator@D@std@@@std@@SA?AV?$allocator@D@2@AEBV32@@Z 0000000140102e90 f i main.obj
 0002:00047ee0       ?setbuf@?$basic_filebuf@DU?$char_traits@D@std@@@std@@MEAAPEAV?$basic_streambuf@DU?$char_traits@D@std@@@2@PEAD_J@Z 0000000140102ee0 f i main.obj
 0002:00047ff0       ?setbuf@?$basic_streambuf@DU?$char_traits@D@std@@@std@@MEAAPEAV12@PEAD_J@Z 0000000140102ff0 f i main.obj
 0002:00048050       ?setg@?$basic_streambuf@DU?$char_traits@D@std@@@std@@IEAAXPEAD00@Z 0000000140103050 f i main.obj
 0002:00048100       ?setp@?$basic_streambuf@DU?$char_traits@D@std@@@std@@IEAAXPEAD00@Z 0000000140103100 f i main.obj
 0002:000481b0       ?setp@?$basic_streambuf@DU?$char_traits@D@std@@@std@@IEAAXPEAD0@Z 00000001401031b0 f i main.obj
 0002:00048260       ?setstate@?$basic_ios@DU?$char_traits@D@std@@@std@@QEAAXH_N@Z 0000000140103260 f i main.obj
 0002:000482f0       ?sgetc@?$basic_streambuf@DU?$char_traits@D@std@@@std@@QEAAHXZ 00000001401032f0 f i main.obj
 0002:000483a0       ?showmanyc@?$basic_streambuf@DU?$char_traits@D@std@@@std@@MEAA_JXZ 00000001401033a0 f i main.obj
 0002:000483f0       ?size@?$_Tree@V?$_Tmap_traits@V?$basic_string@DU?$char_traits@D@std@@V?$allocator@D@2@@std@@GU?$less@V?$basic_string@DU?$char_traits@D@std@@V?$allocator@D@2@@std@@@2@V?$allocator@U?$pair@$$CBV?$basic_string@DU?$char_traits@D@std@@V?$allocator@D@2@@std@@G@std@@@2@$0A@@std@@@std@@QEBA_KXZ 00000001401033f0 f i main.obj
 0002:00048450       ?size@?$basic_string@DU?$char_traits@D@std@@V?$allocator@D@2@@std@@QEBA_KXZ 0000000140103450 f i main.obj
 0002:000484b0       ?size@?$vector@V?$basic_string@DU?$char_traits@D@std@@V?$allocator@D@2@@std@@V?$allocator@V?$basic_string@DU?$char_traits@D@std@@V?$allocator@D@2@@std@@@2@@std@@QEBA_KXZ 00000001401034b0 f i main.obj
 0002:00048540       ?snextc@?$basic_streambuf@DU?$char_traits@D@std@@@std@@QEAAHXZ 0000000140103540 f i main.obj
 0002:00048640       ?sputc@?$basic_streambuf@DU?$char_traits@D@std@@@std@@QEAAHD@Z 0000000140103640 f i main.obj
 0002:00048730       ?sputn@?$basic_streambuf@DU?$char_traits@D@std@@@std@@QEAA_JPEBD_J@Z 0000000140103730 f i main.obj
 0002:000487b0       ?state@?$fpos@U_Mbstatet@@@std@@QEBA?AU_Mbstatet@@XZ 00000001401037b0 f i main.obj
 0002:00048820       ?str@?$basic_stringbuf@DU?$char_traits@D@std@@V?$allocator@D@2@@std@@QEBA?AV?$basic_string@DU?$char_traits@D@std@@V?$allocator@D@2@@2@XZ 0000000140103820 f i main.obj
 0002:00048b10       ?str@?$basic_stringstream@DU?$char_traits@D@std@@V?$allocator@D@2@@std@@QEBA?AV?$basic_string@DU?$char_traits@D@std@@V?$allocator@D@2@@2@XZ 0000000140103b10 f i main.obj
 0002:00048ba0       ?substr@?$basic_string@DU?$char_traits@D@std@@V?$allocator@D@2@@std@@QEBA?AV12@_K0@Z 0000000140103ba0 f i main.obj
 0002:00048c70       ?sync@?$basic_filebuf@DU?$char_traits@D@std@@@std@@MEAAHXZ 0000000140103c70 f i main.obj
 0002:00048d70       ?sync@?$basic_streambuf@DU?$char_traits@D@std@@@std@@MEAAHXZ 0000000140103d70 f i main.obj
 0002:00048dc0       ?thousands_sep@?$numpunct@D@std@@QEBADXZ 0000000140103dc0 f i main.obj
 0002:00048e20       ?tie@?$basic_ios@DU?$char_traits@D@std@@@std@@QEBAPEAV?$basic_ostream@DU?$char_traits@D@std@@@2@XZ 0000000140103e20 f i main.obj
 0002:00048e70       ?to_char_type@?$char_traits@D@std@@SADAEBH@Z 0000000140103e70 f i main.obj
 0002:00048ec0       ?to_int_type@?$char_traits@D@std@@SAHAEBD@Z 0000000140103ec0 f i main.obj
 0002:00048f10       ?truename@?$numpunct@D@std@@QEBA?AV?$basic_string@DU?$char_traits@D@std@@V?$allocator@D@2@@2@XZ 0000000140103f10 f i main.obj
 0002:00048fb0       ?uflow@?$basic_filebuf@DU?$char_traits@D@std@@@std@@MEAAHXZ 0000000140103fb0 f i main.obj
 0002:000495d0       ?uflow@?$basic_streambuf@DU?$char_traits@D@std@@@std@@MEAAHXZ 00000001401045d0 f i main.obj
 0002:000496a0       ?underflow@?$basic_filebuf@DU?$char_traits@D@std@@@std@@MEAAHXZ 00000001401046a0 f i main.obj
 0002:00049800       ?underflow@?$basic_streambuf@DU?$char_traits@D@std@@@std@@MEAAHXZ 0000000140104800 f i main.obj
 0002:00049850       ?underflow@?$basic_stringbuf@DU?$char_traits@D@std@@V?$allocator@D@2@@std@@MEAAHXZ 0000000140104850 f i main.obj
 0002:00049a50       ?unshift@?$codecvt@DDU_Mbstatet@@@std@@QEBAHAEAU_Mbstatet@@PEAD1AEAPEAD@Z 0000000140104a50 f i main.obj
 0002:00049af0       ?value@error_code@std@@QEBAHXZ 0000000140104af0 f i main.obj
 0002:00049b40       ?value@error_condition@std@@QEBAHXZ 0000000140104b40 f i main.obj
 0002:00049b90       ?what@exception@std@@UEBAPEBDXZ 0000000140104b90 f i main.obj
 0002:00049c20       ?widen@?$basic_ios@DU?$char_traits@D@std@@@std@@QEBADD@Z 0000000140104c20 f i main.obj
 0002:00049ce0       ?widen@?$ctype@D@std@@QEBADD@Z 0000000140104ce0 f i main.obj
 0002:00049d50       ?widen@?$ctype@D@std@@QEBAPEBDPEBD0PEAD@Z 0000000140104d50 f i main.obj
 0002:00049de0       ?width@ios_base@std@@QEAA_J_J@Z 0000000140104de0 f i main.obj
 0002:00049e60       ?width@ios_base@std@@QEBA_JXZ 0000000140104e60 f i main.obj
 0002:00049eb0       ?xsgetn@?$basic_streambuf@DU?$char_traits@D@std@@@std@@MEAA_JPEAD_J@Z 0000000140104eb0 f i main.obj
 0002:0004a0e0       ?xsputn@?$basic_streambuf@DU?$char_traits@D@std@@@std@@MEAA_JPEBD_J@Z 00000001401050e0 f i main.obj
 0002:0004a2e0       __local_stdio_printf_options 00000001401052e0 f i main.obj
 0002:0004a320       _vsprintf_s_l              0000000140105320 f i main.obj
 0002:0004a3f0       fabsl                      00000001401053f0 f i main.obj
 0002:0004a440       frexpl                     0000000140105440 f i main.obj
 0002:0004a4a0       main                       00000001401054a0 f   main.obj
 0002:0004a910       sprintf_s                  0000000140105910 f i main.obj
 0002:0004aa50       PlaySoundA                 0000000140105a50 f   winmm:WINMM.dll
 0002:0004aa56       GetStdHandle               0000000140105a56 f   kernel32:KERNEL32.dll
 0002:0004aa5c       CreateDirectoryA           0000000140105a5c f   kernel32:KERNEL32.dll
 0002:0004aa62       CreateFileA                0000000140105a62 f   kernel32:KERNEL32.dll
 0002:0004aa68       DeleteFileA                0000000140105a68 f   kernel32:KERNEL32.dll
 0002:0004aa6e       RemoveDirectoryA           0000000140105a6e f   kernel32:KERNEL32.dll
 0002:0004aa74       WriteFile                  0000000140105a74 f   kernel32:KERNEL32.dll
 0002:0004aa7a       CloseHandle                0000000140105a7a f   kernel32:KERNEL32.dll
 0002:0004aa80       Sleep                      0000000140105a80 f   kernel32:KERNEL32.dll
 0002:0004aa86       GetSystemTime              0000000140105a86 f   kernel32:KERNEL32.dll
 0002:0004aa8c       GetModuleHandleA           0000000140105a8c f   kernel32:KERNEL32.dll
 0002:0004aa92       LoadResource               0000000140105a92 f   kernel32:KERNEL32.dll
 0002:0004aa98       SizeofResource             0000000140105a98 f   kernel32:KERNEL32.dll
 0002:0004aa9e       FindResourceA              0000000140105a9e f   kernel32:KERNEL32.dll
 0002:0004aaa4       MoveFileA                  0000000140105aa4 f   kernel32:KERNEL32.dll
 0002:0004aaaa       GetConsoleCursorInfo       0000000140105aaa f   kernel32:KERNEL32.dll
 0002:0004aab0       SetConsoleCursorInfo       0000000140105ab0 f   kernel32:KERNEL32.dll
 0002:0004aab6       SetConsoleTextAttribute    0000000140105ab6 f   kernel32:KERNEL32.dll
 0002:0004aabc       LoadIconA                  0000000140105abc f   user32:USER32.dll
 0002:0004aad0       ??0_Init_locks@std@@QEAA@XZ 0000000140105ad0 f   libcpmtd:xlock.obj
 0002:0004ab50       ??0_Lockit@std@@QEAA@H@Z   0000000140105b50 f   libcpmtd:xlock.obj
 0002:0004abd0       ??0_Lockit@std@@QEAA@XZ    0000000140105bd0 f   libcpmtd:xlock.obj
 0002:0004ac30       ??1_Init_locks@std@@QEAA@XZ 0000000140105c30 f   libcpmtd:xlock.obj
 0002:0004acb0       ??1_Lockit@std@@QEAA@XZ    0000000140105cb0 f   libcpmtd:xlock.obj
 0002:0004ad10       ?_Init_locks_ctor@_Init_locks@std@@CAXPEAV12@@Z 0000000140105d10 f   libcpmtd:xlock.obj
 0002:0004ad90       ?_Init_locks_dtor@_Init_locks@std@@CAXPEAV12@@Z 0000000140105d90 f   libcpmtd:xlock.obj
 0002:0004ae10       ?_Lockit_ctor@_Lockit@std@@CAXPEAV12@@Z 0000000140105e10 f   libcpmtd:xlock.obj
 0002:0004ae50       ?_Lockit_ctor@_Lockit@std@@CAXPEAV12@H@Z 0000000140105e50 f   libcpmtd:xlock.obj
 0002:0004aec0       ?_Lockit_ctor@_Lockit@std@@SAXH@Z 0000000140105ec0 f   libcpmtd:xlock.obj
 0002:0004af10       ?_Lockit_dtor@_Lockit@std@@CAXPEAV12@@Z 0000000140105f10 f   libcpmtd:xlock.obj
 0002:0004af50       ?_Lockit_dtor@_Lockit@std@@SAXH@Z 0000000140105f50 f   libcpmtd:xlock.obj
 0002:0004afa0       _Lock_at_thread_exit_mutex 0000000140105fa0 f   libcpmtd:xlock.obj
 0002:0004afd0       _Unlock_at_thread_exit_mutex 0000000140105fd0 f   libcpmtd:xlock.obj
 0002:0004b000       ?uncaught_exception@std@@YA_NXZ 0000000140106000 f   libcpmtd:uncaught.obj
 0002:0004b020       ?uncaught_exceptions@std@@YAHXZ 0000000140106020 f   libcpmtd:uncaught.obj
 0002:0004b040       ?_Debug_message@std@@YAXPEBG0I@Z 0000000140106040 f   libcpmtd:stdthrow.obj
 0002:0004b080       ?_Debug_message@std@@YAXPEB_W0I@Z 0000000140106080 f   libcpmtd:stdthrow.obj
 0002:0004b0e0       ??0bad_alloc@std@@QEAA@AEBV01@@Z 00000001401060e0 f i libcpmtd:xthrow.obj
 0002:0004b130       ??0bad_alloc@std@@QEAA@XZ  0000000140106130 f i libcpmtd:xthrow.obj
 0002:0004b180       ??0bad_function_call@std@@QEAA@AEBV01@@Z 0000000140106180 f i libcpmtd:xthrow.obj
 0002:0004b1d0       ??0bad_function_call@std@@QEAA@XZ 00000001401061d0 f i libcpmtd:xthrow.obj
 0002:0004b210       ??0exception@std@@QEAA@XZ  0000000140106210 f i libcpmtd:xthrow.obj
 0002:0004b250       ??0invalid_argument@std@@QEAA@AEBV01@@Z 0000000140106250 f i libcpmtd:xthrow.obj
 0002:0004b2a0       ??0invalid_argument@std@@QEAA@PEBD@Z 00000001401062a0 f i libcpmtd:xthrow.obj
 0002:0004b2f0       ??0length_error@std@@QEAA@AEBV01@@Z 00000001401062f0 f i libcpmtd:xthrow.obj
 0002:0004b340       ??0length_error@std@@QEAA@PEBD@Z 0000000140106340 f i libcpmtd:xthrow.obj
 0002:0004b390       ??0logic_error@std@@QEAA@AEBV01@@Z 0000000140106390 f i libcpmtd:xthrow.obj
 0002:0004b3e0       ??0logic_error@std@@QEAA@PEBD@Z 00000001401063e0 f i libcpmtd:xthrow.obj
 0002:0004b430       ??0out_of_range@std@@QEAA@AEBV01@@Z 0000000140106430 f i libcpmtd:xthrow.obj
 0002:0004b480       ??0out_of_range@std@@QEAA@PEBD@Z 0000000140106480 f i libcpmtd:xthrow.obj
 0002:0004b4d0       ??0overflow_error@std@@QEAA@AEBV01@@Z 00000001401064d0 f i libcpmtd:xthrow.obj
 0002:0004b520       ??0overflow_error@std@@QEAA@PEBD@Z 0000000140106520 f i libcpmtd:xthrow.obj
 0002:0004b570       ??0regex_error@std@@QEAA@AEBV01@@Z 0000000140106570 f i libcpmtd:xthrow.obj
 0002:0004b5d0       ??0regex_error@std@@QEAA@W4error_type@regex_constants@1@@Z 00000001401065d0 f i libcpmtd:xthrow.obj
 0002:0004b630       ??1bad_alloc@std@@UEAA@XZ  0000000140106630 f i libcpmtd:xthrow.obj
 0002:0004b650       ??1bad_function_call@std@@UEAA@XZ 0000000140106650 f i libcpmtd:xthrow.obj
 0002:0004b670       ??1invalid_argument@std@@UEAA@XZ 0000000140106670 f i libcpmtd:xthrow.obj
 0002:0004b690       ??1length_error@std@@UEAA@XZ 0000000140106690 f i libcpmtd:xthrow.obj
 0002:0004b6b0       ??1logic_error@std@@UEAA@XZ 00000001401066b0 f i libcpmtd:xthrow.obj
 0002:0004b6d0       ??1out_of_range@std@@UEAA@XZ 00000001401066d0 f i libcpmtd:xthrow.obj
 0002:0004b6f0       ??1overflow_error@std@@UEAA@XZ 00000001401066f0 f i libcpmtd:xthrow.obj
 0002:0004b710       ??1regex_error@std@@UEAA@XZ 0000000140106710 f i libcpmtd:xthrow.obj
 0002:0004b730       ??_Gbad_alloc@std@@UEAAPEAXI@Z 0000000140106730 f i libcpmtd:xthrow.obj
 0002:0004b730       ??_Ebad_alloc@std@@UEAAPEAXI@Z 0000000140106730 f i libcpmtd:xthrow.obj
 0002:0004b780       ??_Gbad_function_call@std@@UEAAPEAXI@Z 0000000140106780 f i libcpmtd:xthrow.obj
 0002:0004b780       ??_Ebad_function_call@std@@UEAAPEAXI@Z 0000000140106780 f i libcpmtd:xthrow.obj
 0002:0004b7d0       ??_Einvalid_argument@std@@UEAAPEAXI@Z 00000001401067d0 f i libcpmtd:xthrow.obj
 0002:0004b7d0       ??_Ginvalid_argument@std@@UEAAPEAXI@Z 00000001401067d0 f i libcpmtd:xthrow.obj
 0002:0004b820       ??_Glength_error@std@@UEAAPEAXI@Z 0000000140106820 f i libcpmtd:xthrow.obj
 0002:0004b820       ??_Elength_error@std@@UEAAPEAXI@Z 0000000140106820 f i libcpmtd:xthrow.obj
 0002:0004b870       ??_Glogic_error@std@@UEAAPEAXI@Z 0000000140106870 f i libcpmtd:xthrow.obj
 0002:0004b870       ??_Elogic_error@std@@UEAAPEAXI@Z 0000000140106870 f i libcpmtd:xthrow.obj
 0002:0004b8c0       ??_Eout_of_range@std@@UEAAPEAXI@Z 00000001401068c0 f i libcpmtd:xthrow.obj
 0002:0004b8c0       ??_Gout_of_range@std@@UEAAPEAXI@Z 00000001401068c0 f i libcpmtd:xthrow.obj
 0002:0004b910       ??_Eoverflow_error@std@@UEAAPEAXI@Z 0000000140106910 f i libcpmtd:xthrow.obj
 0002:0004b910       ??_Goverflow_error@std@@UEAAPEAXI@Z 0000000140106910 f i libcpmtd:xthrow.obj
 0002:0004b960       ??_Gregex_error@std@@UEAAPEAXI@Z 0000000140106960 f i libcpmtd:xthrow.obj
 0002:0004b960       ??_Eregex_error@std@@UEAAPEAXI@Z 0000000140106960 f i libcpmtd:xthrow.obj
 0002:0004b9b0       ?_Stringify@regex_error@std@@CAPEBDW4error_type@regex_constants@2@@Z 00000001401069b0 f i libcpmtd:xthrow.obj
 0002:0004bb00       ?_Xbad_alloc@std@@YAXXZ    0000000140106b00 f   libcpmtd:xthrow.obj
 0002:0004bb30       ?_Xbad_function_call@std@@YAXXZ 0000000140106b30 f   libcpmtd:xthrow.obj
 0002:0004bb60       ?_Xinvalid_argument@std@@YAXPEBD@Z 0000000140106b60 f   libcpmtd:xthrow.obj
 0002:0004bba0       ?_Xlength_error@std@@YAXPEBD@Z 0000000140106ba0 f   libcpmtd:xthrow.obj
 0002:0004bbe0       ?_Xout_of_range@std@@YAXPEBD@Z 0000000140106be0 f   libcpmtd:xthrow.obj
 0002:0004bc20       ?_Xoverflow_error@std@@YAXPEBD@Z 0000000140106c20 f   libcpmtd:xthrow.obj
 0002:0004bc60       ?_Xregex_error@std@@YAXW4error_type@regex_constants@1@@Z 0000000140106c60 f   libcpmtd:xthrow.obj
 0002:0004bca0       ?_Xruntime_error@std@@YAXPEBD@Z 0000000140106ca0 f   libcpmtd:xthrow.obj
 0002:0004bce0       ?what@bad_function_call@std@@UEBAPEBDXZ 0000000140106ce0 f i libcpmtd:xthrow.obj
 0002:0004bcf0       _Getctype                  0000000140106cf0 f   libcpmtd:_tolower.obj
 0002:0004be00       _Tolower                   0000000140106e00 f   libcpmtd:_tolower.obj
 0002:0004c150       _Getcvt                    0000000140107150 f   libcpmtd:xwctomb.obj
 0002:0004c2a0       _Wcrtomb                   00000001401072a0 f   libcpmtd:xwctomb.obj
 0002:0004c450       __Wcrtomb_lk               0000000140107450 f   libcpmtd:xwctomb.obj
 0002:0004c4a0       _Toupper                   00000001401074a0 f   libcpmtd:_toupper.obj
 0002:0004c7f0       ??0?$_Yarn@D@std@@QEAA@PEBD@Z 00000001401077f0 f i libcpmtd:locale0.obj
 0002:0004c840       ??0_Fac_node@std@@QEAA@PEAU01@PEAV_Facet_base@1@@Z 0000000140107840 f i libcpmtd:locale0.obj
 0002:0004c880       ??0_Locimp@locale@std@@AEAA@AEBV012@@Z 0000000140107880 f i libcpmtd:locale0.obj
 0002:0004c960       ??0_Locimp@locale@std@@AEAA@_N@Z 0000000140107960 f i libcpmtd:locale0.obj
 0002:0004ca10       ??0locale@std@@AEAA@PEAV_Locimp@01@@Z 0000000140107a10 f i libcpmtd:locale0.obj
 0002:0004ca40       ??0locale@std@@QEAA@W4_Uninitialized@1@@Z 0000000140107a40 f i libcpmtd:locale0.obj
 0002:0004ca60       ??1_Fac_node@std@@QEAA@XZ  0000000140107a60 f i libcpmtd:locale0.obj
 0002:0004cb30       ??1_Fac_tidy_reg_t@std@@QEAA@XZ 0000000140107b30 f i libcpmtd:locale0.obj
 0002:0004cbc0       ??1_Locimp@locale@std@@MEAA@XZ 0000000140107bc0 f i libcpmtd:locale0.obj
 0002:0004cc30       ??2_Fac_node@std@@SAPEAX_K@Z 0000000140107c30 f i libcpmtd:locale0.obj
 0002:0004ccb0       ??3_Fac_node@std@@SAXPEAX@Z 0000000140107cb0 f i libcpmtd:locale0.obj
 0002:0004cce0       ??4?$_Yarn@D@std@@QEAAAEAV01@PEBD@Z 0000000140107ce0 f i libcpmtd:locale0.obj
 0002:0004cdf0       ??_G_Fac_node@std@@QEAAPEAXI@Z 0000000140107df0 f i libcpmtd:locale0.obj
 0002:0004ce60       ??_G_Locimp@locale@std@@MEAAPEAXI@Z 0000000140107e60 f i libcpmtd:locale0.obj
 0002:0004ce60       ??_E_Locimp@locale@std@@MEAAPEAXI@Z 0000000140107e60 f i libcpmtd:locale0.obj
 0002:0004ced0       ?_C_str@?$_Yarn@D@std@@QEBAPEBDXZ 0000000140107ed0 f i libcpmtd:locale0.obj
 0002:0004cf20       ?_Empty@?$_Yarn@D@std@@QEBA_NXZ 0000000140107f20 f i libcpmtd:locale0.obj
 0002:0004cf60       ?_Facet_Register@std@@YAXPEAV_Facet_base@1@@Z 0000000140107f60 f   libcpmtd:locale0.obj
 0002:0004cff0       ?_Getgloballocale@locale@std@@CAPEAV_Locimp@12@XZ 0000000140107ff0 f   libcpmtd:locale0.obj
 0002:0004d000       ?_Init@locale@std@@CAPEAV_Locimp@12@_N@Z 0000000140108000 f   libcpmtd:locale0.obj
 0002:0004d160       ?_Locimp_dtor@_Locimp@locale@std@@CAXPEAV123@@Z 0000000140108160 f   libcpmtd:locale0.obj
 0002:0004d2e0       ?_Locinfo_ctor@_Locinfo@std@@SAXPEAV12@PEBD@Z 00000001401082e0 f   libcpmtd:locale0.obj
 0002:0004d3b0       ?_Locinfo_dtor@_Locinfo@std@@SAXPEAV12@@Z 00000001401083b0 f   libcpmtd:locale0.obj
 0002:0004d410       ?_New_Locimp@_Locimp@locale@std@@CAPEAV123@AEBV123@@Z 0000000140108410 f   libcpmtd:locale0.obj
 0002:0004d490       ?_New_Locimp@_Locimp@locale@std@@CAPEAV123@_N@Z 0000000140108490 f   libcpmtd:locale0.obj
 0002:0004d510       ?_Setgloballocale@locale@std@@CAXPEAX@Z 0000000140108510 f   libcpmtd:locale0.obj
 0002:0004d560       ?classic@locale@std@@SAAEBV12@XZ 0000000140108560 f   libcpmtd:locale0.obj
 0002:0004d580       ?empty@locale@std@@SA?AV12@XZ 0000000140108580 f   libcpmtd:locale0.obj
 0002:0004d5e0       _Deletegloballocale        00000001401085e0 f   libcpmtd:locale0.obj
 0002:0004d6f0       ??$_Immortalize@V_Generic_error_category@std@@@std@@YAAEAV_Generic_error_category@0@XZ 00000001401086f0 f i libcpmtd:xonce.obj
 0002:0004d730       ??$_Immortalize@V_System_error_category@std@@@std@@YAAEAV_System_error_category@0@XZ 0000000140108730 f i libcpmtd:xonce.obj
 0002:0004d770       ??$_Immortalize_impl@V_Generic_error_category@std@@@std@@YAHPEAX0PEAPEAX@Z 0000000140108770 f i libcpmtd:xonce.obj
 0002:0004d7c0       ??$_Immortalize_impl@V_System_error_category@std@@@std@@YAHPEAX0PEAPEAX@Z 00000001401087c0 f i libcpmtd:xonce.obj
 0002:0004dfe0       ??0_System_error_category@std@@QEAA@XZ 0000000140108fe0 f i libcpmtd:xonce.obj
 0002:0004e030       ??0system_error@std@@QEAA@Verror_code@1@@Z 0000000140109030 f i libcpmtd:xonce.obj
 0002:0004e100       ??1_System_error_category@std@@UEAA@XZ 0000000140109100 f i libcpmtd:xonce.obj
 0002:0004e350       ??_E_System_error_category@std@@UEAAPEAXI@Z 0000000140109350 f i libcpmtd:xonce.obj
 0002:0004e350       ??_G_System_error_category@std@@UEAAPEAXI@Z 0000000140109350 f i libcpmtd:xonce.obj
 0002:0004e3a0       ?_Execute_once@std@@YAHAEAUonce_flag@1@P6AHPEAX1PEAPEAX@Z1@Z 00000001401093a0 f   libcpmtd:xonce.obj
 0002:0004e3e0       ?_XGetLastError@std@@YAXXZ 00000001401093e0 f   libcpmtd:xonce.obj
 0002:0004e470       ?default_error_condition@_System_error_category@std@@UEBA?AVerror_condition@2@H@Z 0000000140109470 f i libcpmtd:xonce.obj
 0002:0004e510       ?generic_category@std@@YAAEBVerror_category@1@XZ 0000000140109510 f i libcpmtd:xonce.obj
 0002:0004e530       ?message@_System_error_category@std@@UEBA?AV?$basic_string@DU?$char_traits@D@std@@V?$allocator@D@2@@2@H@Z 0000000140109530 f i libcpmtd:xonce.obj
 0002:0004e660       ?name@_System_error_category@std@@UEBAPEBDXZ 0000000140109660 f i libcpmtd:xonce.obj
 0002:0004e670       ?shrink_to_fit@?$basic_string@DU?$char_traits@D@std@@V?$allocator@D@2@@std@@QEAAXXZ 0000000140109670 f i libcpmtd:xonce.obj
 0002:0004e820       ?system_category@std@@YAAEBVerror_category@1@XZ 0000000140109820 f i libcpmtd:xonce.obj
 0002:0004e840       ??$?0$$V@?$_Compressed_pair@V?$allocator@_W@std@@V?$_String_val@U?$_Simple_types@_W@std@@@2@$00@std@@QEAA@U_Zero_then_variadic_args_t@1@@Z 0000000140109840 f i libcpmtd:syserror.obj
 0002:0004e880       ??$?0_W@?$allocator@U_Container_proxy@std@@@std@@QEAA@AEBV?$allocator@_W@1@@Z 0000000140109880 f i libcpmtd:syserror.obj
 0002:0004ea30       ??$_Unfancy@_W@std@@YAPEA_WPEA_W@Z 0000000140109a30 f i libcpmtd:syserror.obj
 0002:0004ea40       ??$addressof@PEA_W@std@@YAPEAPEA_WAEAPEA_W@Z 0000000140109a40 f i libcpmtd:syserror.obj
 0002:0004ea50       ??$addressof@V?$_String_val@U?$_Simple_types@_W@std@@@std@@@std@@YAPEAV?$_String_val@U?$_Simple_types@_W@std@@@0@AEAV10@@Z 0000000140109a50 f i libcpmtd:syserror.obj
 0002:0004ea60       ??$construct@PEA_WAEBQEA_W@?$_Default_allocator_traits@V?$allocator@_W@std@@@std@@SAXAEAV?$allocator@_W@1@QEAPEA_WAEBQEA_W@Z 0000000140109a60 f i libcpmtd:syserror.obj
 0002:0004eac0       ??$destroy@PEA_W@?$_Default_allocator_traits@V?$allocator@_W@std@@@std@@SAXAEAV?$allocator@_W@1@QEAPEA_W@Z 0000000140109ac0 f i libcpmtd:syserror.obj
 0002:0004ead0       ??$end@$$CBU_Sys_errtab_t@std@@$0EO@@std@@YAPEBU_Sys_errtab_t@0@AEAY0EO@$$CBU10@@Z 0000000140109ad0 f i libcpmtd:syserror.obj
 0002:0004eaf0       ??$end@$$CBU_Win_errtab_t@std@@$0EK@@std@@YAPEBU_Win_errtab_t@0@AEAY0EK@$$CBU10@@Z 0000000140109af0 f i libcpmtd:syserror.obj
 0002:0004eb10       ??$forward@AEBQEA_W@std@@YAAEBQEA_WAEBQEA_W@Z 0000000140109b10 f i libcpmtd:syserror.obj
 0002:0004eb20       ??0?$_String_alloc@U?$_String_base_types@_WV?$allocator@_W@std@@@std@@@std@@QEAA@XZ 0000000140109b20 f i libcpmtd:syserror.obj
 0002:0004eb70       ??0?$_String_val@U?$_Simple_types@_W@std@@@std@@QEAA@XZ 0000000140109b70 f i libcpmtd:syserror.obj
 0002:0004ebe0       ??0?$allocator@_W@std@@QEAA@XZ 0000000140109be0 f i libcpmtd:syserror.obj
 0002:0004ebf0       ??0?$basic_string@_WU?$char_traits@_W@std@@V?$allocator@_W@2@@std@@QEAA@_K_W@Z 0000000140109bf0 f i libcpmtd:syserror.obj
 0002:0004ec60       ??0_Bxty@?$_String_val@U?$_Simple_types@_W@std@@@std@@QEAA@XZ 0000000140109c60 f i libcpmtd:syserror.obj
 0002:0004ec70       ??1?$_Compressed_pair@V?$allocator@_W@std@@V?$_String_val@U?$_Simple_types@_W@std@@@2@$00@std@@QEAA@XZ 0000000140109c70 f i libcpmtd:syserror.obj
 0002:0004eca0       ??1?$_String_alloc@U?$_String_base_types@_WV?$allocator@_W@std@@@std@@@std@@QEAA@XZ 0000000140109ca0 f i libcpmtd:syserror.obj
 0002:0004ece0       ??1?$_String_val@U?$_Simple_types@_W@std@@@std@@QEAA@XZ 0000000140109ce0 f i libcpmtd:syserror.obj
 0002:0004ed20       ??1?$basic_string@_WU?$char_traits@_W@std@@V?$allocator@_W@2@@std@@QEAA@XZ 0000000140109d20 f i libcpmtd:syserror.obj
 0002:0004ed60       ??1_Bxty@?$_String_val@U?$_Simple_types@_W@std@@@std@@QEAA@XZ 0000000140109d60 f i libcpmtd:syserror.obj
 0002:0004ed70       ??A?$basic_string@_WU?$char_traits@_W@std@@V?$allocator@_W@2@@std@@QEAAAEA_W_K@Z 0000000140109d70 f i libcpmtd:syserror.obj
 0002:0004ee90       ?_Alloc_proxy@?$_String_alloc@U?$_String_base_types@_WV?$allocator@_W@std@@@std@@@std@@QEAAXXZ 0000000140109e90 f i libcpmtd:syserror.obj
 0002:0004ef70       ?_Calculate_growth@?$basic_string@_WU?$char_traits@_W@std@@V?$allocator@_W@2@@std@@QEBA_K_K@Z 0000000140109f70 f i libcpmtd:syserror.obj
 0002:0004f060       ?_Free_proxy@?$_String_alloc@U?$_String_base_types@_WV?$allocator@_W@std@@@std@@@std@@QEAAXXZ 000000014010a060 f i libcpmtd:syserror.obj
 0002:0004f0f0       ?_Get_data@?$_String_alloc@U?$_String_base_types@_WV?$allocator@_W@std@@@std@@@std@@QEAAAEAV?$_String_val@U?$_Simple_types@_W@std@@@2@XZ 000000014010a0f0 f i libcpmtd:syserror.obj
 0002:0004f120       ?_Get_data@?$_String_alloc@U?$_String_base_types@_WV?$allocator@_W@std@@@std@@@std@@QEBAAEBV?$_String_val@U?$_Simple_types@_W@std@@@2@XZ 000000014010a120 f i libcpmtd:syserror.obj
 0002:0004f150       ?_Get_first@?$_Compressed_pair@V?$allocator@_W@std@@V?$_String_val@U?$_Simple_types@_W@std@@@2@$00@std@@QEAAAEAV?$allocator@_W@2@XZ 000000014010a150 f i libcpmtd:syserror.obj
 0002:0004f160       ?_Get_first@?$_Compressed_pair@V?$allocator@_W@std@@V?$_String_val@U?$_Simple_types@_W@std@@@2@$00@std@@QEBAAEBV?$allocator@_W@2@XZ 000000014010a160 f i libcpmtd:syserror.obj
 0002:0004f170       ?_Get_second@?$_Compressed_pair@V?$allocator@_W@std@@V?$_String_val@U?$_Simple_types@_W@std@@@2@$00@std@@QEAAAEAV?$_String_val@U?$_Simple_types@_W@std@@@2@XZ 000000014010a170 f i libcpmtd:syserror.obj
 0002:0004f180       ?_Get_second@?$_Compressed_pair@V?$allocator@_W@std@@V?$_String_val@U?$_Simple_types@_W@std@@@2@$00@std@@QEBAAEBV?$_String_val@U?$_Simple_types@_W@std@@@2@XZ 000000014010a180 f i libcpmtd:syserror.obj
 0002:0004f190       ?_Getal@?$_String_alloc@U?$_String_base_types@_WV?$allocator@_W@std@@@std@@@std@@QEAAAEAV?$allocator@_W@2@XZ 000000014010a190 f i libcpmtd:syserror.obj
 0002:0004f1c0       ?_Getal@?$_String_alloc@U?$_String_base_types@_WV?$allocator@_W@std@@@std@@@std@@QEBAAEBV?$allocator@_W@2@XZ 000000014010a1c0 f i libcpmtd:syserror.obj
 0002:0004f1f0       ?_Large_string_engaged@?$_String_val@U?$_Simple_types@_W@std@@@std@@QEBA_NXZ 000000014010a1f0 f i libcpmtd:syserror.obj
 0002:0004f230       ?_Myproxy@?$_String_alloc@U?$_String_base_types@_WV?$allocator@_W@std@@@std@@@std@@QEAAAEAPEAU_Container_proxy@2@XZ 000000014010a230 f i libcpmtd:syserror.obj
 0002:0004f250       ?_Myptr@?$_String_val@U?$_Simple_types@_W@std@@@std@@QEAAPEA_WXZ 000000014010a250 f i libcpmtd:syserror.obj
 0002:0004f2b0       ?_Orphan_all@?$_String_alloc@U?$_String_base_types@_WV?$allocator@_W@std@@@std@@@std@@QEAAXXZ 000000014010a2b0 f i libcpmtd:syserror.obj
 0002:0004f2e0       ?_Syserror_map@std@@YAPEBDH@Z 000000014010a2e0 f   libcpmtd:syserror.obj
 0002:0004f370       ?_Tidy_deallocate@?$basic_string@_WU?$char_traits@_W@std@@V?$allocator@_W@2@@std@@QEAAXXZ 000000014010a370 f i libcpmtd:syserror.obj
 0002:0004f480       ?_Tidy_init@?$basic_string@_WU?$char_traits@_W@std@@V?$allocator@_W@2@@std@@QEAAXXZ 000000014010a480 f i libcpmtd:syserror.obj
 0002:0004f500       ?_Winerror_map@std@@YAHH@Z 000000014010a500 f   libcpmtd:syserror.obj
 0002:0004f580       ?_Winerror_message@std@@YAKKPEADK@Z 000000014010a580 f   libcpmtd:syserror.obj
 0002:0004f710       ?_Xlen@?$basic_string@_WU?$char_traits@_W@std@@V?$allocator@_W@2@@std@@SAXXZ 000000014010a710 f i libcpmtd:syserror.obj
 0002:0004f730       ?allocate@?$allocator@_W@std@@QEAAPEA_W_K@Z 000000014010a730 f i libcpmtd:syserror.obj
 0002:0004f770       ?assign@?$_WChar_traits@_W@std@@SAPEA_WQEA_W_K_W@Z 000000014010a770 f i libcpmtd:syserror.obj
 0002:0004f7b0       ?assign@?$_WChar_traits@_W@std@@SAXAEA_WAEB_W@Z 000000014010a7b0 f i libcpmtd:syserror.obj
 0002:0004f7e0       ?assign@?$basic_string@_WU?$char_traits@_W@std@@V?$allocator@_W@2@@std@@QEAAAEAV12@_K_W@Z 000000014010a7e0 f i libcpmtd:syserror.obj
 0002:0004f8e0       ?deallocate@?$allocator@_W@std@@QEAAXQEA_W_K@Z 000000014010a8e0 f i libcpmtd:syserror.obj
 0002:0004f920       ?max_size@?$_Default_allocator_traits@V?$allocator@_W@std@@@std@@SA_KAEBV?$allocator@_W@2@@Z 000000014010a920 f i libcpmtd:syserror.obj
 0002:0004f940       ?max_size@?$basic_string@_WU?$char_traits@_W@std@@V?$allocator@_W@2@@std@@QEBA_KXZ 000000014010a940 f i libcpmtd:syserror.obj
 0002:0004f9d0       wmemset                    000000014010a9d0 f i libcpmtd:syserror.obj
 0002:0004fa40       ?_Addstd@ios_base@std@@SAXPEAV12@@Z 000000014010aa40 f   libcpmtd:ios.obj
 0002:0004fb50       ?_Callfns@ios_base@std@@AEAAXW4event@12@@Z 000000014010ab50 f i libcpmtd:ios.obj
 0002:0004fbd0       ?_Ios_base_dtor@ios_base@std@@CAXPEAV12@@Z 000000014010abd0 f   libcpmtd:ios.obj
 0002:0004fca0       ?_Tidy@ios_base@std@@AEAAXXZ 000000014010aca0 f i libcpmtd:ios.obj
 0002:0004fd90       ??$_Xfiopen@D@std@@YAPEAU_iobuf@@PEBDHH@Z 000000014010ad90 f i libcpmtd:fiopen.obj
 0002:0004ff70       ??$_Xfiopen@_W@std@@YAPEAU_iobuf@@PEB_WHH@Z 000000014010af70 f i libcpmtd:fiopen.obj
 0002:00050150       ?_Fiopen@std@@YAPEAU_iobuf@@PEBDHH@Z 000000014010b150 f   libcpmtd:fiopen.obj
 0002:00050190       ?_Fiopen@std@@YAPEAU_iobuf@@PEBGHH@Z 000000014010b190 f   libcpmtd:fiopen.obj
 0002:000501d0       ?_Fiopen@std@@YAPEAU_iobuf@@PEB_WHH@Z 000000014010b1d0 f   libcpmtd:fiopen.obj
 0002:00050210       ?_Xfsopen@std@@YAPEAU_iobuf@@PEBDHH@Z 000000014010b210 f   libcpmtd:fiopen.obj
 0002:00050260       ?_Xfsopen@std@@YAPEAU_iobuf@@PEB_WHH@Z 000000014010b260 f   libcpmtd:fiopen.obj
 0002:000502b0       ?_Random_device@std@@YAIXZ 000000014010b2b0 f   libcpmtd:xrngdev.obj
 0002:00050ab0       ??0_Init_cin@std@@QEAA@XZ  000000014010bab0 f i libcpmtd:cin.obj
 0002:00050d40       ?tie@?$basic_ios@DU?$char_traits@D@std@@@std@@QEAAPEAV?$basic_ostream@DU?$char_traits@D@std@@@2@PEAV32@@Z 000000014010bd40 f i libcpmtd:cin.obj
 0002:000516e0       ??0_Init_cout@std@@QEAA@XZ 000000014010c6e0 f i libcpmtd:cout.obj
 0002:00051b90       _Mtxdst                    000000014010cb90 f   libcpmtd:xmtx.obj
 0002:00051bb0       _Mtxinit                   000000014010cbb0 f   libcpmtd:xmtx.obj
 0002:00051be0       _Mtxlock                   000000014010cbe0 f   libcpmtd:xmtx.obj
 0002:00051c00       _Mtxunlock                 000000014010cc00 f   libcpmtd:xmtx.obj
 0002:00051c20       ??0?$__crt_scoped_stack_ptr@_W@@QEAA@U?$__crt_scoped_stack_ptr_tag@_W@@@Z 000000014010cc20 f i libcpmtd:StlLCMapStringA.obj
 0002:00051c50       ??0?$__crt_scoped_stack_ptr_tag@_W@@QEAA@QEA_W@Z 000000014010cc50 f i libcpmtd:StlLCMapStringA.obj
 0002:00051c80       ??1?$__crt_scoped_stack_ptr@_W@@QEAA@XZ 000000014010cc80 f i libcpmtd:StlLCMapStringA.obj
 0002:00051cb0       ??B?$__crt_scoped_stack_ptr@_W@@QEBA_NXZ 000000014010ccb0 f i libcpmtd:StlLCMapStringA.obj
 0002:00051cf0       ?get@?$__crt_scoped_stack_ptr@_W@@QEBAPEA_WXZ 000000014010ccf0 f i libcpmtd:StlLCMapStringA.obj
 0002:00051d10       _MallocaComputeSize        000000014010cd10 f i libcpmtd:StlLCMapStringA.obj
 0002:00051d60       _MarkAllocaS               000000014010cd60 f i libcpmtd:StlLCMapStringA.obj
 0002:00051da0       __crtLCMapStringA          000000014010cda0 f   libcpmtd:StlLCMapStringA.obj
 0002:00052450       _freea_crt                 000000014010d450 f i libcpmtd:StlLCMapStringA.obj
 0002:00052510       ??1_Init_atexit@@QEAA@XZ   000000014010d510 f i libcpmtd:iosptrs.obj
 0002:000525b0       ?_Atexit@@YAXP6AXXZ@Z      000000014010d5b0 f   libcpmtd:iosptrs.obj
 0002:00052610       ??$?8DU?$char_traits@D@std@@@std@@YA_NAEBV?$istreambuf_iterator@DU?$char_traits@D@std@@@0@0@Z 000000014010d610 f i libcpmtd:locale.obj
 0002:00052640       ??$?9DU?$char_traits@D@std@@@std@@YA_NAEBV?$istreambuf_iterator@DU?$char_traits@D@std@@@0@0@Z 000000014010d640 f i libcpmtd:locale.obj
 0002:00052690       ??$_Debug_range2@V?$istreambuf_iterator@DU?$char_traits@D@std@@@std@@@std@@YAXV?$istreambuf_iterator@DU?$char_traits@D@std@@@0@0PEB_WIUinput_iterator_tag@0@@Z 000000014010d690 f i libcpmtd:locale.obj
 0002:000526d0       ??$_Debug_range@V?$istreambuf_iterator@DU?$char_traits@D@std@@@std@@@std@@YAXV?$istreambuf_iterator@DU?$char_traits@D@std@@@0@0PEB_WI@Z 000000014010d6d0 f i libcpmtd:locale.obj
 0002:00052770       ??$_Find_elem@D@std@@YA_KPEADD@Z 000000014010d770 f i libcpmtd:locale.obj
 0002:000527e0       ??$_Getloctxt@DV?$istreambuf_iterator@DU?$char_traits@D@std@@@std@@@std@@YAHAEAV?$istreambuf_iterator@DU?$char_traits@D@std@@@0@0_KPEBD@Z 000000014010d7e0 f i libcpmtd:locale.obj
 0002:000538a0       ??$use_facet@V?$num_get@DV?$istreambuf_iterator@DU?$char_traits@D@std@@@std@@@std@@@std@@YAAEBV?$num_get@DV?$istreambuf_iterator@DU?$char_traits@D@std@@@std@@@0@AEBVlocale@0@@Z 000000014010e8a0 f i libcpmtd:locale.obj
 0002:00053a10       ??0?$num_get@DV?$istreambuf_iterator@DU?$char_traits@D@std@@@std@@@std@@QEAA@AEBV_Locinfo@1@_K@Z 000000014010ea10 f i libcpmtd:locale.obj
 0002:00053a80       ??1?$num_get@DV?$istreambuf_iterator@DU?$char_traits@D@std@@@std@@@std@@MEAA@XZ 000000014010ea80 f i libcpmtd:locale.obj
 0002:00053ab0       ??D?$istreambuf_iterator@DU?$char_traits@D@std@@@std@@QEBADXZ 000000014010eab0 f i libcpmtd:locale.obj
 0002:00053b50       ??E?$istreambuf_iterator@DU?$char_traits@D@std@@@std@@QEAAAEAV01@XZ 000000014010eb50 f i libcpmtd:locale.obj
 0002:00053f70       ??_E?$num_get@DV?$istreambuf_iterator@DU?$char_traits@D@std@@@std@@@std@@MEAAPEAXI@Z 000000014010ef70 f i libcpmtd:locale.obj
 0002:00053f70       ??_G?$num_get@DV?$istreambuf_iterator@DU?$char_traits@D@std@@@std@@@std@@MEAAPEAXI@Z 000000014010ef70 f i libcpmtd:locale.obj
 0002:00053fe0       ?_Addfac@_Locimp@locale@std@@AEAAXPEAVfacet@23@_K@Z 000000014010efe0 f i libcpmtd:locale.obj
 0002:00054020       ?_Getcat@?$num_get@DV?$istreambuf_iterator@DU?$char_traits@D@std@@@std@@@std@@SA_KPEAPEBVfacet@locale@2@PEBV42@@Z 000000014010f020 f i libcpmtd:locale.obj
 0002:00054150       ?_Getffld@?$num_get@DV?$istreambuf_iterator@DU?$char_traits@D@std@@@std@@@std@@AEBAHPEADAEAV?$istreambuf_iterator@DU?$char_traits@D@std@@@2@1AEAVios_base@2@PEAH@Z 000000014010f150 f i libcpmtd:locale.obj
 0002:00055020       ?_Getffldx@?$num_get@DV?$istreambuf_iterator@DU?$char_traits@D@std@@@std@@@std@@AEBAHPEADAEAV?$istreambuf_iterator@DU?$char_traits@D@std@@@2@1AEAVios_base@2@PEAH@Z 0000000140110020 f i libcpmtd:locale.obj
 0002:00055e60       ?_Getifld@?$num_get@DV?$istreambuf_iterator@DU?$char_traits@D@std@@@std@@@std@@AEBAHPEADAEAV?$istreambuf_iterator@DU?$char_traits@D@std@@@2@1HAEBVlocale@2@@Z 0000000140110e60 f i libcpmtd:locale.obj
 0002:000566b0       ?_Getname@_Locinfo@std@@QEBAPEBDXZ 00000001401116b0 f i libcpmtd:locale.obj
 0002:000566e0       ?_Inc@?$istreambuf_iterator@DU?$char_traits@D@std@@@std@@AEAAXXZ 00000001401116e0 f i libcpmtd:locale.obj
 0002:00056770       ?_Init@?$num_get@DV?$istreambuf_iterator@DU?$char_traits@D@std@@@std@@@std@@IEAAXAEBV_Locinfo@2@@Z 0000000140111770 f i libcpmtd:locale.obj
 0002:00056780       ?_Locimp_Addfac@_Locimp@locale@std@@CAXPEAV123@PEAVfacet@23@_K@Z 0000000140111780 f   libcpmtd:locale.obj
 0002:00056a50       ?_Locimp_ctor@_Locimp@locale@std@@CAXPEAV123@AEBV123@@Z 0000000140111a50 f   libcpmtd:locale.obj
 0002:00056c20       ?_Locinfo_Addcats@_Locinfo@std@@SAAEAV12@PEAV12@HPEBD@Z 0000000140111c20 f   libcpmtd:locale.obj
 0002:00056dd0       ?_Locinfo_ctor@_Locinfo@std@@SAXPEAV12@HPEBD@Z 0000000140111dd0 f   libcpmtd:locale.obj
 0002:00056e60       ?_Makeloc@_Locimp@locale@std@@CAPEAV123@AEBV_Locinfo@3@HPEAV123@PEBV23@@Z 0000000140111e60 f   libcpmtd:locale.obj
 0002:00057520       ?_Peek@?$istreambuf_iterator@DU?$char_traits@D@std@@@std@@AEBADXZ 0000000140112520 f i libcpmtd:locale.obj
 0002:000575c0       ?_Stodx_v2@std@@YANPEBDPEAPEADHPEAH@Z 00000001401125c0 f i libcpmtd:locale.obj
 0002:00057690       ?_Stofx_v2@std@@YAMPEBDPEAPEADHPEAH@Z 0000000140112690 f i libcpmtd:locale.obj
 0002:00057760       ?do_get@?$num_get@DV?$istreambuf_iterator@DU?$char_traits@D@std@@@std@@@std@@MEBA?AV?$istreambuf_iterator@DU?$char_traits@D@std@@@2@V32@0AEAVios_base@2@AEAHAEAG@Z 0000000140112760 f i libcpmtd:locale.obj
 0002:00057a30       ?do_get@?$num_get@DV?$istreambuf_iterator@DU?$char_traits@D@std@@@std@@@std@@MEBA?AV?$istreambuf_iterator@DU?$char_traits@D@std@@@2@V32@0AEAVios_base@2@AEAHAEAI@Z 0000000140112a30 f i libcpmtd:locale.obj
 0002:00057d00       ?do_get@?$num_get@DV?$istreambuf_iterator@DU?$char_traits@D@std@@@std@@@std@@MEBA?AV?$istreambuf_iterator@DU?$char_traits@D@std@@@2@V32@0AEAVios_base@2@AEAHAEAJ@Z 0000000140112d00 f i libcpmtd:locale.obj
 0002:00057f40       ?do_get@?$num_get@DV?$istreambuf_iterator@DU?$char_traits@D@std@@@std@@@std@@MEBA?AV?$istreambuf_iterator@DU?$char_traits@D@std@@@2@V32@0AEAVios_base@2@AEAHAEAK@Z 0000000140112f40 f i libcpmtd:locale.obj
 0002:00058180       ?do_get@?$num_get@DV?$istreambuf_iterator@DU?$char_traits@D@std@@@std@@@std@@MEBA?AV?$istreambuf_iterator@DU?$char_traits@D@std@@@2@V32@0AEAVios_base@2@AEAHAEAM@Z 0000000140113180 f i libcpmtd:locale.obj
 0002:000583b0       ?do_get@?$num_get@DV?$istreambuf_iterator@DU?$char_traits@D@std@@@std@@@std@@MEBA?AV?$istreambuf_iterator@DU?$char_traits@D@std@@@2@V32@0AEAVios_base@2@AEAHAEAN@Z 00000001401133b0 f i libcpmtd:locale.obj
 0002:000585e0       ?do_get@?$num_get@DV?$istreambuf_iterator@DU?$char_traits@D@std@@@std@@@std@@MEBA?AV?$istreambuf_iterator@DU?$char_traits@D@std@@@2@V32@0AEAVios_base@2@AEAHAEAO@Z 00000001401135e0 f i libcpmtd:locale.obj
 0002:00058810       ?do_get@?$num_get@DV?$istreambuf_iterator@DU?$char_traits@D@std@@@std@@@std@@MEBA?AV?$istreambuf_iterator@DU?$char_traits@D@std@@@2@V32@0AEAVios_base@2@AEAHAEAPEAX@Z 0000000140113810 f i libcpmtd:locale.obj
 0002:00058a90       ?do_get@?$num_get@DV?$istreambuf_iterator@DU?$char_traits@D@std@@@std@@@std@@MEBA?AV?$istreambuf_iterator@DU?$char_traits@D@std@@@2@V32@0AEAVios_base@2@AEAHAEA_J@Z 0000000140113a90 f i libcpmtd:locale.obj
 0002:00058cd0       ?do_get@?$num_get@DV?$istreambuf_iterator@DU?$char_traits@D@std@@@std@@@std@@MEBA?AV?$istreambuf_iterator@DU?$char_traits@D@std@@@2@V32@0AEAVios_base@2@AEAHAEA_K@Z 0000000140113cd0 f i libcpmtd:locale.obj
 0002:00058f10       ?do_get@?$num_get@DV?$istreambuf_iterator@DU?$char_traits@D@std@@@std@@@std@@MEBA?AV?$istreambuf_iterator@DU?$char_traits@D@std@@@2@V32@0AEAVios_base@2@AEAHAEA_N@Z 0000000140113f10 f i libcpmtd:locale.obj
 0002:00059340       ?equal@?$istreambuf_iterator@DU?$char_traits@D@std@@@std@@QEBA_NAEBV12@@Z 0000000140114340 f i libcpmtd:locale.obj
 0002:000593f0       ?global@locale@std@@SA?AV12@AEBV12@@Z 00000001401143f0 f   libcpmtd:locale.obj
 0002:00059660       ldexpf                     0000000140114660 f i libcpmtd:locale.obj
 0002:00059690       ldexpl                     0000000140114690 f i libcpmtd:locale.obj
 0002:00059fb0       __crtAcquireSRWLockExclusive 0000000140114fb0 f   libcpmtd:winapisupp.obj
 0002:0005a020       __crtCloseThreadpoolTimer  0000000140115020 f   libcpmtd:winapisupp.obj
 0002:0005a090       __crtCloseThreadpoolWait   0000000140115090 f   libcpmtd:winapisupp.obj
 0002:0005a100       __crtCloseThreadpoolWork   0000000140115100 f   libcpmtd:winapisupp.obj
 0002:0005a170       __crtCreateEventExW        0000000140115170 f   libcpmtd:winapisupp.obj
 0002:0005a230       __crtCreateSemaphoreExW    0000000140115230 f   libcpmtd:winapisupp.obj
 0002:0005a350       __crtCreateSymbolicLinkW   0000000140115350 f   libcpmtd:winapisupp.obj
 0002:0005a3f0       __crtCreateThreadpoolTimer 00000001401153f0 f   libcpmtd:winapisupp.obj
 0002:0005a480       __crtCreateThreadpoolWait  0000000140115480 f   libcpmtd:winapisupp.obj
 0002:0005a510       __crtCreateThreadpoolWork  0000000140115510 f   libcpmtd:winapisupp.obj
 0002:0005a590       __crtFlsAlloc              0000000140115590 f   libcpmtd:winapisupp.obj
 0002:0005a610       __crtFlsFree               0000000140115610 f   libcpmtd:winapisupp.obj
 0002:0005a690       __crtFlsGetValue           0000000140115690 f   libcpmtd:winapisupp.obj
 0002:0005a710       __crtFlsSetValue           0000000140115710 f   libcpmtd:winapisupp.obj
 0002:0005a7a0       __crtFlushProcessWriteBuffers 00000001401157a0 f   libcpmtd:winapisupp.obj
 0002:0005a800       __crtFreeLibraryWhenCallbackReturns 0000000140115800 f   libcpmtd:winapisupp.obj
 0002:0005a880       __crtGetCurrentProcessorNumber 0000000140115880 f   libcpmtd:winapisupp.obj
 0002:0005a8f0       __crtGetFileInformationByHandleEx 00000001401158f0 f   libcpmtd:winapisupp.obj
 0002:0005a9a0       __crtGetSystemTimePreciseAsFileTime 00000001401159a0 f   libcpmtd:winapisupp.obj
 0002:0005aa20       __crtGetTickCount64        0000000140115a20 f   libcpmtd:winapisupp.obj
 0002:0005aa90       __crtInitOnceExecuteOnce   0000000140115a90 f   libcpmtd:winapisupp.obj
 0002:0005aca0       __crtInitializeConditionVariable 0000000140115ca0 f   libcpmtd:winapisupp.obj
 0002:0005ad10       __crtInitializeCriticalSectionEx 0000000140115d10 f   libcpmtd:winapisupp.obj
 0002:0005adb0       __crtInitializeSRWLock     0000000140115db0 f   libcpmtd:winapisupp.obj
 0002:0005ae20       __crtIsPackagedApp         0000000140115e20 f   libcpmtd:winapisupp.obj
 0002:0005ae70       __crtReleaseSRWLockExclusive 0000000140115e70 f   libcpmtd:winapisupp.obj
 0002:0005aee0       __crtSetFileInformationByHandle 0000000140115ee0 f   libcpmtd:winapisupp.obj
 0002:0005af90       __crtSetThreadpoolTimer    0000000140115f90 f   libcpmtd:winapisupp.obj
 0002:0005b030       __crtSetThreadpoolWait     0000000140116030 f   libcpmtd:winapisupp.obj
 0002:0005b0c0       __crtSleepConditionVariableCS 00000001401160c0 f   libcpmtd:winapisupp.obj
 0002:0005b140       __crtSleepConditionVariableSRW 0000000140116140 f   libcpmtd:winapisupp.obj
 0002:0005b1d0       __crtSubmitThreadpoolWork  00000001401161d0 f   libcpmtd:winapisupp.obj
 0002:0005b240       __crtTryAcquireSRWLockExclusive 0000000140116240 f   libcpmtd:winapisupp.obj
 0002:0005b2b0       __crtWaitForThreadpoolTimerCallbacks 00000001401162b0 f   libcpmtd:winapisupp.obj
 0002:0005b330       __crtWakeAllConditionVariable 0000000140116330 f   libcpmtd:winapisupp.obj
 0002:0005b3a0       __crtWakeConditionVariable 00000001401163a0 f   libcpmtd:winapisupp.obj
 0002:0005b410       __crt_IsPackagedAppHelper  0000000140116410 f   libcpmtd:winapisupp.obj
 0002:0005b4b0       GetTableIndexFromLcid      00000001401164b0 f   libcpmtd:winapinls.obj
 0002:0005b560       GetTableIndexFromLocaleName 0000000140116560 f   libcpmtd:winapinls.obj
 0002:0005b640       __crtCompareStringEx       0000000140116640 f   libcpmtd:winapinls.obj
 0002:0005b770       __crtDownlevelLCIDToLocaleName 0000000140116770 f   libcpmtd:winapinls.obj
 0002:0005b870       __crtDownlevelLocaleNameToLCID 0000000140116870 f   libcpmtd:winapinls.obj
 0002:0005b8e0       __crtGetLocaleInfoEx       00000001401168e0 f   libcpmtd:winapinls.obj
 0002:0005b9a0       __crtLCMapStringEx         00000001401169a0 f   libcpmtd:winapinls.obj
 0002:0005bad0       __wcsnicmp_ascii           0000000140116ad0 f   libcpmtd:winapinls.obj
 0002:0005bc20       ??$?0$$V@?$_Compressed_pair@V?$allocator@G@std@@V?$_String_val@U?$_Simple_types@G@std@@@2@$00@std@@QEAA@U_Zero_then_variadic_args_t@1@@Z 0000000140116c20 f i libcpmtd:wlocale.obj
 0002:0005bc60       ??$?0V?$allocator@G@std@@$$V@?$_Compressed_pair@V?$allocator@G@std@@V?$_String_val@U?$_Simple_types@G@std@@@2@$00@std@@QEAA@U_One_then_variadic_args_t@1@$$QEAV?$allocator@G@1@@Z 0000000140116c60 f i libcpmtd:wlocale.obj
 0002:0005bca0       ??$?0V?$allocator@G@std@@X@?$_String_alloc@U?$_String_base_types@GV?$allocator@G@std@@@std@@@std@@QEAA@$$QEAV?$allocator@G@1@@Z 0000000140116ca0 f i libcpmtd:wlocale.obj
 0002:0005bd00       ??$?0V?$allocator@_W@std@@$$V@?$_Compressed_pair@V?$allocator@_W@std@@V?$_String_val@U?$_Simple_types@_W@std@@@2@$00@std@@QEAA@U_One_then_variadic_args_t@1@$$QEAV?$allocator@_W@1@@Z 0000000140116d00 f i libcpmtd:wlocale.obj
 0002:0005bd40       ??$?0V?$allocator@_W@std@@X@?$_String_alloc@U?$_String_base_types@_WV?$allocator@_W@std@@@std@@@std@@QEAA@$$QEAV?$allocator@_W@1@@Z 0000000140116d40 f i libcpmtd:wlocale.obj
 0002:0005bda0       ??$?8GU?$char_traits@G@std@@@std@@YA_NAEBV?$istreambuf_iterator@GU?$char_traits@G@std@@@0@0@Z 0000000140116da0 f i libcpmtd:wlocale.obj
 0002:0005bdd0       ??$?8_WU?$char_traits@_W@std@@@std@@YA_NAEBV?$istreambuf_iterator@_WU?$char_traits@_W@std@@@0@0@Z 0000000140116dd0 f i libcpmtd:wlocale.obj
 0002:0005be00       ??$?9GG@std@@YA_NAEBV?$allocator@G@0@0@Z 0000000140116e00 f i libcpmtd:wlocale.obj
 0002:0005be10       ??$?9GU?$char_traits@G@std@@@std@@YA_NAEBV?$istreambuf_iterator@GU?$char_traits@G@std@@@0@0@Z 0000000140116e10 f i libcpmtd:wlocale.obj
 0002:0005be60       ??$?9_WU?$char_traits@_W@std@@@std@@YA_NAEBV?$istreambuf_iterator@_WU?$char_traits@_W@std@@@0@0@Z 0000000140116e60 f i libcpmtd:wlocale.obj
 0002:0005beb0       ??$?9_W_W@std@@YA_NAEBV?$allocator@_W@0@0@Z 0000000140116eb0 f i libcpmtd:wlocale.obj
 0002:0005bec0       ??$_Copy_no_deprecate@PEA_WV?$ostreambuf_iterator@GU?$char_traits@G@std@@@std@@@std@@YA?AV?$ostreambuf_iterator@GU?$char_traits@G@std@@@0@PEA_W0V10@@Z 0000000140116ec0 f i libcpmtd:wlocale.obj
 0002:0005c020       ??$_Copy_no_deprecate@PEA_WV?$ostreambuf_iterator@_WU?$char_traits@_W@std@@@std@@@std@@YA?AV?$ostreambuf_iterator@_WU?$char_traits@_W@std@@@0@PEA_W0V10@@Z 0000000140117020 f i libcpmtd:wlocale.obj
 0002:0005c180       ??$_Copy_unchecked1@PEA_WV?$ostreambuf_iterator@GU?$char_traits@G@std@@@std@@@std@@YA?AV?$ostreambuf_iterator@GU?$char_traits@G@std@@@0@PEA_W0V10@U_General_ptr_iterator_tag@0@@Z 0000000140117180 f i libcpmtd:wlocale.obj
 0002:0005c220       ??$_Copy_unchecked1@PEA_WV?$ostreambuf_iterator@_WU?$char_traits@_W@std@@@std@@@std@@YA?AV?$ostreambuf_iterator@_WU?$char_traits@_W@std@@@0@PEA_W0V10@U_General_ptr_iterator_tag@0@@Z 0000000140117220 f i libcpmtd:wlocale.obj
 0002:0005c2c0       ??$_Copy_unchecked@PEA_WV?$ostreambuf_iterator@GU?$char_traits@G@std@@@std@@@std@@YA?AV?$ostreambuf_iterator@GU?$char_traits@G@std@@@0@PEA_W0V10@@Z 00000001401172c0 f i libcpmtd:wlocale.obj
 0002:0005c360       ??$_Copy_unchecked@PEA_WV?$ostreambuf_iterator@_WU?$char_traits@_W@std@@@std@@@std@@YA?AV?$ostreambuf_iterator@_WU?$char_traits@_W@std@@@0@PEA_W0V10@@Z 0000000140117360 f i libcpmtd:wlocale.obj
 0002:0005c400       ??$_Debug_range2@PEAD@std@@YAXPEAD0PEB_WIUrandom_access_iterator_tag@0@@Z 0000000140117400 f i libcpmtd:wlocale.obj
 0002:0005c490       ??$_Debug_range2@PEAG@std@@YAXPEAG0PEB_WIUrandom_access_iterator_tag@0@@Z 0000000140117490 f i libcpmtd:wlocale.obj
 0002:0005c520       ??$_Debug_range2@PEA_W@std@@YAXPEA_W0PEB_WIUrandom_access_iterator_tag@0@@Z 0000000140117520 f i libcpmtd:wlocale.obj
 0002:0005c5b0       ??$_Debug_range2@PEBG@std@@YAXPEBG0PEB_WIUrandom_access_iterator_tag@0@@Z 00000001401175b0 f i libcpmtd:wlocale.obj
 0002:0005c640       ??$_Debug_range2@PEB_W@std@@YAXPEB_W00IUrandom_access_iterator_tag@0@@Z 0000000140117640 f i libcpmtd:wlocale.obj
 0002:0005c6d0       ??$_Debug_range2@V?$istreambuf_iterator@GU?$char_traits@G@std@@@std@@@std@@YAXV?$istreambuf_iterator@GU?$char_traits@G@std@@@0@0PEB_WIUinput_iterator_tag@0@@Z 00000001401176d0 f i libcpmtd:wlocale.obj
 0002:0005c710       ??$_Debug_range2@V?$istreambuf_iterator@_WU?$char_traits@_W@std@@@std@@@std@@YAXV?$istreambuf_iterator@_WU?$char_traits@_W@std@@@0@0PEB_WIUinput_iterator_tag@0@@Z 0000000140117710 f i libcpmtd:wlocale.obj
 0002:0005c750       ??$_Debug_range@PEAD@std@@YAXPEAD0PEB_WI@Z 0000000140117750 f i libcpmtd:wlocale.obj
 0002:0005c7a0       ??$_Debug_range@PEAG@std@@YAXPEAG0PEB_WI@Z 00000001401177a0 f i libcpmtd:wlocale.obj
 0002:0005c7f0       ??$_Debug_range@PEA_W@std@@YAXPEA_W0PEB_WI@Z 00000001401177f0 f i libcpmtd:wlocale.obj
 0002:0005c840       ??$_Debug_range@PEBG@std@@YAXPEBG0PEB_WI@Z 0000000140117840 f i libcpmtd:wlocale.obj
 0002:0005c890       ??$_Debug_range@PEB_W@std@@YAXPEB_W00I@Z 0000000140117890 f i libcpmtd:wlocale.obj
 0002:0005c8e0       ??$_Debug_range@V?$istreambuf_iterator@GU?$char_traits@G@std@@@std@@@std@@YAXV?$istreambuf_iterator@GU?$char_traits@G@std@@@0@0PEB_WI@Z 00000001401178e0 f i libcpmtd:wlocale.obj
 0002:0005c980       ??$_Debug_range@V?$istreambuf_iterator@_WU?$char_traits@_W@std@@@std@@@std@@YAXV?$istreambuf_iterator@_WU?$char_traits@_W@std@@@0@0PEB_WI@Z 0000000140117980 f i libcpmtd:wlocale.obj
 0002:0005ca20       ??$_Find_elem@G@std@@YA_KPEAGG@Z 0000000140117a20 f i libcpmtd:wlocale.obj
 0002:0005ca90       ??$_Find_elem@_W@std@@YA_KPEA_W_W@Z 0000000140117a90 f i libcpmtd:wlocale.obj
 0002:0005cb00       ??$_Getloctxt@DV?$istreambuf_iterator@GU?$char_traits@G@std@@@std@@@std@@YAHAEAV?$istreambuf_iterator@GU?$char_traits@G@std@@@0@0_KPEBD@Z 0000000140117b00 f i libcpmtd:wlocale.obj
 0002:0005cf20       ??$_Getloctxt@DV?$istreambuf_iterator@_WU?$char_traits@_W@std@@@std@@@std@@YAHAEAV?$istreambuf_iterator@_WU?$char_traits@_W@std@@@0@0_KPEBD@Z 0000000140117f20 f i libcpmtd:wlocale.obj
 0002:0005d340       ??$_Getloctxt@GV?$istreambuf_iterator@GU?$char_traits@G@std@@@std@@@std@@YAHAEAV?$istreambuf_iterator@GU?$char_traits@G@std@@@0@0_KPEBG@Z 0000000140118340 f i libcpmtd:wlocale.obj
 0002:0005d740       ??$_Getloctxt@_WV?$istreambuf_iterator@_WU?$char_traits@_W@std@@@std@@@std@@YAHAEAV?$istreambuf_iterator@_WU?$char_traits@_W@std@@@0@0_KPEB_W@Z 0000000140118740 f i libcpmtd:wlocale.obj
 0002:0005db40       ??$_Getvals@G@?$_Mpunct@G@std@@IEAAXGPEBUlconv@@@Z 0000000140118b40 f i libcpmtd:wlocale.obj
 0002:0005dd10       ??$_Getvals@G@?$numpunct@G@std@@IEAAXGPEBUlconv@@U_Cvtvec@@@Z 0000000140118d10 f i libcpmtd:wlocale.obj
 0002:0005dda0       ??$_Getvals@G@?$time_get@GV?$istreambuf_iterator@GU?$char_traits@G@std@@@std@@@std@@IEAAXGAEBV_Locinfo@1@@Z 0000000140118da0 f i libcpmtd:wlocale.obj
 0002:0005df60       ??$_Getvals@_W@?$time_get@_WV?$istreambuf_iterator@_WU?$char_traits@_W@std@@@std@@@std@@IEAAX_WAEBV_Locinfo@1@@Z 0000000140118f60 f i libcpmtd:wlocale.obj
 0002:0005e120       ??$_Hash_array_representation@G@std@@YA_KQEBG_K@Z 0000000140119120 f i libcpmtd:wlocale.obj
 0002:0005e160       ??$_Hash_array_representation@_W@std@@YA_KQEB_W_K@Z 0000000140119160 f i libcpmtd:wlocale.obj
 0002:0005e1a0       ??$_Idl_distance1@PEA_WPEA_W@std@@YA_JAEBQEA_W0Urandom_access_iterator_tag@0@@Z 00000001401191a0 f i libcpmtd:wlocale.obj
 0002:0005e1d0       ??$_Idl_distance@PEA_WPEA_W@std@@YA_JAEBQEA_W0@Z 00000001401191d0 f i libcpmtd:wlocale.obj
 0002:0005e210       ??$_Is_checked@V?$ostreambuf_iterator@GU?$char_traits@G@std@@@std@@@std@@YA?AU?$integral_constant@_N$00@0@V?$ostreambuf_iterator@GU?$char_traits@G@std@@@0@@Z 0000000140119210 f i libcpmtd:wlocale.obj
 0002:0005e240       ??$_Is_checked@V?$ostreambuf_iterator@_WU?$char_traits@_W@std@@@std@@@std@@YA?AU?$integral_constant@_N$00@0@V?$ostreambuf_iterator@_WU?$char_traits@_W@std@@@0@@Z 0000000140119240 f i libcpmtd:wlocale.obj
 0002:0005e270       ??$_LStrcoll@G@std@@YAHPEBG000PEBU_Collvec@@@Z 0000000140119270 f i libcpmtd:wlocale.obj
 0002:0005e370       ??$_LStrcoll@_W@std@@YAHPEB_W000PEBU_Collvec@@@Z 0000000140119370 f i libcpmtd:wlocale.obj
 0002:0005e3c0       ??$_LStrxfrm@G@std@@YA_KPEAG0PEBG1PEBU_Collvec@@@Z 00000001401193c0 f i libcpmtd:wlocale.obj
 0002:0005e470       ??$_LStrxfrm@_W@std@@YA_KPEA_W0PEB_W1PEBU_Collvec@@@Z 0000000140119470 f i libcpmtd:wlocale.obj
 0002:0005e4c0       ??$_Maklocchr@G@std@@YAGDPEAGAEBU_Cvtvec@@@Z 00000001401194c0 f i libcpmtd:wlocale.obj
 0002:0005e530       ??$_Maklocchr@_W@std@@YA_WDPEA_WAEBU_Cvtvec@@@Z 0000000140119530 f i libcpmtd:wlocale.obj
 0002:0005e5a0       ??$_Maklocstr@G@std@@YAPEAGPEBDPEAGAEBU_Cvtvec@@@Z 00000001401195a0 f i libcpmtd:wlocale.obj
 0002:0005e7f0       ??$_Maklocstr@_W@std@@YAPEA_WPEBDPEA_WAEBU_Cvtvec@@@Z 00000001401197f0 f i libcpmtd:wlocale.obj
 0002:0005ea40       ??$_Pocma@V?$allocator@G@std@@@std@@YAXAEAV?$allocator@G@0@0@Z 0000000140119a40 f i libcpmtd:wlocale.obj
 0002:0005ea80       ??$_Pocma@V?$allocator@G@std@@@std@@YAXAEAV?$allocator@G@0@0U?$integral_constant@_N$00@0@@Z 0000000140119a80 f i libcpmtd:wlocale.obj
 0002:0005eab0       ??$_Pocma@V?$allocator@_W@std@@@std@@YAXAEAV?$allocator@_W@0@0@Z 0000000140119ab0 f i libcpmtd:wlocale.obj
 0002:0005eaf0       ??$_Pocma@V?$allocator@_W@std@@@std@@YAXAEAV?$allocator@_W@0@0U?$integral_constant@_N$00@0@@Z 0000000140119af0 f i libcpmtd:wlocale.obj
 0002:0005eb20       ??$_Ptr_copy_cat@PEA_WV?$ostreambuf_iterator@GU?$char_traits@G@std@@@std@@@std@@YA?AU_General_ptr_iterator_tag@0@AEBQEA_WAEBV?$ostreambuf_iterator@GU?$char_traits@G@std@@@0@@Z 0000000140119b20 f i libcpmtd:wlocale.obj
 0002:0005eb60       ??$_Ptr_copy_cat@PEA_WV?$ostreambuf_iterator@_WU?$char_traits@_W@std@@@std@@@std@@YA?AU_General_ptr_iterator_tag@0@AEBQEA_WAEBV?$ostreambuf_iterator@_WU?$char_traits@_W@std@@@0@@Z 0000000140119b60 f i libcpmtd:wlocale.obj
 0002:00060f90       ??$_Rechecked@V?$ostreambuf_iterator@GU?$char_traits@G@std@@@std@@V12@@std@@YAAEAV?$ostreambuf_iterator@GU?$char_traits@G@std@@@0@AEAV10@V10@@Z 000000014011bf90 f i libcpmtd:wlocale.obj
 0002:00060fc0       ??$_Rechecked@V?$ostreambuf_iterator@_WU?$char_traits@_W@std@@@std@@V12@@std@@YAAEAV?$ostreambuf_iterator@_WU?$char_traits@_W@std@@@0@AEAV10@V10@@Z 000000014011bfc0 f i libcpmtd:wlocale.obj
 0002:00060ff0       ??$_Refancy@PEAG$0A@@std@@YAPEAGPEAG@Z 000000014011bff0 f i libcpmtd:wlocale.obj
 0002:00061000       ??$_Refancy@PEA_W$0A@@std@@YAPEA_WPEA_W@Z 000000014011c000 f i libcpmtd:wlocale.obj
 0002:00061010       ??$_Unchecked@PEA_W@std@@YAPEA_WPEA_W@Z 000000014011c010 f i libcpmtd:wlocale.obj
 0002:00061020       ??$_Unchecked_n1@V?$ostreambuf_iterator@GU?$char_traits@G@std@@@std@@_J@std@@YA?AV?$ostreambuf_iterator@GU?$char_traits@G@std@@@0@V10@_JU?$integral_constant@_N$0A@@0@@Z 000000014011c020 f i libcpmtd:wlocale.obj
 0002:00061060       ??$_Unchecked_n1@V?$ostreambuf_iterator@_WU?$char_traits@_W@std@@@std@@_J@std@@YA?AV?$ostreambuf_iterator@_WU?$char_traits@_W@std@@@0@V10@_JU?$integral_constant@_N$0A@@0@@Z 000000014011c060 f i libcpmtd:wlocale.obj
 0002:000610a0       ??$_Unchecked_n@V?$ostreambuf_iterator@GU?$char_traits@G@std@@@std@@_J@std@@YA?AV?$ostreambuf_iterator@GU?$char_traits@G@std@@@0@V10@_J@Z 000000014011c0a0 f i libcpmtd:wlocale.obj
 0002:00061110       ??$_Unchecked_n@V?$ostreambuf_iterator@_WU?$char_traits@_W@std@@@std@@_J@std@@YA?AV?$ostreambuf_iterator@_WU?$char_traits@_W@std@@@0@V10@_J@Z 000000014011c110 f i libcpmtd:wlocale.obj
 0002:00061180       ??$_Unfancy@$$CBG@std@@YAPEBGPEBG@Z 000000014011c180 f i libcpmtd:wlocale.obj
 0002:00061190       ??$_Unfancy@$$CB_W@std@@YAPEB_WPEB_W@Z 000000014011c190 f i libcpmtd:wlocale.obj
 0002:000611a0       ??$addressof@V?$_String_val@U?$_Simple_types@G@std@@@std@@@std@@YAPEAV?$_String_val@U?$_Simple_types@G@std@@@0@AEAV10@@Z 000000014011c1a0 f i libcpmtd:wlocale.obj
 0002:000611b0       ??$addressof@V?$basic_string@GU?$char_traits@G@std@@V?$allocator@G@2@@std@@@std@@YAPEAV?$basic_string@GU?$char_traits@G@std@@V?$allocator@G@2@@0@AEAV10@@Z 000000014011c1b0 f i libcpmtd:wlocale.obj
 0002:000611c0       ??$addressof@V?$basic_string@_WU?$char_traits@_W@std@@V?$allocator@_W@2@@std@@@std@@YAPEAV?$basic_string@_WU?$char_traits@_W@std@@V?$allocator@_W@2@@0@AEAV10@@Z 000000014011c1c0 f i libcpmtd:wlocale.obj
 0002:000611d0       ??$construct@PEAGAEBQEAG@?$_Default_allocator_traits@V?$allocator@G@std@@@std@@SAXAEAV?$allocator@G@1@QEAPEAGAEBQEAG@Z 000000014011c1d0 f i libcpmtd:wlocale.obj
 0002:00061230       ??$copy@PEA_WV?$ostreambuf_iterator@GU?$char_traits@G@std@@@std@@@std@@YA?AV?$ostreambuf_iterator@GU?$char_traits@G@std@@@0@PEA_W0V10@@Z 000000014011c230 f i libcpmtd:wlocale.obj
 0002:000612e0       ??$copy@PEA_WV?$ostreambuf_iterator@_WU?$char_traits@_W@std@@@std@@@std@@YA?AV?$ostreambuf_iterator@_WU?$char_traits@_W@std@@@0@PEA_W0V10@@Z 000000014011c2e0 f i libcpmtd:wlocale.obj
 0002:00061390       ??$destroy@PEAG@?$_Default_allocator_traits@V?$allocator@G@std@@@std@@SAXAEAV?$allocator@G@1@QEAPEAG@Z 000000014011c390 f i libcpmtd:wlocale.obj
 0002:000613a0       ??$forward@AEBQEAG@std@@YAAEBQEAGAEBQEAG@Z 000000014011c3a0 f i libcpmtd:wlocale.obj
 0002:000613b0       ??$forward@V?$allocator@G@std@@@std@@YA$$QEAV?$allocator@G@0@AEAV10@@Z 000000014011c3b0 f i libcpmtd:wlocale.obj
 0002:000613c0       ??$forward@V?$allocator@_W@std@@@std@@YA$$QEAV?$allocator@_W@0@AEAV10@@Z 000000014011c3c0 f i libcpmtd:wlocale.obj
 0002:000613d0       ??$move@AEAV?$allocator@G@std@@@std@@YA$$QEAV?$allocator@G@0@AEAV10@@Z 000000014011c3d0 f i libcpmtd:wlocale.obj
 0002:000613e0       ??$move@AEAV?$allocator@_W@std@@@std@@YA$$QEAV?$allocator@_W@0@AEAV10@@Z 000000014011c3e0 f i libcpmtd:wlocale.obj
 0002:000613f0       ??$move@AEAV?$basic_string@GU?$char_traits@G@std@@V?$allocator@G@2@@std@@@std@@YA$$QEAV?$basic_string@GU?$char_traits@G@std@@V?$allocator@G@2@@0@AEAV10@@Z 000000014011c3f0 f i libcpmtd:wlocale.obj
 0002:00061400       ??$move@AEAV?$basic_string@_WU?$char_traits@_W@std@@V?$allocator@_W@2@@std@@@std@@YA$$QEAV?$basic_string@_WU?$char_traits@_W@std@@V?$allocator@_W@2@@0@AEAV10@@Z 000000014011c400 f i libcpmtd:wlocale.obj
 0002:00061410       ??$use_facet@V?$codecvt@GDU_Mbstatet@@@std@@@std@@YAAEBV?$codecvt@GDU_Mbstatet@@@0@AEBVlocale@0@@Z 000000014011c410 f i libcpmtd:wlocale.obj
 0002:00061580       ??$use_facet@V?$codecvt@_WDU_Mbstatet@@@std@@@std@@YAAEBV?$codecvt@_WDU_Mbstatet@@@0@AEBVlocale@0@@Z 000000014011c580 f i libcpmtd:wlocale.obj
 0002:000616f0       ??$use_facet@V?$collate@G@std@@@std@@YAAEBV?$collate@G@0@AEBVlocale@0@@Z 000000014011c6f0 f i libcpmtd:wlocale.obj
 0002:00061860       ??$use_facet@V?$collate@_W@std@@@std@@YAAEBV?$collate@_W@0@AEBVlocale@0@@Z 000000014011c860 f i libcpmtd:wlocale.obj
 0002:000619d0       ??$use_facet@V?$ctype@G@std@@@std@@YAAEBV?$ctype@G@0@AEBVlocale@0@@Z 000000014011c9d0 f i libcpmtd:wlocale.obj
 0002:00061b40       ??$use_facet@V?$ctype@_W@std@@@std@@YAAEBV?$ctype@_W@0@AEBVlocale@0@@Z 000000014011cb40 f i libcpmtd:wlocale.obj
 0002:00061cb0       ??$use_facet@V?$messages@G@std@@@std@@YAAEBV?$messages@G@0@AEBVlocale@0@@Z 000000014011ccb0 f i libcpmtd:wlocale.obj
 0002:00061e20       ??$use_facet@V?$messages@_W@std@@@std@@YAAEBV?$messages@_W@0@AEBVlocale@0@@Z 000000014011ce20 f i libcpmtd:wlocale.obj
 0002:00061f90       ??$use_facet@V?$money_get@GV?$istreambuf_iterator@GU?$char_traits@G@std@@@std@@@std@@@std@@YAAEBV?$money_get@GV?$istreambuf_iterator@GU?$char_traits@G@std@@@std@@@0@AEBVlocale@0@@Z 000000014011cf90 f i libcpmtd:wlocale.obj
 0002:00062100       ??$use_facet@V?$money_get@_WV?$istreambuf_iterator@_WU?$char_traits@_W@std@@@std@@@std@@@std@@YAAEBV?$money_get@_WV?$istreambuf_iterator@_WU?$char_traits@_W@std@@@std@@@0@AEBVlocale@0@@Z 000000014011d100 f i libcpmtd:wlocale.obj
 0002:00062270       ??$use_facet@V?$money_put@GV?$ostreambuf_iterator@GU?$char_traits@G@std@@@std@@@std@@@std@@YAAEBV?$money_put@GV?$ostreambuf_iterator@GU?$char_traits@G@std@@@std@@@0@AEBVlocale@0@@Z 000000014011d270 f i libcpmtd:wlocale.obj
 0002:000623e0       ??$use_facet@V?$money_put@_WV?$ostreambuf_iterator@_WU?$char_traits@_W@std@@@std@@@std@@@std@@YAAEBV?$money_put@_WV?$ostreambuf_iterator@_WU?$char_traits@_W@std@@@std@@@0@AEBVlocale@0@@Z 000000014011d3e0 f i libcpmtd:wlocale.obj
 0002:00062550       ??$use_facet@V?$moneypunct@G$00@std@@@std@@YAAEBV?$moneypunct@G$00@0@AEBVlocale@0@@Z 000000014011d550 f i libcpmtd:wlocale.obj
 0002:000626c0       ??$use_facet@V?$moneypunct@G$0A@@std@@@std@@YAAEBV?$moneypunct@G$0A@@0@AEBVlocale@0@@Z 000000014011d6c0 f i libcpmtd:wlocale.obj
 0002:00062830       ??$use_facet@V?$moneypunct@_W$00@std@@@std@@YAAEBV?$moneypunct@_W$00@0@AEBVlocale@0@@Z 000000014011d830 f i libcpmtd:wlocale.obj
 0002:000629a0       ??$use_facet@V?$moneypunct@_W$0A@@std@@@std@@YAAEBV?$moneypunct@_W$0A@@0@AEBVlocale@0@@Z 000000014011d9a0 f i libcpmtd:wlocale.obj
 0002:00062b10       ??$use_facet@V?$num_get@GV?$istreambuf_iterator@GU?$char_traits@G@std@@@std@@@std@@@std@@YAAEBV?$num_get@GV?$istreambuf_iterator@GU?$char_traits@G@std@@@std@@@0@AEBVlocale@0@@Z 000000014011db10 f i libcpmtd:wlocale.obj
 0002:00062c80       ??$use_facet@V?$num_get@_WV?$istreambuf_iterator@_WU?$char_traits@_W@std@@@std@@@std@@@std@@YAAEBV?$num_get@_WV?$istreambuf_iterator@_WU?$char_traits@_W@std@@@std@@@0@AEBVlocale@0@@Z 000000014011dc80 f i libcpmtd:wlocale.obj
 0002:00062df0       ??$use_facet@V?$num_put@GV?$ostreambuf_iterator@GU?$char_traits@G@std@@@std@@@std@@@std@@YAAEBV?$num_put@GV?$ostreambuf_iterator@GU?$char_traits@G@std@@@std@@@0@AEBVlocale@0@@Z 000000014011ddf0 f i libcpmtd:wlocale.obj
 0002:00062f60       ??$use_facet@V?$num_put@_WV?$ostreambuf_iterator@_WU?$char_traits@_W@std@@@std@@@std@@@std@@YAAEBV?$num_put@_WV?$ostreambuf_iterator@_WU?$char_traits@_W@std@@@std@@@0@AEBVlocale@0@@Z 000000014011df60 f i libcpmtd:wlocale.obj
 0002:000630d0       ??$use_facet@V?$numpunct@G@std@@@std@@YAAEBV?$numpunct@G@0@AEBVlocale@0@@Z 000000014011e0d0 f i libcpmtd:wlocale.obj
 0002:00063240       ??$use_facet@V?$numpunct@_W@std@@@std@@YAAEBV?$numpunct@_W@0@AEBVlocale@0@@Z 000000014011e240 f i libcpmtd:wlocale.obj
 0002:000633b0       ??$use_facet@V?$time_get@GV?$istreambuf_iterator@GU?$char_traits@G@std@@@std@@@std@@@std@@YAAEBV?$time_get@GV?$istreambuf_iterator@GU?$char_traits@G@std@@@std@@@0@AEBVlocale@0@@Z 000000014011e3b0 f i libcpmtd:wlocale.obj
 0002:00063520       ??$use_facet@V?$time_get@_WV?$istreambuf_iterator@_WU?$char_traits@_W@std@@@std@@@std@@@std@@YAAEBV?$time_get@_WV?$istreambuf_iterator@_WU?$char_traits@_W@std@@@std@@@0@AEBVlocale@0@@Z 000000014011e520 f i libcpmtd:wlocale.obj
 0002:00063690       ??$use_facet@V?$time_put@GV?$ostreambuf_iterator@GU?$char_traits@G@std@@@std@@@std@@@std@@YAAEBV?$time_put@GV?$ostreambuf_iterator@GU?$char_traits@G@std@@@std@@@0@AEBVlocale@0@@Z 000000014011e690 f i libcpmtd:wlocale.obj
 0002:00063800       ??$use_facet@V?$time_put@_WV?$ostreambuf_iterator@_WU?$char_traits@_W@std@@@std@@@std@@@std@@YAAEBV?$time_put@_WV?$ostreambuf_iterator@_WU?$char_traits@_W@std@@@std@@@0@AEBVlocale@0@@Z 000000014011e800 f i libcpmtd:wlocale.obj
 0002:00063970       ??0?$_Mpunct@G@std@@QEAA@AEBV_Locinfo@1@_K_N2@Z 000000014011e970 f i libcpmtd:wlocale.obj
 0002:00063a00       ??0?$_Mpunct@_W@std@@QEAA@AEBV_Locinfo@1@_K_N2@Z 000000014011ea00 f i libcpmtd:wlocale.obj
 0002:00063a90       ??0?$_String_alloc@U?$_String_base_types@GV?$allocator@G@std@@@std@@@std@@QEAA@XZ 000000014011ea90 f i libcpmtd:wlocale.obj
 0002:00063ae0       ??0?$_String_const_iterator@V?$_String_val@U?$_Simple_types@G@std@@@std@@@std@@QEAA@$$QEAV01@@Z 000000014011eae0 f i libcpmtd:wlocale.obj
 0002:00063b30       ??0?$_String_const_iterator@V?$_String_val@U?$_Simple_types@G@std@@@std@@@std@@QEAA@AEBV01@@Z 000000014011eb30 f i libcpmtd:wlocale.obj
 0002:00063b80       ??0?$_String_const_iterator@V?$_String_val@U?$_Simple_types@G@std@@@std@@@std@@QEAA@PEBGPEBU_Container_base12@1@@Z 000000014011eb80 f i libcpmtd:wlocale.obj
 0002:00063be0       ??0?$_String_const_iterator@V?$_String_val@U?$_Simple_types@G@std@@@std@@@std@@QEAA@XZ 000000014011ebe0 f i libcpmtd:wlocale.obj
 0002:00063c20       ??0?$_String_const_iterator@V?$_String_val@U?$_Simple_types@_W@std@@@std@@@std@@QEAA@$$QEAV01@@Z 000000014011ec20 f i libcpmtd:wlocale.obj
 0002:00063c70       ??0?$_String_const_iterator@V?$_String_val@U?$_Simple_types@_W@std@@@std@@@std@@QEAA@AEBV01@@Z 000000014011ec70 f i libcpmtd:wlocale.obj
 0002:00063cc0       ??0?$_String_const_iterator@V?$_String_val@U?$_Simple_types@_W@std@@@std@@@std@@QEAA@PEB_WPEBU_Container_base12@1@@Z 000000014011ecc0 f i libcpmtd:wlocale.obj
 0002:00063d20       ??0?$_String_const_iterator@V?$_String_val@U?$_Simple_types@_W@std@@@std@@@std@@QEAA@XZ 000000014011ed20 f i libcpmtd:wlocale.obj
 0002:00063d60       ??0?$_String_iterator@V?$_String_val@U?$_Simple_types@G@std@@@std@@@std@@QEAA@AEBV01@@Z 000000014011ed60 f i libcpmtd:wlocale.obj
 0002:00063d90       ??0?$_String_iterator@V?$_String_val@U?$_Simple_types@G@std@@@std@@@std@@QEAA@PEAGPEBU_Container_base12@1@@Z 000000014011ed90 f i libcpmtd:wlocale.obj
 0002:00063dd0       ??0?$_String_iterator@V?$_String_val@U?$_Simple_types@_W@std@@@std@@@std@@QEAA@AEBV01@@Z 000000014011edd0 f i libcpmtd:wlocale.obj
 0002:00063e00       ??0?$_String_iterator@V?$_String_val@U?$_Simple_types@_W@std@@@std@@@std@@QEAA@PEA_WPEBU_Container_base12@1@@Z 000000014011ee00 f i libcpmtd:wlocale.obj
 0002:00063e40       ??0?$_String_val@U?$_Simple_types@G@std@@@std@@QEAA@XZ 000000014011ee40 f i libcpmtd:wlocale.obj
 0002:00063eb0       ??0?$basic_string@GU?$char_traits@G@std@@V?$allocator@G@2@@std@@QEAA@$$QEAV01@@Z 000000014011eeb0 f i libcpmtd:wlocale.obj
 0002:00063f50       ??0?$basic_string@GU?$char_traits@G@std@@V?$allocator@G@2@@std@@QEAA@AEBV01@@Z 000000014011ef50 f i libcpmtd:wlocale.obj
 0002:00063fc0       ??0?$basic_string@GU?$char_traits@G@std@@V?$allocator@G@2@@std@@QEAA@QEBG@Z 000000014011efc0 f i libcpmtd:wlocale.obj
 0002:00064020       ??0?$basic_string@GU?$char_traits@G@std@@V?$allocator@G@2@@std@@QEAA@QEBG_K@Z 000000014011f020 f i libcpmtd:wlocale.obj
 0002:00064090       ??0?$basic_string@GU?$char_traits@G@std@@V?$allocator@G@2@@std@@QEAA@XZ 000000014011f090 f i libcpmtd:wlocale.obj
 0002:000640d0       ??0?$basic_string@GU?$char_traits@G@std@@V?$allocator@G@2@@std@@QEAA@_KG@Z 000000014011f0d0 f i libcpmtd:wlocale.obj
 0002:00064140       ??0?$basic_string@_WU?$char_traits@_W@std@@V?$allocator@_W@2@@std@@QEAA@$$QEAV01@@Z 000000014011f140 f i libcpmtd:wlocale.obj
 0002:000641e0       ??0?$basic_string@_WU?$char_traits@_W@std@@V?$allocator@_W@2@@std@@QEAA@AEBV01@@Z 000000014011f1e0 f i libcpmtd:wlocale.obj
 0002:00064250       ??0?$basic_string@_WU?$char_traits@_W@std@@V?$allocator@_W@2@@std@@QEAA@QEB_W@Z 000000014011f250 f i libcpmtd:wlocale.obj
 0002:000642b0       ??0?$basic_string@_WU?$char_traits@_W@std@@V?$allocator@_W@2@@std@@QEAA@QEB_W_K@Z 000000014011f2b0 f i libcpmtd:wlocale.obj
 0002:00064320       ??0?$basic_string@_WU?$char_traits@_W@std@@V?$allocator@_W@2@@std@@QEAA@XZ 000000014011f320 f i libcpmtd:wlocale.obj
 0002:00064360       ??0?$codecvt@GDU_Mbstatet@@@std@@QEAA@AEBV_Locinfo@1@_K@Z 000000014011f360 f i libcpmtd:wlocale.obj
 0002:000643d0       ??0?$codecvt@_WDU_Mbstatet@@@std@@QEAA@AEBV_Locinfo@1@_K@Z 000000014011f3d0 f i libcpmtd:wlocale.obj
 0002:00064440       ??0?$collate@G@std@@QEAA@AEBV_Locinfo@1@_K@Z 000000014011f440 f i libcpmtd:wlocale.obj
 0002:000644b0       ??0?$collate@_W@std@@QEAA@AEBV_Locinfo@1@_K@Z 000000014011f4b0 f i libcpmtd:wlocale.obj
 0002:00064520       ??0?$ctype@G@std@@QEAA@AEBV_Locinfo@1@_K@Z 000000014011f520 f i libcpmtd:wlocale.obj
 0002:00064590       ??0?$ctype@_W@std@@QEAA@AEBV_Locinfo@1@_K@Z 000000014011f590 f i libcpmtd:wlocale.obj
 0002:00064600       ??0?$messages@G@std@@QEAA@AEBV_Locinfo@1@_K@Z 000000014011f600 f i libcpmtd:wlocale.obj
 0002:00064670       ??0?$messages@_W@std@@QEAA@AEBV_Locinfo@1@_K@Z 000000014011f670 f i libcpmtd:wlocale.obj
 0002:000646e0       ??0?$money_get@GV?$istreambuf_iterator@GU?$char_traits@G@std@@@std@@@std@@QEAA@AEBV_Locinfo@1@_K@Z 000000014011f6e0 f i libcpmtd:wlocale.obj
 0002:00064750       ??0?$money_get@_WV?$istreambuf_iterator@_WU?$char_traits@_W@std@@@std@@@std@@QEAA@AEBV_Locinfo@1@_K@Z 000000014011f750 f i libcpmtd:wlocale.obj
 0002:000647c0       ??0?$money_put@GV?$ostreambuf_iterator@GU?$char_traits@G@std@@@std@@@std@@QEAA@AEBV_Locinfo@1@_K@Z 000000014011f7c0 f i libcpmtd:wlocale.obj
 0002:00064830       ??0?$money_put@_WV?$ostreambuf_iterator@_WU?$char_traits@_W@std@@@std@@@std@@QEAA@AEBV_Locinfo@1@_K@Z 000000014011f830 f i libcpmtd:wlocale.obj
 0002:000648a0       ??0?$moneypunct@G$00@std@@QEAA@AEBV_Locinfo@1@_K_N@Z 000000014011f8a0 f i libcpmtd:wlocale.obj
 0002:00064910       ??0?$moneypunct@G$0A@@std@@QEAA@AEBV_Locinfo@1@_K_N@Z 000000014011f910 f i libcpmtd:wlocale.obj
 0002:00064980       ??0?$moneypunct@_W$00@std@@QEAA@AEBV_Locinfo@1@_K_N@Z 000000014011f980 f i libcpmtd:wlocale.obj
 0002:000649f0       ??0?$moneypunct@_W$0A@@std@@QEAA@AEBV_Locinfo@1@_K_N@Z 000000014011f9f0 f i libcpmtd:wlocale.obj
 0002:00064a60       ??0?$num_get@GV?$istreambuf_iterator@GU?$char_traits@G@std@@@std@@@std@@QEAA@AEBV_Locinfo@1@_K@Z 000000014011fa60 f i libcpmtd:wlocale.obj
 0002:00064ad0       ??0?$num_get@_WV?$istreambuf_iterator@_WU?$char_traits@_W@std@@@std@@@std@@QEAA@AEBV_Locinfo@1@_K@Z 000000014011fad0 f i libcpmtd:wlocale.obj
 0002:00064b40       ??0?$num_put@GV?$ostreambuf_iterator@GU?$char_traits@G@std@@@std@@@std@@QEAA@AEBV_Locinfo@1@_K@Z 000000014011fb40 f i libcpmtd:wlocale.obj
 0002:00064bb0       ??0?$num_put@_WV?$ostreambuf_iterator@_WU?$char_traits@_W@std@@@std@@@std@@QEAA@AEBV_Locinfo@1@_K@Z 000000014011fbb0 f i libcpmtd:wlocale.obj
 0002:00064c20       ??0?$numpunct@G@std@@QEAA@AEBV_Locinfo@1@_K_N@Z 000000014011fc20 f i libcpmtd:wlocale.obj
 0002:00064ca0       ??0?$numpunct@_W@std@@QEAA@AEBV_Locinfo@1@_K_N@Z 000000014011fca0 f i libcpmtd:wlocale.obj
 0002:00064d20       ??0?$time_get@GV?$istreambuf_iterator@GU?$char_traits@G@std@@@std@@@std@@QEAA@AEBV_Locinfo@1@_K@Z 000000014011fd20 f i libcpmtd:wlocale.obj
 0002:00064d90       ??0?$time_get@_WV?$istreambuf_iterator@_WU?$char_traits@_W@std@@@std@@@std@@QEAA@AEBV_Locinfo@1@_K@Z 000000014011fd90 f i libcpmtd:wlocale.obj
 0002:00064e00       ??0?$time_put@GV?$ostreambuf_iterator@GU?$char_traits@G@std@@@std@@@std@@QEAA@AEBV_Locinfo@1@_K@Z 000000014011fe00 f i libcpmtd:wlocale.obj
 0002:00064e90       ??0?$time_put@_WV?$ostreambuf_iterator@_WU?$char_traits@_W@std@@@std@@@std@@QEAA@AEBV_Locinfo@1@_K@Z 000000014011fe90 f i libcpmtd:wlocale.obj
 0002:00064f20       ??0_Bxty@?$_String_val@U?$_Simple_types@G@std@@@std@@QEAA@XZ 000000014011ff20 f i libcpmtd:wlocale.obj
 0002:00064f30       ??0_Timevec@std@@QEAA@PEAX@Z 000000014011ff30 f i libcpmtd:wlocale.obj
 0002:00064f60       ??0messages_base@std@@QEAA@_K@Z 000000014011ff60 f i libcpmtd:wlocale.obj
 0002:00064fb0       ??0money_base@std@@QEAA@_K@Z 000000014011ffb0 f i libcpmtd:wlocale.obj
 0002:00065000       ??0time_base@std@@QEAA@_K@Z 0000000140120000 f i libcpmtd:wlocale.obj
 0002:00065050       ??1?$_Compressed_pair@V?$allocator@G@std@@V?$_String_val@U?$_Simple_types@G@std@@@2@$00@std@@QEAA@XZ 0000000140120050 f i libcpmtd:wlocale.obj
 0002:00065080       ??1?$_Mpunct@G@std@@MEAA@XZ 0000000140120080 f i libcpmtd:wlocale.obj
 0002:000650d0       ??1?$_Mpunct@_W@std@@MEAA@XZ 00000001401200d0 f i libcpmtd:wlocale.obj
 0002:00065120       ??1?$_String_alloc@U?$_String_base_types@GV?$allocator@G@std@@@std@@@std@@QEAA@XZ 0000000140120120 f i libcpmtd:wlocale.obj
 0002:00065160       ??1?$_String_const_iterator@V?$_String_val@U?$_Simple_types@G@std@@@std@@@std@@QEAA@XZ 0000000140120160 f i libcpmtd:wlocale.obj
 0002:00065180       ??1?$_String_const_iterator@V?$_String_val@U?$_Simple_types@_W@std@@@std@@@std@@QEAA@XZ 0000000140120180 f i libcpmtd:wlocale.obj
 0002:000651a0       ??1?$_String_iterator@V?$_String_val@U?$_Simple_types@G@std@@@std@@@std@@QEAA@XZ 00000001401201a0 f i libcpmtd:wlocale.obj
 0002:000651c0       ??1?$_String_iterator@V?$_String_val@U?$_Simple_types@_W@std@@@std@@@std@@QEAA@XZ 00000001401201c0 f i libcpmtd:wlocale.obj
 0002:000651e0       ??1?$_String_val@U?$_Simple_types@G@std@@@std@@QEAA@XZ 00000001401201e0 f i libcpmtd:wlocale.obj
 0002:00065220       ??1?$basic_string@GU?$char_traits@G@std@@V?$allocator@G@2@@std@@QEAA@XZ 0000000140120220 f i libcpmtd:wlocale.obj
 0002:00065260       ??1?$codecvt@GDU_Mbstatet@@@std@@MEAA@XZ 0000000140120260 f i libcpmtd:wlocale.obj
 0002:00065290       ??1?$codecvt@_WDU_Mbstatet@@@std@@MEAA@XZ 0000000140120290 f i libcpmtd:wlocale.obj
 0002:000652c0       ??1?$collate@G@std@@MEAA@XZ 00000001401202c0 f i libcpmtd:wlocale.obj
 0002:00065310       ??1?$collate@_W@std@@MEAA@XZ 0000000140120310 f i libcpmtd:wlocale.obj
 0002:00065360       ??1?$ctype@G@std@@MEAA@XZ  0000000140120360 f i libcpmtd:wlocale.obj
 0002:000653d0       ??1?$ctype@_W@std@@MEAA@XZ 00000001401203d0 f i libcpmtd:wlocale.obj
 0002:00065440       ??1?$messages@G@std@@MEAA@XZ 0000000140120440 f i libcpmtd:wlocale.obj
 0002:00065470       ??1?$messages@_W@std@@MEAA@XZ 0000000140120470 f i libcpmtd:wlocale.obj
 0002:000654a0       ??1?$money_get@GV?$istreambuf_iterator@GU?$char_traits@G@std@@@std@@@std@@MEAA@XZ 00000001401204a0 f i libcpmtd:wlocale.obj
 0002:000654d0       ??1?$money_get@_WV?$istreambuf_iterator@_WU?$char_traits@_W@std@@@std@@@std@@MEAA@XZ 00000001401204d0 f i libcpmtd:wlocale.obj
 0002:00065500       ??1?$money_put@GV?$ostreambuf_iterator@GU?$char_traits@G@std@@@std@@@std@@MEAA@XZ 0000000140120500 f i libcpmtd:wlocale.obj
 0002:00065530       ??1?$money_put@_WV?$ostreambuf_iterator@_WU?$char_traits@_W@std@@@std@@@std@@MEAA@XZ 0000000140120530 f i libcpmtd:wlocale.obj
 0002:00065560       ??1?$moneypunct@G$00@std@@MEAA@XZ 0000000140120560 f i libcpmtd:wlocale.obj
 0002:00065590       ??1?$moneypunct@G$0A@@std@@MEAA@XZ 0000000140120590 f i libcpmtd:wlocale.obj
 0002:000655c0       ??1?$moneypunct@_W$00@std@@MEAA@XZ 00000001401205c0 f i libcpmtd:wlocale.obj
 0002:000655f0       ??1?$moneypunct@_W$0A@@std@@MEAA@XZ 00000001401205f0 f i libcpmtd:wlocale.obj
 0002:00065620       ??1?$num_get@GV?$istreambuf_iterator@GU?$char_traits@G@std@@@std@@@std@@MEAA@XZ 0000000140120620 f i libcpmtd:wlocale.obj
 0002:00065650       ??1?$num_get@_WV?$istreambuf_iterator@_WU?$char_traits@_W@std@@@std@@@std@@MEAA@XZ 0000000140120650 f i libcpmtd:wlocale.obj
 0002:00065680       ??1?$num_put@GV?$ostreambuf_iterator@GU?$char_traits@G@std@@@std@@@std@@MEAA@XZ 0000000140120680 f i libcpmtd:wlocale.obj
 0002:000656b0       ??1?$num_put@_WV?$ostreambuf_iterator@_WU?$char_traits@_W@std@@@std@@@std@@MEAA@XZ 00000001401206b0 f i libcpmtd:wlocale.obj
 0002:000656e0       ??1?$numpunct@G@std@@MEAA@XZ 00000001401206e0 f i libcpmtd:wlocale.obj
 0002:00065730       ??1?$numpunct@_W@std@@MEAA@XZ 0000000140120730 f i libcpmtd:wlocale.obj
 0002:00065780       ??1?$time_get@GV?$istreambuf_iterator@GU?$char_traits@G@std@@@std@@@std@@MEAA@XZ 0000000140120780 f i libcpmtd:wlocale.obj
 0002:000657d0       ??1?$time_get@_WV?$istreambuf_iterator@_WU?$char_traits@_W@std@@@std@@@std@@MEAA@XZ 00000001401207d0 f i libcpmtd:wlocale.obj
 0002:00065820       ??1?$time_put@GV?$ostreambuf_iterator@GU?$char_traits@G@std@@@std@@@std@@MEAA@XZ 0000000140120820 f i libcpmtd:wlocale.obj
 0002:00065870       ??1?$time_put@_WV?$ostreambuf_iterator@_WU?$char_traits@_W@std@@@std@@@std@@MEAA@XZ 0000000140120870 f i libcpmtd:wlocale.obj
 0002:000658c0       ??1_Bxty@?$_String_val@U?$_Simple_types@G@std@@@std@@QEAA@XZ 00000001401208c0 f i libcpmtd:wlocale.obj
 0002:000658d0       ??1_Timevec@std@@QEAA@XZ   00000001401208d0 f i libcpmtd:wlocale.obj
 0002:00065900       ??1messages_base@std@@UEAA@XZ 0000000140120900 f i libcpmtd:wlocale.obj
 0002:00065920       ??1money_base@std@@UEAA@XZ 0000000140120920 f i libcpmtd:wlocale.obj
 0002:00065940       ??1time_base@std@@UEAA@XZ  0000000140120940 f i libcpmtd:wlocale.obj
 0002:00065970       ??4?$_String_const_iterator@V?$_String_val@U?$_Simple_types@G@std@@@std@@@std@@QEAAAEAV01@$$QEAV01@@Z 0000000140120970 f i libcpmtd:wlocale.obj
 0002:000659c0       ??4?$_String_const_iterator@V?$_String_val@U?$_Simple_types@_W@std@@@std@@@std@@QEAAAEAV01@$$QEAV01@@Z 00000001401209c0 f i libcpmtd:wlocale.obj
 0002:00065a10       ??4?$_Yarn@_W@std@@QEAAAEAV01@PEB_W@Z 0000000140120a10 f i libcpmtd:wlocale.obj
 0002:00065b20       ??4?$basic_string@GU?$char_traits@G@std@@V?$allocator@G@2@@std@@QEAAAEAV01@$$QEAV01@@Z 0000000140120b20 f i libcpmtd:wlocale.obj
 0002:00065bd0       ??4?$basic_string@_WU?$char_traits@_W@std@@V?$allocator@_W@2@@std@@QEAAAEAV01@$$QEAV01@@Z 0000000140120bd0 f i libcpmtd:wlocale.obj
 0002:00065c80       ??4?$ostreambuf_iterator@GU?$char_traits@G@std@@@std@@QEAAAEAV01@G@Z 0000000140120c80 f i libcpmtd:wlocale.obj
 0002:00065d00       ??4?$ostreambuf_iterator@_WU?$char_traits@_W@std@@@std@@QEAAAEAV01@_W@Z 0000000140120d00 f i libcpmtd:wlocale.obj
 0002:00065d80       ??4_Timevec@std@@QEAAAEAV01@AEBV01@@Z 0000000140120d80 f i libcpmtd:wlocale.obj
 0002:00065dc0       ??8?$_String_const_iterator@V?$_String_val@U?$_Simple_types@G@std@@@std@@@std@@QEBA_NAEBV01@@Z 0000000140120dc0 f i libcpmtd:wlocale.obj
 0002:00065e20       ??8?$_String_const_iterator@V?$_String_val@U?$_Simple_types@_W@std@@@std@@@std@@QEBA_NAEBV01@@Z 0000000140120e20 f i libcpmtd:wlocale.obj
 0002:00065e80       ??9?$_String_const_iterator@V?$_String_val@U?$_Simple_types@G@std@@@std@@@std@@QEBA_NAEBV01@@Z 0000000140120e80 f i libcpmtd:wlocale.obj
 0002:00065ed0       ??9?$_String_const_iterator@V?$_String_val@U?$_Simple_types@_W@std@@@std@@@std@@QEBA_NAEBV01@@Z 0000000140120ed0 f i libcpmtd:wlocale.obj
 0002:00065f20       ??A?$basic_string@GU?$char_traits@G@std@@V?$allocator@G@2@@std@@QEAAAEAG_K@Z 0000000140120f20 f i libcpmtd:wlocale.obj
 0002:00065fd0       ??A?$basic_string@GU?$char_traits@G@std@@V?$allocator@G@2@@std@@QEBAAEBG_K@Z 0000000140120fd0 f i libcpmtd:wlocale.obj
 0002:00066080       ??A?$basic_string@_WU?$char_traits@_W@std@@V?$allocator@_W@2@@std@@QEBAAEB_W_K@Z 0000000140121080 f i libcpmtd:wlocale.obj
 0002:00066130       ??D?$_String_const_iterator@V?$_String_val@U?$_Simple_types@G@std@@@std@@@std@@QEBAAEBGXZ 0000000140121130 f i libcpmtd:wlocale.obj
 0002:000662d0       ??D?$_String_const_iterator@V?$_String_val@U?$_Simple_types@_W@std@@@std@@@std@@QEBAAEB_WXZ 00000001401212d0 f i libcpmtd:wlocale.obj
 0002:00066470       ??D?$_String_iterator@V?$_String_val@U?$_Simple_types@G@std@@@std@@@std@@QEBAAEAGXZ 0000000140121470 f i libcpmtd:wlocale.obj
 0002:00066490       ??D?$_String_iterator@V?$_String_val@U?$_Simple_types@_W@std@@@std@@@std@@QEBAAEA_WXZ 0000000140121490 f i libcpmtd:wlocale.obj
 0002:000664b0       ??D?$istreambuf_iterator@GU?$char_traits@G@std@@@std@@QEBAGXZ 00000001401214b0 f i libcpmtd:wlocale.obj
 0002:00066550       ??D?$istreambuf_iterator@_WU?$char_traits@_W@std@@@std@@QEBA_WXZ 0000000140121550 f i libcpmtd:wlocale.obj
 0002:000665f0       ??D?$ostreambuf_iterator@GU?$char_traits@G@std@@@std@@QEAAAEAV01@XZ 00000001401215f0 f i libcpmtd:wlocale.obj
 0002:00066600       ??D?$ostreambuf_iterator@_WU?$char_traits@_W@std@@@std@@QEAAAEAV01@XZ 0000000140121600 f i libcpmtd:wlocale.obj
 0002:00066610       ??E?$_String_const_iterator@V?$_String_val@U?$_Simple_types@G@std@@@std@@@std@@QEAAAEAV01@XZ 0000000140121610 f i libcpmtd:wlocale.obj
 0002:000667b0       ??E?$_String_const_iterator@V?$_String_val@U?$_Simple_types@_W@std@@@std@@@std@@QEAAAEAV01@XZ 00000001401217b0 f i libcpmtd:wlocale.obj
 0002:00066950       ??E?$istreambuf_iterator@GU?$char_traits@G@std@@@std@@QEAAAEAV01@XZ 0000000140121950 f i libcpmtd:wlocale.obj
 0002:000669e0       ??E?$istreambuf_iterator@_WU?$char_traits@_W@std@@@std@@QEAAAEAV01@XZ 00000001401219e0 f i libcpmtd:wlocale.obj
 0002:00066a70       ??E?$ostreambuf_iterator@GU?$char_traits@G@std@@@std@@QEAAAEAV01@H@Z 0000000140121a70 f i libcpmtd:wlocale.obj
 0002:00066a90       ??E?$ostreambuf_iterator@GU?$char_traits@G@std@@@std@@QEAAAEAV01@XZ 0000000140121a90 f i libcpmtd:wlocale.obj
 0002:00066aa0       ??E?$ostreambuf_iterator@_WU?$char_traits@_W@std@@@std@@QEAAAEAV01@H@Z 0000000140121aa0 f i libcpmtd:wlocale.obj
 0002:00066ac0       ??E?$ostreambuf_iterator@_WU?$char_traits@_W@std@@@std@@QEAAAEAV01@XZ 0000000140121ac0 f i libcpmtd:wlocale.obj
 0002:00066ad0       ??G?$_String_iterator@V?$_String_val@U?$_Simple_types@G@std@@@std@@@std@@QEBA?AV01@_J@Z 0000000140121ad0 f i libcpmtd:wlocale.obj
 0002:00066b60       ??G?$_String_iterator@V?$_String_val@U?$_Simple_types@_W@std@@@std@@@std@@QEBA?AV01@_J@Z 0000000140121b60 f i libcpmtd:wlocale.obj
 0002:00066bf0       ??H?$_String_iterator@V?$_String_val@U?$_Simple_types@G@std@@@std@@@std@@QEBA?AV01@_J@Z 0000000140121bf0 f i libcpmtd:wlocale.obj
 0002:00066c80       ??H?$_String_iterator@V?$_String_val@U?$_Simple_types@_W@std@@@std@@@std@@QEBA?AV01@_J@Z 0000000140121c80 f i libcpmtd:wlocale.obj
 0002:00067700       ??Y?$_String_const_iterator@V?$_String_val@U?$_Simple_types@G@std@@@std@@@std@@QEAAAEAV01@_J@Z 0000000140122700 f i libcpmtd:wlocale.obj
 0002:00067940       ??Y?$_String_const_iterator@V?$_String_val@U?$_Simple_types@_W@std@@@std@@@std@@QEAAAEAV01@_J@Z 0000000140122940 f i libcpmtd:wlocale.obj
 0002:00067b80       ??Y?$_String_iterator@V?$_String_val@U?$_Simple_types@G@std@@@std@@@std@@QEAAAEAV01@_J@Z 0000000140122b80 f i libcpmtd:wlocale.obj
 0002:00067bb0       ??Y?$_String_iterator@V?$_String_val@U?$_Simple_types@_W@std@@@std@@@std@@QEAAAEAV01@_J@Z 0000000140122bb0 f i libcpmtd:wlocale.obj
 0002:00067be0       ??Y?$basic_string@GU?$char_traits@G@std@@V?$allocator@G@2@@std@@QEAAAEAV01@AEBV01@@Z 0000000140122be0 f i libcpmtd:wlocale.obj
 0002:00067c10       ??Y?$basic_string@GU?$char_traits@G@std@@V?$allocator@G@2@@std@@QEAAAEAV01@G@Z 0000000140122c10 f i libcpmtd:wlocale.obj
 0002:00067c40       ??Y?$basic_string@_WU?$char_traits@_W@std@@V?$allocator@_W@2@@std@@QEAAAEAV01@AEBV01@@Z 0000000140122c40 f i libcpmtd:wlocale.obj
 0002:00067c70       ??Y?$basic_string@_WU?$char_traits@_W@std@@V?$allocator@_W@2@@std@@QEAAAEAV01@_W@Z 0000000140122c70 f i libcpmtd:wlocale.obj
 0002:00067ca0       ??Z?$_String_iterator@V?$_String_val@U?$_Simple_types@G@std@@@std@@@std@@QEAAAEAV01@_J@Z 0000000140122ca0 f i libcpmtd:wlocale.obj
 0002:00067ce0       ??Z?$_String_iterator@V?$_String_val@U?$_Simple_types@_W@std@@@std@@@std@@QEAAAEAV01@_J@Z 0000000140122ce0 f i libcpmtd:wlocale.obj
 0002:00067d20       ??_E?$_Mpunct@G@std@@MEAAPEAXI@Z 0000000140122d20 f i libcpmtd:wlocale.obj
 0002:00067d20       ??_G?$_Mpunct@G@std@@MEAAPEAXI@Z 0000000140122d20 f i libcpmtd:wlocale.obj
 0002:00067d90       ??_E?$_Mpunct@_W@std@@MEAAPEAXI@Z 0000000140122d90 f i libcpmtd:wlocale.obj
 0002:00067d90       ??_G?$_Mpunct@_W@std@@MEAAPEAXI@Z 0000000140122d90 f i libcpmtd:wlocale.obj
 0002:00067e00       ??_G?$codecvt@GDU_Mbstatet@@@std@@MEAAPEAXI@Z 0000000140122e00 f i libcpmtd:wlocale.obj
 0002:00067e00       ??_E?$codecvt@GDU_Mbstatet@@@std@@MEAAPEAXI@Z 0000000140122e00 f i libcpmtd:wlocale.obj
 0002:00067e70       ??_G?$codecvt@_WDU_Mbstatet@@@std@@MEAAPEAXI@Z 0000000140122e70 f i libcpmtd:wlocale.obj
 0002:00067e70       ??_E?$codecvt@_WDU_Mbstatet@@@std@@MEAAPEAXI@Z 0000000140122e70 f i libcpmtd:wlocale.obj
 0002:00067ee0       ??_E?$collate@G@std@@MEAAPEAXI@Z 0000000140122ee0 f i libcpmtd:wlocale.obj
 0002:00067ee0       ??_G?$collate@G@std@@MEAAPEAXI@Z 0000000140122ee0 f i libcpmtd:wlocale.obj
 0002:00067f50       ??_G?$collate@_W@std@@MEAAPEAXI@Z 0000000140122f50 f i libcpmtd:wlocale.obj
 0002:00067f50       ??_E?$collate@_W@std@@MEAAPEAXI@Z 0000000140122f50 f i libcpmtd:wlocale.obj
 0002:00067fc0       ??_E?$ctype@G@std@@MEAAPEAXI@Z 0000000140122fc0 f i libcpmtd:wlocale.obj
 0002:00067fc0       ??_G?$ctype@G@std@@MEAAPEAXI@Z 0000000140122fc0 f i libcpmtd:wlocale.obj
 0002:00068030       ??_E?$ctype@_W@std@@MEAAPEAXI@Z 0000000140123030 f i libcpmtd:wlocale.obj
 0002:00068030       ??_G?$ctype@_W@std@@MEAAPEAXI@Z 0000000140123030 f i libcpmtd:wlocale.obj
 0002:000680a0       ??_G?$messages@G@std@@MEAAPEAXI@Z 00000001401230a0 f i libcpmtd:wlocale.obj
 0002:000680a0       ??_E?$messages@G@std@@MEAAPEAXI@Z 00000001401230a0 f i libcpmtd:wlocale.obj
 0002:00068110       ??_E?$messages@_W@std@@MEAAPEAXI@Z 0000000140123110 f i libcpmtd:wlocale.obj
 0002:00068110       ??_G?$messages@_W@std@@MEAAPEAXI@Z 0000000140123110 f i libcpmtd:wlocale.obj
 0002:00068180       ??_E?$money_get@GV?$istreambuf_iterator@GU?$char_traits@G@std@@@std@@@std@@MEAAPEAXI@Z 0000000140123180 f i libcpmtd:wlocale.obj
 0002:00068180       ??_G?$money_get@GV?$istreambuf_iterator@GU?$char_traits@G@std@@@std@@@std@@MEAAPEAXI@Z 0000000140123180 f i libcpmtd:wlocale.obj
 0002:000681f0       ??_G?$money_get@_WV?$istreambuf_iterator@_WU?$char_traits@_W@std@@@std@@@std@@MEAAPEAXI@Z 00000001401231f0 f i libcpmtd:wlocale.obj
 0002:000681f0       ??_E?$money_get@_WV?$istreambuf_iterator@_WU?$char_traits@_W@std@@@std@@@std@@MEAAPEAXI@Z 00000001401231f0 f i libcpmtd:wlocale.obj
 0002:00068260       ??_E?$money_put@GV?$ostreambuf_iterator@GU?$char_traits@G@std@@@std@@@std@@MEAAPEAXI@Z 0000000140123260 f i libcpmtd:wlocale.obj
 0002:00068260       ??_G?$money_put@GV?$ostreambuf_iterator@GU?$char_traits@G@std@@@std@@@std@@MEAAPEAXI@Z 0000000140123260 f i libcpmtd:wlocale.obj
 0002:000682d0       ??_G?$money_put@_WV?$ostreambuf_iterator@_WU?$char_traits@_W@std@@@std@@@std@@MEAAPEAXI@Z 00000001401232d0 f i libcpmtd:wlocale.obj
 0002:000682d0       ??_E?$money_put@_WV?$ostreambuf_iterator@_WU?$char_traits@_W@std@@@std@@@std@@MEAAPEAXI@Z 00000001401232d0 f i libcpmtd:wlocale.obj
 0002:00068340       ??_E?$moneypunct@G$00@std@@MEAAPEAXI@Z 0000000140123340 f i libcpmtd:wlocale.obj
 0002:00068340       ??_G?$moneypunct@G$00@std@@MEAAPEAXI@Z 0000000140123340 f i libcpmtd:wlocale.obj
 0002:000683b0       ??_E?$moneypunct@G$0A@@std@@MEAAPEAXI@Z 00000001401233b0 f i libcpmtd:wlocale.obj
 0002:000683b0       ??_G?$moneypunct@G$0A@@std@@MEAAPEAXI@Z 00000001401233b0 f i libcpmtd:wlocale.obj
 0002:00068420       ??_G?$moneypunct@_W$00@std@@MEAAPEAXI@Z 0000000140123420 f i libcpmtd:wlocale.obj
 0002:00068420       ??_E?$moneypunct@_W$00@std@@MEAAPEAXI@Z 0000000140123420 f i libcpmtd:wlocale.obj
 0002:00068490       ??_E?$moneypunct@_W$0A@@std@@MEAAPEAXI@Z 0000000140123490 f i libcpmtd:wlocale.obj
 0002:00068490       ??_G?$moneypunct@_W$0A@@std@@MEAAPEAXI@Z 0000000140123490 f i libcpmtd:wlocale.obj
 0002:00068500       ??_G?$num_get@GV?$istreambuf_iterator@GU?$char_traits@G@std@@@std@@@std@@MEAAPEAXI@Z 0000000140123500 f i libcpmtd:wlocale.obj
 0002:00068500       ??_E?$num_get@GV?$istreambuf_iterator@GU?$char_traits@G@std@@@std@@@std@@MEAAPEAXI@Z 0000000140123500 f i libcpmtd:wlocale.obj
 0002:00068570       ??_G?$num_get@_WV?$istreambuf_iterator@_WU?$char_traits@_W@std@@@std@@@std@@MEAAPEAXI@Z 0000000140123570 f i libcpmtd:wlocale.obj
 0002:00068570       ??_E?$num_get@_WV?$istreambuf_iterator@_WU?$char_traits@_W@std@@@std@@@std@@MEAAPEAXI@Z 0000000140123570 f i libcpmtd:wlocale.obj
 0002:000685e0       ??_G?$num_put@GV?$ostreambuf_iterator@GU?$char_traits@G@std@@@std@@@std@@MEAAPEAXI@Z 00000001401235e0 f i libcpmtd:wlocale.obj
 0002:000685e0       ??_E?$num_put@GV?$ostreambuf_iterator@GU?$char_traits@G@std@@@std@@@std@@MEAAPEAXI@Z 00000001401235e0 f i libcpmtd:wlocale.obj
 0002:00068650       ??_E?$num_put@_WV?$ostreambuf_iterator@_WU?$char_traits@_W@std@@@std@@@std@@MEAAPEAXI@Z 0000000140123650 f i libcpmtd:wlocale.obj
 0002:00068650       ??_G?$num_put@_WV?$ostreambuf_iterator@_WU?$char_traits@_W@std@@@std@@@std@@MEAAPEAXI@Z 0000000140123650 f i libcpmtd:wlocale.obj
 0002:000686c0       ??_G?$numpunct@G@std@@MEAAPEAXI@Z 00000001401236c0 f i libcpmtd:wlocale.obj
 0002:000686c0       ??_E?$numpunct@G@std@@MEAAPEAXI@Z 00000001401236c0 f i libcpmtd:wlocale.obj
 0002:00068730       ??_E?$numpunct@_W@std@@MEAAPEAXI@Z 0000000140123730 f i libcpmtd:wlocale.obj
 0002:00068730       ??_G?$numpunct@_W@std@@MEAAPEAXI@Z 0000000140123730 f i libcpmtd:wlocale.obj
 0002:000687a0       ??_E?$time_get@GV?$istreambuf_iterator@GU?$char_traits@G@std@@@std@@@std@@MEAAPEAXI@Z 00000001401237a0 f i libcpmtd:wlocale.obj
 0002:000687a0       ??_G?$time_get@GV?$istreambuf_iterator@GU?$char_traits@G@std@@@std@@@std@@MEAAPEAXI@Z 00000001401237a0 f i libcpmtd:wlocale.obj
 0002:00068810       ??_E?$time_get@_WV?$istreambuf_iterator@_WU?$char_traits@_W@std@@@std@@@std@@MEAAPEAXI@Z 0000000140123810 f i libcpmtd:wlocale.obj
 0002:00068810       ??_G?$time_get@_WV?$istreambuf_iterator@_WU?$char_traits@_W@std@@@std@@@std@@MEAAPEAXI@Z 0000000140123810 f i libcpmtd:wlocale.obj
 0002:00068880       ??_E?$time_put@GV?$ostreambuf_iterator@GU?$char_traits@G@std@@@std@@@std@@MEAAPEAXI@Z 0000000140123880 f i libcpmtd:wlocale.obj
 0002:00068880       ??_G?$time_put@GV?$ostreambuf_iterator@GU?$char_traits@G@std@@@std@@@std@@MEAAPEAXI@Z 0000000140123880 f i libcpmtd:wlocale.obj
 0002:000688f0       ??_G?$time_put@_WV?$ostreambuf_iterator@_WU?$char_traits@_W@std@@@std@@@std@@MEAAPEAXI@Z 00000001401238f0 f i libcpmtd:wlocale.obj
 0002:000688f0       ??_E?$time_put@_WV?$ostreambuf_iterator@_WU?$char_traits@_W@std@@@std@@@std@@MEAAPEAXI@Z 00000001401238f0 f i libcpmtd:wlocale.obj
 0002:00068960       ??_Gmessages_base@std@@UEAAPEAXI@Z 0000000140123960 f i libcpmtd:wlocale.obj
 0002:00068960       ??_Emessages_base@std@@UEAAPEAXI@Z 0000000140123960 f i libcpmtd:wlocale.obj
 0002:000689d0       ??_Gmoney_base@std@@UEAAPEAXI@Z 00000001401239d0 f i libcpmtd:wlocale.obj
 0002:000689d0       ??_Emoney_base@std@@UEAAPEAXI@Z 00000001401239d0 f i libcpmtd:wlocale.obj
 0002:00068a40       ??_Gtime_base@std@@UEAAPEAXI@Z 0000000140123a40 f i libcpmtd:wlocale.obj
 0002:00068a40       ??_Etime_base@std@@UEAAPEAXI@Z 0000000140123a40 f i libcpmtd:wlocale.obj
 0002:00068ab0       ?_Alloc_proxy@?$_String_alloc@U?$_String_base_types@GV?$allocator@G@std@@@std@@@std@@QEAAXXZ 0000000140123ab0 f i libcpmtd:wlocale.obj
 0002:00068b90       ?_Assign_rv_contents@?$basic_string@GU?$char_traits@G@std@@V?$allocator@G@2@@std@@QEAAX$$QEAV12@U?$integral_constant@_N$00@2@@Z 0000000140123b90 f i libcpmtd:wlocale.obj
 0002:00068bf0       ?_Assign_rv_contents@?$basic_string@_WU?$char_traits@_W@std@@V?$allocator@_W@2@@std@@QEAAX$$QEAV12@U?$integral_constant@_N$00@2@@Z 0000000140123bf0 f i libcpmtd:wlocale.obj
 0002:00068c50       ?_Assign_rv_contents_with_alloc_always_equal@?$basic_string@GU?$char_traits@G@std@@V?$allocator@G@2@@std@@QEAAX$$QEAV12@U?$integral_constant@_N$00@2@@Z 0000000140123c50 f i libcpmtd:wlocale.obj
 0002:00068d20       ?_Assign_rv_contents_with_alloc_always_equal@?$basic_string@_WU?$char_traits@_W@std@@V?$allocator@_W@2@@std@@QEAAX$$QEAV12@U?$integral_constant@_N$00@2@@Z 0000000140123d20 f i libcpmtd:wlocale.obj
 0002:00068df0       ?_C_str@?$_Yarn@_W@std@@QEBAPEB_WXZ 0000000140123df0 f i libcpmtd:wlocale.obj
 0002:00068e40       ?_Calculate_growth@?$basic_string@GU?$char_traits@G@std@@V?$allocator@G@2@@std@@QEBA_K_K@Z 0000000140123e40 f i libcpmtd:wlocale.obj
 0002:00068f30       ?_Check_offset@?$_String_val@U?$_Simple_types@G@std@@@std@@QEBAX_K@Z 0000000140123f30 f i libcpmtd:wlocale.obj
 0002:00068f70       ?_Check_offset@?$_String_val@U?$_Simple_types@_W@std@@@std@@QEBAX_K@Z 0000000140123f70 f i libcpmtd:wlocale.obj
 0002:00068fb0       ?_Compat@?$_String_const_iterator@V?$_String_val@U?$_Simple_types@G@std@@@std@@@std@@QEBAXAEBV12@@Z 0000000140123fb0 f i libcpmtd:wlocale.obj
 0002:00069050       ?_Compat@?$_String_const_iterator@V?$_String_val@U?$_Simple_types@_W@std@@@std@@@std@@QEBAXAEBV12@@Z 0000000140124050 f i libcpmtd:wlocale.obj
 0002:000690f0       ?_Construct_lv_contents@?$basic_string@GU?$char_traits@G@std@@V?$allocator@G@2@@std@@QEAAXAEBV12@@Z 00000001401240f0 f i libcpmtd:wlocale.obj
 0002:000692b0       ?_Construct_lv_contents@?$basic_string@_WU?$char_traits@_W@std@@V?$allocator@_W@2@@std@@QEAAXAEBV12@@Z 00000001401242b0 f i libcpmtd:wlocale.obj
 0002:00069490       ?_Donarrow@?$ctype@G@std@@IEBADGD@Z 0000000140124490 f i libcpmtd:wlocale.obj
 0002:00069550       ?_Donarrow@?$ctype@_W@std@@IEBAD_WD@Z 0000000140124550 f i libcpmtd:wlocale.obj
 0002:00069610       ?_Dowiden@?$ctype@G@std@@IEBAGD@Z 0000000140124610 f i libcpmtd:wlocale.obj
 0002:000696a0       ?_Dowiden@?$ctype@_W@std@@IEBA_WD@Z 00000001401246a0 f i libcpmtd:wlocale.obj
 0002:00069730       ?_Empty@?$_Yarn@_W@std@@QEBA_NXZ 0000000140124730 f i libcpmtd:wlocale.obj
 0002:00069770       ?_Eos@?$basic_string@GU?$char_traits@G@std@@V?$allocator@G@2@@std@@QEAAX_K@Z 0000000140124770 f i libcpmtd:wlocale.obj
 0002:000697e0       ?_Eos@?$basic_string@_WU?$char_traits@_W@std@@V?$allocator@_W@2@@std@@QEAAX_K@Z 00000001401247e0 f i libcpmtd:wlocale.obj
 0002:00069850       ?_Ffmt@?$num_put@GV?$ostreambuf_iterator@GU?$char_traits@G@std@@@std@@@std@@AEBAPEADPEADDH@Z 0000000140124850 f i libcpmtd:wlocale.obj
 0002:00069a70       ?_Ffmt@?$num_put@_WV?$ostreambuf_iterator@_WU?$char_traits@_W@std@@@std@@@std@@AEBAPEADPEADDH@Z 0000000140124a70 f i libcpmtd:wlocale.obj
 0002:00069c90       ?_Fput@?$num_put@GV?$ostreambuf_iterator@GU?$char_traits@G@std@@@std@@@std@@AEBA?AV?$ostreambuf_iterator@GU?$char_traits@G@std@@@2@V32@AEAVios_base@2@GPEBD_K@Z 0000000140124c90 f i libcpmtd:wlocale.obj
 0002:0006a660       ?_Fput@?$num_put@_WV?$ostreambuf_iterator@_WU?$char_traits@_W@std@@@std@@@std@@AEBA?AV?$ostreambuf_iterator@_WU?$char_traits@_W@std@@@2@V32@AEAVios_base@2@_WPEBD_K@Z 0000000140125660 f i libcpmtd:wlocale.obj
 0002:0006b030       ?_Free_proxy@?$_String_alloc@U?$_String_base_types@GV?$allocator@G@std@@@std@@@std@@QEAAXXZ 0000000140126030 f i libcpmtd:wlocale.obj
 0002:0006b0c0       ?_Get_data@?$_String_alloc@U?$_String_base_types@GV?$allocator@G@std@@@std@@@std@@QEAAAEAV?$_String_val@U?$_Simple_types@G@std@@@2@XZ 00000001401260c0 f i libcpmtd:wlocale.obj
 0002:0006b0f0       ?_Get_data@?$_String_alloc@U?$_String_base_types@GV?$allocator@G@std@@@std@@@std@@QEBAAEBV?$_String_val@U?$_Simple_types@G@std@@@2@XZ 00000001401260f0 f i libcpmtd:wlocale.obj
 0002:0006b120       ?_Get_first@?$_Compressed_pair@V?$allocator@G@std@@V?$_String_val@U?$_Simple_types@G@std@@@2@$00@std@@QEAAAEAV?$allocator@G@2@XZ 0000000140126120 f i libcpmtd:wlocale.obj
 0002:0006b130       ?_Get_first@?$_Compressed_pair@V?$allocator@G@std@@V?$_String_val@U?$_Simple_types@G@std@@@2@$00@std@@QEBAAEBV?$allocator@G@2@XZ 0000000140126130 f i libcpmtd:wlocale.obj
 0002:0006b140       ?_Get_second@?$_Compressed_pair@V?$allocator@G@std@@V?$_String_val@U?$_Simple_types@G@std@@@2@$00@std@@QEAAAEAV?$_String_val@U?$_Simple_types@G@std@@@2@XZ 0000000140126140 f i libcpmtd:wlocale.obj
 0002:0006b150       ?_Get_second@?$_Compressed_pair@V?$allocator@G@std@@V?$_String_val@U?$_Simple_types@G@std@@@2@$00@std@@QEBAAEBV?$_String_val@U?$_Simple_types@G@std@@@2@XZ 0000000140126150 f i libcpmtd:wlocale.obj
 0002:0006b160       ?_Getal@?$_String_alloc@U?$_String_base_types@GV?$allocator@G@std@@@std@@@std@@QEAAAEAV?$allocator@G@2@XZ 0000000140126160 f i libcpmtd:wlocale.obj
 0002:0006b190       ?_Getal@?$_String_alloc@U?$_String_base_types@GV?$allocator@G@std@@@std@@@std@@QEBAAEBV?$allocator@G@2@XZ 0000000140126190 f i libcpmtd:wlocale.obj
 0002:0006b1c0       ?_Getcat@?$codecvt@GDU_Mbstatet@@@std@@SA_KPEAPEBVfacet@locale@2@PEBV42@@Z 00000001401261c0 f i libcpmtd:wlocale.obj
 0002:0006b2f0       ?_Getcat@?$codecvt@_WDU_Mbstatet@@@std@@SA_KPEAPEBVfacet@locale@2@PEBV42@@Z 00000001401262f0 f i libcpmtd:wlocale.obj
 0002:0006b420       ?_Getcat@?$collate@G@std@@SA_KPEAPEBVfacet@locale@2@PEBV42@@Z 0000000140126420 f i libcpmtd:wlocale.obj
 0002:0006b5e0       ?_Getcat@?$collate@_W@std@@SA_KPEAPEBVfacet@locale@2@PEBV42@@Z 00000001401265e0 f i libcpmtd:wlocale.obj
 0002:0006b7a0       ?_Getcat@?$ctype@G@std@@SA_KPEAPEBVfacet@locale@2@PEBV42@@Z 00000001401267a0 f i libcpmtd:wlocale.obj
 0002:0006b8d0       ?_Getcat@?$ctype@_W@std@@SA_KPEAPEBVfacet@locale@2@PEBV42@@Z 00000001401268d0 f i libcpmtd:wlocale.obj
 0002:0006ba00       ?_Getcat@?$messages@G@std@@SA_KPEAPEBVfacet@locale@2@PEBV42@@Z 0000000140126a00 f i libcpmtd:wlocale.obj
 0002:0006bb30       ?_Getcat@?$messages@_W@std@@SA_KPEAPEBVfacet@locale@2@PEBV42@@Z 0000000140126b30 f i libcpmtd:wlocale.obj
 0002:0006bc60       ?_Getcat@?$money_get@GV?$istreambuf_iterator@GU?$char_traits@G@std@@@std@@@std@@SA_KPEAPEBVfacet@locale@2@PEBV42@@Z 0000000140126c60 f i libcpmtd:wlocale.obj
 0002:0006bd90       ?_Getcat@?$money_get@_WV?$istreambuf_iterator@_WU?$char_traits@_W@std@@@std@@@std@@SA_KPEAPEBVfacet@locale@2@PEBV42@@Z 0000000140126d90 f i libcpmtd:wlocale.obj
 0002:0006bec0       ?_Getcat@?$money_put@GV?$ostreambuf_iterator@GU?$char_traits@G@std@@@std@@@std@@SA_KPEAPEBVfacet@locale@2@PEBV42@@Z 0000000140126ec0 f i libcpmtd:wlocale.obj
 0002:0006bff0       ?_Getcat@?$money_put@_WV?$ostreambuf_iterator@_WU?$char_traits@_W@std@@@std@@@std@@SA_KPEAPEBVfacet@locale@2@PEBV42@@Z 0000000140126ff0 f i libcpmtd:wlocale.obj
 0002:0006c120       ?_Getcat@?$moneypunct@G$00@std@@SA_KPEAPEBVfacet@locale@2@PEBV42@@Z 0000000140127120 f i libcpmtd:wlocale.obj
 0002:0006c260       ?_Getcat@?$moneypunct@G$0A@@std@@SA_KPEAPEBVfacet@locale@2@PEBV42@@Z 0000000140127260 f i libcpmtd:wlocale.obj
 0002:0006c3a0       ?_Getcat@?$moneypunct@_W$00@std@@SA_KPEAPEBVfacet@locale@2@PEBV42@@Z 00000001401273a0 f i libcpmtd:wlocale.obj
 0002:0006c4e0       ?_Getcat@?$moneypunct@_W$0A@@std@@SA_KPEAPEBVfacet@locale@2@PEBV42@@Z 00000001401274e0 f i libcpmtd:wlocale.obj
 0002:0006c620       ?_Getcat@?$num_get@GV?$istreambuf_iterator@GU?$char_traits@G@std@@@std@@@std@@SA_KPEAPEBVfacet@locale@2@PEBV42@@Z 0000000140127620 f i libcpmtd:wlocale.obj
 0002:0006c750       ?_Getcat@?$num_get@_WV?$istreambuf_iterator@_WU?$char_traits@_W@std@@@std@@@std@@SA_KPEAPEBVfacet@locale@2@PEBV42@@Z 0000000140127750 f i libcpmtd:wlocale.obj
 0002:0006c880       ?_Getcat@?$num_put@GV?$ostreambuf_iterator@GU?$char_traits@G@std@@@std@@@std@@SA_KPEAPEBVfacet@locale@2@PEBV42@@Z 0000000140127880 f i libcpmtd:wlocale.obj
 0002:0006c9b0       ?_Getcat@?$num_put@_WV?$ostreambuf_iterator@_WU?$char_traits@_W@std@@@std@@@std@@SA_KPEAPEBVfacet@locale@2@PEBV42@@Z 00000001401279b0 f i libcpmtd:wlocale.obj
 0002:0006cae0       ?_Getcat@?$numpunct@G@std@@SA_KPEAPEBVfacet@locale@2@PEBV42@@Z 0000000140127ae0 f i libcpmtd:wlocale.obj
 0002:0006cc20       ?_Getcat@?$numpunct@_W@std@@SA_KPEAPEBVfacet@locale@2@PEBV42@@Z 0000000140127c20 f i libcpmtd:wlocale.obj
 0002:0006cd60       ?_Getcat@?$time_get@GV?$istreambuf_iterator@GU?$char_traits@G@std@@@std@@@std@@SA_KPEAPEBVfacet@locale@2@PEBV42@@Z 0000000140127d60 f i libcpmtd:wlocale.obj
 0002:0006ce90       ?_Getcat@?$time_get@_WV?$istreambuf_iterator@_WU?$char_traits@_W@std@@@std@@@std@@SA_KPEAPEBVfacet@locale@2@PEBV42@@Z 0000000140127e90 f i libcpmtd:wlocale.obj
 0002:0006cfc0       ?_Getcat@?$time_put@GV?$ostreambuf_iterator@GU?$char_traits@G@std@@@std@@@std@@SA_KPEAPEBVfacet@locale@2@PEBV42@@Z 0000000140127fc0 f i libcpmtd:wlocale.obj
 0002:0006d0f0       ?_Getcat@?$time_put@_WV?$ostreambuf_iterator@_WU?$char_traits@_W@std@@@std@@@std@@SA_KPEAPEBVfacet@locale@2@PEBV42@@Z 00000001401280f0 f i libcpmtd:wlocale.obj
 0002:0006d220       ?_Getcoll@_Locinfo@std@@QEBA?AU_Collvec@@XZ 0000000140128220 f i libcpmtd:wlocale.obj
 0002:0006d280       ?_Getdateorder@_Locinfo@std@@QEBAHXZ 0000000140128280 f i libcpmtd:wlocale.obj
 0002:0006d2a0       ?_Getdays@_Locinfo@std@@QEBAPEBDXZ 00000001401282a0 f i libcpmtd:wlocale.obj
 0002:0006d350       ?_Getffld@?$num_get@GV?$istreambuf_iterator@GU?$char_traits@G@std@@@std@@@std@@AEBAHPEADAEAV?$istreambuf_iterator@GU?$char_traits@G@std@@@2@1AEAVios_base@2@PEAH@Z 0000000140128350 f i libcpmtd:wlocale.obj
 0002:0006e230       ?_Getffld@?$num_get@_WV?$istreambuf_iterator@_WU?$char_traits@_W@std@@@std@@@std@@AEBAHPEADAEAV?$istreambuf_iterator@_WU?$char_traits@_W@std@@@2@1AEAVios_base@2@PEAH@Z 0000000140129230 f i libcpmtd:wlocale.obj
 0002:0006f110       ?_Getffldx@?$num_get@GV?$istreambuf_iterator@GU?$char_traits@G@std@@@std@@@std@@AEBAHPEADAEAV?$istreambuf_iterator@GU?$char_traits@G@std@@@2@1AEAVios_base@2@PEAH@Z 000000014012a110 f i libcpmtd:wlocale.obj
 0002:0006ff60       ?_Getffldx@?$num_get@_WV?$istreambuf_iterator@_WU?$char_traits@_W@std@@@std@@@std@@AEBAHPEADAEAV?$istreambuf_iterator@_WU?$char_traits@_W@std@@@2@1AEAVios_base@2@PEAH@Z 000000014012af60 f i libcpmtd:wlocale.obj
 0002:00070db0       ?_Getfmt@?$time_get@GV?$istreambuf_iterator@GU?$char_traits@G@std@@@std@@@std@@IEBA?AV?$istreambuf_iterator@GU?$char_traits@G@std@@@2@V32@0AEAVios_base@2@AEAHPEAUtm@@PEBD@Z 000000014012bdb0 f i libcpmtd:wlocale.obj
 0002:000710f0       ?_Getfmt@?$time_get@_WV?$istreambuf_iterator@_WU?$char_traits@_W@std@@@std@@@std@@IEBA?AV?$istreambuf_iterator@_WU?$char_traits@_W@std@@@2@V32@0AEAVios_base@2@AEAHPEAUtm@@PEBD@Z 000000014012c0f0 f i libcpmtd:wlocale.obj
 0002:00071430       ?_Getifld@?$num_get@GV?$istreambuf_iterator@GU?$char_traits@G@std@@@std@@@std@@AEBAHPEADAEAV?$istreambuf_iterator@GU?$char_traits@G@std@@@2@1HAEBVlocale@2@@Z 000000014012c430 f i libcpmtd:wlocale.obj
 0002:00071c90       ?_Getifld@?$num_get@_WV?$istreambuf_iterator@_WU?$char_traits@_W@std@@@std@@@std@@AEBAHPEADAEAV?$istreambuf_iterator@_WU?$char_traits@_W@std@@@2@1HAEBVlocale@2@@Z 000000014012cc90 f i libcpmtd:wlocale.obj
 0002:000724f0       ?_Getint@?$time_get@GV?$istreambuf_iterator@GU?$char_traits@G@std@@@std@@@std@@AEBAHAEAV?$istreambuf_iterator@GU?$char_traits@G@std@@@2@0HHAEAHAEBV?$ctype@G@2@@Z 000000014012d4f0 f i libcpmtd:wlocale.obj
 0002:00072870       ?_Getint@?$time_get@_WV?$istreambuf_iterator@_WU?$char_traits@_W@std@@@std@@@std@@AEBAHAEAV?$istreambuf_iterator@_WU?$char_traits@_W@std@@@2@0HHAEAHAEBV?$ctype@_W@2@@Z 000000014012d870 f i libcpmtd:wlocale.obj
 0002:00072bf0       ?_Getmfld@?$money_get@GV?$istreambuf_iterator@GU?$char_traits@G@std@@@std@@@std@@AEBA?AV?$basic_string@DU?$char_traits@D@std@@V?$allocator@D@2@@2@AEAV?$istreambuf_iterator@GU?$char_traits@G@std@@@2@0_NAEAVios_base@2@PEAG@Z 000000014012dbf0 f i libcpmtd:wlocale.obj
 0002:00074170       ?_Getmfld@?$money_get@_WV?$istreambuf_iterator@_WU?$char_traits@_W@std@@@std@@@std@@AEBA?AV?$basic_string@DU?$char_traits@D@std@@V?$allocator@D@2@@2@AEAV?$istreambuf_iterator@_WU?$char_traits@_W@std@@@2@0_NAEAVios_base@2@PEA_W@Z 000000014012f170 f i libcpmtd:wlocale.obj
 0002:000756f0       ?_Getmonths@_Locinfo@std@@QEBAPEBDXZ 00000001401306f0 f i libcpmtd:wlocale.obj
 0002:000757a0       ?_Getptr@_Timevec@std@@QEBAPEAXXZ 00000001401307a0 f i libcpmtd:wlocale.obj
 0002:000757c0       ?_Getvals@?$_Mpunct@_W@std@@IEAAX_WPEBUlconv@@@Z 00000001401307c0 f i libcpmtd:wlocale.obj
 0002:00075920       ?_Getvals@?$numpunct@_W@std@@IEAAX_WPEBUlconv@@U_Cvtvec@@@Z 0000000140130920 f i libcpmtd:wlocale.obj
 0002:00075990       ?_Gnavail@?$basic_streambuf@GU?$char_traits@G@std@@@std@@IEBA_JXZ 0000000140130990 f i libcpmtd:wlocale.obj
 0002:000759e0       ?_Gnavail@?$basic_streambuf@_WU?$char_traits@_W@std@@@std@@IEBA_JXZ 00000001401309e0 f i libcpmtd:wlocale.obj
 0002:00075a30       ?_Gninc@?$basic_streambuf@GU?$char_traits@G@std@@@std@@IEAAPEAGXZ 0000000140130a30 f i libcpmtd:wlocale.obj
 0002:00075aa0       ?_Gninc@?$basic_streambuf@_WU?$char_traits@_W@std@@@std@@IEAAPEA_WXZ 0000000140130aa0 f i libcpmtd:wlocale.obj
 0002:00075b10       ?_Hash_bytes@std@@YA_KPEBE_K@Z 0000000140130b10 f i libcpmtd:wlocale.obj
 0002:00075be0       ?_Ifmt@?$num_put@GV?$ostreambuf_iterator@GU?$char_traits@G@std@@@std@@@std@@AEBAPEADPEADPEBDH@Z 0000000140130be0 f i libcpmtd:wlocale.obj
 0002:00075dd0       ?_Ifmt@?$num_put@_WV?$ostreambuf_iterator@_WU?$char_traits@_W@std@@@std@@@std@@AEBAPEADPEADPEBDH@Z 0000000140130dd0 f i libcpmtd:wlocale.obj
 0002:00075fc0       ?_Inc@?$istreambuf_iterator@GU?$char_traits@G@std@@@std@@AEAAXXZ 0000000140130fc0 f i libcpmtd:wlocale.obj
 0002:00076050       ?_Inc@?$istreambuf_iterator@_WU?$char_traits@_W@std@@@std@@AEAAXXZ 0000000140131050 f i libcpmtd:wlocale.obj
 0002:000760e0       ?_Init@?$_Mpunct@G@std@@IEAAXAEBV_Locinfo@2@_N@Z 00000001401310e0 f i libcpmtd:wlocale.obj
 0002:000763c0       ?_Init@?$_Mpunct@_W@std@@IEAAXAEBV_Locinfo@2@_N@Z 00000001401313c0 f i libcpmtd:wlocale.obj
 0002:000766a0       ?_Init@?$codecvt@GDU_Mbstatet@@@std@@IEAAXAEBV_Locinfo@2@@Z 00000001401316a0 f i libcpmtd:wlocale.obj
 0002:00076720       ?_Init@?$codecvt@_WDU_Mbstatet@@@std@@IEAAXAEBV_Locinfo@2@@Z 0000000140131720 f i libcpmtd:wlocale.obj
 0002:000767a0       ?_Init@?$collate@G@std@@IEAAXAEBV_Locinfo@2@@Z 00000001401317a0 f i libcpmtd:wlocale.obj
 0002:000767f0       ?_Init@?$collate@_W@std@@IEAAXAEBV_Locinfo@2@@Z 00000001401317f0 f i libcpmtd:wlocale.obj
 0002:00076840       ?_Init@?$ctype@G@std@@IEAAXAEBV_Locinfo@2@@Z 0000000140131840 f i libcpmtd:wlocale.obj
 0002:000768f0       ?_Init@?$ctype@_W@std@@IEAAXAEBV_Locinfo@2@@Z 00000001401318f0 f i libcpmtd:wlocale.obj
 0002:000769a0       ?_Init@?$messages@G@std@@IEAAXAEBV_Locinfo@2@@Z 00000001401319a0 f i libcpmtd:wlocale.obj
 0002:000769b0       ?_Init@?$messages@_W@std@@IEAAXAEBV_Locinfo@2@@Z 00000001401319b0 f i libcpmtd:wlocale.obj
 0002:000769c0       ?_Init@?$money_get@GV?$istreambuf_iterator@GU?$char_traits@G@std@@@std@@@std@@IEAAXAEBV_Locinfo@2@@Z 00000001401319c0 f i libcpmtd:wlocale.obj
 0002:000769d0       ?_Init@?$money_get@_WV?$istreambuf_iterator@_WU?$char_traits@_W@std@@@std@@@std@@IEAAXAEBV_Locinfo@2@@Z 00000001401319d0 f i libcpmtd:wlocale.obj
 0002:000769e0       ?_Init@?$money_put@GV?$ostreambuf_iterator@GU?$char_traits@G@std@@@std@@@std@@IEAAXAEBV_Locinfo@2@@Z 00000001401319e0 f i libcpmtd:wlocale.obj
 0002:000769f0       ?_Init@?$money_put@_WV?$ostreambuf_iterator@_WU?$char_traits@_W@std@@@std@@@std@@IEAAXAEBV_Locinfo@2@@Z 00000001401319f0 f i libcpmtd:wlocale.obj
 0002:00076a00       ?_Init@?$num_get@GV?$istreambuf_iterator@GU?$char_traits@G@std@@@std@@@std@@IEAAXAEBV_Locinfo@2@@Z 0000000140131a00 f i libcpmtd:wlocale.obj
 0002:00076a10       ?_Init@?$num_get@_WV?$istreambuf_iterator@_WU?$char_traits@_W@std@@@std@@@std@@IEAAXAEBV_Locinfo@2@@Z 0000000140131a10 f i libcpmtd:wlocale.obj
 0002:00076a20       ?_Init@?$num_put@GV?$ostreambuf_iterator@GU?$char_traits@G@std@@@std@@@std@@IEAAXAEBV_Locinfo@2@@Z 0000000140131a20 f i libcpmtd:wlocale.obj
 0002:00076a30       ?_Init@?$num_put@_WV?$ostreambuf_iterator@_WU?$char_traits@_W@std@@@std@@@std@@IEAAXAEBV_Locinfo@2@@Z 0000000140131a30 f i libcpmtd:wlocale.obj
 0002:00076a40       ?_Init@?$numpunct@G@std@@IEAAXAEBV_Locinfo@2@_N@Z 0000000140131a40 f i libcpmtd:wlocale.obj
 0002:00076cd0       ?_Init@?$numpunct@_W@std@@IEAAXAEBV_Locinfo@2@_N@Z 0000000140131cd0 f i libcpmtd:wlocale.obj
 0002:00076f60       ?_Init@?$time_get@GV?$istreambuf_iterator@GU?$char_traits@G@std@@@std@@@std@@IEAAXAEBV_Locinfo@2@@Z 0000000140131f60 f i libcpmtd:wlocale.obj
 0002:00076ff0       ?_Init@?$time_get@_WV?$istreambuf_iterator@_WU?$char_traits@_W@std@@@std@@@std@@IEAAXAEBV_Locinfo@2@@Z 0000000140131ff0 f i libcpmtd:wlocale.obj
 0002:00077080       ?_Init@?$time_put@GV?$ostreambuf_iterator@GU?$char_traits@G@std@@@std@@@std@@IEAAXAEBV_Locinfo@2@@Z 0000000140132080 f i libcpmtd:wlocale.obj
 0002:00077100       ?_Init@?$time_put@_WV?$ostreambuf_iterator@_WU?$char_traits@_W@std@@@std@@@std@@IEAAXAEBV_Locinfo@2@@Z 0000000140132100 f i libcpmtd:wlocale.obj
 0002:00077180       ?_Iput@?$num_put@GV?$ostreambuf_iterator@GU?$char_traits@G@std@@@std@@@std@@AEBA?AV?$ostreambuf_iterator@GU?$char_traits@G@std@@@2@V32@AEAVios_base@2@GPEAD_K@Z 0000000140132180 f i libcpmtd:wlocale.obj
 0002:00077a00       ?_Iput@?$num_put@_WV?$ostreambuf_iterator@_WU?$char_traits@_W@std@@@std@@@std@@AEBA?AV?$ostreambuf_iterator@_WU?$char_traits@_W@std@@@2@V32@AEAVios_base@2@_WPEAD_K@Z 0000000140132a00 f i libcpmtd:wlocale.obj
 0002:00078280       ?_Large_string_engaged@?$_String_val@U?$_Simple_types@G@std@@@std@@QEBA_NXZ 0000000140133280 f i libcpmtd:wlocale.obj
 0002:000782c0       ?_Makeushloc@_Locimp@locale@std@@CAXAEBV_Locinfo@3@HPEAV123@PEBV23@@Z 00000001401332c0 f   libcpmtd:wlocale.obj
 0002:00079290       ?_Makewloc@_Locimp@locale@std@@CAXAEBV_Locinfo@3@HPEAV123@PEBV23@@Z 0000000140134290 f   libcpmtd:wlocale.obj
 0002:0007a260       ?_Maklocwcs@std@@YAPEA_WPEB_W@Z 0000000140135260 f i libcpmtd:wlocale.obj
 0002:0007a2f0       ?_Makpat@?$_Mpunct@G@std@@AEAAXAEAUpattern@money_base@2@III@Z 00000001401352f0 f i libcpmtd:wlocale.obj
 0002:0007a3c0       ?_Makpat@?$_Mpunct@_W@std@@AEAAXAEAUpattern@money_base@2@III@Z 00000001401353c0 f i libcpmtd:wlocale.obj
 0002:0007a490       ?_Move_alloc@?$_String_alloc@U?$_String_base_types@GV?$allocator@G@std@@@std@@@std@@QEAAXAEAV?$allocator@G@2@@Z 0000000140135490 f i libcpmtd:wlocale.obj
 0002:0007a540       ?_Move_alloc@?$_String_alloc@U?$_String_base_types@_WV?$allocator@_W@std@@@std@@@std@@QEAAXAEAV?$allocator@_W@2@@Z 0000000140135540 f i libcpmtd:wlocale.obj
 0002:0007a5f0       ?_Myproxy@?$_String_alloc@U?$_String_base_types@GV?$allocator@G@std@@@std@@@std@@QEAAAEAPEAU_Container_proxy@2@XZ 00000001401355f0 f i libcpmtd:wlocale.obj
 0002:0007a610       ?_Myptr@?$_String_val@U?$_Simple_types@G@std@@@std@@QEAAPEAGXZ 0000000140135610 f i libcpmtd:wlocale.obj
 0002:0007a670       ?_Myptr@?$_String_val@U?$_Simple_types@G@std@@@std@@QEBAPEBGXZ 0000000140135670 f i libcpmtd:wlocale.obj
 0002:0007a6d0       ?_Myptr@?$_String_val@U?$_Simple_types@_W@std@@@std@@QEBAPEB_WXZ 00000001401356d0 f i libcpmtd:wlocale.obj
 0002:0007a730       ?_Orphan_all@?$_String_alloc@U?$_String_base_types@GV?$allocator@G@std@@@std@@@std@@QEAAXXZ 0000000140135730 f i libcpmtd:wlocale.obj
 0002:0007a760       ?_Peek@?$istreambuf_iterator@GU?$char_traits@G@std@@@std@@AEBAGXZ 0000000140135760 f i libcpmtd:wlocale.obj
 0002:0007a800       ?_Peek@?$istreambuf_iterator@_WU?$char_traits@_W@std@@@std@@AEBA_WXZ 0000000140135800 f i libcpmtd:wlocale.obj
 0002:0007a8a0       ?_Pnavail@?$basic_streambuf@GU?$char_traits@G@std@@@std@@IEBA_JXZ 00000001401358a0 f i libcpmtd:wlocale.obj
 0002:0007a8f0       ?_Pnavail@?$basic_streambuf@_WU?$char_traits@_W@std@@@std@@IEBA_JXZ 00000001401358f0 f i libcpmtd:wlocale.obj
 0002:0007a940       ?_Pninc@?$basic_streambuf@GU?$char_traits@G@std@@@std@@IEAAPEAGXZ 0000000140135940 f i libcpmtd:wlocale.obj
 0002:0007a9b0       ?_Pninc@?$basic_streambuf@_WU?$char_traits@_W@std@@@std@@IEAAPEA_WXZ 00000001401359b0 f i libcpmtd:wlocale.obj
 0002:0007aa20       ?_Put@?$money_put@GV?$ostreambuf_iterator@GU?$char_traits@G@std@@@std@@@std@@CA?AV?$ostreambuf_iterator@GU?$char_traits@G@std@@@2@V32@V?$_String_const_iterator@V?$_String_val@U?$_Simple_types@G@std@@@std@@@2@_K@Z 0000000140135a20 f i libcpmtd:wlocale.obj
 0002:0007aaf0       ?_Put@?$money_put@_WV?$ostreambuf_iterator@_WU?$char_traits@_W@std@@@std@@@std@@CA?AV?$ostreambuf_iterator@_WU?$char_traits@_W@std@@@2@V32@V?$_String_const_iterator@V?$_String_val@U?$_Simple_types@_W@std@@@std@@@2@_K@Z 0000000140135af0 f i libcpmtd:wlocale.obj
 0002:0007abc0       ?_Put@?$num_put@GV?$ostreambuf_iterator@GU?$char_traits@G@std@@@std@@@std@@AEBA?AV?$ostreambuf_iterator@GU?$char_traits@G@std@@@2@V32@PEBG_K@Z 0000000140135bc0 f i libcpmtd:wlocale.obj
 0002:0007ac70       ?_Put@?$num_put@_WV?$ostreambuf_iterator@_WU?$char_traits@_W@std@@@std@@@std@@AEBA?AV?$ostreambuf_iterator@_WU?$char_traits@_W@std@@@2@V32@PEB_W_K@Z 0000000140135c70 f i libcpmtd:wlocale.obj
 0002:0007ad20       ?_Putmfld@?$money_put@GV?$ostreambuf_iterator@GU?$char_traits@G@std@@@std@@@std@@AEBA?AV?$ostreambuf_iterator@GU?$char_traits@G@std@@@2@V32@_NAEAVios_base@2@G1V?$basic_string@GU?$char_traits@G@std@@V?$allocator@G@2@@2@G@Z 0000000140135d20 f i libcpmtd:wlocale.obj
 0002:0007c050       ?_Putmfld@?$money_put@_WV?$ostreambuf_iterator@_WU?$char_traits@_W@std@@@std@@@std@@AEBA?AV?$ostreambuf_iterator@_WU?$char_traits@_W@std@@@2@V32@_NAEAVios_base@2@_W1V?$basic_string@_WU?$char_traits@_W@std@@V?$allocator@_W@2@@2@3@Z 0000000140137050 f i libcpmtd:wlocale.obj
 0002:0007d380       ?_Rep@?$money_put@GV?$ostreambuf_iterator@GU?$char_traits@G@std@@@std@@@std@@CA?AV?$ostreambuf_iterator@GU?$char_traits@G@std@@@2@V32@G_K@Z 0000000140138380 f i libcpmtd:wlocale.obj
 0002:0007d410       ?_Rep@?$money_put@_WV?$ostreambuf_iterator@_WU?$char_traits@_W@std@@@std@@@std@@CA?AV?$ostreambuf_iterator@_WU?$char_traits@_W@std@@@2@V32@_W_K@Z 0000000140138410 f i libcpmtd:wlocale.obj
 0002:0007d4a0       ?_Rep@?$num_put@GV?$ostreambuf_iterator@GU?$char_traits@G@std@@@std@@@std@@AEBA?AV?$ostreambuf_iterator@GU?$char_traits@G@std@@@2@V32@G_K@Z 00000001401384a0 f i libcpmtd:wlocale.obj
 0002:0007d530       ?_Rep@?$num_put@_WV?$ostreambuf_iterator@_WU?$char_traits@_W@std@@@std@@@std@@AEBA?AV?$ostreambuf_iterator@_WU?$char_traits@_W@std@@@2@V32@_W_K@Z 0000000140138530 f i libcpmtd:wlocale.obj
 0002:0007d5c0       ?_Swap_all@?$_String_alloc@U?$_String_base_types@GV?$allocator@G@std@@@std@@@std@@QEAAXAEAV12@@Z 00000001401385c0 f i libcpmtd:wlocale.obj
 0002:0007d610       ?_Swap_all@?$_String_alloc@U?$_String_base_types@_WV?$allocator@_W@std@@@std@@@std@@QEAAXAEAV12@@Z 0000000140138610 f i libcpmtd:wlocale.obj
 0002:0007d660       ?_Tidy@?$_Mpunct@G@std@@AEAAXXZ 0000000140138660 f i libcpmtd:wlocale.obj
 0002:0007d6c0       ?_Tidy@?$_Mpunct@_W@std@@AEAAXXZ 00000001401386c0 f i libcpmtd:wlocale.obj
 0002:0007d720       ?_Tidy@?$numpunct@G@std@@AEAAXXZ 0000000140138720 f i libcpmtd:wlocale.obj
 0002:0007d770       ?_Tidy@?$numpunct@_W@std@@AEAAXXZ 0000000140138770 f i libcpmtd:wlocale.obj
 0002:0007d7c0       ?_Tidy@?$time_get@GV?$istreambuf_iterator@GU?$char_traits@G@std@@@std@@@std@@AEAAXXZ 00000001401387c0 f i libcpmtd:wlocale.obj
 0002:0007d810       ?_Tidy@?$time_get@_WV?$istreambuf_iterator@_WU?$char_traits@_W@std@@@std@@@std@@AEAAXXZ 0000000140138810 f i libcpmtd:wlocale.obj
 0002:0007d860       ?_Tidy_deallocate@?$basic_string@GU?$char_traits@G@std@@V?$allocator@G@2@@std@@QEAAXXZ 0000000140138860 f i libcpmtd:wlocale.obj
 0002:0007d970       ?_Tidy_init@?$basic_string@GU?$char_traits@G@std@@V?$allocator@G@2@@std@@QEAAXXZ 0000000140138970 f i libcpmtd:wlocale.obj
 0002:0007d9f0       ?_W_Getdays@_Locinfo@std@@QEBAPEBGXZ 00000001401389f0 f i libcpmtd:wlocale.obj
 0002:0007daa0       ?_W_Getmonths@_Locinfo@std@@QEBAPEBGXZ 0000000140138aa0 f i libcpmtd:wlocale.obj
 0002:0007db50       ?_W_Gettnames@_Locinfo@std@@QEBA?AV_Timevec@2@XZ 0000000140138b50 f i libcpmtd:wlocale.obj
 0002:0007dba0       ?_Xlen@?$basic_string@GU?$char_traits@G@std@@V?$allocator@G@2@@std@@SAXXZ 0000000140138ba0 f i libcpmtd:wlocale.obj
 0002:0007dbc0       ?_Xran@?$_String_val@U?$_Simple_types@G@std@@@std@@SAXXZ 0000000140138bc0 f i libcpmtd:wlocale.obj
 0002:0007dbe0       ?_Xran@?$_String_val@U?$_Simple_types@_W@std@@@std@@SAXXZ 0000000140138be0 f i libcpmtd:wlocale.obj
 0002:0007dc00       ?append@?$basic_string@GU?$char_traits@G@std@@V?$allocator@G@2@@std@@QEAAAEAV12@AEBV12@@Z 0000000140138c00 f i libcpmtd:wlocale.obj
 0002:0007dc60       ?append@?$basic_string@GU?$char_traits@G@std@@V?$allocator@G@2@@std@@QEAAAEAV12@QEBG_K@Z 0000000140138c60 f i libcpmtd:wlocale.obj
 0002:0007dda0       ?append@?$basic_string@GU?$char_traits@G@std@@V?$allocator@G@2@@std@@QEAAAEAV12@_KG@Z 0000000140138da0 f i libcpmtd:wlocale.obj
 0002:0007def0       ?append@?$basic_string@_WU?$char_traits@_W@std@@V?$allocator@_W@2@@std@@QEAAAEAV12@AEBV12@@Z 0000000140138ef0 f i libcpmtd:wlocale.obj
 0002:0007df50       ?append@?$basic_string@_WU?$char_traits@_W@std@@V?$allocator@_W@2@@std@@QEAAAEAV12@QEB_W_K@Z 0000000140138f50 f i libcpmtd:wlocale.obj
 0002:0007e090       ?append@?$basic_string@_WU?$char_traits@_W@std@@V?$allocator@_W@2@@std@@QEAAAEAV12@_K_W@Z 0000000140139090 f i libcpmtd:wlocale.obj
 0002:0007e1e0       ?assign@?$_WChar_traits@G@std@@SAPEAGQEAG_KG@Z 00000001401391e0 f i libcpmtd:wlocale.obj
 0002:0007e220       ?assign@?$_WChar_traits@G@std@@SAXAEAGAEBG@Z 0000000140139220 f i libcpmtd:wlocale.obj
 0002:0007e250       ?assign@?$basic_string@GU?$char_traits@G@std@@V?$allocator@G@2@@std@@QEAAAEAV12@$$QEAV12@@Z 0000000140139250 f i libcpmtd:wlocale.obj
 0002:0007e290       ?assign@?$basic_string@GU?$char_traits@G@std@@V?$allocator@G@2@@std@@QEAAAEAV12@QEBG@Z 0000000140139290 f i libcpmtd:wlocale.obj
 0002:0007e2e0       ?assign@?$basic_string@GU?$char_traits@G@std@@V?$allocator@G@2@@std@@QEAAAEAV12@QEBG_K@Z 00000001401392e0 f i libcpmtd:wlocale.obj
 0002:0007e3d0       ?assign@?$basic_string@GU?$char_traits@G@std@@V?$allocator@G@2@@std@@QEAAAEAV12@_KG@Z 00000001401393d0 f i libcpmtd:wlocale.obj
 0002:0007e4d0       ?assign@?$basic_string@_WU?$char_traits@_W@std@@V?$allocator@_W@2@@std@@QEAAAEAV12@$$QEAV12@@Z 00000001401394d0 f i libcpmtd:wlocale.obj
 0002:0007e510       ?assign@?$basic_string@_WU?$char_traits@_W@std@@V?$allocator@_W@2@@std@@QEAAAEAV12@QEB_W@Z 0000000140139510 f i libcpmtd:wlocale.obj
 0002:0007e560       ?assign@?$basic_string@_WU?$char_traits@_W@std@@V?$allocator@_W@2@@std@@QEAAAEAV12@QEB_W_K@Z 0000000140139560 f i libcpmtd:wlocale.obj
 0002:0007e650       ?begin@?$basic_string@GU?$char_traits@G@std@@V?$allocator@G@2@@std@@QEAA?AV?$_String_iterator@V?$_String_val@U?$_Simple_types@G@std@@@std@@@2@XZ 0000000140139650 f i libcpmtd:wlocale.obj
 0002:0007e6d0       ?begin@?$basic_string@_WU?$char_traits@_W@std@@V?$allocator@_W@2@@std@@QEAA?AV?$_String_iterator@V?$_String_val@U?$_Simple_types@_W@std@@@std@@@2@XZ 00000001401396d0 f i libcpmtd:wlocale.obj
 0002:0007e750       ?c_str@?$basic_string@GU?$char_traits@G@std@@V?$allocator@G@2@@std@@QEBAPEBGXZ 0000000140139750 f i libcpmtd:wlocale.obj
 0002:0007e790       ?c_str@?$basic_string@_WU?$char_traits@_W@std@@V?$allocator@_W@2@@std@@QEBAPEB_WXZ 0000000140139790 f i libcpmtd:wlocale.obj
 0002:0007e7d0       ?copy@?$_WChar_traits@G@std@@SAPEAGQEAGQEBG_K@Z 00000001401397d0 f i libcpmtd:wlocale.obj
 0002:0007e810       ?copy@?$_WChar_traits@_W@std@@SAPEA_WQEA_WQEB_W_K@Z 0000000140139810 f i libcpmtd:wlocale.obj
 0002:0007e850       ?curr_symbol@?$_Mpunct@G@std@@QEBA?AV?$basic_string@GU?$char_traits@G@std@@V?$allocator@G@2@@2@XZ 0000000140139850 f i libcpmtd:wlocale.obj
 0002:0007e8c0       ?curr_symbol@?$_Mpunct@_W@std@@QEBA?AV?$basic_string@_WU?$char_traits@_W@std@@V?$allocator@_W@2@@2@XZ 00000001401398c0 f i libcpmtd:wlocale.obj
 0002:0007e930       ?date_order@?$time_get@GV?$istreambuf_iterator@GU?$char_traits@G@std@@@std@@@std@@QEBA?AW4dateorder@time_base@2@XZ 0000000140139930 f i libcpmtd:wlocale.obj
 0002:0007e970       ?date_order@?$time_get@_WV?$istreambuf_iterator@_WU?$char_traits@_W@std@@@std@@@std@@QEBA?AW4dateorder@time_base@2@XZ 0000000140139970 f i libcpmtd:wlocale.obj
 0002:0007e9b0       ?decimal_point@?$_Mpunct@G@std@@QEBAGXZ 00000001401399b0 f i libcpmtd:wlocale.obj
 0002:0007e9f0       ?decimal_point@?$_Mpunct@_W@std@@QEBA_WXZ 00000001401399f0 f i libcpmtd:wlocale.obj
 0002:0007ea30       ?decimal_point@?$numpunct@G@std@@QEBAGXZ 0000000140139a30 f i libcpmtd:wlocale.obj
 0002:0007ea70       ?decimal_point@?$numpunct@_W@std@@QEBA_WXZ 0000000140139a70 f i libcpmtd:wlocale.obj
 0002:0007eab0       ?do_always_noconv@?$codecvt@GDU_Mbstatet@@@std@@MEBA_NXZ 0000000140139ab0 f i libcpmtd:wlocale.obj
 0002:0007eac0       ?do_always_noconv@?$codecvt@_WDU_Mbstatet@@@std@@MEBA_NXZ 0000000140139ac0 f i libcpmtd:wlocale.obj
 0002:0007ead0       ?do_close@?$messages@G@std@@MEBAXH@Z 0000000140139ad0 f i libcpmtd:wlocale.obj
 0002:0007eae0       ?do_close@?$messages@_W@std@@MEBAXH@Z 0000000140139ae0 f i libcpmtd:wlocale.obj
 0002:0007eaf0       ?do_compare@?$collate@G@std@@MEBAHPEBG000@Z 0000000140139af0 f i libcpmtd:wlocale.obj
 0002:0007ebe0       ?do_compare@?$collate@_W@std@@MEBAHPEB_W000@Z 0000000140139be0 f i libcpmtd:wlocale.obj
 0002:0007ecd0       ?do_curr_symbol@?$_Mpunct@G@std@@MEBA?AV?$basic_string@GU?$char_traits@G@std@@V?$allocator@G@2@@2@XZ 0000000140139cd0 f i libcpmtd:wlocale.obj
 0002:0007ed20       ?do_curr_symbol@?$_Mpunct@_W@std@@MEBA?AV?$basic_string@_WU?$char_traits@_W@std@@V?$allocator@_W@2@@2@XZ 0000000140139d20 f i libcpmtd:wlocale.obj
 0002:0007ed70       ?do_date_order@?$time_get@GV?$istreambuf_iterator@GU?$char_traits@G@std@@@std@@@std@@MEBA?AW4dateorder@time_base@2@XZ 0000000140139d70 f i libcpmtd:wlocale.obj
 0002:0007ed90       ?do_date_order@?$time_get@_WV?$istreambuf_iterator@_WU?$char_traits@_W@std@@@std@@@std@@MEBA?AW4dateorder@time_base@2@XZ 0000000140139d90 f i libcpmtd:wlocale.obj
 0002:0007edb0       ?do_decimal_point@?$_Mpunct@G@std@@MEBAGXZ 0000000140139db0 f i libcpmtd:wlocale.obj
 0002:0007edd0       ?do_decimal_point@?$_Mpunct@_W@std@@MEBA_WXZ 0000000140139dd0 f i libcpmtd:wlocale.obj
 0002:0007edf0       ?do_decimal_point@?$numpunct@G@std@@MEBAGXZ 0000000140139df0 f i libcpmtd:wlocale.obj
 0002:0007ee10       ?do_decimal_point@?$numpunct@_W@std@@MEBA_WXZ 0000000140139e10 f i libcpmtd:wlocale.obj
 0002:0007ee30       ?do_encoding@?$codecvt@GDU_Mbstatet@@@std@@MEBAHXZ 0000000140139e30 f i libcpmtd:wlocale.obj
 0002:0007ee40       ?do_encoding@?$codecvt@_WDU_Mbstatet@@@std@@MEBAHXZ 0000000140139e40 f i libcpmtd:wlocale.obj
 0002:0007ee50       ?do_falsename@?$numpunct@G@std@@MEBA?AV?$basic_string@GU?$char_traits@G@std@@V?$allocator@G@2@@2@XZ 0000000140139e50 f i libcpmtd:wlocale.obj
 0002:0007eea0       ?do_falsename@?$numpunct@_W@std@@MEBA?AV?$basic_string@_WU?$char_traits@_W@std@@V?$allocator@_W@2@@2@XZ 0000000140139ea0 f i libcpmtd:wlocale.obj
 0002:0007eef0       ?do_frac_digits@?$_Mpunct@G@std@@MEBAHXZ 0000000140139ef0 f i libcpmtd:wlocale.obj
 0002:0007ef10       ?do_frac_digits@?$_Mpunct@_W@std@@MEBAHXZ 0000000140139f10 f i libcpmtd:wlocale.obj
 0002:0007ef30       ?do_get@?$messages@G@std@@MEBA?AV?$basic_string@GU?$char_traits@G@std@@V?$allocator@G@2@@2@HHHAEBV32@@Z 0000000140139f30 f i libcpmtd:wlocale.obj
 0002:0007ef90       ?do_get@?$messages@_W@std@@MEBA?AV?$basic_string@_WU?$char_traits@_W@std@@V?$allocator@_W@2@@2@HHHAEBV32@@Z 0000000140139f90 f i libcpmtd:wlocale.obj
 0002:0007eff0       ?do_get@?$money_get@GV?$istreambuf_iterator@GU?$char_traits@G@std@@@std@@@std@@MEBA?AV?$istreambuf_iterator@GU?$char_traits@G@std@@@2@V32@0_NAEAVios_base@2@AEAHAEAO@Z 0000000140139ff0 f i libcpmtd:wlocale.obj
 0002:0007f1f0       ?do_get@?$money_get@GV?$istreambuf_iterator@GU?$char_traits@G@std@@@std@@@std@@MEBA?AV?$istreambuf_iterator@GU?$char_traits@G@std@@@2@V32@0_NAEAVios_base@2@AEAHAEAV?$basic_string@GU?$char_traits@G@std@@V?$allocator@G@2@@2@@Z 000000014013a1f0 f i libcpmtd:wlocale.obj
 0002:0007f470       ?do_get@?$money_get@_WV?$istreambuf_iterator@_WU?$char_traits@_W@std@@@std@@@std@@MEBA?AV?$istreambuf_iterator@_WU?$char_traits@_W@std@@@2@V32@0_NAEAVios_base@2@AEAHAEAO@Z 000000014013a470 f i libcpmtd:wlocale.obj
 0002:0007f670       ?do_get@?$money_get@_WV?$istreambuf_iterator@_WU?$char_traits@_W@std@@@std@@@std@@MEBA?AV?$istreambuf_iterator@_WU?$char_traits@_W@std@@@2@V32@0_NAEAVios_base@2@AEAHAEAV?$basic_string@_WU?$char_traits@_W@std@@V?$allocator@_W@2@@2@@Z 000000014013a670 f i libcpmtd:wlocale.obj
 0002:0007f8f0       ?do_get@?$num_get@GV?$istreambuf_iterator@GU?$char_traits@G@std@@@std@@@std@@MEBA?AV?$istreambuf_iterator@GU?$char_traits@G@std@@@2@V32@0AEAVios_base@2@AEAHAEAG@Z 000000014013a8f0 f i libcpmtd:wlocale.obj
 0002:0007fbc0       ?do_get@?$num_get@GV?$istreambuf_iterator@GU?$char_traits@G@std@@@std@@@std@@MEBA?AV?$istreambuf_iterator@GU?$char_traits@G@std@@@2@V32@0AEAVios_base@2@AEAHAEAI@Z 000000014013abc0 f i libcpmtd:wlocale.obj
 0002:0007fe90       ?do_get@?$num_get@GV?$istreambuf_iterator@GU?$char_traits@G@std@@@std@@@std@@MEBA?AV?$istreambuf_iterator@GU?$char_traits@G@std@@@2@V32@0AEAVios_base@2@AEAHAEAJ@Z 000000014013ae90 f i libcpmtd:wlocale.obj
 0002:000800d0       ?do_get@?$num_get@GV?$istreambuf_iterator@GU?$char_traits@G@std@@@std@@@std@@MEBA?AV?$istreambuf_iterator@GU?$char_traits@G@std@@@2@V32@0AEAVios_base@2@AEAHAEAK@Z 000000014013b0d0 f i libcpmtd:wlocale.obj
 0002:00080310       ?do_get@?$num_get@GV?$istreambuf_iterator@GU?$char_traits@G@std@@@std@@@std@@MEBA?AV?$istreambuf_iterator@GU?$char_traits@G@std@@@2@V32@0AEAVios_base@2@AEAHAEAM@Z 000000014013b310 f i libcpmtd:wlocale.obj
 0002:00080540       ?do_get@?$num_get@GV?$istreambuf_iterator@GU?$char_traits@G@std@@@std@@@std@@MEBA?AV?$istreambuf_iterator@GU?$char_traits@G@std@@@2@V32@0AEAVios_base@2@AEAHAEAN@Z 000000014013b540 f i libcpmtd:wlocale.obj
 0002:00080770       ?do_get@?$num_get@GV?$istreambuf_iterator@GU?$char_traits@G@std@@@std@@@std@@MEBA?AV?$istreambuf_iterator@GU?$char_traits@G@std@@@2@V32@0AEAVios_base@2@AEAHAEAO@Z 000000014013b770 f i libcpmtd:wlocale.obj
 0002:000809a0       ?do_get@?$num_get@GV?$istreambuf_iterator@GU?$char_traits@G@std@@@std@@@std@@MEBA?AV?$istreambuf_iterator@GU?$char_traits@G@std@@@2@V32@0AEAVios_base@2@AEAHAEAPEAX@Z 000000014013b9a0 f i libcpmtd:wlocale.obj
 0002:00080c20       ?do_get@?$num_get@GV?$istreambuf_iterator@GU?$char_traits@G@std@@@std@@@std@@MEBA?AV?$istreambuf_iterator@GU?$char_traits@G@std@@@2@V32@0AEAVios_base@2@AEAHAEA_J@Z 000000014013bc20 f i libcpmtd:wlocale.obj
 0002:00080e60       ?do_get@?$num_get@GV?$istreambuf_iterator@GU?$char_traits@G@std@@@std@@@std@@MEBA?AV?$istreambuf_iterator@GU?$char_traits@G@std@@@2@V32@0AEAVios_base@2@AEAHAEA_K@Z 000000014013be60 f i libcpmtd:wlocale.obj
 0002:000810a0       ?do_get@?$num_get@GV?$istreambuf_iterator@GU?$char_traits@G@std@@@std@@@std@@MEBA?AV?$istreambuf_iterator@GU?$char_traits@G@std@@@2@V32@0AEAVios_base@2@AEAHAEA_N@Z 000000014013c0a0 f i libcpmtd:wlocale.obj
 0002:000814d0       ?do_get@?$num_get@_WV?$istreambuf_iterator@_WU?$char_traits@_W@std@@@std@@@std@@MEBA?AV?$istreambuf_iterator@_WU?$char_traits@_W@std@@@2@V32@0AEAVios_base@2@AEAHAEAG@Z 000000014013c4d0 f i libcpmtd:wlocale.obj
 0002:000817a0       ?do_get@?$num_get@_WV?$istreambuf_iterator@_WU?$char_traits@_W@std@@@std@@@std@@MEBA?AV?$istreambuf_iterator@_WU?$char_traits@_W@std@@@2@V32@0AEAVios_base@2@AEAHAEAI@Z 000000014013c7a0 f i libcpmtd:wlocale.obj
 0002:00081a70       ?do_get@?$num_get@_WV?$istreambuf_iterator@_WU?$char_traits@_W@std@@@std@@@std@@MEBA?AV?$istreambuf_iterator@_WU?$char_traits@_W@std@@@2@V32@0AEAVios_base@2@AEAHAEAJ@Z 000000014013ca70 f i libcpmtd:wlocale.obj
 0002:00081cb0       ?do_get@?$num_get@_WV?$istreambuf_iterator@_WU?$char_traits@_W@std@@@std@@@std@@MEBA?AV?$istreambuf_iterator@_WU?$char_traits@_W@std@@@2@V32@0AEAVios_base@2@AEAHAEAK@Z 000000014013ccb0 f i libcpmtd:wlocale.obj
 0002:00081ef0       ?do_get@?$num_get@_WV?$istreambuf_iterator@_WU?$char_traits@_W@std@@@std@@@std@@MEBA?AV?$istreambuf_iterator@_WU?$char_traits@_W@std@@@2@V32@0AEAVios_base@2@AEAHAEAM@Z 000000014013cef0 f i libcpmtd:wlocale.obj
 0002:00082120       ?do_get@?$num_get@_WV?$istreambuf_iterator@_WU?$char_traits@_W@std@@@std@@@std@@MEBA?AV?$istreambuf_iterator@_WU?$char_traits@_W@std@@@2@V32@0AEAVios_base@2@AEAHAEAN@Z 000000014013d120 f i libcpmtd:wlocale.obj
 0002:00082350       ?do_get@?$num_get@_WV?$istreambuf_iterator@_WU?$char_traits@_W@std@@@std@@@std@@MEBA?AV?$istreambuf_iterator@_WU?$char_traits@_W@std@@@2@V32@0AEAVios_base@2@AEAHAEAO@Z 000000014013d350 f i libcpmtd:wlocale.obj
 0002:00082580       ?do_get@?$num_get@_WV?$istreambuf_iterator@_WU?$char_traits@_W@std@@@std@@@std@@MEBA?AV?$istreambuf_iterator@_WU?$char_traits@_W@std@@@2@V32@0AEAVios_base@2@AEAHAEAPEAX@Z 000000014013d580 f i libcpmtd:wlocale.obj
 0002:00082800       ?do_get@?$num_get@_WV?$istreambuf_iterator@_WU?$char_traits@_W@std@@@std@@@std@@MEBA?AV?$istreambuf_iterator@_WU?$char_traits@_W@std@@@2@V32@0AEAVios_base@2@AEAHAEA_J@Z 000000014013d800 f i libcpmtd:wlocale.obj
 0002:00082a40       ?do_get@?$num_get@_WV?$istreambuf_iterator@_WU?$char_traits@_W@std@@@std@@@std@@MEBA?AV?$istreambuf_iterator@_WU?$char_traits@_W@std@@@2@V32@0AEAVios_base@2@AEAHAEA_K@Z 000000014013da40 f i libcpmtd:wlocale.obj
 0002:00082c80       ?do_get@?$num_get@_WV?$istreambuf_iterator@_WU?$char_traits@_W@std@@@std@@@std@@MEBA?AV?$istreambuf_iterator@_WU?$char_traits@_W@std@@@2@V32@0AEAVios_base@2@AEAHAEA_N@Z 000000014013dc80 f i libcpmtd:wlocale.obj
 0002:000830b0       ?do_get@?$time_get@GV?$istreambuf_iterator@GU?$char_traits@G@std@@@std@@@std@@MEBA?AV?$istreambuf_iterator@GU?$char_traits@G@std@@@2@V32@0AEAVios_base@2@AEAHPEAUtm@@DD@Z 000000014013e0b0 f i libcpmtd:wlocale.obj
 0002:000841a0       ?do_get@?$time_get@_WV?$istreambuf_iterator@_WU?$char_traits@_W@std@@@std@@@std@@MEBA?AV?$istreambuf_iterator@_WU?$char_traits@_W@std@@@2@V32@0AEAVios_base@2@AEAHPEAUtm@@DD@Z 000000014013f1a0 f i libcpmtd:wlocale.obj
 0002:00085290       ?do_get_date@?$time_get@GV?$istreambuf_iterator@GU?$char_traits@G@std@@@std@@@std@@MEBA?AV?$istreambuf_iterator@GU?$char_traits@G@std@@@2@V32@0AEAVios_base@2@AEAHPEAUtm@@@Z 0000000140140290 f i libcpmtd:wlocale.obj
 0002:00085f60       ?do_get_date@?$time_get@_WV?$istreambuf_iterator@_WU?$char_traits@_W@std@@@std@@@std@@MEBA?AV?$istreambuf_iterator@_WU?$char_traits@_W@std@@@2@V32@0AEAVios_base@2@AEAHPEAUtm@@@Z 0000000140140f60 f i libcpmtd:wlocale.obj
 0002:00086c30       ?do_get_monthname@?$time_get@GV?$istreambuf_iterator@GU?$char_traits@G@std@@@std@@@std@@MEBA?AV?$istreambuf_iterator@GU?$char_traits@G@std@@@2@V32@0AEAVios_base@2@AEAHPEAUtm@@@Z 0000000140141c30 f i libcpmtd:wlocale.obj
 0002:00086d40       ?do_get_monthname@?$time_get@_WV?$istreambuf_iterator@_WU?$char_traits@_W@std@@@std@@@std@@MEBA?AV?$istreambuf_iterator@_WU?$char_traits@_W@std@@@2@V32@0AEAVios_base@2@AEAHPEAUtm@@@Z 0000000140141d40 f i libcpmtd:wlocale.obj
 0002:00086e50       ?do_get_time@?$time_get@GV?$istreambuf_iterator@GU?$char_traits@G@std@@@std@@@std@@MEBA?AV?$istreambuf_iterator@GU?$char_traits@G@std@@@2@V32@0AEAVios_base@2@AEAHPEAUtm@@@Z 0000000140141e50 f i libcpmtd:wlocale.obj
 0002:000871a0       ?do_get_time@?$time_get@_WV?$istreambuf_iterator@_WU?$char_traits@_W@std@@@std@@@std@@MEBA?AV?$istreambuf_iterator@_WU?$char_traits@_W@std@@@2@V32@0AEAVios_base@2@AEAHPEAUtm@@@Z 00000001401421a0 f i libcpmtd:wlocale.obj
 0002:000874f0       ?do_get_weekday@?$time_get@GV?$istreambuf_iterator@GU?$char_traits@G@std@@@std@@@std@@MEBA?AV?$istreambuf_iterator@GU?$char_traits@G@std@@@2@V32@0AEAVios_base@2@AEAHPEAUtm@@@Z 00000001401424f0 f i libcpmtd:wlocale.obj
 0002:00087600       ?do_get_weekday@?$time_get@_WV?$istreambuf_iterator@_WU?$char_traits@_W@std@@@std@@@std@@MEBA?AV?$istreambuf_iterator@_WU?$char_traits@_W@std@@@2@V32@0AEAVios_base@2@AEAHPEAUtm@@@Z 0000000140142600 f i libcpmtd:wlocale.obj
 0002:00087710       ?do_get_year@?$time_get@GV?$istreambuf_iterator@GU?$char_traits@G@std@@@std@@@std@@MEBA?AV?$istreambuf_iterator@GU?$char_traits@G@std@@@2@V32@0AEAVios_base@2@AEAHPEAUtm@@@Z 0000000140142710 f i libcpmtd:wlocale.obj
 0002:00087910       ?do_get_year@?$time_get@_WV?$istreambuf_iterator@_WU?$char_traits@_W@std@@@std@@@std@@MEBA?AV?$istreambuf_iterator@_WU?$char_traits@_W@std@@@2@V32@0AEAVios_base@2@AEAHPEAUtm@@@Z 0000000140142910 f i libcpmtd:wlocale.obj
 0002:00087b10       ?do_grouping@?$_Mpunct@G@std@@MEBA?AV?$basic_string@DU?$char_traits@D@std@@V?$allocator@D@2@@2@XZ 0000000140142b10 f i libcpmtd:wlocale.obj
 0002:00087b60       ?do_grouping@?$_Mpunct@_W@std@@MEBA?AV?$basic_string@DU?$char_traits@D@std@@V?$allocator@D@2@@2@XZ 0000000140142b60 f i libcpmtd:wlocale.obj
 0002:00087bb0       ?do_grouping@?$numpunct@G@std@@MEBA?AV?$basic_string@DU?$char_traits@D@std@@V?$allocator@D@2@@2@XZ 0000000140142bb0 f i libcpmtd:wlocale.obj
 0002:00087c00       ?do_grouping@?$numpunct@_W@std@@MEBA?AV?$basic_string@DU?$char_traits@D@std@@V?$allocator@D@2@@2@XZ 0000000140142c00 f i libcpmtd:wlocale.obj
 0002:00087c50       ?do_hash@?$collate@G@std@@MEBAJPEBG0@Z 0000000140142c50 f i libcpmtd:wlocale.obj
 0002:00087cc0       ?do_hash@?$collate@_W@std@@MEBAJPEB_W0@Z 0000000140142cc0 f i libcpmtd:wlocale.obj
 0002:00087d30       ?do_in@?$codecvt@GDU_Mbstatet@@@std@@MEBAHAEAU_Mbstatet@@PEBD1AEAPEBDPEAG3AEAPEAG@Z 0000000140142d30 f i libcpmtd:wlocale.obj
 0002:00087f60       ?do_in@?$codecvt@_WDU_Mbstatet@@@std@@MEBAHAEAU_Mbstatet@@PEBD1AEAPEBDPEA_W3AEAPEA_W@Z 0000000140142f60 f i libcpmtd:wlocale.obj
 0002:00088190       ?do_is@?$ctype@G@std@@MEBAPEBGPEBG0PEAF@Z 0000000140143190 f i libcpmtd:wlocale.obj
 0002:00088200       ?do_is@?$ctype@G@std@@MEBA_NFG@Z 0000000140143200 f i libcpmtd:wlocale.obj
 0002:00088270       ?do_is@?$ctype@_W@std@@MEBAPEB_WPEB_W0PEAF@Z 0000000140143270 f i libcpmtd:wlocale.obj
 0002:000882e0       ?do_is@?$ctype@_W@std@@MEBA_NF_W@Z 00000001401432e0 f i libcpmtd:wlocale.obj
 0002:00088350       ?do_length@?$codecvt@GDU_Mbstatet@@@std@@MEBAHAEAU_Mbstatet@@PEBD1_K@Z 0000000140143350 f i libcpmtd:wlocale.obj
 0002:000884d0       ?do_length@?$codecvt@_WDU_Mbstatet@@@std@@MEBAHAEAU_Mbstatet@@PEBD1_K@Z 00000001401434d0 f i libcpmtd:wlocale.obj
 0002:00088650       ?do_max_length@?$codecvt@GDU_Mbstatet@@@std@@MEBAHXZ 0000000140143650 f i libcpmtd:wlocale.obj
 0002:00088660       ?do_max_length@?$codecvt@_WDU_Mbstatet@@@std@@MEBAHXZ 0000000140143660 f i libcpmtd:wlocale.obj
 0002:00088670       ?do_narrow@?$ctype@G@std@@MEBADGD@Z 0000000140143670 f i libcpmtd:wlocale.obj
 0002:000886b0       ?do_narrow@?$ctype@G@std@@MEBAPEBGPEBG0DPEAD@Z 00000001401436b0 f i libcpmtd:wlocale.obj
 0002:00088760       ?do_narrow@?$ctype@_W@std@@MEBAD_WD@Z 0000000140143760 f i libcpmtd:wlocale.obj
 0002:000887a0       ?do_narrow@?$ctype@_W@std@@MEBAPEB_WPEB_W0DPEAD@Z 00000001401437a0 f i libcpmtd:wlocale.obj
 0002:00088850       ?do_neg_format@?$_Mpunct@G@std@@MEBA?AUpattern@money_base@2@XZ 0000000140143850 f i libcpmtd:wlocale.obj
 0002:00088880       ?do_neg_format@?$_Mpunct@_W@std@@MEBA?AUpattern@money_base@2@XZ 0000000140143880 f i libcpmtd:wlocale.obj
 0002:000888b0       ?do_negative_sign@?$_Mpunct@G@std@@MEBA?AV?$basic_string@GU?$char_traits@G@std@@V?$allocator@G@2@@2@XZ 00000001401438b0 f i libcpmtd:wlocale.obj
 0002:00088900       ?do_negative_sign@?$_Mpunct@_W@std@@MEBA?AV?$basic_string@_WU?$char_traits@_W@std@@V?$allocator@_W@2@@2@XZ 0000000140143900 f i libcpmtd:wlocale.obj
 0002:00088950       ?do_open@?$messages@G@std@@MEBAHAEBV?$basic_string@DU?$char_traits@D@std@@V?$allocator@D@2@@2@AEBVlocale@2@@Z 0000000140143950 f i libcpmtd:wlocale.obj
 0002:00088970       ?do_open@?$messages@_W@std@@MEBAHAEBV?$basic_string@DU?$char_traits@D@std@@V?$allocator@D@2@@2@AEBVlocale@2@@Z 0000000140143970 f i libcpmtd:wlocale.obj
 0002:00088990       ?do_out@?$codecvt@GDU_Mbstatet@@@std@@MEBAHAEAU_Mbstatet@@PEBG1AEAPEBGPEAD3AEAPEAD@Z 0000000140143990 f i libcpmtd:wlocale.obj
 0002:00088c70       ?do_out@?$codecvt@_WDU_Mbstatet@@@std@@MEBAHAEAU_Mbstatet@@PEB_W1AEAPEB_WPEAD3AEAPEAD@Z 0000000140143c70 f i libcpmtd:wlocale.obj
 0002:00088f50       ?do_pos_format@?$_Mpunct@G@std@@MEBA?AUpattern@money_base@2@XZ 0000000140143f50 f i libcpmtd:wlocale.obj
 0002:00088f80       ?do_pos_format@?$_Mpunct@_W@std@@MEBA?AUpattern@money_base@2@XZ 0000000140143f80 f i libcpmtd:wlocale.obj
 0002:00088fb0       ?do_positive_sign@?$_Mpunct@G@std@@MEBA?AV?$basic_string@GU?$char_traits@G@std@@V?$allocator@G@2@@2@XZ 0000000140143fb0 f i libcpmtd:wlocale.obj
 0002:00089000       ?do_positive_sign@?$_Mpunct@_W@std@@MEBA?AV?$basic_string@_WU?$char_traits@_W@std@@V?$allocator@_W@2@@2@XZ 0000000140144000 f i libcpmtd:wlocale.obj
 0002:00089050       ?do_put@?$money_put@GV?$ostreambuf_iterator@GU?$char_traits@G@std@@@std@@@std@@MEBA?AV?$ostreambuf_iterator@GU?$char_traits@G@std@@@2@V32@_NAEAVios_base@2@GAEBV?$basic_string@GU?$char_traits@G@std@@V?$allocator@G@2@@2@@Z 0000000140144050 f i libcpmtd:wlocale.obj
 0002:00089400       ?do_put@?$money_put@GV?$ostreambuf_iterator@GU?$char_traits@G@std@@@std@@@std@@MEBA?AV?$ostreambuf_iterator@GU?$char_traits@G@std@@@2@V32@_NAEAVios_base@2@GO@Z 0000000140144400 f i libcpmtd:wlocale.obj
 0002:00089760       ?do_put@?$money_put@_WV?$ostreambuf_iterator@_WU?$char_traits@_W@std@@@std@@@std@@MEBA?AV?$ostreambuf_iterator@_WU?$char_traits@_W@std@@@2@V32@_NAEAVios_base@2@_WAEBV?$basic_string@_WU?$char_traits@_W@std@@V?$allocator@_W@2@@2@@Z 0000000140144760 f i libcpmtd:wlocale.obj
 0002:00089b10       ?do_put@?$money_put@_WV?$ostreambuf_iterator@_WU?$char_traits@_W@std@@@std@@@std@@MEBA?AV?$ostreambuf_iterator@_WU?$char_traits@_W@std@@@2@V32@_NAEAVios_base@2@_WO@Z 0000000140144b10 f i libcpmtd:wlocale.obj
 0002:00089e70       ?do_put@?$num_put@GV?$ostreambuf_iterator@GU?$char_traits@G@std@@@std@@@std@@MEBA?AV?$ostreambuf_iterator@GU?$char_traits@G@std@@@2@V32@AEAVios_base@2@GJ@Z 0000000140144e70 f i libcpmtd:wlocale.obj
 0002:00089fa0       ?do_put@?$num_put@GV?$ostreambuf_iterator@GU?$char_traits@G@std@@@std@@@std@@MEBA?AV?$ostreambuf_iterator@GU?$char_traits@G@std@@@2@V32@AEAVios_base@2@GK@Z 0000000140144fa0 f i libcpmtd:wlocale.obj
 0002:0008a0d0       ?do_put@?$num_put@GV?$ostreambuf_iterator@GU?$char_traits@G@std@@@std@@@std@@MEBA?AV?$ostreambuf_iterator@GU?$char_traits@G@std@@@2@V32@AEAVios_base@2@GN@Z 00000001401450d0 f i libcpmtd:wlocale.obj
 0002:0008a3d0       ?do_put@?$num_put@GV?$ostreambuf_iterator@GU?$char_traits@G@std@@@std@@@std@@MEBA?AV?$ostreambuf_iterator@GU?$char_traits@G@std@@@2@V32@AEAVios_base@2@GO@Z 00000001401453d0 f i libcpmtd:wlocale.obj
 0002:0008a6d0       ?do_put@?$num_put@GV?$ostreambuf_iterator@GU?$char_traits@G@std@@@std@@@std@@MEBA?AV?$ostreambuf_iterator@GU?$char_traits@G@std@@@2@V32@AEAVios_base@2@GPEBX@Z 00000001401456d0 f i libcpmtd:wlocale.obj
 0002:0008a7d0       ?do_put@?$num_put@GV?$ostreambuf_iterator@GU?$char_traits@G@std@@@std@@@std@@MEBA?AV?$ostreambuf_iterator@GU?$char_traits@G@std@@@2@V32@AEAVios_base@2@G_J@Z 00000001401457d0 f i libcpmtd:wlocale.obj
 0002:0008a900       ?do_put@?$num_put@GV?$ostreambuf_iterator@GU?$char_traits@G@std@@@std@@@std@@MEBA?AV?$ostreambuf_iterator@GU?$char_traits@G@std@@@2@V32@AEAVios_base@2@G_K@Z 0000000140145900 f i libcpmtd:wlocale.obj
 0002:0008aa30       ?do_put@?$num_put@GV?$ostreambuf_iterator@GU?$char_traits@G@std@@@std@@@std@@MEBA?AV?$ostreambuf_iterator@GU?$char_traits@G@std@@@2@V32@AEAVios_base@2@G_N@Z 0000000140145a30 f i libcpmtd:wlocale.obj
 0002:0008aed0       ?do_put@?$num_put@_WV?$ostreambuf_iterator@_WU?$char_traits@_W@std@@@std@@@std@@MEBA?AV?$ostreambuf_iterator@_WU?$char_traits@_W@std@@@2@V32@AEAVios_base@2@_WJ@Z 0000000140145ed0 f i libcpmtd:wlocale.obj
 0002:0008b000       ?do_put@?$num_put@_WV?$ostreambuf_iterator@_WU?$char_traits@_W@std@@@std@@@std@@MEBA?AV?$ostreambuf_iterator@_WU?$char_traits@_W@std@@@2@V32@AEAVios_base@2@_WK@Z 0000000140146000 f i libcpmtd:wlocale.obj
 0002:0008b130       ?do_put@?$num_put@_WV?$ostreambuf_iterator@_WU?$char_traits@_W@std@@@std@@@std@@MEBA?AV?$ostreambuf_iterator@_WU?$char_traits@_W@std@@@2@V32@AEAVios_base@2@_WN@Z 0000000140146130 f i libcpmtd:wlocale.obj
 0002:0008b430       ?do_put@?$num_put@_WV?$ostreambuf_iterator@_WU?$char_traits@_W@std@@@std@@@std@@MEBA?AV?$ostreambuf_iterator@_WU?$char_traits@_W@std@@@2@V32@AEAVios_base@2@_WO@Z 0000000140146430 f i libcpmtd:wlocale.obj
 0002:0008b730       ?do_put@?$num_put@_WV?$ostreambuf_iterator@_WU?$char_traits@_W@std@@@std@@@std@@MEBA?AV?$ostreambuf_iterator@_WU?$char_traits@_W@std@@@2@V32@AEAVios_base@2@_WPEBX@Z 0000000140146730 f i libcpmtd:wlocale.obj
 0002:0008b830       ?do_put@?$num_put@_WV?$ostreambuf_iterator@_WU?$char_traits@_W@std@@@std@@@std@@MEBA?AV?$ostreambuf_iterator@_WU?$char_traits@_W@std@@@2@V32@AEAVios_base@2@_W_J@Z 0000000140146830 f i libcpmtd:wlocale.obj
 0002:0008b960       ?do_put@?$num_put@_WV?$ostreambuf_iterator@_WU?$char_traits@_W@std@@@std@@@std@@MEBA?AV?$ostreambuf_iterator@_WU?$char_traits@_W@std@@@2@V32@AEAVios_base@2@_W_K@Z 0000000140146960 f i libcpmtd:wlocale.obj
 0002:0008ba90       ?do_put@?$num_put@_WV?$ostreambuf_iterator@_WU?$char_traits@_W@std@@@std@@@std@@MEBA?AV?$ostreambuf_iterator@_WU?$char_traits@_W@std@@@2@V32@AEAVios_base@2@_W_N@Z 0000000140146a90 f i libcpmtd:wlocale.obj
 0002:0008bf30       ?do_put@?$time_put@GV?$ostreambuf_iterator@GU?$char_traits@G@std@@@std@@@std@@MEBA?AV?$ostreambuf_iterator@GU?$char_traits@G@std@@@2@V32@AEAVios_base@2@GPEBUtm@@DD@Z 0000000140146f30 f i libcpmtd:wlocale.obj
 0002:0008c210       ?do_put@?$time_put@_WV?$ostreambuf_iterator@_WU?$char_traits@_W@std@@@std@@@std@@MEBA?AV?$ostreambuf_iterator@_WU?$char_traits@_W@std@@@2@V32@AEAVios_base@2@_WPEBUtm@@DD@Z 0000000140147210 f i libcpmtd:wlocale.obj
 0002:0008c4f0       ?do_scan_is@?$ctype@G@std@@MEBAPEBGFPEBG0@Z 00000001401474f0 f i libcpmtd:wlocale.obj
 0002:0008c590       ?do_scan_is@?$ctype@_W@std@@MEBAPEB_WFPEB_W0@Z 0000000140147590 f i libcpmtd:wlocale.obj
 0002:0008c630       ?do_scan_not@?$ctype@G@std@@MEBAPEBGFPEBG0@Z 0000000140147630 f i libcpmtd:wlocale.obj
 0002:0008c6d0       ?do_scan_not@?$ctype@_W@std@@MEBAPEB_WFPEB_W0@Z 00000001401476d0 f i libcpmtd:wlocale.obj
 0002:0008c770       ?do_thousands_sep@?$_Mpunct@G@std@@MEBAGXZ 0000000140147770 f i libcpmtd:wlocale.obj
 0002:0008c790       ?do_thousands_sep@?$_Mpunct@_W@std@@MEBA_WXZ 0000000140147790 f i libcpmtd:wlocale.obj
 0002:0008c7b0       ?do_thousands_sep@?$numpunct@G@std@@MEBAGXZ 00000001401477b0 f i libcpmtd:wlocale.obj
 0002:0008c7d0       ?do_thousands_sep@?$numpunct@_W@std@@MEBA_WXZ 00000001401477d0 f i libcpmtd:wlocale.obj
 0002:0008c7f0       ?do_tolower@?$ctype@G@std@@MEBAGG@Z 00000001401477f0 f i libcpmtd:wlocale.obj
 0002:0008c830       ?do_tolower@?$ctype@G@std@@MEBAPEBGPEAGPEBG@Z 0000000140147830 f i libcpmtd:wlocale.obj
 0002:0008c8d0       ?do_tolower@?$ctype@_W@std@@MEBAPEB_WPEA_WPEB_W@Z 00000001401478d0 f i libcpmtd:wlocale.obj
 0002:0008c970       ?do_tolower@?$ctype@_W@std@@MEBA_W_W@Z 0000000140147970 f i libcpmtd:wlocale.obj
 0002:0008c9b0       ?do_toupper@?$ctype@G@std@@MEBAGG@Z 00000001401479b0 f i libcpmtd:wlocale.obj
 0002:0008c9f0       ?do_toupper@?$ctype@G@std@@MEBAPEBGPEAGPEBG@Z 00000001401479f0 f i libcpmtd:wlocale.obj
 0002:0008ca90       ?do_toupper@?$ctype@_W@std@@MEBAPEB_WPEA_WPEB_W@Z 0000000140147a90 f i libcpmtd:wlocale.obj
 0002:0008cb30       ?do_toupper@?$ctype@_W@std@@MEBA_W_W@Z 0000000140147b30 f i libcpmtd:wlocale.obj
 0002:0008cb70       ?do_transform@?$collate@G@std@@MEBA?AV?$basic_string@GU?$char_traits@G@std@@V?$allocator@G@2@@2@PEBG0@Z 0000000140147b70 f i libcpmtd:wlocale.obj
 0002:0008ce30       ?do_transform@?$collate@_W@std@@MEBA?AV?$basic_string@_WU?$char_traits@_W@std@@V?$allocator@_W@2@@2@PEB_W0@Z 0000000140147e30 f i libcpmtd:wlocale.obj
 0002:0008d0f0       ?do_truename@?$numpunct@G@std@@MEBA?AV?$basic_string@GU?$char_traits@G@std@@V?$allocator@G@2@@2@XZ 00000001401480f0 f i libcpmtd:wlocale.obj
 0002:0008d140       ?do_truename@?$numpunct@_W@std@@MEBA?AV?$basic_string@_WU?$char_traits@_W@std@@V?$allocator@_W@2@@2@XZ 0000000140148140 f i libcpmtd:wlocale.obj
 0002:0008d190       ?do_unshift@?$codecvt@GDU_Mbstatet@@@std@@MEBAHAEAU_Mbstatet@@PEAD1AEAPEAD@Z 0000000140148190 f i libcpmtd:wlocale.obj
 0002:0008d300       ?do_unshift@?$codecvt@_WDU_Mbstatet@@@std@@MEBAHAEAU_Mbstatet@@PEAD1AEAPEAD@Z 0000000140148300 f i libcpmtd:wlocale.obj
 0002:0008d470       ?do_widen@?$ctype@G@std@@MEBAGD@Z 0000000140148470 f i libcpmtd:wlocale.obj
 0002:0008d4a0       ?do_widen@?$ctype@G@std@@MEBAPEBDPEBD0PEAG@Z 00000001401484a0 f i libcpmtd:wlocale.obj
 0002:0008d550       ?do_widen@?$ctype@_W@std@@MEBAPEBDPEBD0PEA_W@Z 0000000140148550 f i libcpmtd:wlocale.obj
 0002:0008d600       ?do_widen@?$ctype@_W@std@@MEBA_WD@Z 0000000140148600 f i libcpmtd:wlocale.obj
 0002:0008d630       ?empty@?$basic_string@GU?$char_traits@G@std@@V?$allocator@G@2@@std@@QEBA_NXZ 0000000140148630 f i libcpmtd:wlocale.obj
 0002:0008d680       ?empty@?$basic_string@_WU?$char_traits@_W@std@@V?$allocator@_W@2@@std@@QEBA_NXZ 0000000140148680 f i libcpmtd:wlocale.obj
 0002:0008d6d0       ?end@?$basic_string@GU?$char_traits@G@std@@V?$allocator@G@2@@std@@QEAA?AV?$_String_iterator@V?$_String_val@U?$_Simple_types@G@std@@@std@@@2@XZ 00000001401486d0 f i libcpmtd:wlocale.obj
 0002:0008d760       ?end@?$basic_string@_WU?$char_traits@_W@std@@V?$allocator@_W@2@@std@@QEAA?AV?$_String_iterator@V?$_String_val@U?$_Simple_types@_W@std@@@std@@@2@XZ 0000000140148760 f i libcpmtd:wlocale.obj
 0002:0008d7f0       ?eof@?$_WChar_traits@G@std@@SAGXZ 00000001401487f0 f i libcpmtd:wlocale.obj
 0002:0008d800       ?eof@?$_WChar_traits@_W@std@@SAGXZ 0000000140148800 f i libcpmtd:wlocale.obj
 0002:0008d810       ?eq_int_type@?$_WChar_traits@G@std@@SA_NAEBG0@Z 0000000140148810 f i libcpmtd:wlocale.obj
 0002:0008d860       ?eq_int_type@?$_WChar_traits@_W@std@@SA_NAEBG0@Z 0000000140148860 f i libcpmtd:wlocale.obj
 0002:0008d8b0       ?equal@?$istreambuf_iterator@GU?$char_traits@G@std@@@std@@QEBA_NAEBV12@@Z 00000001401488b0 f i libcpmtd:wlocale.obj
 0002:0008d960       ?equal@?$istreambuf_iterator@_WU?$char_traits@_W@std@@@std@@QEBA_NAEBV12@@Z 0000000140148960 f i libcpmtd:wlocale.obj
 0002:0008da10       ?erase@?$basic_string@GU?$char_traits@G@std@@V?$allocator@G@2@@std@@QEAAAEAV12@_K@Z 0000000140148a10 f i libcpmtd:wlocale.obj
 0002:0008da70       ?erase@?$basic_string@_WU?$char_traits@_W@std@@V?$allocator@_W@2@@std@@QEAAAEAV12@_K@Z 0000000140148a70 f i libcpmtd:wlocale.obj
 0002:0008dad0       ?falsename@?$numpunct@G@std@@QEBA?AV?$basic_string@GU?$char_traits@G@std@@V?$allocator@G@2@@2@XZ 0000000140148ad0 f i libcpmtd:wlocale.obj
 0002:0008db40       ?falsename@?$numpunct@_W@std@@QEBA?AV?$basic_string@_WU?$char_traits@_W@std@@V?$allocator@_W@2@@2@XZ 0000000140148b40 f i libcpmtd:wlocale.obj
 0002:0008dbb0       ?frac_digits@?$_Mpunct@G@std@@QEBAHXZ 0000000140148bb0 f i libcpmtd:wlocale.obj
 0002:0008dbf0       ?frac_digits@?$_Mpunct@_W@std@@QEBAHXZ 0000000140148bf0 f i libcpmtd:wlocale.obj
 0002:0008dc30       ?get_monthname@?$time_get@GV?$istreambuf_iterator@GU?$char_traits@G@std@@@std@@@std@@QEBA?AV?$istreambuf_iterator@GU?$char_traits@G@std@@@2@V32@0AEAVios_base@2@AEAHPEAUtm@@@Z 0000000140148c30 f i libcpmtd:wlocale.obj
 0002:0008dd20       ?get_monthname@?$time_get@_WV?$istreambuf_iterator@_WU?$char_traits@_W@std@@@std@@@std@@QEBA?AV?$istreambuf_iterator@_WU?$char_traits@_W@std@@@2@V32@0AEAVios_base@2@AEAHPEAUtm@@@Z 0000000140148d20 f i libcpmtd:wlocale.obj
 0002:0008de10       ?get_weekday@?$time_get@GV?$istreambuf_iterator@GU?$char_traits@G@std@@@std@@@std@@QEBA?AV?$istreambuf_iterator@GU?$char_traits@G@std@@@2@V32@0AEAVios_base@2@AEAHPEAUtm@@@Z 0000000140148e10 f i libcpmtd:wlocale.obj
 0002:0008df00       ?get_weekday@?$time_get@_WV?$istreambuf_iterator@_WU?$char_traits@_W@std@@@std@@@std@@QEBA?AV?$istreambuf_iterator@_WU?$char_traits@_W@std@@@2@V32@0AEAVios_base@2@AEAHPEAUtm@@@Z 0000000140148f00 f i libcpmtd:wlocale.obj
 0002:0008dff0       ?get_year@?$time_get@GV?$istreambuf_iterator@GU?$char_traits@G@std@@@std@@@std@@QEBA?AV?$istreambuf_iterator@GU?$char_traits@G@std@@@2@V32@0AEAVios_base@2@AEAHPEAUtm@@@Z 0000000140148ff0 f i libcpmtd:wlocale.obj
 0002:0008e0e0       ?get_year@?$time_get@_WV?$istreambuf_iterator@_WU?$char_traits@_W@std@@@std@@@std@@QEBA?AV?$istreambuf_iterator@_WU?$char_traits@_W@std@@@2@V32@0AEAVios_base@2@AEAHPEAUtm@@@Z 00000001401490e0 f i libcpmtd:wlocale.obj
 0002:0008e1d0       ?gptr@?$basic_streambuf@GU?$char_traits@G@std@@@std@@IEBAPEAGXZ 00000001401491d0 f i libcpmtd:wlocale.obj
 0002:0008e1f0       ?gptr@?$basic_streambuf@_WU?$char_traits@_W@std@@@std@@IEBAPEA_WXZ 00000001401491f0 f i libcpmtd:wlocale.obj
 0002:0008e210       ?grouping@?$_Mpunct@G@std@@QEBA?AV?$basic_string@DU?$char_traits@D@std@@V?$allocator@D@2@@2@XZ 0000000140149210 f i libcpmtd:wlocale.obj
 0002:0008e280       ?grouping@?$_Mpunct@_W@std@@QEBA?AV?$basic_string@DU?$char_traits@D@std@@V?$allocator@D@2@@2@XZ 0000000140149280 f i libcpmtd:wlocale.obj
 0002:0008e2f0       ?grouping@?$numpunct@G@std@@QEBA?AV?$basic_string@DU?$char_traits@D@std@@V?$allocator@D@2@@2@XZ 00000001401492f0 f i libcpmtd:wlocale.obj
 0002:0008e360       ?grouping@?$numpunct@_W@std@@QEBA?AV?$basic_string@DU?$char_traits@D@std@@V?$allocator@D@2@@2@XZ 0000000140149360 f i libcpmtd:wlocale.obj
 0002:0008e3d0       ?insert@?$basic_string@GU?$char_traits@G@std@@V?$allocator@G@2@@std@@QEAAAEAV12@_K0G@Z 00000001401493d0 f i libcpmtd:wlocale.obj
 0002:0008e570       ?insert@?$basic_string@_WU?$char_traits@_W@std@@V?$allocator@_W@2@@std@@QEAAAEAV12@_K0_W@Z 0000000140149570 f i libcpmtd:wlocale.obj
 0002:0008e710       ?is@?$ctype@G@std@@QEBA_NFG@Z 0000000140149710 f i libcpmtd:wlocale.obj
 0002:0008e770       ?is@?$ctype@_W@std@@QEBA_NF_W@Z 0000000140149770 f i libcpmtd:wlocale.obj
 0002:0008e7d0       ?length@?$_WChar_traits@G@std@@SA_KPEBG@Z 00000001401497d0 f i libcpmtd:wlocale.obj
 0002:0008e7f0       ?length@?$_WChar_traits@_W@std@@SA_KPEB_W@Z 00000001401497f0 f i libcpmtd:wlocale.obj
 0002:0008e810       ?max_size@?$basic_string@GU?$char_traits@G@std@@V?$allocator@G@2@@std@@QEBA_KXZ 0000000140149810 f i libcpmtd:wlocale.obj
 0002:0008e8a0       ?move@?$_WChar_traits@G@std@@SAPEAGQEAGQEBG_K@Z 00000001401498a0 f i libcpmtd:wlocale.obj
 0002:0008e8e0       ?move@?$_WChar_traits@_W@std@@SAPEA_WQEA_WQEB_W_K@Z 00000001401498e0 f i libcpmtd:wlocale.obj
 0002:0008e920       ?name@locale@std@@QEBA?AV?$basic_string@DU?$char_traits@D@std@@V?$allocator@D@2@@2@XZ 0000000140149920 f i libcpmtd:wlocale.obj
 0002:0008eab0       ?narrow@?$ctype@G@std@@QEBADGD@Z 0000000140149ab0 f i libcpmtd:wlocale.obj
 0002:0008eb10       ?narrow@?$ctype@_W@std@@QEBAD_WD@Z 0000000140149b10 f i libcpmtd:wlocale.obj
 0002:0008eb70       ?neg_format@?$_Mpunct@G@std@@QEBA?AUpattern@money_base@2@XZ 0000000140149b70 f i libcpmtd:wlocale.obj
 0002:0008ebd0       ?neg_format@?$_Mpunct@_W@std@@QEBA?AUpattern@money_base@2@XZ 0000000140149bd0 f i libcpmtd:wlocale.obj
 0002:0008ec30       ?negative_sign@?$_Mpunct@G@std@@QEBA?AV?$basic_string@GU?$char_traits@G@std@@V?$allocator@G@2@@2@XZ 0000000140149c30 f i libcpmtd:wlocale.obj
 0002:0008eca0       ?negative_sign@?$_Mpunct@_W@std@@QEBA?AV?$basic_string@_WU?$char_traits@_W@std@@V?$allocator@_W@2@@2@XZ 0000000140149ca0 f i libcpmtd:wlocale.obj
 0002:0008ed10       ?pos_format@?$_Mpunct@G@std@@QEBA?AUpattern@money_base@2@XZ 0000000140149d10 f i libcpmtd:wlocale.obj
 0002:0008ed70       ?pos_format@?$_Mpunct@_W@std@@QEBA?AUpattern@money_base@2@XZ 0000000140149d70 f i libcpmtd:wlocale.obj
 0002:0008edd0       ?positive_sign@?$_Mpunct@G@std@@QEBA?AV?$basic_string@GU?$char_traits@G@std@@V?$allocator@G@2@@2@XZ 0000000140149dd0 f i libcpmtd:wlocale.obj
 0002:0008ee40       ?positive_sign@?$_Mpunct@_W@std@@QEBA?AV?$basic_string@_WU?$char_traits@_W@std@@V?$allocator@_W@2@@2@XZ 0000000140149e40 f i libcpmtd:wlocale.obj
 0002:0008eeb0       ?push_back@?$basic_string@GU?$char_traits@G@std@@V?$allocator@G@2@@std@@QEAAXG@Z 0000000140149eb0 f i libcpmtd:wlocale.obj
 0002:0008efc0       ?push_back@?$basic_string@_WU?$char_traits@_W@std@@V?$allocator@_W@2@@std@@QEAAX_W@Z 0000000140149fc0 f i libcpmtd:wlocale.obj
 0002:0008f0d0       ?resize@?$basic_string@GU?$char_traits@G@std@@V?$allocator@G@2@@std@@QEAAX_KG@Z 000000014014a0d0 f i libcpmtd:wlocale.obj
 0002:0008f160       ?resize@?$basic_string@_WU?$char_traits@_W@std@@V?$allocator@_W@2@@std@@QEAAX_K_W@Z 000000014014a160 f i libcpmtd:wlocale.obj
 0002:0008f1f0       ?sbumpc@?$basic_streambuf@GU?$char_traits@G@std@@@std@@QEAAGXZ 000000014014a1f0 f i libcpmtd:wlocale.obj
 0002:0008f270       ?sbumpc@?$basic_streambuf@_WU?$char_traits@_W@std@@@std@@QEAAGXZ 000000014014a270 f i libcpmtd:wlocale.obj
 0002:0008f2f0       ?select_on_container_copy_construction@?$_Default_allocator_traits@V?$allocator@G@std@@@std@@SA?AV?$allocator@G@2@AEBV32@@Z 000000014014a2f0 f i libcpmtd:wlocale.obj
 0002:0008f310       ?select_on_container_copy_construction@?$_Default_allocator_traits@V?$allocator@_W@std@@@std@@SA?AV?$allocator@_W@2@AEBV32@@Z 000000014014a310 f i libcpmtd:wlocale.obj
 0002:0008f330       ?sgetc@?$basic_streambuf@GU?$char_traits@G@std@@@std@@QEAAGXZ 000000014014a330 f i libcpmtd:wlocale.obj
 0002:0008f3b0       ?sgetc@?$basic_streambuf@_WU?$char_traits@_W@std@@@std@@QEAAGXZ 000000014014a3b0 f i libcpmtd:wlocale.obj
 0002:0008f430       ?size@?$basic_string@GU?$char_traits@G@std@@V?$allocator@G@2@@std@@QEBA_KXZ 000000014014a430 f i libcpmtd:wlocale.obj
 0002:0008f460       ?size@?$basic_string@_WU?$char_traits@_W@std@@V?$allocator@_W@2@@std@@QEBA_KXZ 000000014014a460 f i libcpmtd:wlocale.obj
 0002:0008f490       ?sputc@?$basic_streambuf@GU?$char_traits@G@std@@@std@@QEAAGG@Z 000000014014a490 f i libcpmtd:wlocale.obj
 0002:0008f550       ?sputc@?$basic_streambuf@_WU?$char_traits@_W@std@@@std@@QEAAG_W@Z 000000014014a550 f i libcpmtd:wlocale.obj
 0002:0008f610       ?thousands_sep@?$_Mpunct@G@std@@QEBAGXZ 000000014014a610 f i libcpmtd:wlocale.obj
 0002:0008f650       ?thousands_sep@?$_Mpunct@_W@std@@QEBA_WXZ 000000014014a650 f i libcpmtd:wlocale.obj
 0002:0008f690       ?thousands_sep@?$numpunct@G@std@@QEBAGXZ 000000014014a690 f i libcpmtd:wlocale.obj
 0002:0008f6d0       ?thousands_sep@?$numpunct@_W@std@@QEBA_WXZ 000000014014a6d0 f i libcpmtd:wlocale.obj
 0002:0008f710       ?to_char_type@?$_WChar_traits@G@std@@SAGAEBG@Z 000000014014a710 f i libcpmtd:wlocale.obj
 0002:0008f730       ?to_char_type@?$_WChar_traits@_W@std@@SA_WAEBG@Z 000000014014a730 f i libcpmtd:wlocale.obj
 0002:0008f750       ?to_int_type@?$_WChar_traits@G@std@@SAGAEBG@Z 000000014014a750 f i libcpmtd:wlocale.obj
 0002:0008f770       ?to_int_type@?$_WChar_traits@_W@std@@SAGAEB_W@Z 000000014014a770 f i libcpmtd:wlocale.obj
 0002:0008f790       ?truename@?$numpunct@G@std@@QEBA?AV?$basic_string@GU?$char_traits@G@std@@V?$allocator@G@2@@2@XZ 000000014014a790 f i libcpmtd:wlocale.obj
 0002:0008f800       ?truename@?$numpunct@_W@std@@QEBA?AV?$basic_string@_WU?$char_traits@_W@std@@V?$allocator@_W@2@@2@XZ 000000014014a800 f i libcpmtd:wlocale.obj
 0002:0008f870       ?widen@?$ctype@G@std@@QEBAGD@Z 000000014014a870 f i libcpmtd:wlocale.obj
 0002:0008f8c0       ?widen@?$ctype@G@std@@QEBAPEBDPEBD0PEAG@Z 000000014014a8c0 f i libcpmtd:wlocale.obj
 0002:0008f930       ?widen@?$ctype@_W@std@@QEBAPEBDPEBD0PEA_W@Z 000000014014a930 f i libcpmtd:wlocale.obj
 0002:0008f9a0       ?widen@?$ctype@_W@std@@QEBA_WD@Z 000000014014a9a0 f i libcpmtd:wlocale.obj
 0002:0008fb80       wmemcpy                    000000014014ab80 f i libcpmtd:wlocale.obj
 0002:0008fbc0       wmemmove                   000000014014abc0 f i libcpmtd:wlocale.obj
 0002:0008fc00       ??$_Copy_no_deprecate@PEADV?$ostreambuf_iterator@DU?$char_traits@D@std@@@std@@@std@@YA?AV?$ostreambuf_iterator@DU?$char_traits@D@std@@@0@PEAD0V10@@Z 000000014014ac00 f i libcpmtd:xlocale.obj
 0002:0008fd60       ??$_Copy_unchecked1@PEADV?$ostreambuf_iterator@DU?$char_traits@D@std@@@std@@@std@@YA?AV?$ostreambuf_iterator@DU?$char_traits@D@std@@@0@PEAD0V10@U_General_ptr_iterator_tag@0@@Z 000000014014ad60 f i libcpmtd:xlocale.obj
 0002:0008fe00       ??$_Copy_unchecked@PEADV?$ostreambuf_iterator@DU?$char_traits@D@std@@@std@@@std@@YA?AV?$ostreambuf_iterator@DU?$char_traits@D@std@@@0@PEAD0V10@@Z 000000014014ae00 f i libcpmtd:xlocale.obj
 0002:0008fea0       ??$_Getvals@D@?$_Mpunct@D@std@@IEAAXDPEBUlconv@@@Z 000000014014aea0 f i libcpmtd:xlocale.obj
 0002:00090070       ??$_Getvals@D@?$time_get@DV?$istreambuf_iterator@DU?$char_traits@D@std@@@std@@@std@@IEAAXDAEBV_Locinfo@1@@Z 000000014014b070 f i libcpmtd:xlocale.obj
 0002:00090230       ??$_Hash_array_representation@D@std@@YA_KQEBD_K@Z 000000014014b230 f i libcpmtd:xlocale.obj
 0002:00090260       ??$_Idl_distance1@PEADPEAD@std@@YA_JAEBQEAD0Urandom_access_iterator_tag@0@@Z 000000014014b260 f i libcpmtd:xlocale.obj
 0002:00090290       ??$_Idl_distance@PEADPEAD@std@@YA_JAEBQEAD0@Z 000000014014b290 f i libcpmtd:xlocale.obj
 0002:000902d0       ??$_Is_checked@V?$ostreambuf_iterator@DU?$char_traits@D@std@@@std@@@std@@YA?AU?$integral_constant@_N$00@0@V?$ostreambuf_iterator@DU?$char_traits@D@std@@@0@@Z 000000014014b2d0 f i libcpmtd:xlocale.obj
 0002:00090300       ??$_LStrcoll@D@std@@YAHPEBD000PEBU_Collvec@@@Z 000000014014b300 f i libcpmtd:xlocale.obj
 0002:00090350       ??$_LStrxfrm@D@std@@YA_KPEAD0PEBD1PEBU_Collvec@@@Z 000000014014b350 f i libcpmtd:xlocale.obj
 0002:000903a0       ??$_Ptr_copy_cat@PEADV?$ostreambuf_iterator@DU?$char_traits@D@std@@@std@@@std@@YA?AU_General_ptr_iterator_tag@0@AEBQEADAEBV?$ostreambuf_iterator@DU?$char_traits@D@std@@@0@@Z 000000014014b3a0 f i libcpmtd:xlocale.obj
 0002:00090e10       ??$_Rechecked@V?$ostreambuf_iterator@DU?$char_traits@D@std@@@std@@V12@@std@@YAAEAV?$ostreambuf_iterator@DU?$char_traits@D@std@@@0@AEAV10@V10@@Z 000000014014be10 f i libcpmtd:xlocale.obj
 0002:00090e40       ??$_Unchecked@PEAD@std@@YAPEADPEAD@Z 000000014014be40 f i libcpmtd:xlocale.obj
 0002:00090e50       ??$_Unchecked_n1@V?$ostreambuf_iterator@DU?$char_traits@D@std@@@std@@_J@std@@YA?AV?$ostreambuf_iterator@DU?$char_traits@D@std@@@0@V10@_JU?$integral_constant@_N$0A@@0@@Z 000000014014be50 f i libcpmtd:xlocale.obj
 0002:00090e90       ??$_Unchecked_n@V?$ostreambuf_iterator@DU?$char_traits@D@std@@@std@@_J@std@@YA?AV?$ostreambuf_iterator@DU?$char_traits@D@std@@@0@V10@_J@Z 000000014014be90 f i libcpmtd:xlocale.obj
 0002:00090f00       ??$copy@PEADV?$ostreambuf_iterator@DU?$char_traits@D@std@@@std@@@std@@YA?AV?$ostreambuf_iterator@DU?$char_traits@D@std@@@0@PEAD0V10@@Z 000000014014bf00 f i libcpmtd:xlocale.obj
 0002:00090fb0       ??$use_facet@V?$collate@D@std@@@std@@YAAEBV?$collate@D@0@AEBVlocale@0@@Z 000000014014bfb0 f i libcpmtd:xlocale.obj
 0002:00091120       ??$use_facet@V?$messages@D@std@@@std@@YAAEBV?$messages@D@0@AEBVlocale@0@@Z 000000014014c120 f i libcpmtd:xlocale.obj
 0002:00091290       ??$use_facet@V?$money_get@DV?$istreambuf_iterator@DU?$char_traits@D@std@@@std@@@std@@@std@@YAAEBV?$money_get@DV?$istreambuf_iterator@DU?$char_traits@D@std@@@std@@@0@AEBVlocale@0@@Z 000000014014c290 f i libcpmtd:xlocale.obj
 0002:00091400       ??$use_facet@V?$money_put@DV?$ostreambuf_iterator@DU?$char_traits@D@std@@@std@@@std@@@std@@YAAEBV?$money_put@DV?$ostreambuf_iterator@DU?$char_traits@D@std@@@std@@@0@AEBVlocale@0@@Z 000000014014c400 f i libcpmtd:xlocale.obj
 0002:00091570       ??$use_facet@V?$moneypunct@D$00@std@@@std@@YAAEBV?$moneypunct@D$00@0@AEBVlocale@0@@Z 000000014014c570 f i libcpmtd:xlocale.obj
 0002:000916e0       ??$use_facet@V?$moneypunct@D$0A@@std@@@std@@YAAEBV?$moneypunct@D$0A@@0@AEBVlocale@0@@Z 000000014014c6e0 f i libcpmtd:xlocale.obj
 0002:00091850       ??$use_facet@V?$time_get@DV?$istreambuf_iterator@DU?$char_traits@D@std@@@std@@@std@@@std@@YAAEBV?$time_get@DV?$istreambuf_iterator@DU?$char_traits@D@std@@@std@@@0@AEBVlocale@0@@Z 000000014014c850 f i libcpmtd:xlocale.obj
 0002:000919c0       ??$use_facet@V?$time_put@DV?$ostreambuf_iterator@DU?$char_traits@D@std@@@std@@@std@@@std@@YAAEBV?$time_put@DV?$ostreambuf_iterator@DU?$char_traits@D@std@@@std@@@0@AEBVlocale@0@@Z 000000014014c9c0 f i libcpmtd:xlocale.obj
 0002:00091b30       ??0?$_Mpunct@D@std@@QEAA@AEBV_Locinfo@1@_K_N2@Z 000000014014cb30 f i libcpmtd:xlocale.obj
 0002:00091bc0       ??0?$_String_const_iterator@V?$_String_val@U?$_Simple_types@D@std@@@std@@@std@@QEAA@$$QEAV01@@Z 000000014014cbc0 f i libcpmtd:xlocale.obj
 0002:00091c10       ??0?$_String_const_iterator@V?$_String_val@U?$_Simple_types@D@std@@@std@@@std@@QEAA@AEBV01@@Z 000000014014cc10 f i libcpmtd:xlocale.obj
 0002:00091c60       ??0?$_String_const_iterator@V?$_String_val@U?$_Simple_types@D@std@@@std@@@std@@QEAA@XZ 000000014014cc60 f i libcpmtd:xlocale.obj
 0002:00091ca0       ??0?$_String_iterator@V?$_String_val@U?$_Simple_types@D@std@@@std@@@std@@QEAA@AEBV01@@Z 000000014014cca0 f i libcpmtd:xlocale.obj
 0002:00091cd0       ??0?$collate@D@std@@QEAA@AEBV_Locinfo@1@_K@Z 000000014014ccd0 f i libcpmtd:xlocale.obj
 0002:00091d40       ??0?$messages@D@std@@QEAA@AEBV_Locinfo@1@_K@Z 000000014014cd40 f i libcpmtd:xlocale.obj
 0002:00091db0       ??0?$money_get@DV?$istreambuf_iterator@DU?$char_traits@D@std@@@std@@@std@@QEAA@AEBV_Locinfo@1@_K@Z 000000014014cdb0 f i libcpmtd:xlocale.obj
 0002:00091e20       ??0?$money_put@DV?$ostreambuf_iterator@DU?$char_traits@D@std@@@std@@@std@@QEAA@AEBV_Locinfo@1@_K@Z 000000014014ce20 f i libcpmtd:xlocale.obj
 0002:00091e90       ??0?$moneypunct@D$00@std@@QEAA@AEBV_Locinfo@1@_K_N@Z 000000014014ce90 f i libcpmtd:xlocale.obj
 0002:00091f00       ??0?$moneypunct@D$0A@@std@@QEAA@AEBV_Locinfo@1@_K_N@Z 000000014014cf00 f i libcpmtd:xlocale.obj
 0002:00091f70       ??0?$time_get@DV?$istreambuf_iterator@DU?$char_traits@D@std@@@std@@@std@@QEAA@AEBV_Locinfo@1@_K@Z 000000014014cf70 f i libcpmtd:xlocale.obj
 0002:00091fe0       ??0?$time_put@DV?$ostreambuf_iterator@DU?$char_traits@D@std@@@std@@@std@@QEAA@AEBV_Locinfo@1@_K@Z 000000014014cfe0 f i libcpmtd:xlocale.obj
 0002:00092070       ??1?$_Mpunct@D@std@@MEAA@XZ 000000014014d070 f i libcpmtd:xlocale.obj
 0002:000920c0       ??1?$collate@D@std@@MEAA@XZ 000000014014d0c0 f i libcpmtd:xlocale.obj
 0002:00092110       ??1?$messages@D@std@@MEAA@XZ 000000014014d110 f i libcpmtd:xlocale.obj
 0002:00092140       ??1?$money_get@DV?$istreambuf_iterator@DU?$char_traits@D@std@@@std@@@std@@MEAA@XZ 000000014014d140 f i libcpmtd:xlocale.obj
 0002:00092170       ??1?$money_put@DV?$ostreambuf_iterator@DU?$char_traits@D@std@@@std@@@std@@MEAA@XZ 000000014014d170 f i libcpmtd:xlocale.obj
 0002:000921a0       ??1?$moneypunct@D$00@std@@MEAA@XZ 000000014014d1a0 f i libcpmtd:xlocale.obj
 0002:000921d0       ??1?$moneypunct@D$0A@@std@@MEAA@XZ 000000014014d1d0 f i libcpmtd:xlocale.obj
 0002:00092200       ??1?$time_get@DV?$istreambuf_iterator@DU?$char_traits@D@std@@@std@@@std@@MEAA@XZ 000000014014d200 f i libcpmtd:xlocale.obj
 0002:00092250       ??1?$time_put@DV?$ostreambuf_iterator@DU?$char_traits@D@std@@@std@@@std@@MEAA@XZ 000000014014d250 f i libcpmtd:xlocale.obj
 0002:000922a0       ??4?$_String_const_iterator@V?$_String_val@U?$_Simple_types@D@std@@@std@@@std@@QEAAAEAV01@$$QEAV01@@Z 000000014014d2a0 f i libcpmtd:xlocale.obj
 0002:000922f0       ??8?$_String_const_iterator@V?$_String_val@U?$_Simple_types@D@std@@@std@@@std@@QEBA_NAEBV01@@Z 000000014014d2f0 f i libcpmtd:xlocale.obj
 0002:00092350       ??9?$_String_const_iterator@V?$_String_val@U?$_Simple_types@D@std@@@std@@@std@@QEBA_NAEBV01@@Z 000000014014d350 f i libcpmtd:xlocale.obj
 0002:000923a0       ??E?$_String_const_iterator@V?$_String_val@U?$_Simple_types@D@std@@@std@@@std@@QEAAAEAV01@XZ 000000014014d3a0 f i libcpmtd:xlocale.obj
 0002:00092540       ??E?$ostreambuf_iterator@DU?$char_traits@D@std@@@std@@QEAAAEAV01@H@Z 000000014014d540 f i libcpmtd:xlocale.obj
 0002:00092560       ??G?$_String_iterator@V?$_String_val@U?$_Simple_types@D@std@@@std@@@std@@QEBA?AV01@_J@Z 000000014014d560 f i libcpmtd:xlocale.obj
 0002:000925f0       ??H?$_String_iterator@V?$_String_val@U?$_Simple_types@D@std@@@std@@@std@@QEBA?AV01@_J@Z 000000014014d5f0 f i libcpmtd:xlocale.obj
 0002:00092970       ??Y?$_String_const_iterator@V?$_String_val@U?$_Simple_types@D@std@@@std@@@std@@QEAAAEAV01@_J@Z 000000014014d970 f i libcpmtd:xlocale.obj
 0002:00092bb0       ??Y?$_String_iterator@V?$_String_val@U?$_Simple_types@D@std@@@std@@@std@@QEAAAEAV01@_J@Z 000000014014dbb0 f i libcpmtd:xlocale.obj
 0002:00092be0       ??Z?$_String_iterator@V?$_String_val@U?$_Simple_types@D@std@@@std@@@std@@QEAAAEAV01@_J@Z 000000014014dbe0 f i libcpmtd:xlocale.obj
 0002:00092c20       ??_E?$_Mpunct@D@std@@MEAAPEAXI@Z 000000014014dc20 f i libcpmtd:xlocale.obj
 0002:00092c20       ??_G?$_Mpunct@D@std@@MEAAPEAXI@Z 000000014014dc20 f i libcpmtd:xlocale.obj
 0002:00092c90       ??_G?$collate@D@std@@MEAAPEAXI@Z 000000014014dc90 f i libcpmtd:xlocale.obj
 0002:00092c90       ??_E?$collate@D@std@@MEAAPEAXI@Z 000000014014dc90 f i libcpmtd:xlocale.obj
 0002:00092d00       ??_G?$messages@D@std@@MEAAPEAXI@Z 000000014014dd00 f i libcpmtd:xlocale.obj
 0002:00092d00       ??_E?$messages@D@std@@MEAAPEAXI@Z 000000014014dd00 f i libcpmtd:xlocale.obj
 0002:00092d70       ??_G?$money_get@DV?$istreambuf_iterator@DU?$char_traits@D@std@@@std@@@std@@MEAAPEAXI@Z 000000014014dd70 f i libcpmtd:xlocale.obj
 0002:00092d70       ??_E?$money_get@DV?$istreambuf_iterator@DU?$char_traits@D@std@@@std@@@std@@MEAAPEAXI@Z 000000014014dd70 f i libcpmtd:xlocale.obj
 0002:00092de0       ??_G?$money_put@DV?$ostreambuf_iterator@DU?$char_traits@D@std@@@std@@@std@@MEAAPEAXI@Z 000000014014dde0 f i libcpmtd:xlocale.obj
 0002:00092de0       ??_E?$money_put@DV?$ostreambuf_iterator@DU?$char_traits@D@std@@@std@@@std@@MEAAPEAXI@Z 000000014014dde0 f i libcpmtd:xlocale.obj
 0002:00092e50       ??_E?$moneypunct@D$00@std@@MEAAPEAXI@Z 000000014014de50 f i libcpmtd:xlocale.obj
 0002:00092e50       ??_G?$moneypunct@D$00@std@@MEAAPEAXI@Z 000000014014de50 f i libcpmtd:xlocale.obj
 0002:00092ec0       ??_E?$moneypunct@D$0A@@std@@MEAAPEAXI@Z 000000014014dec0 f i libcpmtd:xlocale.obj
 0002:00092ec0       ??_G?$moneypunct@D$0A@@std@@MEAAPEAXI@Z 000000014014dec0 f i libcpmtd:xlocale.obj
 0002:00092f30       ??_G?$time_get@DV?$istreambuf_iterator@DU?$char_traits@D@std@@@std@@@std@@MEAAPEAXI@Z 000000014014df30 f i libcpmtd:xlocale.obj
 0002:00092f30       ??_E?$time_get@DV?$istreambuf_iterator@DU?$char_traits@D@std@@@std@@@std@@MEAAPEAXI@Z 000000014014df30 f i libcpmtd:xlocale.obj
 0002:00092fa0       ??_E?$time_put@DV?$ostreambuf_iterator@DU?$char_traits@D@std@@@std@@@std@@MEAAPEAXI@Z 000000014014dfa0 f i libcpmtd:xlocale.obj
 0002:00092fa0       ??_G?$time_put@DV?$ostreambuf_iterator@DU?$char_traits@D@std@@@std@@@std@@MEAAPEAXI@Z 000000014014dfa0 f i libcpmtd:xlocale.obj
 0002:00093010       ?_Compat@?$_String_const_iterator@V?$_String_val@U?$_Simple_types@D@std@@@std@@@std@@QEBAXAEBV12@@Z 000000014014e010 f i libcpmtd:xlocale.obj
 0002:000930c0       ?_Getcat@?$collate@D@std@@SA_KPEAPEBVfacet@locale@2@PEBV42@@Z 000000014014e0c0 f i libcpmtd:xlocale.obj
 0002:00093280       ?_Getcat@?$messages@D@std@@SA_KPEAPEBVfacet@locale@2@PEBV42@@Z 000000014014e280 f i libcpmtd:xlocale.obj
 0002:000933b0       ?_Getcat@?$money_get@DV?$istreambuf_iterator@DU?$char_traits@D@std@@@std@@@std@@SA_KPEAPEBVfacet@locale@2@PEBV42@@Z 000000014014e3b0 f i libcpmtd:xlocale.obj
 0002:000934e0       ?_Getcat@?$money_put@DV?$ostreambuf_iterator@DU?$char_traits@D@std@@@std@@@std@@SA_KPEAPEBVfacet@locale@2@PEBV42@@Z 000000014014e4e0 f i libcpmtd:xlocale.obj
 0002:00093610       ?_Getcat@?$moneypunct@D$00@std@@SA_KPEAPEBVfacet@locale@2@PEBV42@@Z 000000014014e610 f i libcpmtd:xlocale.obj
 0002:00093750       ?_Getcat@?$moneypunct@D$0A@@std@@SA_KPEAPEBVfacet@locale@2@PEBV42@@Z 000000014014e750 f i libcpmtd:xlocale.obj
 0002:00093890       ?_Getcat@?$time_get@DV?$istreambuf_iterator@DU?$char_traits@D@std@@@std@@@std@@SA_KPEAPEBVfacet@locale@2@PEBV42@@Z 000000014014e890 f i libcpmtd:xlocale.obj
 0002:000939c0       ?_Getcat@?$time_put@DV?$ostreambuf_iterator@DU?$char_traits@D@std@@@std@@@std@@SA_KPEAPEBVfacet@locale@2@PEBV42@@Z 000000014014e9c0 f i libcpmtd:xlocale.obj
 0002:00093af0       ?_Getfmt@?$time_get@DV?$istreambuf_iterator@DU?$char_traits@D@std@@@std@@@std@@IEBA?AV?$istreambuf_iterator@DU?$char_traits@D@std@@@2@V32@0AEAVios_base@2@AEAHPEAUtm@@PEBD@Z 000000014014eaf0 f i libcpmtd:xlocale.obj
 0002:00093e30       ?_Getint@?$time_get@DV?$istreambuf_iterator@DU?$char_traits@D@std@@@std@@@std@@AEBAHAEAV?$istreambuf_iterator@DU?$char_traits@D@std@@@2@0HHAEAHAEBV?$ctype@D@2@@Z 000000014014ee30 f i libcpmtd:xlocale.obj
 0002:000941b0       ?_Getmfld@?$money_get@DV?$istreambuf_iterator@DU?$char_traits@D@std@@@std@@@std@@AEBA?AV?$basic_string@DU?$char_traits@D@std@@V?$allocator@D@2@@2@AEAV?$istreambuf_iterator@DU?$char_traits@D@std@@@2@0_NAEAVios_base@2@PEAD@Z 000000014014f1b0 f i libcpmtd:xlocale.obj
 0002:00095710       ?_Gettnames@_Locinfo@std@@QEBA?AV_Timevec@2@XZ 0000000140150710 f i libcpmtd:xlocale.obj
 0002:00095760       ?_Init@?$_Mpunct@D@std@@IEAAXAEBV_Locinfo@2@_N@Z 0000000140150760 f i libcpmtd:xlocale.obj
 0002:00095a40       ?_Init@?$collate@D@std@@IEAAXAEBV_Locinfo@2@@Z 0000000140150a40 f i libcpmtd:xlocale.obj
 0002:00095a90       ?_Init@?$messages@D@std@@IEAAXAEBV_Locinfo@2@@Z 0000000140150a90 f i libcpmtd:xlocale.obj
 0002:00095aa0       ?_Init@?$money_get@DV?$istreambuf_iterator@DU?$char_traits@D@std@@@std@@@std@@IEAAXAEBV_Locinfo@2@@Z 0000000140150aa0 f i libcpmtd:xlocale.obj
 0002:00095ab0       ?_Init@?$money_put@DV?$ostreambuf_iterator@DU?$char_traits@D@std@@@std@@@std@@IEAAXAEBV_Locinfo@2@@Z 0000000140150ab0 f i libcpmtd:xlocale.obj
 0002:00095ac0       ?_Init@?$time_get@DV?$istreambuf_iterator@DU?$char_traits@D@std@@@std@@@std@@IEAAXAEBV_Locinfo@2@@Z 0000000140150ac0 f i libcpmtd:xlocale.obj
 0002:00095b50       ?_Init@?$time_put@DV?$ostreambuf_iterator@DU?$char_traits@D@std@@@std@@@std@@IEAAXAEBV_Locinfo@2@@Z 0000000140150b50 f i libcpmtd:xlocale.obj
 0002:00095bd0       ?_Makexloc@_Locimp@locale@std@@CAXAEBV_Locinfo@3@HPEAV123@PEBV23@@Z 0000000140150bd0 f   libcpmtd:xlocale.obj
 0002:00096560       ?_Makpat@?$_Mpunct@D@std@@AEAAXAEAUpattern@money_base@2@III@Z 0000000140151560 f i libcpmtd:xlocale.obj
 0002:00096630       ?_Put@?$money_put@DV?$ostreambuf_iterator@DU?$char_traits@D@std@@@std@@@std@@CA?AV?$ostreambuf_iterator@DU?$char_traits@D@std@@@2@V32@V?$_String_const_iterator@V?$_String_val@U?$_Simple_types@D@std@@@std@@@2@_K@Z 0000000140151630 f i libcpmtd:xlocale.obj
 0002:00096700       ?_Putmfld@?$money_put@DV?$ostreambuf_iterator@DU?$char_traits@D@std@@@std@@@std@@AEBA?AV?$ostreambuf_iterator@DU?$char_traits@D@std@@@2@V32@_NAEAVios_base@2@D1V?$basic_string@DU?$char_traits@D@std@@V?$allocator@D@2@@2@D@Z 0000000140151700 f i libcpmtd:xlocale.obj
 0002:00097a30       ?_Rep@?$money_put@DV?$ostreambuf_iterator@DU?$char_traits@D@std@@@std@@@std@@CA?AV?$ostreambuf_iterator@DU?$char_traits@D@std@@@2@V32@D_K@Z 0000000140152a30 f i libcpmtd:xlocale.obj
 0002:00097ac0       ?_Tidy@?$_Mpunct@D@std@@AEAAXXZ 0000000140152ac0 f i libcpmtd:xlocale.obj
 0002:00097b20       ?_Tidy@?$time_get@DV?$istreambuf_iterator@DU?$char_traits@D@std@@@std@@@std@@AEAAXXZ 0000000140152b20 f i libcpmtd:xlocale.obj
 0002:00097b70       ?curr_symbol@?$_Mpunct@D@std@@QEBA?AV?$basic_string@DU?$char_traits@D@std@@V?$allocator@D@2@@2@XZ 0000000140152b70 f i libcpmtd:xlocale.obj
 0002:00097be0       ?date_order@?$time_get@DV?$istreambuf_iterator@DU?$char_traits@D@std@@@std@@@std@@QEBA?AW4dateorder@time_base@2@XZ 0000000140152be0 f i libcpmtd:xlocale.obj
 0002:00097c20       ?decimal_point@?$_Mpunct@D@std@@QEBADXZ 0000000140152c20 f i libcpmtd:xlocale.obj
 0002:00097c60       ?do_close@?$messages@D@std@@MEBAXH@Z 0000000140152c60 f i libcpmtd:xlocale.obj
 0002:00097c70       ?do_compare@?$collate@D@std@@MEBAHPEBD000@Z 0000000140152c70 f i libcpmtd:xlocale.obj
 0002:00097d60       ?do_curr_symbol@?$_Mpunct@D@std@@MEBA?AV?$basic_string@DU?$char_traits@D@std@@V?$allocator@D@2@@2@XZ 0000000140152d60 f i libcpmtd:xlocale.obj
 0002:00097db0       ?do_date_order@?$time_get@DV?$istreambuf_iterator@DU?$char_traits@D@std@@@std@@@std@@MEBA?AW4dateorder@time_base@2@XZ 0000000140152db0 f i libcpmtd:xlocale.obj
 0002:00097dd0       ?do_decimal_point@?$_Mpunct@D@std@@MEBADXZ 0000000140152dd0 f i libcpmtd:xlocale.obj
 0002:00097df0       ?do_frac_digits@?$_Mpunct@D@std@@MEBAHXZ 0000000140152df0 f i libcpmtd:xlocale.obj
 0002:00097e10       ?do_get@?$messages@D@std@@MEBA?AV?$basic_string@DU?$char_traits@D@std@@V?$allocator@D@2@@2@HHHAEBV32@@Z 0000000140152e10 f i libcpmtd:xlocale.obj
 0002:00097e70       ?do_get@?$money_get@DV?$istreambuf_iterator@DU?$char_traits@D@std@@@std@@@std@@MEBA?AV?$istreambuf_iterator@DU?$char_traits@D@std@@@2@V32@0_NAEAVios_base@2@AEAHAEAO@Z 0000000140152e70 f i libcpmtd:xlocale.obj
 0002:00098070       ?do_get@?$money_get@DV?$istreambuf_iterator@DU?$char_traits@D@std@@@std@@@std@@MEBA?AV?$istreambuf_iterator@DU?$char_traits@D@std@@@2@V32@0_NAEAVios_base@2@AEAHAEAV?$basic_string@DU?$char_traits@D@std@@V?$allocator@D@2@@2@@Z 0000000140153070 f i libcpmtd:xlocale.obj
 0002:000982e0       ?do_get@?$time_get@DV?$istreambuf_iterator@DU?$char_traits@D@std@@@std@@@std@@MEBA?AV?$istreambuf_iterator@DU?$char_traits@D@std@@@2@V32@0AEAVios_base@2@AEAHPEAUtm@@DD@Z 00000001401532e0 f i libcpmtd:xlocale.obj
 0002:000993d0       ?do_get_date@?$time_get@DV?$istreambuf_iterator@DU?$char_traits@D@std@@@std@@@std@@MEBA?AV?$istreambuf_iterator@DU?$char_traits@D@std@@@2@V32@0AEAVios_base@2@AEAHPEAUtm@@@Z 00000001401543d0 f i libcpmtd:xlocale.obj
 0002:0009a0a0       ?do_get_monthname@?$time_get@DV?$istreambuf_iterator@DU?$char_traits@D@std@@@std@@@std@@MEBA?AV?$istreambuf_iterator@DU?$char_traits@D@std@@@2@V32@0AEAVios_base@2@AEAHPEAUtm@@@Z 00000001401550a0 f i libcpmtd:xlocale.obj
 0002:0009a1b0       ?do_get_time@?$time_get@DV?$istreambuf_iterator@DU?$char_traits@D@std@@@std@@@std@@MEBA?AV?$istreambuf_iterator@DU?$char_traits@D@std@@@2@V32@0AEAVios_base@2@AEAHPEAUtm@@@Z 00000001401551b0 f i libcpmtd:xlocale.obj
 0002:0009a500       ?do_get_weekday@?$time_get@DV?$istreambuf_iterator@DU?$char_traits@D@std@@@std@@@std@@MEBA?AV?$istreambuf_iterator@DU?$char_traits@D@std@@@2@V32@0AEAVios_base@2@AEAHPEAUtm@@@Z 0000000140155500 f i libcpmtd:xlocale.obj
 0002:0009a610       ?do_get_year@?$time_get@DV?$istreambuf_iterator@DU?$char_traits@D@std@@@std@@@std@@MEBA?AV?$istreambuf_iterator@DU?$char_traits@D@std@@@2@V32@0AEAVios_base@2@AEAHPEAUtm@@@Z 0000000140155610 f i libcpmtd:xlocale.obj
 0002:0009a810       ?do_grouping@?$_Mpunct@D@std@@MEBA?AV?$basic_string@DU?$char_traits@D@std@@V?$allocator@D@2@@2@XZ 0000000140155810 f i libcpmtd:xlocale.obj
 0002:0009a860       ?do_hash@?$collate@D@std@@MEBAJPEBD0@Z 0000000140155860 f i libcpmtd:xlocale.obj
 0002:0009a8d0       ?do_neg_format@?$_Mpunct@D@std@@MEBA?AUpattern@money_base@2@XZ 00000001401558d0 f i libcpmtd:xlocale.obj
 0002:0009a900       ?do_negative_sign@?$_Mpunct@D@std@@MEBA?AV?$basic_string@DU?$char_traits@D@std@@V?$allocator@D@2@@2@XZ 0000000140155900 f i libcpmtd:xlocale.obj
 0002:0009a950       ?do_open@?$messages@D@std@@MEBAHAEBV?$basic_string@DU?$char_traits@D@std@@V?$allocator@D@2@@2@AEBVlocale@2@@Z 0000000140155950 f i libcpmtd:xlocale.obj
 0002:0009a970       ?do_pos_format@?$_Mpunct@D@std@@MEBA?AUpattern@money_base@2@XZ 0000000140155970 f i libcpmtd:xlocale.obj
 0002:0009a9a0       ?do_positive_sign@?$_Mpunct@D@std@@MEBA?AV?$basic_string@DU?$char_traits@D@std@@V?$allocator@D@2@@2@XZ 00000001401559a0 f i libcpmtd:xlocale.obj
 0002:0009a9f0       ?do_put@?$money_put@DV?$ostreambuf_iterator@DU?$char_traits@D@std@@@std@@@std@@MEBA?AV?$ostreambuf_iterator@DU?$char_traits@D@std@@@2@V32@_NAEAVios_base@2@DAEBV?$basic_string@DU?$char_traits@D@std@@V?$allocator@D@2@@2@@Z 00000001401559f0 f i libcpmtd:xlocale.obj
 0002:0009ada0       ?do_put@?$money_put@DV?$ostreambuf_iterator@DU?$char_traits@D@std@@@std@@@std@@MEBA?AV?$ostreambuf_iterator@DU?$char_traits@D@std@@@2@V32@_NAEAVios_base@2@DO@Z 0000000140155da0 f i libcpmtd:xlocale.obj
 0002:0009b0f0       ?do_put@?$time_put@DV?$ostreambuf_iterator@DU?$char_traits@D@std@@@std@@@std@@MEBA?AV?$ostreambuf_iterator@DU?$char_traits@D@std@@@2@V32@AEAVios_base@2@DPEBUtm@@DD@Z 00000001401560f0 f i libcpmtd:xlocale.obj
 0002:0009b3c0       ?do_thousands_sep@?$_Mpunct@D@std@@MEBADXZ 00000001401563c0 f i libcpmtd:xlocale.obj
 0002:0009b3e0       ?do_transform@?$collate@D@std@@MEBA?AV?$basic_string@DU?$char_traits@D@std@@V?$allocator@D@2@@2@PEBD0@Z 00000001401563e0 f i libcpmtd:xlocale.obj
 0002:0009b690       ?end@?$basic_string@DU?$char_traits@D@std@@V?$allocator@D@2@@std@@QEAA?AV?$_String_iterator@V?$_String_val@U?$_Simple_types@D@std@@@std@@@2@XZ 0000000140156690 f i libcpmtd:xlocale.obj
 0002:0009b720       ?frac_digits@?$_Mpunct@D@std@@QEBAHXZ 0000000140156720 f i libcpmtd:xlocale.obj
 0002:0009b760       ?get_monthname@?$time_get@DV?$istreambuf_iterator@DU?$char_traits@D@std@@@std@@@std@@QEBA?AV?$istreambuf_iterator@DU?$char_traits@D@std@@@2@V32@0AEAVios_base@2@AEAHPEAUtm@@@Z 0000000140156760 f i libcpmtd:xlocale.obj
 0002:0009b850       ?get_weekday@?$time_get@DV?$istreambuf_iterator@DU?$char_traits@D@std@@@std@@@std@@QEBA?AV?$istreambuf_iterator@DU?$char_traits@D@std@@@2@V32@0AEAVios_base@2@AEAHPEAUtm@@@Z 0000000140156850 f i libcpmtd:xlocale.obj
 0002:0009b940       ?get_year@?$time_get@DV?$istreambuf_iterator@DU?$char_traits@D@std@@@std@@@std@@QEBA?AV?$istreambuf_iterator@DU?$char_traits@D@std@@@2@V32@0AEAVios_base@2@AEAHPEAUtm@@@Z 0000000140156940 f i libcpmtd:xlocale.obj
 0002:0009ba30       ?grouping@?$_Mpunct@D@std@@QEBA?AV?$basic_string@DU?$char_traits@D@std@@V?$allocator@D@2@@2@XZ 0000000140156a30 f i libcpmtd:xlocale.obj
 0002:0009baa0       ?narrow@?$ctype@D@std@@QEBADDD@Z 0000000140156aa0 f i libcpmtd:xlocale.obj
 0002:0009bb00       ?neg_format@?$_Mpunct@D@std@@QEBA?AUpattern@money_base@2@XZ 0000000140156b00 f i libcpmtd:xlocale.obj
 0002:0009bb60       ?negative_sign@?$_Mpunct@D@std@@QEBA?AV?$basic_string@DU?$char_traits@D@std@@V?$allocator@D@2@@2@XZ 0000000140156b60 f i libcpmtd:xlocale.obj
 0002:0009bbd0       ?pos_format@?$_Mpunct@D@std@@QEBA?AUpattern@money_base@2@XZ 0000000140156bd0 f i libcpmtd:xlocale.obj
 0002:0009bc30       ?positive_sign@?$_Mpunct@D@std@@QEBA?AV?$basic_string@DU?$char_traits@D@std@@V?$allocator@D@2@@2@XZ 0000000140156c30 f i libcpmtd:xlocale.obj
 0002:0009bca0       ?thousands_sep@?$_Mpunct@D@std@@QEBADXZ 0000000140156ca0 f i libcpmtd:xlocale.obj
 0002:0009be70       _Stolx                     0000000140156e70 f   libcpmtd:xstol.obj
 0002:0009c050       _Stoul                     0000000140157050 f   libcpmtd:xstoul.obj
 0002:0009c090       _Stoulx                    0000000140157090 f   libcpmtd:xstoul.obj
 0002:0009c520       _Stoll                     0000000140157520 f   libcpmtd:xstoll.obj
 0002:0009c560       _Stollx                    0000000140157560 f   libcpmtd:xstoll.obj
 0002:0009c770       _Stoull                    0000000140157770 f   libcpmtd:xstoull.obj
 0002:0009c7b0       _Stoullx                   00000001401577b0 f   libcpmtd:xstoull.obj
 0002:0009cc70       _Getcoll                   0000000140157c70 f   libcpmtd:xstrcoll.obj
 0002:0009cd10       _Strcoll                   0000000140157d10 f   libcpmtd:xstrcoll.obj
 0002:0009cf20       _Getdateorder              0000000140157f20 f   libcpmtd:xdateord.obj
 0002:0009d010       _Mbrtowc                   0000000140158010 f   libcpmtd:xmbtowc.obj
 0002:0009d4e0       _Wcscoll                   00000001401584e0 f   libcpmtd:xwcscoll.obj
 0002:0009d6c0       wmemcmp                    00000001401586c0 f i libcpmtd:xwcscoll.obj
 0002:0009d770       _Wcsxfrm                   0000000140158770 f   libcpmtd:xwcsxfrm.obj
 0002:0009d9e0       _Getwctype                 00000001401589e0 f   libcpmtd:xgetwctype.obj
 0002:0009da40       _Getwctypes                0000000140158a40 f   libcpmtd:xgetwctype.obj
 0002:0009daa0       _Towlower                  0000000140158aa0 f   libcpmtd:xtowlower.obj
 0002:0009db80       _Towupper                  0000000140158b80 f   libcpmtd:xtowupper.obj
 0002:0009dc60       _Strxfrm                   0000000140158c60 f   libcpmtd:xstrxfrm.obj
 0002:0009de60       __crtCompareStringA        0000000140158e60 f   libcpmtd:StlCompareStringA.obj
 0002:0009e630       __crtCompareStringW        0000000140159630 f   libcpmtd:StlCompareStringW.obj
 0002:0009e740       __crtLCMapStringW          0000000140159740 f   libcpmtd:StlLCMapStringW.obj
 0002:0009e7e1       URLDownloadToFileA         00000001401597e1 f   urlmon:urlmon.dll
 0002:0009e7f0       ??_M@YAXPEAX_K1P6AX0@Z@Z   00000001401597f0 f   LIBCMTD:ehvecdtr.obj
 0002:0009e8e0       ??_M@YAXPEAX_KHP6AX0@Z@Z   00000001401598e0 f   LIBCMTD:ehvecdtr.obj
 0002:0009e980       ?__ArrayUnwind@@YAXPEAX_K1P6AX0@Z@Z 0000000140159980 f   LIBCMTD:ehvecdtr.obj
 0002:0009ea20       ??2@YAPEAX_K@Z             0000000140159a20 f   LIBCMTD:new_scalar.obj
 0002:0009ea90       ??2@YAPEAX_KW4align_val_t@std@@@Z 0000000140159a90 f   LIBCMTD:new_scalar_align.obj
 0002:0009eb00       ??3@YAXPEAX_K@Z            0000000140159b00 f   LIBCMTD:delete_scalar_size.obj
 0002:0009eb30       ??3@YAXPEAX_KW4align_val_t@std@@@Z 0000000140159b30 f   LIBCMTD:delete_scalar_size_align.obj
 0002:0009eb60       ??_V@YAXPEAX@Z             0000000140159b60 f   LIBCMTD:delete_array.obj
 0002:0009eb80       ??$__crt_fast_decode_pointer@PEAP6AXXZ@@YAPEAP6AXXZQEAP6AXXZ@Z 0000000140159b80 f i LIBCMTD:utility.obj
 0002:0009ebd0       ??$__crt_fast_encode_pointer@PEAP6AXXZ@@YAPEAP6AXXZQEAP6AXXZ@Z 0000000140159bd0 f i LIBCMTD:utility.obj
 0002:0009ec20       ?__crt_rotate_pointer_value@@YA_K_KH@Z 0000000140159c20 f i LIBCMTD:utility.obj
 0002:0009ec40       ?configure_argv@__scrt_narrow_argv_policy@@SAHXZ 0000000140159c40 f i LIBCMTD:utility.obj
 0002:0009ed60       ?initialize_environment@__scrt_narrow_environment_policy@@SAHXZ 0000000140159d60 f i LIBCMTD:utility.obj
 0002:0009ee30       NtCurrentTeb               0000000140159e30 f i LIBCMTD:utility.obj
 0002:0009ee40       __scrt_acquire_startup_lock 0000000140159e40 f   LIBCMTD:utility.obj
 0002:0009eec0       __scrt_dllmain_after_initialize_c 0000000140159ec0 f   LIBCMTD:utility.obj
 0002:0009ef00       __scrt_dllmain_before_initialize_c 0000000140159f00 f   LIBCMTD:utility.obj
 0002:0009ef30       __scrt_dllmain_crt_thread_attach 0000000140159f30 f   LIBCMTD:utility.obj
 0002:0009ef70       __scrt_dllmain_crt_thread_detach 0000000140159f70 f   LIBCMTD:utility.obj
 0002:0009ef90       __scrt_dllmain_exception_filter 0000000140159f90 f   LIBCMTD:utility.obj
 0002:0009f010       __scrt_dllmain_uninitialize_c 000000014015a010 f   LIBCMTD:utility.obj
 0002:0009f050       __scrt_dllmain_uninitialize_critical 000000014015a050 f   LIBCMTD:utility.obj
 0002:0009f070       __scrt_initialize_crt      000000014015a070 f   LIBCMTD:utility.obj
 0002:0009f0d0       __scrt_initialize_onexit_tables 000000014015a0d0 f   LIBCMTD:utility.obj
 0002:0009f220       __scrt_is_nonwritable_in_current_image 000000014015a220 f   LIBCMTD:utility.obj
 0002:0009f2d0       __scrt_release_startup_lock 000000014015a2d0 f   LIBCMTD:utility.obj
 0002:0009f310       __scrt_uninitialize_crt    000000014015a310 f   LIBCMTD:utility.obj
 0002:0009f360       _onexit                    000000014015a360 f   LIBCMTD:utility.obj
 0002:0009f410       at_quick_exit              000000014015a410 f   LIBCMTD:utility.obj
 0002:0009f480       atexit                     000000014015a480 f   LIBCMTD:utility.obj
 0002:0009f4c0       _RTC_AllocaHelper          000000014015a4c0 f   LIBCMTD:_stack_.obj
 0002:0009f510       _RTC_CheckStackVars        000000014015a510 f   LIBCMTD:_stack_.obj
 0002:0009f5c0       _RTC_CheckStackVars2       000000014015a5c0 f   LIBCMTD:_stack_.obj
 0002:0009f710       _CRT_RTC_INIT              000000014015a710 f   LIBCMTD:_init_.obj
 0002:0009f720       _CRT_RTC_INITW             000000014015a720 f   LIBCMTD:_init_.obj
 0002:0009f730       _RTC_InitBase              000000014015a730 f   LIBCMTD:_init_.obj
 0002:0009f780       _RTC_Shutdown              000000014015a780 f   LIBCMTD:_init_.obj
 0002:0009f7b0       __GSHandlerCheck           000000014015a7b0 f   LIBCMTD:_gshandler_.obj
 0002:0009f800       __GSHandlerCheckCommon     000000014015a800 f   LIBCMTD:_gshandler_.obj
 0002:0009f940       __GSHandlerCheck_EH        000000014015a940 f   LIBCMTD:gshandlereh.obj
 0002:0009fa20       _alloca_probe              000000014015aa20 f   LIBCMTD:_chkstk_.obj
 0002:0009fa20       __chkstk                   000000014015aa20 f   LIBCMTD:_chkstk_.obj
 0002:0009faa0       __security_check_cookie    000000014015aaa0 f   LIBCMTD:_amdsecgs_.obj
 0002:0009fad0       ??1type_info@@UEAA@XZ      000000014015aad0 f   LIBCMTD:std_type_info_static.obj
 0002:0009faf0       ??_Gtype_info@@UEAAPEAXI@Z 000000014015aaf0 f i LIBCMTD:std_type_info_static.obj
 0002:0009faf0       ??_Etype_info@@UEAAPEAXI@Z 000000014015aaf0 f i LIBCMTD:std_type_info_static.obj
 0002:0009fec0       ?set_app_type@__scrt_main_policy@@SAXXZ 000000014015aec0 f i LIBCMTD:exe_main.obj
 0002:0009fee0       ?set_commode@__scrt_file_policy@@SAXXZ 000000014015aee0 f i LIBCMTD:exe_main.obj
 0002:0009ff10       ?set_fmode@__scrt_file_policy@@SAXXZ 000000014015af10 f i LIBCMTD:exe_main.obj
 0002:0009ff30       mainCRTStartup             000000014015af30 f   LIBCMTD:exe_main.obj
 0002:0009ff50       __raise_securityfailure    000000014015af50 f   LIBCMTD:gs_report.obj
 0002:0009ffa0       __report_gsfailure         000000014015afa0 f   LIBCMTD:gs_report.obj
 0002:000a00b0       __report_rangecheckfailure 000000014015b0b0 f   LIBCMTD:gs_report.obj
 0002:000a00d0       __report_securityfailure   000000014015b0d0 f   LIBCMTD:gs_report.obj
 0002:000a01a0       __report_securityfailureEx 000000014015b1a0 f   LIBCMTD:gs_report.obj
 0002:000a04a0       _guard_check_icall         000000014015b4a0 f i LIBCMTD:checkcfg.obj
 0002:000a04c0       ??0bad_alloc@std@@AEAA@QEBD@Z 000000014015b4c0 f i LIBCMTD:throw_bad_alloc.obj
 0002:000a0510       ??0bad_array_new_length@std@@QEAA@AEBV01@@Z 000000014015b510 f i LIBCMTD:throw_bad_alloc.obj
 0002:000a0560       ??0bad_array_new_length@std@@QEAA@XZ 000000014015b560 f i LIBCMTD:throw_bad_alloc.obj
 0002:000a05a0       ??1bad_array_new_length@std@@UEAA@XZ 000000014015b5a0 f i LIBCMTD:throw_bad_alloc.obj
 0002:000a05c0       ??_Gbad_array_new_length@std@@UEAAPEAXI@Z 000000014015b5c0 f i LIBCMTD:throw_bad_alloc.obj
 0002:000a05c0       ??_Ebad_array_new_length@std@@UEAAPEAXI@Z 000000014015b5c0 f i LIBCMTD:throw_bad_alloc.obj
 0002:000a0610       ?__scrt_throw_std_bad_alloc@@YAXXZ 000000014015b610 f   LIBCMTD:throw_bad_alloc.obj
 0002:000a0640       ?__scrt_throw_std_bad_array_new_length@@YAXXZ 000000014015b640 f   LIBCMTD:throw_bad_alloc.obj
 0002:000a0670       ??3@YAXPEAX@Z              000000014015b670 f   LIBCMTD:delete_scalar.obj
 0002:000a06a0       ??3@YAXPEAXW4align_val_t@std@@@Z 000000014015b6a0 f   LIBCMTD:delete_scalar_align.obj
 0002:000a06d0       __isa_available_init       000000014015b6d0 f   LIBCMTD:_cpu_disp_.obj
 0002:000a0b20       _get_startup_argv_mode     000000014015bb20 f   LIBCMTD:argv_mode.obj
 0002:000a0b30       __scrt_is_ucrt_dll_in_use  000000014015bb30 f   LIBCMTD:ucrt_detection.obj
 0002:000a0b60       __crt_debugger_hook        000000014015bb60 f   LIBCMTD:utility_desktop.obj
 0002:000a0b80       __scrt_fastfail            000000014015bb80 f   LIBCMTD:utility_desktop.obj
 0002:000a0d80       __scrt_get_show_window_mode 000000014015bd80 f   LIBCMTD:utility_desktop.obj
 0002:000a0df0       __scrt_initialize_winrt    000000014015bdf0 f   LIBCMTD:utility_desktop.obj
 0002:000a0e00       __scrt_is_managed_app      000000014015be00 f   LIBCMTD:utility_desktop.obj
 0002:000a0ed0       __scrt_set_unhandled_exception_filter 000000014015bed0 f   LIBCMTD:utility_desktop.obj
 0002:000a0ef0       __scrt_unhandled_exception_filter 000000014015bef0 f   LIBCMTD:utility_desktop.obj
 0002:000a1030       ?_RTC_AllocaFailure@@YAXPEAXPEAU_RTC_ALLOCA_NODE@@H@Z 000000014015c030 f   LIBCMTD:_error_.obj
 0002:000a11e0       ?_RTC_Failure@@YAXPEAXH@Z  000000014015c1e0 f   LIBCMTD:_error_.obj
 0002:000a1250       ?_RTC_StackFailure@@YAXPEAXPEBD@Z 000000014015c250 f   LIBCMTD:_error_.obj
 0002:000a17a0       _RTC_UninitUse             000000014015c7a0 f   LIBCMTD:_error_.obj
 0002:000a18a0       ?_RTC_GetErrorFunc@@YAP6AHHPEBDH00ZZPEBX@Z 000000014015c8a0 f   LIBCMTD:_userapi_.obj
 0002:000a18b0       ?_RTC_GetErrorFuncW@@YAP6AHHPEB_WH00ZZPEBX@Z 000000014015c8b0 f   LIBCMTD:_userapi_.obj
 0002:000a18c0       _RTC_GetErrDesc            000000014015c8c0 f   LIBCMTD:_userapi_.obj
 0002:000a18e0       _RTC_NumErrors             000000014015c8e0 f   LIBCMTD:_userapi_.obj
 0002:000a18f0       _RTC_SetErrorFunc          000000014015c8f0 f   LIBCMTD:_userapi_.obj
 0002:000a1910       _RTC_SetErrorFuncW         000000014015c910 f   LIBCMTD:_userapi_.obj
 0002:000a1930       _RTC_SetErrorType          000000014015c930 f   LIBCMTD:_userapi_.obj
 0002:000a1a50       __security_init_cookie     000000014015ca50 f   LIBCMTD:gs_support.obj
 0002:000a1af0       _matherr                   000000014015caf0 f   LIBCMTD:matherr.obj
 0002:000a1b00       _get_startup_commit_mode   000000014015cb00 f   LIBCMTD:commit_mode.obj
 0002:000a1b10       _get_startup_file_mode     000000014015cb10 f   LIBCMTD:file_mode.obj
 0002:000a1b20       _get_startup_new_mode      000000014015cb20 f   LIBCMTD:new_mode.obj
 0002:000a1b30       _get_startup_thread_locale_mode 000000014015cb30 f   LIBCMTD:thread_locale.obj
 0002:000a1b40       ?__scrt_initialize_type_info@@YAXXZ 000000014015cb40 f   LIBCMTD:tncleanup.obj
 0002:000a1b60       ?__scrt_uninitialize_type_info@@YAXXZ 000000014015cb60 f   LIBCMTD:tncleanup.obj
 0002:000a1b80       _should_initialize_environment 000000014015cb80 f   LIBCMTD:env_mode.obj
 0002:000a1b90       _initialize_invalid_parameter_handler 000000014015cb90 f   LIBCMTD:invalid_parameter_handler.obj
 0002:000a1ba0       _initialize_denormal_control 000000014015cba0 f   LIBCMTD:denormal_control.obj
 0002:000a1bb0       __local_stdio_scanf_options 000000014015cbb0 f i LIBCMTD:default_local_stdio_options.obj
 0002:000a1bc0       __scrt_initialize_default_local_stdio_options 000000014015cbc0 f   LIBCMTD:default_local_stdio_options.obj
 0002:000a1c20       __scrt_is_user_matherr_present 000000014015cc20 f   LIBCMTD:matherr_detection.obj
 0002:000a1c50       __scrt_get_dyn_tls_init_callback 000000014015cc50 f   LIBCMTD:dyn_tls_init.obj
 0002:000a1c60       __scrt_get_dyn_tls_dtor_callback 000000014015cc60 f   LIBCMTD:dyn_tls_dtor.obj
 0002:000a1c70       _RTC_Initialize            000000014015cc70 f   LIBCMTD:_initsect_.obj
 0002:000a1cd0       _RTC_Terminate             000000014015ccd0 f   LIBCMTD:_initsect_.obj
 0002:000a1d30       _guard_check_icall_nop     000000014015cd30 f i LIBCMTD:guard_support.obj
 0002:000a1d40       ReadNoFence64              000000014015cd40 f i LIBCMTD:guard_support.obj
 0002:000a1d70       ReadPointerNoFence         000000014015cd70 f i LIBCMTD:guard_support.obj
 0002:000a1d90       __guard_ss_common_verify_stub 000000014015cd90 f i LIBCMTD:guard_support.obj
 0002:000a1da0       _guard_icall_checks_enforced 000000014015cda0 f i LIBCMTD:guard_support.obj
 0002:000a1df0       _guard_rf_checks_enforced  000000014015cdf0 f i LIBCMTD:guard_support.obj
 0002:000a24b0       ?_RTC_GetSrcLine@@YAHPEAEPEA_WKPEAH1K@Z 000000014015d4b0 f   LIBCMTD:_pdblkup_.obj
 0002:000a2a40       ??$__crt_fast_decode_pointer@P6AXXZ@@YAP6AXXZQ6AXXZ@Z 000000014015da40 f i libvcruntimed:purevirt.obj
 0002:000a2a90       ??$__crt_fast_encode_pointer@P6AXXZ@@YAP6AXXZQ6AXXZ@Z 000000014015da90 f i libvcruntimed:purevirt.obj
 0002:000a2ae0       ??$__crt_interlocked_exchange_pointer@$$A6AXXZP6AXXZ@@YAP6AXXZPEDS6AXXZQ6AXXZ@Z 000000014015dae0 f i libvcruntimed:purevirt.obj
 0002:000a2b00       ??$__crt_interlocked_read_pointer@$$A6AXXZ@@YAP6AXXZPEDS6AXXZ@Z 000000014015db00 f i libvcruntimed:purevirt.obj
 0002:000a2b20       ?__crt_interlocked_read_64@@YA_JPED_J@Z 000000014015db20 f i libvcruntimed:purevirt.obj
 0002:000a2b50       _get_purecall_handler      000000014015db50 f   libvcruntimed:purevirt.obj
 0002:000a2b80       _purecall                  000000014015db80 f   libvcruntimed:purevirt.obj
 0002:000a2bd0       _set_purecall_handler      000000014015dbd0 f   libvcruntimed:purevirt.obj
 0002:000a2c20       memchr                     000000014015dc20 f   libvcruntimed:memchr.obj
 0002:000a2cc0       memcmp                     000000014015dcc0 f   libvcruntimed:memcmp.obj
 0002:000a2dd0       memmove                    000000014015ddd0 f   libvcruntimed:memcpy.obj
 0002:000a2dd0       memcpy                     000000014015ddd0 f   libvcruntimed:memcpy.obj
 0002:000a3340       memset                     000000014015e340 f   libvcruntimed:memset.obj
 0002:000a3560       ??$?RD@__crt_public_free_policy@@QEBAXQEBD@Z 000000014015e560 f i libvcruntimed:std_exception.obj
 0002:000a3590       ??0?$__crt_unique_heap_ptr@DU__crt_public_free_policy@@@@QEAA@QEAD@Z 000000014015e590 f i libvcruntimed:std_exception.obj
 0002:000a35c0       ??1?$__crt_unique_heap_ptr@DU__crt_public_free_policy@@@@QEAA@XZ 000000014015e5c0 f i libvcruntimed:std_exception.obj
 0002:000a35e0       ??B?$__crt_unique_heap_ptr@DU__crt_public_free_policy@@@@QEBA_NXZ 000000014015e5e0 f i libvcruntimed:std_exception.obj
 0002:000a3600       ?detach@?$__crt_unique_heap_ptr@DU__crt_public_free_policy@@@@QEAAPEADXZ 000000014015e600 f i libvcruntimed:std_exception.obj
 0002:000a3640       ?get@?$__crt_unique_heap_ptr@DU__crt_public_free_policy@@@@QEBAPEADXZ 000000014015e640 f i libvcruntimed:std_exception.obj
 0002:000a3660       ?is_valid@?$__crt_unique_heap_ptr@DU__crt_public_free_policy@@@@QEBA_NXZ 000000014015e660 f i libvcruntimed:std_exception.obj
 0002:000a36a0       ?release@?$__crt_unique_heap_ptr@DU__crt_public_free_policy@@@@QEAAXXZ 000000014015e6a0 f i libvcruntimed:std_exception.obj
 0002:000a36e0       __std_exception_copy       000000014015e6e0 f   libvcruntimed:std_exception.obj
 0002:000a3860       __std_exception_destroy    000000014015e860 f   libvcruntimed:std_exception.obj
 0002:000a38b0       _CxxThrowException         000000014015e8b0 f   libvcruntimed:throw.obj
 0002:000a3af0       ?_ExecutionInCatch@@YAHPEAU_xDISPATCHER_CONTEXT@@PEBU_s_FuncInfo@@@Z 000000014015eaf0 f   libvcruntimed:risctrnsctrl.obj
 0002:000a3b60       ?_GetEstablisherFrame@@YAPEA_KPEA_KPEAU_xDISPATCHER_CONTEXT@@PEBU_s_FuncInfo@@0@Z 000000014015eb60 f   libvcruntimed:risctrnsctrl.obj
 0002:000a3d30       ?_GetRangeOfTrysToCheck@@YAPEBU_s_TryBlockMapEntry@@PEA_KPEBU_s_FuncInfo@@HHPEAI2PEAU_xDISPATCHER_CONTEXT@@@Z 000000014015ed30 f   libvcruntimed:risctrnsctrl.obj
 0002:000a3fd0       ?__FrameUnwindToEmptyState@@YAXPEA_KPEAU_xDISPATCHER_CONTEXT@@PEBU_s_FuncInfo@@@Z 000000014015efd0 f   libvcruntimed:risctrnsctrl.obj
 0002:000a4170       _CallSETranslator          000000014015f170 f   libvcruntimed:risctrnsctrl.obj
 0002:000a4220       _CreateFrameInfo           000000014015f220 f   libvcruntimed:risctrnsctrl.obj
 0002:000a42b0       _FindAndUnlinkFrame        000000014015f2b0 f   libvcruntimed:risctrnsctrl.obj
 0002:000a4350       _GetImageBase              000000014015f350 f   libvcruntimed:risctrnsctrl.obj
 0002:000a4370       _GetThrowImageBase         000000014015f370 f   libvcruntimed:risctrnsctrl.obj
 0002:000a4390       _SetImageBase              000000014015f390 f   libvcruntimed:risctrnsctrl.obj
 0002:000a43c0       _SetThrowImageBase         000000014015f3c0 f   libvcruntimed:risctrnsctrl.obj
 0002:000a43f0       _UnwindNestedFrames        000000014015f3f0 f   libvcruntimed:risctrnsctrl.obj
 0002:000a45c0       __CxxFrameHandler          000000014015f5c0 f   libvcruntimed:risctrnsctrl.obj
 0002:000a4610       __CxxFrameHandler2         000000014015f610 f   libvcruntimed:risctrnsctrl.obj
 0002:000a4660       __CxxFrameHandler3         000000014015f660 f   libvcruntimed:risctrnsctrl.obj
 0002:000a4750       __DestructExceptionObject  000000014015f750 f   libvcruntimed:ehhelpers.obj
 0002:000a4890       ?_CallMemberFunction0@@YAXQEAX0@Z 000000014015f890 f i libvcruntimed:ehhelpers.obj
 0002:000a48c0       ?raw_name@type_info@@QEBAPEBDXZ 000000014015f8c0 f i libvcruntimed:ehhelpers.obj
 0002:000a48e0       _IsExceptionObjectToBeDestroyed 000000014015f8e0 f   libvcruntimed:ehhelpers.obj
 0002:000a4950       _SetWinRTOutOfMemoryExceptionCallback 000000014015f950 f   libvcruntimed:ehhelpers.obj
 0002:000a4970       __AdjustPointer            000000014015f970 f   libvcruntimed:ehhelpers.obj
 0002:000a4a10       __FrameUnwindFilter        000000014015fa10 f   libvcruntimed:ehhelpers.obj
 0002:000a4ac0       __GetPlatformExceptionInfo 000000014015fac0 f   libvcruntimed:ehhelpers.obj
 0002:000a4ba0       __current_exception        000000014015fba0 f   libvcruntimed:ehhelpers.obj
 0002:000a4bc0       __current_exception_context 000000014015fbc0 f   libvcruntimed:ehhelpers.obj
 0002:000a4be0       __processing_throw         000000014015fbe0 f   libvcruntimed:ehhelpers.obj
 0002:000a4c00       __std_terminate            000000014015fc00 f   libvcruntimed:ehhelpers.obj
 0002:000a4c20       __uncaught_exception       000000014015fc20 f   libvcruntimed:ehhelpers.obj
 0002:000a4c60       __uncaught_exceptions      000000014015fc60 f   libvcruntimed:ehhelpers.obj
 0002:000a4cb0       _is_exception_typeof       000000014015fcb0 f   libvcruntimed:ehhelpers.obj
 0002:000a4e50       __C_specific_handler       000000014015fe50 f   libvcruntimed:_riscchandler_.obj
 0002:000a53a0       __vcrt_initialize          00000001401603a0 f   libvcruntimed:initialization.obj
 0002:000a53f0       __vcrt_thread_attach       00000001401603f0 f   libvcruntimed:initialization.obj
 0002:000a5410       __vcrt_thread_detach       0000000140160410 f   libvcruntimed:initialization.obj
 0002:000a5430       __vcrt_uninitialize        0000000140160430 f   libvcruntimed:initialization.obj
 0002:000a5460       __vcrt_uninitialize_critical 0000000140160460 f   libvcruntimed:initialization.obj
 0002:000a54d0       ??$?RD@__crt_internal_free_policy@@QEBAXQEBD@Z 00000001401604d0 f i libvcruntimed:std_type_info.obj
 0002:000a5500       ??$?RX@__crt_internal_free_policy@@QEBAXQEBX@Z 0000000140160500 f i libvcruntimed:std_type_info.obj
 0002:000a5530       ??$__crt_interlocked_compare_exchange_pointer@$$CBDPEAD$$T@@YAPEBDPEDSEBDQEAD$$T@Z 0000000140160530 f i libvcruntimed:std_type_info.obj
 0002:000a5580       ??$__crt_interlocked_read_pointer@$$CBD@@YAPEBDPEDSEBD@Z 0000000140160580 f i libvcruntimed:std_type_info.obj
 0002:000a55a0       ??0?$__crt_unique_heap_ptr@DU__crt_internal_free_policy@@@@QEAA@QEAD@Z 00000001401605a0 f i libvcruntimed:std_type_info.obj
 0002:000a55d0       ??0?$__crt_unique_heap_ptr@XU__crt_internal_free_policy@@@@QEAA@QEAX@Z 00000001401605d0 f i libvcruntimed:std_type_info.obj
 0002:000a5600       ??1?$__crt_unique_heap_ptr@DU__crt_internal_free_policy@@@@QEAA@XZ 0000000140160600 f i libvcruntimed:std_type_info.obj
 0002:000a5620       ??1?$__crt_unique_heap_ptr@XU__crt_internal_free_policy@@@@QEAA@XZ 0000000140160620 f i libvcruntimed:std_type_info.obj
 0002:000a5660       ??B?$__crt_unique_heap_ptr@DU__crt_internal_free_policy@@@@QEBA_NXZ 0000000140160660 f i libvcruntimed:std_type_info.obj
 0002:000a5680       ??B?$__crt_unique_heap_ptr@XU__crt_internal_free_policy@@@@QEBA_NXZ 0000000140160680 f i libvcruntimed:std_type_info.obj
 0002:000a5710       ?detach@?$__crt_unique_heap_ptr@XU__crt_internal_free_policy@@@@QEAAPEAXXZ 0000000140160710 f i libvcruntimed:std_type_info.obj
 0002:000a5750       ?get@?$__crt_unique_heap_ptr@DU__crt_internal_free_policy@@@@QEBAPEADXZ 0000000140160750 f i libvcruntimed:std_type_info.obj
 0002:000a5770       ?get@?$__crt_unique_heap_ptr@XU__crt_internal_free_policy@@@@QEBAPEAXXZ 0000000140160770 f i libvcruntimed:std_type_info.obj
 0002:000a5790       ?is_valid@?$__crt_unique_heap_ptr@DU__crt_internal_free_policy@@@@QEBA_NXZ 0000000140160790 f i libvcruntimed:std_type_info.obj
 0002:000a57d0       ?is_valid@?$__crt_unique_heap_ptr@XU__crt_internal_free_policy@@@@QEBA_NXZ 00000001401607d0 f i libvcruntimed:std_type_info.obj
 0002:000a5810       ?release@?$__crt_unique_heap_ptr@DU__crt_internal_free_policy@@@@QEAAXXZ 0000000140160810 f i libvcruntimed:std_type_info.obj
 0002:000a5850       ?release@?$__crt_unique_heap_ptr@XU__crt_internal_free_policy@@@@QEAAXXZ 0000000140160850 f i libvcruntimed:std_type_info.obj
 0002:000a5890       __std_type_info_compare    0000000140160890 f   libvcruntimed:std_type_info.obj
 0002:000a58e0       __std_type_info_destroy_list 00000001401608e0 f   libvcruntimed:std_type_info.obj
 0002:000a5950       __std_type_info_hash       0000000140160950 f   libvcruntimed:std_type_info.obj
 0002:000a5a30       __std_type_info_name       0000000140160a30 f   libvcruntimed:std_type_info.obj
 0002:000a5db0       __vcrt_GetModuleFileNameW  0000000140160db0 f   libvcruntimed:winapi_thunks.obj
 0002:000a5df0       __vcrt_GetModuleHandleW    0000000140160df0 f   libvcruntimed:winapi_thunks.obj
 0002:000a5e10       __vcrt_LoadLibraryExW      0000000140160e10 f   libvcruntimed:winapi_thunks.obj
 0002:000a5e50       ??$?B$$A6AXXZ@__crt_fast_encoded_nullptr_t@@QEBAP6AXXZXZ 0000000140160e50 f i libvcruntimed:purevirt_data.obj
 0002:000a5e70       ?__crt_fast_encode_pointer@@YA?AU__crt_fast_encoded_nullptr_t@@$$T@Z 0000000140160e70 f i libvcruntimed:purevirt_data.obj
 0002:000a5e90       __vcrt_initialize_pure_virtual_call_handler 0000000140160e90 f   libvcruntimed:purevirt_data.obj
 0002:000a5ec0       ??$?RU__vcrt_ptd@@@__crt_internal_free_policy@@QEBAXQEBU__vcrt_ptd@@@Z 0000000140160ec0 f i libvcruntimed:per_thread_data.obj
 0002:000a5ef0       ??0?$__crt_unique_heap_ptr@U__vcrt_ptd@@U__crt_internal_free_policy@@@@QEAA@QEAU__vcrt_ptd@@@Z 0000000140160ef0 f i libvcruntimed:per_thread_data.obj
 0002:000a5f50       ??1?$__crt_unique_heap_ptr@U__vcrt_ptd@@U__crt_internal_free_policy@@@@QEAA@XZ 0000000140160f50 f i libvcruntimed:per_thread_data.obj
 0002:000a5fa0       ??B?$__crt_unique_heap_ptr@U__vcrt_ptd@@U__crt_internal_free_policy@@@@QEBA_NXZ 0000000140160fa0 f i libvcruntimed:per_thread_data.obj
 0002:000a5fc0       ?detach@?$__crt_unique_heap_ptr@U__vcrt_ptd@@U__crt_internal_free_policy@@@@QEAAPEAU__vcrt_ptd@@XZ 0000000140160fc0 f i libvcruntimed:per_thread_data.obj
 0002:000a6000       ?get@?$__crt_unique_heap_ptr@U__vcrt_ptd@@U__crt_internal_free_policy@@@@QEBAPEAU__vcrt_ptd@@XZ 0000000140161000 f i libvcruntimed:per_thread_data.obj
 0002:000a6020       ?is_valid@?$__crt_unique_heap_ptr@U__vcrt_ptd@@U__crt_internal_free_policy@@@@QEBA_NXZ 0000000140161020 f i libvcruntimed:per_thread_data.obj
 0002:000a6060       ?release@?$__crt_unique_heap_ptr@U__vcrt_ptd@@U__crt_internal_free_policy@@@@QEAAXXZ 0000000140161060 f i libvcruntimed:per_thread_data.obj
 0002:000a60e0       __vcrt_freefls             00000001401610e0 f   libvcruntimed:per_thread_data.obj
 0002:000a6130       __vcrt_freeptd             0000000140161130 f   libvcruntimed:per_thread_data.obj
 0002:000a61b0       __vcrt_getptd              00000001401611b0 f   libvcruntimed:per_thread_data.obj
 0002:000a61e0       __vcrt_getptd_noexit       00000001401611e0 f   libvcruntimed:per_thread_data.obj
 0002:000a63f0       __vcrt_getptd_noinit       00000001401613f0 f   libvcruntimed:per_thread_data.obj
 0002:000a6470       __vcrt_initialize_ptd      0000000140161470 f   libvcruntimed:per_thread_data.obj
 0002:000a64d0       __vcrt_uninitialize_ptd    00000001401614d0 f   libvcruntimed:per_thread_data.obj
 0002:000a6510       ?__GetCurrentState@@YAHPEA_KPEAU_xDISPATCHER_CONTEXT@@PEBU_s_FuncInfo@@@Z 0000000140161510 f   libvcruntimed:riscehstate.obj
 0002:000a6580       ?__GetUnwindTryBlock@@YAHPEA_KPEAU_xDISPATCHER_CONTEXT@@PEBU_s_FuncInfo@@@Z 0000000140161580 f   libvcruntimed:riscehstate.obj
 0002:000a65e0       ?__SetState@@YAXPEA_KPEAU_xDISPATCHER_CONTEXT@@PEBU_s_FuncInfo@@H@Z 00000001401615e0 f   libvcruntimed:riscehstate.obj
 0002:000a6620       ?__SetUnwindTryBlock@@YAXPEA_KPEAU_xDISPATCHER_CONTEXT@@PEBU_s_FuncInfo@@H@Z 0000000140161620 f   libvcruntimed:riscehstate.obj
 0002:000a66b0       ?__StateFromControlPc@@YAHPEBU_s_FuncInfo@@PEAU_xDISPATCHER_CONTEXT@@@Z 00000001401616b0 f   libvcruntimed:riscehstate.obj
 0002:000a6700       ?__StateFromIp@@YAHPEBU_s_FuncInfo@@PEAU_xDISPATCHER_CONTEXT@@_K@Z 0000000140161700 f   libvcruntimed:riscehstate.obj
 0002:000a6820       ??0bad_exception@std@@QEAA@AEBV01@@Z 0000000140161820 f i libvcruntimed:frame.obj
 0002:000a6870       ??0bad_exception@std@@QEAA@XZ 0000000140161870 f i libvcruntimed:frame.obj
 0002:000a68c0       ??1bad_exception@std@@UEAA@XZ 00000001401618c0 f i libvcruntimed:frame.obj
 0002:000a68e0       ??8type_info@@QEBA_NAEBV0@@Z 00000001401618e0 f i libvcruntimed:frame.obj
 0002:000a6940       ??_Ebad_exception@std@@UEAAPEAXI@Z 0000000140161940 f i libvcruntimed:frame.obj
 0002:000a6940       ??_Gbad_exception@std@@UEAAPEAXI@Z 0000000140161940 f i libvcruntimed:frame.obj
 0002:000a7cd0       ?_CallMemberFunction1@@YAXQEAX00@Z 0000000140162cd0 f i libvcruntimed:frame.obj
 0002:000a7d10       ?_CallMemberFunction2@@YAXQEAX00H@Z 0000000140162d10 f i libvcruntimed:frame.obj
 0002:000a7d60       ?_ValidateExecute@@YA_NP6A_JXZ@Z 0000000140162d60 f i libvcruntimed:frame.obj
 0002:000a7d80       ?_ValidateRead@@YA_NPEBXI@Z 0000000140162d80 f i libvcruntimed:frame.obj
 0002:000a7da0       ?_ValidateWrite@@YA_NPEAXI@Z 0000000140162da0 f i libvcruntimed:frame.obj
 0002:000a7e10       __BuildCatchObject         0000000140162e10 f   libvcruntimed:frame.obj
 0002:000a7fa0       __BuildCatchObjectHelper   0000000140162fa0 f   libvcruntimed:frame.obj
 0002:000a8550       __CxxCallCatchBlock        0000000140163550 f   libvcruntimed:frame.obj
 0002:000a8840       __FrameUnwindToState       0000000140163840 f   libvcruntimed:frame.obj
 0002:000a8b20       __InternalCxxFrameHandler  0000000140163b20 f   libvcruntimed:frame.obj
 0002:000a90c0       __TypeMatch                00000001401640c0 f   libvcruntimed:frame.obj
 0002:000a9320       __vcrt_EncodePointer       0000000140164320 f i libvcruntimed:frame.obj
 0002:000a9350       _local_unwind              0000000140164350 f   libvcruntimed:_jmpuwind_.obj
 0002:000a9380       _NLG_Notify                0000000140164380 f   libvcruntimed:_jmpuwind_.obj
 0002:000a93a0       __NLG_Dispatch2            00000001401643a0 f   libvcruntimed:_jmpuwind_.obj
 0002:000a93b0       __NLG_Return2              00000001401643b0 f   libvcruntimed:_jmpuwind_.obj
 0002:000a93f0       __except_validate_context_record 00000001401643f0 f   libvcruntimed:jbcxrval.obj
 0002:000a9460       __except_validate_jump_buffer 0000000140164460 f   libvcruntimed:jbcxrval.obj
 0002:000a9490       __except_validate_jump_buffer_common 0000000140164490 f i libvcruntimed:jbcxrval.obj
 0002:000a9540       __vcrt_initialize_locks    0000000140164540 f   libvcruntimed:locks.obj
 0002:000a95d0       __vcrt_lock                00000001401645d0 f   libvcruntimed:locks.obj
 0002:000a9610       __vcrt_uninitialize_locks  0000000140164610 f   libvcruntimed:locks.obj
 0002:000a9680       __vcrt_unlock              0000000140164680 f   libvcruntimed:locks.obj
 0002:000a96c0       ??$?BX@__crt_fast_encoded_nullptr_t@@QEBAPEAXXZ 00000001401646c0 f i libvcruntimed:winapi_downlevel.obj
 0002:000a96e0       ??$__crt_fast_decode_pointer@PEAX@@YAPEAXQEAX@Z 00000001401646e0 f i libvcruntimed:winapi_downlevel.obj
 0002:000a9730       ??$__crt_fast_encode_pointer@PEAX@@YAPEAXQEAX@Z 0000000140164730 f i libvcruntimed:winapi_downlevel.obj
 0002:000a9780       ??$__crt_interlocked_exchange_pointer@UHINSTANCE__@@PEAU1@@@YAPEAUHINSTANCE__@@PEDSEAU0@QEAU0@@Z 0000000140164780 f i libvcruntimed:winapi_downlevel.obj
 0002:000a97a0       ??$__crt_interlocked_exchange_pointer@UHINSTANCE__@@PEAX@@YAPEAUHINSTANCE__@@PEDSEAU0@QEAX@Z 00000001401647a0 f i libvcruntimed:winapi_downlevel.obj
 0002:000a97c0       ??$__crt_interlocked_exchange_pointer@XPEAX@@YAPEAXPEDSEAXQEAX@Z 00000001401647c0 f i libvcruntimed:winapi_downlevel.obj
 0002:000a97e0       ??$__crt_interlocked_read_pointer@UHINSTANCE__@@@@YAPEAUHINSTANCE__@@PEDSEAU0@@Z 00000001401647e0 f i libvcruntimed:winapi_downlevel.obj
 0002:000a9800       ??$__crt_interlocked_read_pointer@X@@YAPEAXPEDSEAX@Z 0000000140164800 f i libvcruntimed:winapi_downlevel.obj
 0002:000a9ec0       __vcrt_FlsAlloc            0000000140164ec0 f   libvcruntimed:winapi_downlevel.obj
 0002:000a9f20       __vcrt_FlsFree             0000000140164f20 f   libvcruntimed:winapi_downlevel.obj
 0002:000a9f80       __vcrt_FlsGetValue         0000000140164f80 f   libvcruntimed:winapi_downlevel.obj
 0002:000a9fe0       __vcrt_FlsSetValue         0000000140164fe0 f   libvcruntimed:winapi_downlevel.obj
 0002:000aa050       __vcrt_InitializeCriticalSectionEx 0000000140165050 f   libvcruntimed:winapi_downlevel.obj
 0002:000aa0d0       __vcrt_initialize_winapi_thunks 00000001401650d0 f   libvcruntimed:winapi_downlevel.obj
 0002:000aa170       __vcrt_uninitialize_winapi_thunks 0000000140165170 f   libvcruntimed:winapi_downlevel.obj
 0002:000aa230       ??0Block@_HeapManager@@QEAA@XZ 0000000140165230 f i libvcruntimed:undname.obj
 0002:000aa250       ??0DName@@QEAA@AEAPEBDD@Z  0000000140165250 f   libvcruntimed:undname.obj
 0002:000aa5a0       ??0DName@@QEAA@AEBV0@@Z    00000001401655a0 f i libvcruntimed:undname.obj
 0002:000aa5e0       ??0DName@@QEAA@D@Z         00000001401655e0 f   libvcruntimed:undname.obj
 0002:000aa640       ??0DName@@QEAA@PEAV0@@Z    0000000140165640 f   libvcruntimed:undname.obj
 0002:000aa760       ??0DName@@QEAA@PEBD@Z      0000000140165760 f   libvcruntimed:undname.obj
 0002:000aa7e0       ??0DName@@QEAA@W4DNameStatus@@@Z 00000001401657e0 f   libvcruntimed:undname.obj
 0002:000aa8c0       ??0DName@@QEAA@XZ          00000001401658c0 f i libvcruntimed:undname.obj
 0002:000aa8f0       ??0DName@@QEAA@_J@Z        00000001401658f0 f   libvcruntimed:undname.obj
 0002:000aaa40       ??0DName@@QEAA@_K@Z        0000000140165a40 f   libvcruntimed:undname.obj
 0002:000aab50       ??0DNameNode@@IEAA@XZ      0000000140165b50 f i libvcruntimed:undname.obj
 0002:000aab70       ??0Replicator@@QEAA@XZ     0000000140165b70 f i libvcruntimed:undname.obj
 0002:000aab90       ??0UnDecorator@@QEAA@PEADPEBDHP6APEADJ@ZK@Z 0000000140165b90 f i libvcruntimed:undname.obj
 0002:000aac90       ??0charNode@@QEAA@D@Z      0000000140165c90 f i libvcruntimed:undname.obj
 0002:000aace0       ??0pDNameNode@@QEAA@PEAVDName@@@Z 0000000140165ce0 f   libvcruntimed:undname.obj
 0002:000aad80       ??0pairNode@@QEAA@PEBVDNameNode@@0@Z 0000000140165d80 f i libvcruntimed:undname.obj
 0002:000aae00       ??0pcharNode@@QEAA@PEBDH@Z 0000000140165e00 f   libvcruntimed:undname.obj
 0002:000aaf00       ??2@YAPEAX_KAEAV_HeapManager@@H@Z 0000000140165f00 f i libvcruntimed:undname.obj
 0002:000aaf40       ??4DName@@QEAAAEAV0@AEBV0@@Z 0000000140165f40 f   libvcruntimed:undname.obj
 0002:000aaf80       ??4DName@@QEAAAEAV0@D@Z    0000000140165f80 f i libvcruntimed:undname.obj
 0002:000aafe0       ??4DName@@QEAAAEAV0@PEAV0@@Z 0000000140165fe0 f   libvcruntimed:undname.obj
 0002:000ab0e0       ??4DName@@QEAAAEAV0@PEBD@Z 00000001401660e0 f   libvcruntimed:undname.obj
 0002:000ab140       ??4DName@@QEAAAEAV0@W4DNameStatus@@@Z 0000000140166140 f   libvcruntimed:undname.obj
 0002:000ab200       ??AReplicator@@QEBA?AVDName@@H@Z 0000000140166200 f   libvcruntimed:undname.obj
 0002:000ab2b0       ??BUnDecorator@@QEAAPEADXZ 00000001401662b0 f i libvcruntimed:undname.obj
 0002:000ab6b0       ??H@YA?AVDName@@DAEBV0@@Z  00000001401666b0 f i libvcruntimed:undname.obj
 0002:000ab700       ??H@YA?AVDName@@PEBDAEBV0@@Z 0000000140166700 f i libvcruntimed:undname.obj
 0002:000ab750       ??H@YA?AVDName@@W4DNameStatus@@AEBV0@@Z 0000000140166750 f i libvcruntimed:undname.obj
 0002:000ab7a0       ??HDName@@QEBA?AV0@AEBV0@@Z 00000001401667a0 f   libvcruntimed:undname.obj
 0002:000ab800       ??HDName@@QEBA?AV0@D@Z     0000000140166800 f   libvcruntimed:undname.obj
 0002:000ab860       ??HDName@@QEBA?AV0@PEAV0@@Z 0000000140166860 f   libvcruntimed:undname.obj
 0002:000ab8c0       ??HDName@@QEBA?AV0@PEBD@Z  00000001401668c0 f   libvcruntimed:undname.obj
 0002:000ab920       ??HDName@@QEBA?AV0@W4DNameStatus@@@Z 0000000140166920 f   libvcruntimed:undname.obj
 0002:000ab980       ??YDName@@QEAAAEAV0@AEBV0@@Z 0000000140166980 f   libvcruntimed:undname.obj
 0002:000aba20       ??YDName@@QEAAAEAV0@D@Z    0000000140166a20 f   libvcruntimed:undname.obj
 0002:000abaf0       ??YDName@@QEAAAEAV0@PEAV0@@Z 0000000140166af0 f   libvcruntimed:undname.obj
 0002:000abc10       ??YDName@@QEAAAEAV0@PEBD@Z 0000000140166c10 f   libvcruntimed:undname.obj
 0002:000abd00       ??YDName@@QEAAAEAV0@W4DNameStatus@@@Z 0000000140166d00 f   libvcruntimed:undname.obj
 0002:000abd90       ??YReplicator@@QEAAAEAV0@AEBVDName@@@Z 0000000140166d90 f   libvcruntimed:undname.obj
 0002:000abe80       ??_5DName@@QEAAAEAV0@AEBV0@@Z 0000000140166e80 f   libvcruntimed:undname.obj
 0002:000abf00       ?Constructor@_HeapManager@@QEAAXP6APEAX_K@ZP6AXPEAX@Z@Z 0000000140166f00 f i libvcruntimed:undname.obj
 0002:000abf70       ?Destructor@_HeapManager@@QEAAXXZ 0000000140166f70 f i libvcruntimed:undname.obj
 0002:000ac010       ?UScore@UnDecorator@@SAPEBDW4Tokens@@@Z 0000000140167010 f   libvcruntimed:undname.obj
 0002:000ac060       ?append@DName@@AEAAXPEBVDNameNode@@@Z 0000000140167060 f   libvcruntimed:undname.obj
 0002:000ac140       ?composeDeclaration@UnDecorator@@CA?AVDName@@AEBV2@@Z 0000000140167140 f i libvcruntimed:undname.obj
 0002:000aea50       ?dbGetString@DName@@QEBAPEADXZ 0000000140169a50 f   libvcruntimed:undname.obj
 0002:000aea90       ?doAccessSpecifiers@UnDecorator@@SAHXZ 0000000140169a90 f i libvcruntimed:undname.obj
 0002:000aead0       ?doAllocationLanguage@UnDecorator@@SAHXZ 0000000140169ad0 f i libvcruntimed:undname.obj
 0002:000aeb10       ?doAllocationModel@UnDecorator@@SAHXZ 0000000140169b10 f i libvcruntimed:undname.obj
 0002:000aeb50       ?doEcsu@UnDecorator@@SAHXZ 0000000140169b50 f i libvcruntimed:undname.obj
 0002:000aeb90       ?doEllipsis@UnDecorator@@SAHXZ 0000000140169b90 f i libvcruntimed:undname.obj
 0002:000aebd0       ?doFunctionReturns@UnDecorator@@SAHXZ 0000000140169bd0 f i libvcruntimed:undname.obj
 0002:000aec10       ?doMSKeywords@UnDecorator@@SAHXZ 0000000140169c10 f i libvcruntimed:undname.obj
 0002:000aec50       ?doMemberTypes@UnDecorator@@SAHXZ 0000000140169c50 f i libvcruntimed:undname.obj
 0002:000aec90       ?doNameOnly@UnDecorator@@SAHXZ 0000000140169c90 f i libvcruntimed:undname.obj
 0002:000aeca0       ?doNoIdentCharCheck@UnDecorator@@SAHXZ 0000000140169ca0 f i libvcruntimed:undname.obj
 0002:000aecb0       ?doPchar@DName@@AEAAXPEBDH@Z 0000000140169cb0 f   libvcruntimed:undname.obj
 0002:000aeea0       ?doPtr64@UnDecorator@@SAHXZ 0000000140169ea0 f i libvcruntimed:undname.obj
 0002:000aeee0       ?doRestrictionSpec@UnDecorator@@SAHXZ 0000000140169ee0 f i libvcruntimed:undname.obj
 0002:000aef20       ?doThisTypes@UnDecorator@@SAHXZ 0000000140169f20 f i libvcruntimed:undname.obj
 0002:000aef60       ?doThrowTypes@UnDecorator@@SAHXZ 0000000140169f60 f i libvcruntimed:undname.obj
 0002:000aefa0       ?doTypeOnly@UnDecorator@@SAHXZ 0000000140169fa0 f i libvcruntimed:undname.obj
 0002:000aefb0       ?doUnderScore@UnDecorator@@SAHXZ 0000000140169fb0 f i libvcruntimed:undname.obj
 0002:000aeff0       ?getArgumentList@UnDecorator@@CA?AVDName@@XZ 0000000140169ff0 f   libvcruntimed:undname.obj
 0002:000af1f0       ?getArgumentTypes@UnDecorator@@CA?AVDName@@XZ 000000014016a1f0 f   libvcruntimed:undname.obj
 0002:000af420       ?getArrayType@UnDecorator@@CA?AVDName@@AEBV2@@Z 000000014016a420 f i libvcruntimed:undname.obj
 0002:000af7d0       ?getBasedType@UnDecorator@@CA?AVDName@@XZ 000000014016a7d0 f   libvcruntimed:undname.obj
 0002:000af900       ?getBasicDataType@UnDecorator@@CA?AVDName@@AEBV2@@Z 000000014016a900 f   libvcruntimed:undname.obj
 0002:000b0220       ?getCallIndex@UnDecorator@@CA?AVDName@@XZ 000000014016b220 f i libvcruntimed:undname.obj
 0002:000b0250       ?getCallingConvention@UnDecorator@@CA?AVDName@@XZ 000000014016b250 f   libvcruntimed:undname.obj
 0002:000b04c0       ?getDataIndirectType@UnDecorator@@CA?AVDName@@AEBV2@PEBD0H@Z 000000014016b4c0 f   libvcruntimed:undname.obj
 0002:000b11a0       ?getDataIndirectType@UnDecorator@@CA?AVDName@@XZ 000000014016c1a0 f i libvcruntimed:undname.obj
 0002:000b1210       ?getDataType@UnDecorator@@CA?AVDName@@PEAV2@@Z 000000014016c210 f   libvcruntimed:undname.obj
 0002:000b1400       ?getDecoratedName@UnDecorator@@CA?AVDName@@XZ 000000014016c400 f   libvcruntimed:undname.obj
 0002:000b1900       ?getDimension@UnDecorator@@CA?AVDName@@_N@Z 000000014016c900 f   libvcruntimed:undname.obj
 0002:000b1d40       ?getDispatchTarget@UnDecorator@@CA?AVDName@@XZ 000000014016cd40 f   libvcruntimed:undname.obj
 0002:000b1e40       ?getDisplacement@UnDecorator@@CA?AVDName@@XZ 000000014016ce40 f i libvcruntimed:undname.obj
 0002:000b1e70       ?getECSUDataType@UnDecorator@@CA?AVDName@@XZ 000000014016ce70 f   libvcruntimed:undname.obj
 0002:000b2140       ?getECSUName@UnDecorator@@CA?AVDName@@XZ 000000014016d140 f i libvcruntimed:undname.obj
 0002:000b2170       ?getEnumType@UnDecorator@@CA?AVDName@@XZ 000000014016d170 f i libvcruntimed:undname.obj
 0002:000b2350       ?getExtendedDataIndirectType@UnDecorator@@CA?AVDName@@AEAPEBDAEA_NH@Z 000000014016d350 f   libvcruntimed:undname.obj
 0002:000b2740       ?getExternalDataType@UnDecorator@@CA?AVDName@@AEBV2@@Z 000000014016d740 f i libvcruntimed:undname.obj
 0002:000b2840       ?getFunctionIndirectType@UnDecorator@@CA?AVDName@@AEBV2@@Z 000000014016d840 f   libvcruntimed:undname.obj
 0002:000b2f70       ?getGuardNumber@UnDecorator@@CA?AVDName@@XZ 000000014016df70 f i libvcruntimed:undname.obj
 0002:000b2fa0       ?getLastChar@DName@@QEBADXZ 000000014016dfa0 f i libvcruntimed:undname.obj
 0002:000b3010       ?getLastChar@DNameStatusNode@@UEBADXZ 000000014016e010 f i libvcruntimed:undname.obj
 0002:000b3060       ?getLastChar@charNode@@UEBADXZ 000000014016e060 f i libvcruntimed:undname.obj
 0002:000b3080       ?getLastChar@pDNameNode@@UEBADXZ 000000014016e080 f i libvcruntimed:undname.obj
 0002:000b30d0       ?getLastChar@pairNode@@UEBADXZ 000000014016e0d0 f i libvcruntimed:undname.obj
 0002:000b3190       ?getLastChar@pcharNode@@UEBADXZ 000000014016e190 f i libvcruntimed:undname.obj
 0002:000b31e0       ?getLexicalFrame@UnDecorator@@CA?AVDName@@XZ 000000014016e1e0 f i libvcruntimed:undname.obj
 0002:000b3230       ?getMemory@_HeapManager@@QEAAPEAX_KH@Z 000000014016e230 f   libvcruntimed:undname.obj
 0002:000b3410       ?getNoexcept@UnDecorator@@CA?AVDName@@XZ 000000014016e410 f   libvcruntimed:undname.obj
 0002:000b34c0       ?getNumberOfDimensions@UnDecorator@@CAHXZ 000000014016e4c0 f   libvcruntimed:undname.obj
 0002:000b3630       ?getOperatorName@UnDecorator@@CA?AVDName@@_NPEA_N@Z 000000014016e630 f i libvcruntimed:undname.obj
 0002:000b4710       ?getPointerType@UnDecorator@@CA?AVDName@@AEBV2@0@Z 000000014016f710 f i libvcruntimed:undname.obj
 0002:000b4770       ?getPointerTypeArray@UnDecorator@@CA?AVDName@@AEBV2@0@Z 000000014016f770 f i libvcruntimed:undname.obj
 0002:000b47d0       ?getPrimaryDataType@UnDecorator@@CA?AVDName@@AEBV2@@Z 000000014016f7d0 f   libvcruntimed:undname.obj
 0002:000b4df0       ?getPtrRefDataType@UnDecorator@@CA?AVDName@@AEBV2@H@Z 000000014016fdf0 f   libvcruntimed:undname.obj
 0002:000b5120       ?getPtrRefType@UnDecorator@@CA?AVDName@@AEBV2@0PEBD@Z 0000000140170120 f   libvcruntimed:undname.obj
 0002:000b53c0       ?getReferenceType@UnDecorator@@CA?AVDName@@AEBV2@0PEBD@Z 00000001401703c0 f i libvcruntimed:undname.obj
 0002:000b5410       ?getRestrictionSpec@UnDecorator@@CA?AVDName@@XZ 0000000140170410 f   libvcruntimed:undname.obj
 0002:000b5640       ?getReturnType@UnDecorator@@CA?AVDName@@PEAV2@@Z 0000000140170640 f   libvcruntimed:undname.obj
 0002:000b56c0       ?getScope@UnDecorator@@CA?AVDName@@XZ 00000001401706c0 f   libvcruntimed:undname.obj
 0002:000b5e30       ?getScopedName@UnDecorator@@CA?AVDName@@XZ 0000000140170e30 f   libvcruntimed:undname.obj
 0002:000b5ff0       ?getSignedDimension@UnDecorator@@CA?AVDName@@XZ 0000000140170ff0 f   libvcruntimed:undname.obj
 0002:000b60a0       ?getStorageConvention@UnDecorator@@CA?AVDName@@XZ 00000001401710a0 f i libvcruntimed:undname.obj
 0002:000b60d0       ?getString@DName@@QEBAPEADPEAD0@Z 00000001401710d0 f i libvcruntimed:undname.obj
 0002:000b6160       ?getString@DName@@QEBAPEADPEADH@Z 0000000140171160 f i libvcruntimed:undname.obj
 0002:000b6240       ?getString@DNameStatusNode@@UEBAPEADPEAD0@Z 0000000140171240 f i libvcruntimed:undname.obj
 0002:000b62a0       ?getString@charNode@@UEBAPEADPEAD0@Z 00000001401712a0 f i libvcruntimed:undname.obj
 0002:000b62f0       ?getString@pDNameNode@@UEBAPEADPEAD0@Z 00000001401712f0 f i libvcruntimed:undname.obj
 0002:000b6360       ?getString@pairNode@@UEBAPEADPEAD0@Z 0000000140171360 f i libvcruntimed:undname.obj
 0002:000b6450       ?getString@pcharNode@@UEBAPEADPEAD0@Z 0000000140171450 f i libvcruntimed:undname.obj
 0002:000b64a0       ?getStringEncoding@UnDecorator@@CA?AVDName@@PEBDH@Z 00000001401714a0 f   libvcruntimed:undname.obj
 0002:000b6630       ?getStringHelper@@YAPEADPEADPEBD1H@Z 0000000140171630 f i libvcruntimed:undname.obj
 0002:000b66b0       ?getSymbolName@UnDecorator@@CA?AVDName@@XZ 00000001401716b0 f i libvcruntimed:undname.obj
 0002:000b6770       ?getTemplateArgumentList@UnDecorator@@CA?AVDName@@XZ 0000000140171770 f   libvcruntimed:undname.obj
 0002:000b6d00       ?getTemplateConstant@UnDecorator@@CA?AVDName@@XZ 0000000140171d00 f   libvcruntimed:undname.obj
 0002:000b7550       ?getTemplateName@UnDecorator@@CA?AVDName@@_N@Z 0000000140172550 f   libvcruntimed:undname.obj
 0002:000b7820       ?getThisType@UnDecorator@@CA?AVDName@@XZ 0000000140172820 f i libvcruntimed:undname.obj
 0002:000b7890       ?getThrowTypes@UnDecorator@@CA?AVDName@@XZ 0000000140172890 f   libvcruntimed:undname.obj
 0002:000b7910       ?getTypeEncoding@UnDecorator@@CAHXZ 0000000140172910 f i libvcruntimed:undname.obj
 0002:000b87e0       ?getVCallThunkType@UnDecorator@@CA?AVDName@@XZ 00000001401737e0 f i libvcruntimed:undname.obj
 0002:000b8880       ?getVbTableType@UnDecorator@@CA?AVDName@@AEBV2@@Z 0000000140173880 f i libvcruntimed:undname.obj
 0002:000b88b0       ?getVdispMapType@UnDecorator@@CA?AVDName@@AEBV2@@Z 00000001401738b0 f i libvcruntimed:undname.obj
 0002:000b8960       ?getVfTableType@UnDecorator@@CA?AVDName@@AEBV2@@Z 0000000140173960 f i libvcruntimed:undname.obj
 0002:000b8c10       ?getZName@UnDecorator@@CA?AVDName@@_N0@Z 0000000140173c10 f   libvcruntimed:undname.obj
 0002:000b90a0       ?haveTemplateParameters@UnDecorator@@SAHXZ 00000001401740a0 f i libvcruntimed:undname.obj
 0002:000b90b0       ?isArray@DName@@QEBAHXZ    00000001401740b0 f i libvcruntimed:undname.obj
 0002:000b90d0       ?isComArray@DName@@QEBAHXZ 00000001401740d0 f i libvcruntimed:undname.obj
 0002:000b90f0       ?isEmpty@DName@@QEBAHXZ    00000001401740f0 f i libvcruntimed:undname.obj
 0002:000b9130       ?isFull@Replicator@@QEBAHXZ 0000000140174130 f i libvcruntimed:undname.obj
 0002:000b9170       ?isNoTE@DName@@QEBAHXZ     0000000140174170 f i libvcruntimed:undname.obj
 0002:000b9190       ?isPinPtr@DName@@QEBAHXZ   0000000140174190 f i libvcruntimed:undname.obj
 0002:000b91b0       ?isPtrRef@DName@@QEBAHXZ   00000001401741b0 f i libvcruntimed:undname.obj
 0002:000b91d0       ?isUDC@DName@@QEBAHXZ      00000001401741d0 f i libvcruntimed:undname.obj
 0002:000b9230       ?isUDTThunk@DName@@QEBAHXZ 0000000140174230 f i libvcruntimed:undname.obj
 0002:000b9290       ?isVCallThunk@DName@@QEBAHXZ 0000000140174290 f i libvcruntimed:undname.obj
 0002:000b92b0       ?isValid@DName@@QEBAHXZ    00000001401742b0 f i libvcruntimed:undname.obj
 0002:000b9300       ?length@DName@@QEBAHXZ     0000000140174300 f i libvcruntimed:undname.obj
 0002:000b9370       ?length@DNameStatusNode@@UEBAHXZ 0000000140174370 f i libvcruntimed:undname.obj
 0002:000b9390       ?length@charNode@@UEBAHXZ  0000000140174390 f i libvcruntimed:undname.obj
 0002:000b93a0       ?length@pDNameNode@@UEBAHXZ 00000001401743a0 f i libvcruntimed:undname.obj
 0002:000b93f0       ?length@pairNode@@UEBAHXZ  00000001401743f0 f i libvcruntimed:undname.obj
 0002:000b94d0       ?length@pcharNode@@UEBAHXZ 00000001401744d0 f i libvcruntimed:undname.obj
 0002:000b94f0       ?make@DNameStatusNode@@SAPEBV1@W4DNameStatus@@@Z 00000001401744f0 f i libvcruntimed:undname.obj
 0002:000b9550       ?setIsArray@DName@@QEAAXXZ 0000000140174550 f i libvcruntimed:undname.obj
 0002:000b9570       ?setIsComArray@DName@@QEAAXXZ 0000000140174570 f i libvcruntimed:undname.obj
 0002:000b9590       ?setIsNoTE@DName@@QEAAXXZ  0000000140174590 f i libvcruntimed:undname.obj
 0002:000b95b0       ?setIsPinPtr@DName@@QEAAXXZ 00000001401745b0 f i libvcruntimed:undname.obj
 0002:000b95d0       ?setIsUDC@DName@@QEAAXXZ   00000001401745d0 f i libvcruntimed:undname.obj
 0002:000b9610       ?setIsVCallThunk@DName@@QEAAXXZ 0000000140174610 f i libvcruntimed:undname.obj
 0002:000b9630       ?setPtrRef@DName@@QEAAAEAV1@XZ 0000000140174630 f i libvcruntimed:undname.obj
 0002:000b9660       ?status@DName@@QEBA?AW4DNameStatus@@XZ 0000000140174660 f i libvcruntimed:undname.obj
 0002:000b97d0       __unDName                  00000001401747d0 f   libvcruntimed:undname.obj
 0002:000b98d0       __unDNameEx                00000001401748d0 f   libvcruntimed:undname.obj
 0002:000b99e0       _CallSettingFrame          00000001401749e0 f   libvcruntimed:handlers.obj
 0002:000b9a40       ??$__crt_fast_decode_pointer@P6AXPEB_W00I_K@Z@@YAP6AXPEB_W00I_K@ZQ6AX000I1@Z@Z 0000000140174a40 f i libucrtd:invalid_parameter.obj
 0002:000b9a90       ??$__crt_fast_encode_pointer@P6AXPEB_W00I_K@Z@@YAP6AXPEB_W00I_K@ZQ6AX000I1@Z@Z 0000000140174a90 f i libucrtd:invalid_parameter.obj
 0002:000b9ae0       ??$initialize_from_array@$$BY00Q6AXPEB_W00I_K@Z@?$dual_state_global@P6AXPEB_W00I_K@Z@__crt_state_management@@QEAAXAEAY00Q6AXPEB_W00I_K@Z@Z 0000000140174ae0 f i libucrtd:invalid_parameter.obj
 0002:000b9c20       ?dangerous_get_state_array@?$dual_state_global@P6AXPEB_W00I_K@Z@__crt_state_management@@QEAAPEAP6AXPEB_W00I_K@ZXZ 0000000140174c20 f i libucrtd:invalid_parameter.obj
 0002:000b9c30       ?get_current_state_index@__crt_state_management@@YA_KXZ 0000000140174c30 f i libucrtd:invalid_parameter.obj
 0002:000b9c40       ?value@?$dual_state_global@P6AXPEB_W00I_K@Z@__crt_state_management@@QEAAAEAP6AXPEB_W00I_K@ZXZ 0000000140174c40 f i libucrtd:invalid_parameter.obj
 0002:000b9c70       __acrt_call_reportfault    0000000140174c70 f   libucrtd:invalid_parameter.obj
 0002:000b9df0       __acrt_initialize_invalid_parameter_handler 0000000140174df0 f   libucrtd:invalid_parameter.obj
 0002:000b9e30       _get_invalid_parameter_handler 0000000140174e30 f   libucrtd:invalid_parameter.obj
 0002:000b9e60       _get_thread_local_invalid_parameter_handler 0000000140174e60 f   libucrtd:invalid_parameter.obj
 0002:000b9ea0       _invalid_parameter         0000000140174ea0 f   libucrtd:invalid_parameter.obj
 0002:000b9fe0       _invalid_parameter_noinfo  0000000140174fe0 f   libucrtd:invalid_parameter.obj
 0002:000ba010       _invalid_parameter_noinfo_noreturn 0000000140175010 f   libucrtd:invalid_parameter.obj
 0002:000ba060       _invoke_watson             0000000140175060 f   libucrtd:invalid_parameter.obj
 0002:000ba0e0       _set_invalid_parameter_handler 00000001401750e0 f   libucrtd:invalid_parameter.obj
 0002:000ba150       _set_thread_local_invalid_parameter_handler 0000000140175150 f   libucrtd:invalid_parameter.obj
 0002:000ba1a0       free                       00000001401751a0 f   libucrtd:free.obj
 0002:000ba1e0       __acrt_errno_from_os_error 00000001401751e0 f   libucrtd:errno.obj
 0002:000ba290       __acrt_errno_map_os_error  0000000140175290 f   libucrtd:errno.obj
 0002:000ba2d0       __doserrno                 00000001401752d0 f   libucrtd:errno.obj
 0002:000ba310       _errno                     0000000140175310 f   libucrtd:errno.obj
 0002:000ba350       _get_doserrno              0000000140175350 f   libucrtd:errno.obj
 0002:000ba440       _get_errno                 0000000140175440 f   libucrtd:errno.obj
 0002:000ba530       _set_doserrno              0000000140175530 f   libucrtd:errno.obj
 0002:000ba570       _set_errno                 0000000140175570 f   libucrtd:errno.obj
 0002:000ba5b0       _abs64                     00000001401755b0 f   libucrtd:abs.obj
 0002:000ba5f0       abs                        00000001401755f0 f   libucrtd:abs.obj
 0002:000ba630       rand                       0000000140175630 f   libucrtd:rand.obj
 0002:000ba680       srand                      0000000140175680 f   libucrtd:rand.obj
 0002:000ba6a0       ??$is_overflow_condition@K@__crt_strtox@@YA_NIK@Z 00000001401756a0 f i libucrtd:atox.obj
 0002:000ba720       ??$is_overflow_condition@_K@__crt_strtox@@YA_NI_K@Z 0000000140175720 f i libucrtd:atox.obj
 0002:000ba7b0       ??$make_c_string_character_source@D$$T@__crt_strtox@@YA?AV?$c_string_character_source@D@0@QEBD$$T@Z 00000001401757b0 f i libucrtd:atox.obj
 0002:000ba7f0       ??$make_c_string_character_source@_W$$T@__crt_strtox@@YA?AV?$c_string_character_source@_W@0@QEB_W$$T@Z 00000001401757f0 f i libucrtd:atox.obj
 0002:000ba830       ??$parse_integer@KV?$c_string_character_source@D@__crt_strtox@@@__crt_strtox@@YAKQEAU__crt_locale_pointers@@V?$c_string_character_source@D@0@H_N@Z 0000000140175830 f i libucrtd:atox.obj
 0002:000badf0       ??$parse_integer@KV?$c_string_character_source@_W@__crt_strtox@@@__crt_strtox@@YAKQEAU__crt_locale_pointers@@V?$c_string_character_source@_W@0@H_N@Z 0000000140175df0 f i libucrtd:atox.obj
 0002:000bb3d0       ??$parse_integer@_KV?$c_string_character_source@D@__crt_strtox@@@__crt_strtox@@YA_KQEAU__crt_locale_pointers@@V?$c_string_character_source@D@0@H_N@Z 00000001401763d0 f i libucrtd:atox.obj
 0002:000bba30       ??$parse_integer@_KV?$c_string_character_source@_W@__crt_strtox@@@__crt_strtox@@YA_KQEAU__crt_locale_pointers@@V?$c_string_character_source@_W@0@H_N@Z 0000000140176a30 f i libucrtd:atox.obj
 0002:000bc0a0       ??$parse_integer_from_string@JD$$T@__crt_strtox@@YAJQEBD$$THQEAU__crt_locale_pointers@@@Z 00000001401770a0 f i libucrtd:atox.obj
 0002:000bc110       ??$parse_integer_from_string@J_W$$T@__crt_strtox@@YAJQEB_W$$THQEAU__crt_locale_pointers@@@Z 0000000140177110 f i libucrtd:atox.obj
 0002:000bc180       ??$parse_integer_from_string@_JD$$T@__crt_strtox@@YA_JQEBD$$THQEAU__crt_locale_pointers@@@Z 0000000140177180 f i libucrtd:atox.obj
 0002:000bc1f0       ??$parse_integer_from_string@_J_W$$T@__crt_strtox@@YA_JQEB_W$$THQEAU__crt_locale_pointers@@@Z 00000001401771f0 f i libucrtd:atox.obj
 0002:000bc260       ??0?$c_string_character_source@D@__crt_strtox@@QEAA@QEBDQEAPEBD@Z 0000000140177260 f i libucrtd:atox.obj
 0002:000bc2c0       ??0?$c_string_character_source@_W@__crt_strtox@@QEAA@QEB_WQEAPEB_W@Z 00000001401772c0 f i libucrtd:atox.obj
 0002:000bc320       ??0_LocaleUpdate@@QEAA@QEAU__crt_locale_pointers@@@Z 0000000140177320 f i libucrtd:atox.obj
 0002:000bc490       ??1?$c_string_character_source@D@__crt_strtox@@QEAA@XZ 0000000140177490 f i libucrtd:atox.obj
 0002:000bc4c0       ??1?$c_string_character_source@_W@__crt_strtox@@QEAA@XZ 00000001401774c0 f i libucrtd:atox.obj
 0002:000bc4f0       ??1_LocaleUpdate@@QEAA@XZ  00000001401774f0 f i libucrtd:atox.obj
 0002:000bc530       ?GetLocaleT@_LocaleUpdate@@QEAAPEAU__crt_locale_pointers@@XZ 0000000140177530 f i libucrtd:atox.obj
 0002:000bc550       ?get@?$c_string_character_source@D@__crt_strtox@@QEAADXZ 0000000140177550 f i libucrtd:atox.obj
 0002:000bc590       ?get@?$c_string_character_source@_W@__crt_strtox@@QEAA_WXZ 0000000140177590 f i libucrtd:atox.obj
 0002:000bc5e0       ?is_space@__crt_strtox@@YA_NDQEAU__crt_locale_pointers@@@Z 00000001401775e0 f i libucrtd:atox.obj
 0002:000bc640       ?is_space@__crt_strtox@@YA_N_WPEAU__crt_locale_pointers@@@Z 0000000140177640 f i libucrtd:atox.obj
 0002:000bc690       ?maximum_signed_value@__crt_strtox@@YAJK@Z 0000000140177690 f i libucrtd:atox.obj
 0002:000bc6a0       ?maximum_signed_value@__crt_strtox@@YA_J_K@Z 00000001401776a0 f i libucrtd:atox.obj
 0002:000bc6c0       ?minimum_signed_value@__crt_strtox@@YAJK@Z 00000001401776c0 f i libucrtd:atox.obj
 0002:000bc6d0       ?minimum_signed_value@__crt_strtox@@YA_J_K@Z 00000001401776d0 f i libucrtd:atox.obj
 0002:000bc6f0       ?parse_digit@__crt_strtox@@YAID@Z 00000001401776f0 f i libucrtd:atox.obj
 0002:000bc770       ?parse_digit@__crt_strtox@@YAI_W@Z 0000000140177770 f i libucrtd:atox.obj
 0002:000bc820       ?restore_state@?$c_string_character_source@D@__crt_strtox@@QEAA_NQEBD@Z 0000000140177820 f i libucrtd:atox.obj
 0002:000bc840       ?restore_state@?$c_string_character_source@_W@__crt_strtox@@QEAA_NQEB_W@Z 0000000140177840 f i libucrtd:atox.obj
 0002:000bc860       ?save_state@?$c_string_character_source@D@__crt_strtox@@QEBAPEBDXZ 0000000140177860 f i libucrtd:atox.obj
 0002:000bc880       ?save_state@?$c_string_character_source@_W@__crt_strtox@@QEBAPEB_WXZ 0000000140177880 f i libucrtd:atox.obj
 0002:000bc8a0       ?unget@?$c_string_character_source@D@__crt_strtox@@QEAAXD@Z 00000001401778a0 f i libucrtd:atox.obj
 0002:000bc9b0       ?unget@?$c_string_character_source@_W@__crt_strtox@@QEAAX_W@Z 00000001401779b0 f i libucrtd:atox.obj
 0002:000bcac0       ?validate@?$c_string_character_source@D@__crt_strtox@@QEBA_NXZ 0000000140177ac0 f i libucrtd:atox.obj
 0002:000bcbb0       ?validate@?$c_string_character_source@_W@__crt_strtox@@QEBA_NXZ 0000000140177bb0 f i libucrtd:atox.obj
 0002:000bcca0       ?wide_character_to_digit@__crt_strtox@@YAH_W@Z 0000000140177ca0 f i libucrtd:atox.obj
 0002:000bd0e0       __acrt_get_locale_data_prefix 00000001401780e0 f i libucrtd:atox.obj
 0002:000bd110       __acrt_locale_changed      0000000140178110 f i libucrtd:atox.obj
 0002:000bd140       _atoi64                    0000000140178140 f   libucrtd:atox.obj
 0002:000bd170       _atoi64_l                  0000000140178170 f   libucrtd:atox.obj
 0002:000bd1b0       _atoi_l                    00000001401781b0 f   libucrtd:atox.obj
 0002:000bd1f0       _atol_l                    00000001401781f0 f   libucrtd:atox.obj
 0002:000bd230       _atoll_l                   0000000140178230 f   libucrtd:atox.obj
 0002:000bd270       _chvalidchk_l              0000000140178270 f i libucrtd:atox.obj
 0002:000bd2b0       _ischartype_l              00000001401782b0 f i libucrtd:atox.obj
 0002:000bd320       _wtoi                      0000000140178320 f   libucrtd:atox.obj
 0002:000bd350       _wtoi64                    0000000140178350 f   libucrtd:atox.obj
 0002:000bd380       _wtoi64_l                  0000000140178380 f   libucrtd:atox.obj
 0002:000bd3c0       _wtoi_l                    00000001401783c0 f   libucrtd:atox.obj
 0002:000bd400       _wtol                      0000000140178400 f   libucrtd:atox.obj
 0002:000bd430       _wtol_l                    0000000140178430 f   libucrtd:atox.obj
 0002:000bd470       _wtoll                     0000000140178470 f   libucrtd:atox.obj
 0002:000bd4a0       _wtoll_l                   00000001401784a0 f   libucrtd:atox.obj
 0002:000bd4e0       atoi                       00000001401784e0 f   libucrtd:atox.obj
 0002:000bd510       atol                       0000000140178510 f   libucrtd:atox.obj
 0002:000bd540       atoll                      0000000140178540 f   libucrtd:atox.obj
 0002:000bd56c       ??$?R_W@__crt_internal_free_policy@@QEBAXQEB_W@Z 000000014017856c f i libucrtd:system.obj
 0002:000bd97c       ??$taccess_s@PEADH@?$__crt_char_traits@D@@SAH$$QEAPEAD$$QEAH@Z 000000014017897c f i libucrtd:system.obj
 0002:000bd988       ??$taccess_s@PEA_WH@?$__crt_char_traits@_W@@SAH$$QEAPEA_W$$QEAH@Z 0000000140178988 f i libucrtd:system.obj
 0002:000bd994       ??$tdupenv_s_crt@PEAPEAD$$TAEAY07$$CBD@?$__crt_char_traits@D@@SAH$$QEAPEAPEAD$$QEA$$TAEAY07$$CBD@Z 0000000140178994 f i libucrtd:system.obj
 0002:000bd9d0       ??$tdupenv_s_crt@PEAPEA_W$$TAEAY07$$CB_W@?$__crt_char_traits@_W@@SAH$$QEAPEAPEA_W$$QEA$$TAEAY07$$CB_W@Z 00000001401789d0 f i libucrtd:system.obj
 0002:000bda0c       ??$tspawnve@HAEAPEBDAEAY03PEBD$$T@?$__crt_char_traits@D@@SA_J$$QEAHAEAPEBDAEAY03PEBD$$QEA$$T@Z 0000000140178a0c f i libucrtd:system.obj
 0002:000bda1c       ??$tspawnve@HAEAPEB_WAEAY03PEB_W$$T@?$__crt_char_traits@_W@@SA_J$$QEAHAEAPEB_WAEAY03PEB_W$$QEA$$T@Z 0000000140178a1c f i libucrtd:system.obj
 0002:000bda2c       ??$tspawnvpe@HAEAPEBDAEAY03PEBD$$T@?$__crt_char_traits@D@@SA_J$$QEAHAEAPEBDAEAY03PEBD$$QEA$$T@Z 0000000140178a2c f i libucrtd:system.obj
 0002:000bda3c       ??$tspawnvpe@HAEAPEB_WAEAY03PEB_W$$T@?$__crt_char_traits@_W@@SA_J$$QEAHAEAPEB_WAEAY03PEB_W$$QEA$$T@Z 0000000140178a3c f i libucrtd:system.obj
 0002:000bda4c       ??0?$__crt_unique_heap_ptr@_WU__crt_internal_free_policy@@@@QEAA@QEA_W@Z 0000000140178a4c f i libucrtd:system.obj
 0002:000bda54       ??1?$__crt_unique_heap_ptr@_WU__crt_internal_free_policy@@@@QEAA@XZ 0000000140178a54 f i libucrtd:system.obj
 0002:000bda7c       ??B?$__crt_unique_heap_ptr@_WU__crt_internal_free_policy@@@@QEBA_NXZ 0000000140178a7c f i libucrtd:system.obj
 0002:000bda88       ?get@?$__crt_unique_heap_ptr@_WU__crt_internal_free_policy@@@@QEBAPEA_WXZ 0000000140178a88 f i libucrtd:system.obj
 0002:000bda8c       ?get_address_of@?$__crt_unique_heap_ptr@DU__crt_internal_free_policy@@@@QEAAPEAPEADXZ 0000000140178a8c f i libucrtd:system.obj
 0002:000bda90       ?get_address_of@?$__crt_unique_heap_ptr@_WU__crt_internal_free_policy@@@@QEAAPEAPEA_WXZ 0000000140178a90 f i libucrtd:system.obj
 0002:000bda94       ?is_valid@?$__crt_unique_heap_ptr@_WU__crt_internal_free_policy@@@@QEBA_NXZ 0000000140178a94 f i libucrtd:system.obj
 0002:000bdaa0       ?release@?$__crt_unique_heap_ptr@_WU__crt_internal_free_policy@@@@QEAAXXZ 0000000140178aa0 f i libucrtd:system.obj
 0002:000bdac8       _invoke_watson_if_oneof    0000000140178ac8 f i libucrtd:system.obj
 0002:000bdb14       _wsystem                   0000000140178b14 f   libucrtd:system.obj
 0002:000bdd28       system                     0000000140178d28 f   libucrtd:system.obj
 0002:000bdf60       fabs                       0000000140178f60 f   libucrtd:fabs.obj
 0002:000bdf80       frexp                      0000000140178f80 f   libucrtd:frexp.obj
 0002:000be270       _get_terminate             0000000140179270 f   libucrtd:terminate.obj
 0002:000be290       set_terminate              0000000140179290 f   libucrtd:terminate.obj
 0002:000be2e0       terminate                  00000001401792e0 f   libucrtd:terminate.obj
 0002:000be330       ??$?RPEAU__crt_stdio_stream_data@@@__crt_internal_free_policy@@QEBAXQEBQEAU__crt_stdio_stream_data@@@Z 0000000140179330 f i libucrtd:_file.obj
 0002:000be360       ??0?$__crt_unique_heap_ptr@PEAU__crt_stdio_stream_data@@U__crt_internal_free_policy@@@@QEAA@QEAPEAU__crt_stdio_stream_data@@@Z 0000000140179360 f i libucrtd:_file.obj
 0002:000be390       ??0__crt_stdio_stream@@QEAA@QEAU_iobuf@@@Z 0000000140179390 f i libucrtd:_file.obj
 0002:000be3c0       ??1?$__crt_unique_heap_ptr@PEAU__crt_stdio_stream_data@@U__crt_internal_free_policy@@@@QEAA@XZ 00000001401793c0 f i libucrtd:_file.obj
 0002:000be3e0       ??C__crt_stdio_stream@@QEBAPEAU__crt_stdio_stream_data@@XZ 00000001401793e0 f i libucrtd:_file.obj
 0002:000be400       ?detach@?$__crt_unique_heap_ptr@PEAU__crt_stdio_stream_data@@U__crt_internal_free_policy@@@@QEAAPEAPEAU__crt_stdio_stream_data@@XZ 0000000140179400 f i libucrtd:_file.obj
 0002:000be440       ?release@?$__crt_unique_heap_ptr@PEAU__crt_stdio_stream_data@@U__crt_internal_free_policy@@@@QEAAXXZ 0000000140179440 f i libucrtd:_file.obj
 0002:000be480       __acrt_initialize_stdio    0000000140179480 f   libucrtd:_file.obj
 0002:000be6e0       __acrt_iob_func            00000001401796e0 f   libucrtd:_file.obj
 0002:000be700       __acrt_uninitialize_stdio  0000000140179700 f   libucrtd:_file.obj
 0002:000be7b0       _get_stream_buffer_pointers 00000001401797b0 f   libucrtd:_file.obj
 0002:000be930       _lock_file                 0000000140179930 f   libucrtd:_file.obj
 0002:000be970       _unlock_file               0000000140179970 f   libucrtd:_file.obj
 0002:000be9b0       ??$__crt_interlocked_read@J@@YAJPEDJ@Z 00000001401799b0 f i libucrtd:fclose.obj
 0002:000be9d0       ?__crt_interlocked_read_32@@YAHPEDH@Z 00000001401799d0 f i libucrtd:fclose.obj
 0002:000bea00       ?get_flags@__crt_stdio_stream@@QEBAJXZ 0000000140179a00 f i libucrtd:fclose.obj
 0002:000bea30       ?is_in_use@__crt_stdio_stream@@QEBA_NXZ 0000000140179a30 f i libucrtd:fclose.obj
 0002:000bea80       ?is_string_backed@__crt_stdio_stream@@QEBA_NXZ 0000000140179a80 f i libucrtd:fclose.obj
 0002:000bead0       ?public_stream@__crt_stdio_stream@@QEBAPEAU_iobuf@@XZ 0000000140179ad0 f i libucrtd:fclose.obj
 0002:000beaf0       ?valid@__crt_stdio_stream@@QEBA_NXZ 0000000140179af0 f i libucrtd:fclose.obj
 0002:000beb30       _fclose_nolock             0000000140179b30 f   libucrtd:fclose.obj
 0002:000bed20       fclose                     0000000140179d20 f   libucrtd:fclose.obj
 0002:000bf320       ??0__crt_stdio_stream@@QEAA@QEAU__crt_stdio_stream_data@@@Z 000000014017a320 f i libucrtd:fflush.obj
 0002:000bf680       ?__acrt_stdio_reset_buffer@@YAXV__crt_stdio_stream@@@Z 000000014017a680 f i libucrtd:fflush.obj
 0002:000bf7f0       ?has_all_of@__crt_stdio_stream@@QEBA_NJ@Z 000000014017a7f0 f i libucrtd:fflush.obj
 0002:000bf910       ?set_flags@__crt_stdio_stream@@QEBA_NJ@Z 000000014017a910 f i libucrtd:fflush.obj
 0002:000bf990       ?unset_flags@__crt_stdio_stream@@QEBA_NJ@Z 000000014017a990 f i libucrtd:fflush.obj
 0002:000bfa00       __acrt_stdio_flush_nolock  000000014017aa00 f   libucrtd:fflush.obj
 0002:000bfb50       _fflush_nolock             000000014017ab50 f   libucrtd:fflush.obj
 0002:000bfc00       _flushall                  000000014017ac00 f   libucrtd:fflush.obj
 0002:000bfc20       fflush                     000000014017ac20 f   libucrtd:fflush.obj
 0002:000bfcd0       _fgetc_nolock              000000014017acd0 f   libucrtd:fgetc.obj
 0002:000bfe80       _fgetchar                  000000014017ae80 f   libucrtd:fgetc.obj
 0002:000bfea0       _getc_nolock               000000014017aea0 f   libucrtd:fgetc.obj
 0002:000bfec0       fgetc                      000000014017aec0 f   libucrtd:fgetc.obj
 0002:000c0230       getc                       000000014017b230 f   libucrtd:fgetc.obj
 0002:000c0250       getchar                    000000014017b250 f   libucrtd:fgetc.obj
 0002:000c0270       fgetpos                    000000014017b270 f   libucrtd:fgetpos.obj
 0002:000c0460       _fputc_nolock              000000014017b460 f   libucrtd:fputc.obj
 0002:000c0540       _fputchar                  000000014017b540 f   libucrtd:fputc.obj
 0002:000c0570       _putc_nolock               000000014017b570 f   libucrtd:fputc.obj
 0002:000c05a0       fputc                      000000014017b5a0 f   libucrtd:fputc.obj
 0002:000c08f0       putc                       000000014017b8f0 f   libucrtd:fputc.obj
 0002:000c0920       putchar                    000000014017b920 f   libucrtd:fputc.obj
 0002:000c0940       fsetpos                    000000014017b940 f   libucrtd:fsetpos.obj
 0002:000c0b20       ?LongLongSub@@YAJ_J0PEA_J@Z 000000014017bb20 f i libucrtd:fseek.obj
 0002:000c12c0       ?has_any_buffer@__crt_stdio_stream@@QEBA_NXZ 000000014017c2c0 f i libucrtd:fseek.obj
 0002:000c12f0       ?has_any_of@__crt_stdio_stream@@QEBA_NJ@Z 000000014017c2f0 f i libucrtd:fseek.obj
 0002:000c1340       ?lowio_handle@__crt_stdio_stream@@QEBAHXZ 000000014017c340 f i libucrtd:fseek.obj
 0002:000c1370       _fseek_nolock              000000014017c370 f   libucrtd:fseek.obj
 0002:000c13d0       _fseeki64                  000000014017c3d0 f   libucrtd:fseek.obj
 0002:000c1420       _fseeki64_nolock           000000014017c420 f   libucrtd:fseek.obj
 0002:000c1470       fseek                      000000014017c470 f   libucrtd:fseek.obj
 0002:000c1680       ??0__acrt_stdio_temporary_buffering_guard@@QEAA@QEAU_iobuf@@@Z 000000014017c680 f i libucrtd:fwrite.obj
 0002:000c16d0       ??1__acrt_stdio_temporary_buffering_guard@@QEAA@XZ 000000014017c6d0 f i libucrtd:fwrite.obj
 0002:000c1800       ?has_big_buffer@__crt_stdio_stream@@QEBA_NXZ 000000014017c800 f i libucrtd:fwrite.obj
 0002:000c1830       _fwrite_nolock             000000014017c830 f   libucrtd:fwrite.obj
 0002:000c20e0       fwrite                     000000014017d0e0 f   libucrtd:fwrite.obj
 0002:000c2240       _unlink                    000000014017d240 f   libucrtd:unlink.obj
 0002:000c2260       remove                     000000014017d260 f   libucrtd:unlink.obj
 0002:000c26e0       ?detach@?$__crt_unique_heap_ptr@DU__crt_internal_free_policy@@@@QEAAPEADXZ 000000014017d6e0 f i libucrtd:setvbuf.obj
 0002:000c27c0       setvbuf                    000000014017d7c0 f   libucrtd:setvbuf.obj
 0002:000c2b30       _ungetc_nolock             000000014017db30 f   libucrtd:ungetc.obj
 0002:000c2fb0       ungetc                     000000014017dfb0 f   libucrtd:ungetc.obj
 0002:000c30e0       ??$?0AEBV?$stream_output_adapter@D@__crt_stdio_output@@AEB_KAEBQEBDAEBQEAU__crt_locale_pointers@@AEBQEAD@?$format_validation_base@DV?$stream_output_adapter@D@__crt_stdio_output@@@__crt_stdio_output@@IEAA@AEBV?$stream_output_adapter@D@1@AEB_KAEBQEBDAEBQEAU__crt_locale_pointers@@AEBQEAD@Z 000000014017e0e0 f i libucrtd:output.obj
 0002:000c3150       ??$?0AEBV?$stream_output_adapter@D@__crt_stdio_output@@AEB_KAEBQEBDAEBQEAU__crt_locale_pointers@@AEBQEAD@?$positional_parameter_base@DV?$stream_output_adapter@D@__crt_stdio_output@@@__crt_stdio_output@@IEAA@AEBV?$stream_output_adapter@D@1@AEB_KAEBQEBDAEBQEAU__crt_locale_pointers@@AEBQEAD@Z 000000014017e150 f i libucrtd:output.obj
 0002:000c3220       ??$?0AEBV?$stream_output_adapter@D@__crt_stdio_output@@AEB_KAEBQEBDAEBQEAU__crt_locale_pointers@@AEBQEAD@?$standard_base@DV?$stream_output_adapter@D@__crt_stdio_output@@@__crt_stdio_output@@IEAA@AEBV?$stream_output_adapter@D@1@AEB_KAEBQEBDAEBQEAU__crt_locale_pointers@@AEBQEAD@Z 000000014017e220 f i libucrtd:output.obj
 0002:000c32b0       ??$?0AEBV?$stream_output_adapter@_W@__crt_stdio_output@@AEB_KAEBQEB_WAEBQEAU__crt_locale_pointers@@AEBQEAD@?$format_validation_base@_WV?$stream_output_adapter@_W@__crt_stdio_output@@@__crt_stdio_output@@IEAA@AEBV?$stream_output_adapter@_W@1@AEB_KAEBQEB_WAEBQEAU__crt_locale_pointers@@AEBQEAD@Z 000000014017e2b0 f i libucrtd:output.obj
 0002:000c3320       ??$?0AEBV?$stream_output_adapter@_W@__crt_stdio_output@@AEB_KAEBQEB_WAEBQEAU__crt_locale_pointers@@AEBQEAD@?$positional_parameter_base@_WV?$stream_output_adapter@_W@__crt_stdio_output@@@__crt_stdio_output@@IEAA@AEBV?$stream_output_adapter@_W@1@AEB_KAEBQEB_WAEBQEAU__crt_locale_pointers@@AEBQEAD@Z 000000014017e320 f i libucrtd:output.obj
 0002:000c33f0       ??$?0AEBV?$stream_output_adapter@_W@__crt_stdio_output@@AEB_KAEBQEB_WAEBQEAU__crt_locale_pointers@@AEBQEAD@?$standard_base@_WV?$stream_output_adapter@_W@__crt_stdio_output@@@__crt_stdio_output@@IEAA@AEBV?$stream_output_adapter@_W@1@AEB_KAEBQEB_WAEBQEAU__crt_locale_pointers@@AEBQEAD@Z 000000014017e3f0 f i libucrtd:output.obj
 0002:000c3480       ??$?0AEBV?$string_output_adapter@D@__crt_stdio_output@@AEB_KAEBQEBDAEBQEAU__crt_locale_pointers@@AEBQEAD@?$format_validation_base@DV?$string_output_adapter@D@__crt_stdio_output@@@__crt_stdio_output@@IEAA@AEBV?$string_output_adapter@D@1@AEB_KAEBQEBDAEBQEAU__crt_locale_pointers@@AEBQEAD@Z 000000014017e480 f i libucrtd:output.obj
 0002:000c34f0       ??$?0AEBV?$string_output_adapter@D@__crt_stdio_output@@AEB_KAEBQEBDAEBQEAU__crt_locale_pointers@@AEBQEAD@?$positional_parameter_base@DV?$string_output_adapter@D@__crt_stdio_output@@@__crt_stdio_output@@IEAA@AEBV?$string_output_adapter@D@1@AEB_KAEBQEBDAEBQEAU__crt_locale_pointers@@AEBQEAD@Z 000000014017e4f0 f i libucrtd:output.obj
 0002:000c35c0       ??$?0AEBV?$string_output_adapter@D@__crt_stdio_output@@AEB_KAEBQEBDAEBQEAU__crt_locale_pointers@@AEBQEAD@?$standard_base@DV?$string_output_adapter@D@__crt_stdio_output@@@__crt_stdio_output@@IEAA@AEBV?$string_output_adapter@D@1@AEB_KAEBQEBDAEBQEAU__crt_locale_pointers@@AEBQEAD@Z 000000014017e5c0 f i libucrtd:output.obj
 0002:000c3650       ??$?0AEBV?$string_output_adapter@_W@__crt_stdio_output@@AEB_KAEBQEB_WAEBQEAU__crt_locale_pointers@@AEBQEAD@?$format_validation_base@_WV?$string_output_adapter@_W@__crt_stdio_output@@@__crt_stdio_output@@IEAA@AEBV?$string_output_adapter@_W@1@AEB_KAEBQEB_WAEBQEAU__crt_locale_pointers@@AEBQEAD@Z 000000014017e650 f i libucrtd:output.obj
 0002:000c36c0       ??$?0AEBV?$string_output_adapter@_W@__crt_stdio_output@@AEB_KAEBQEB_WAEBQEAU__crt_locale_pointers@@AEBQEAD@?$positional_parameter_base@_WV?$string_output_adapter@_W@__crt_stdio_output@@@__crt_stdio_output@@IEAA@AEBV?$string_output_adapter@_W@1@AEB_KAEBQEB_WAEBQEAU__crt_locale_pointers@@AEBQEAD@Z 000000014017e6c0 f i libucrtd:output.obj
 0002:000c3790       ??$?0AEBV?$string_output_adapter@_W@__crt_stdio_output@@AEB_KAEBQEB_WAEBQEAU__crt_locale_pointers@@AEBQEAD@?$standard_base@_WV?$string_output_adapter@_W@__crt_stdio_output@@@__crt_stdio_output@@IEAA@AEBV?$string_output_adapter@_W@1@AEB_KAEBQEB_WAEBQEAU__crt_locale_pointers@@AEBQEAD@Z 000000014017e790 f i libucrtd:output.obj
 0002:000c8650       ??$count@D@formatting_buffer@__crt_stdio_output@@QEBA_KXZ 0000000140183650 f i libucrtd:output.obj
 0002:000c86b0       ??$count@_W@formatting_buffer@__crt_stdio_output@@QEBA_KXZ 00000001401836b0 f i libucrtd:output.obj
 0002:000c8720       ??$data@D@formatting_buffer@__crt_stdio_output@@QEAAPEADXZ 0000000140183720 f i libucrtd:output.obj
 0002:000c8780       ??$data@_W@formatting_buffer@__crt_stdio_output@@QEAAPEA_WXZ 0000000140183780 f i libucrtd:output.obj
 0002:000c87e0       ??$ensure_buffer_is_big_enough@D@formatting_buffer@__crt_stdio_output@@QEAA_N_K@Z 00000001401837e0 f i libucrtd:output.obj
 0002:000c8950       ??$extract_argument_from_va_list@C_J@?$positional_parameter_base@DV?$stream_output_adapter@D@__crt_stdio_output@@@__crt_stdio_output@@IEAA_NAEA_J@Z 0000000140183950 f i libucrtd:output.obj
 0002:000c8b30       ??$extract_argument_from_va_list@C_J@?$positional_parameter_base@DV?$string_output_adapter@D@__crt_stdio_output@@@__crt_stdio_output@@IEAA_NAEA_J@Z 0000000140183b30 f i libucrtd:output.obj
 0002:000c8d10       ??$extract_argument_from_va_list@C_J@?$positional_parameter_base@_WV?$stream_output_adapter@_W@__crt_stdio_output@@@__crt_stdio_output@@IEAA_NAEA_J@Z 0000000140183d10 f i libucrtd:output.obj
 0002:000c8ef0       ??$extract_argument_from_va_list@C_J@?$positional_parameter_base@_WV?$string_output_adapter@_W@__crt_stdio_output@@@__crt_stdio_output@@IEAA_NAEA_J@Z 0000000140183ef0 f i libucrtd:output.obj
 0002:000c90d0       ??$extract_argument_from_va_list@C_J@?$standard_base@DV?$stream_output_adapter@D@__crt_stdio_output@@@__crt_stdio_output@@IEAA_NAEA_J@Z 00000001401840d0 f i libucrtd:output.obj
 0002:000c9110       ??$extract_argument_from_va_list@C_J@?$standard_base@DV?$string_output_adapter@D@__crt_stdio_output@@@__crt_stdio_output@@IEAA_NAEA_J@Z 0000000140184110 f i libucrtd:output.obj
 0002:000c9150       ??$extract_argument_from_va_list@C_J@?$standard_base@_WV?$stream_output_adapter@_W@__crt_stdio_output@@@__crt_stdio_output@@IEAA_NAEA_J@Z 0000000140184150 f i libucrtd:output.obj
 0002:000c9190       ??$extract_argument_from_va_list@C_J@?$standard_base@_WV?$string_output_adapter@_W@__crt_stdio_output@@@__crt_stdio_output@@IEAA_NAEA_J@Z 0000000140184190 f i libucrtd:output.obj
 0002:000c91d0       ??$extract_argument_from_va_list@E_J@?$positional_parameter_base@DV?$stream_output_adapter@D@__crt_stdio_output@@@__crt_stdio_output@@IEAA_NAEA_J@Z 00000001401841d0 f i libucrtd:output.obj
 0002:000c93b0       ??$extract_argument_from_va_list@E_J@?$positional_parameter_base@DV?$string_output_adapter@D@__crt_stdio_output@@@__crt_stdio_output@@IEAA_NAEA_J@Z 00000001401843b0 f i libucrtd:output.obj
 0002:000c9590       ??$extract_argument_from_va_list@E_J@?$positional_parameter_base@_WV?$stream_output_adapter@_W@__crt_stdio_output@@@__crt_stdio_output@@IEAA_NAEA_J@Z 0000000140184590 f i libucrtd:output.obj
 0002:000c9770       ??$extract_argument_from_va_list@E_J@?$positional_parameter_base@_WV?$string_output_adapter@_W@__crt_stdio_output@@@__crt_stdio_output@@IEAA_NAEA_J@Z 0000000140184770 f i libucrtd:output.obj
 0002:000c9950       ??$extract_argument_from_va_list@E_J@?$standard_base@DV?$stream_output_adapter@D@__crt_stdio_output@@@__crt_stdio_output@@IEAA_NAEA_J@Z 0000000140184950 f i libucrtd:output.obj
 0002:000c9990       ??$extract_argument_from_va_list@E_J@?$standard_base@DV?$string_output_adapter@D@__crt_stdio_output@@@__crt_stdio_output@@IEAA_NAEA_J@Z 0000000140184990 f i libucrtd:output.obj
 0002:000c99d0       ??$extract_argument_from_va_list@E_J@?$standard_base@_WV?$stream_output_adapter@_W@__crt_stdio_output@@@__crt_stdio_output@@IEAA_NAEA_J@Z 00000001401849d0 f i libucrtd:output.obj
 0002:000c9a10       ??$extract_argument_from_va_list@E_J@?$standard_base@_WV?$string_output_adapter@_W@__crt_stdio_output@@@__crt_stdio_output@@IEAA_NAEA_J@Z 0000000140184a10 f i libucrtd:output.obj
 0002:000c9a50       ??$extract_argument_from_va_list@F_J@?$positional_parameter_base@DV?$stream_output_adapter@D@__crt_stdio_output@@@__crt_stdio_output@@IEAA_NAEA_J@Z 0000000140184a50 f i libucrtd:output.obj
 0002:000c9c30       ??$extract_argument_from_va_list@F_J@?$positional_parameter_base@DV?$string_output_adapter@D@__crt_stdio_output@@@__crt_stdio_output@@IEAA_NAEA_J@Z 0000000140184c30 f i libucrtd:output.obj
 0002:000c9e10       ??$extract_argument_from_va_list@F_J@?$positional_parameter_base@_WV?$stream_output_adapter@_W@__crt_stdio_output@@@__crt_stdio_output@@IEAA_NAEA_J@Z 0000000140184e10 f i libucrtd:output.obj
 0002:000c9ff0       ??$extract_argument_from_va_list@F_J@?$positional_parameter_base@_WV?$string_output_adapter@_W@__crt_stdio_output@@@__crt_stdio_output@@IEAA_NAEA_J@Z 0000000140184ff0 f i libucrtd:output.obj
 0002:000ca1d0       ??$extract_argument_from_va_list@F_J@?$standard_base@DV?$stream_output_adapter@D@__crt_stdio_output@@@__crt_stdio_output@@IEAA_NAEA_J@Z 00000001401851d0 f i libucrtd:output.obj
 0002:000ca210       ??$extract_argument_from_va_list@F_J@?$standard_base@DV?$string_output_adapter@D@__crt_stdio_output@@@__crt_stdio_output@@IEAA_NAEA_J@Z 0000000140185210 f i libucrtd:output.obj
 0002:000ca250       ??$extract_argument_from_va_list@F_J@?$standard_base@_WV?$stream_output_adapter@_W@__crt_stdio_output@@@__crt_stdio_output@@IEAA_NAEA_J@Z 0000000140185250 f i libucrtd:output.obj
 0002:000ca290       ??$extract_argument_from_va_list@F_J@?$standard_base@_WV?$string_output_adapter@_W@__crt_stdio_output@@@__crt_stdio_output@@IEAA_NAEA_J@Z 0000000140185290 f i libucrtd:output.obj
 0002:000ca2d0       ??$extract_argument_from_va_list@GD@?$positional_parameter_base@DV?$stream_output_adapter@D@__crt_stdio_output@@@__crt_stdio_output@@IEAA_NAEAD@Z 00000001401852d0 f i libucrtd:output.obj
 0002:000ca4b0       ??$extract_argument_from_va_list@GD@?$positional_parameter_base@DV?$string_output_adapter@D@__crt_stdio_output@@@__crt_stdio_output@@IEAA_NAEAD@Z 00000001401854b0 f i libucrtd:output.obj
 0002:000ca690       ??$extract_argument_from_va_list@GD@?$standard_base@DV?$stream_output_adapter@D@__crt_stdio_output@@@__crt_stdio_output@@IEAA_NAEAD@Z 0000000140185690 f i libucrtd:output.obj
 0002:000ca6d0       ??$extract_argument_from_va_list@GD@?$standard_base@DV?$string_output_adapter@D@__crt_stdio_output@@@__crt_stdio_output@@IEAA_NAEAD@Z 00000001401856d0 f i libucrtd:output.obj
 0002:000ca710       ??$extract_argument_from_va_list@G_J@?$positional_parameter_base@DV?$stream_output_adapter@D@__crt_stdio_output@@@__crt_stdio_output@@IEAA_NAEA_J@Z 0000000140185710 f i libucrtd:output.obj
 0002:000ca8f0       ??$extract_argument_from_va_list@G_J@?$positional_parameter_base@DV?$string_output_adapter@D@__crt_stdio_output@@@__crt_stdio_output@@IEAA_NAEA_J@Z 00000001401858f0 f i libucrtd:output.obj
 0002:000caad0       ??$extract_argument_from_va_list@G_J@?$positional_parameter_base@_WV?$stream_output_adapter@_W@__crt_stdio_output@@@__crt_stdio_output@@IEAA_NAEA_J@Z 0000000140185ad0 f i libucrtd:output.obj
 0002:000cacb0       ??$extract_argument_from_va_list@G_J@?$positional_parameter_base@_WV?$string_output_adapter@_W@__crt_stdio_output@@@__crt_stdio_output@@IEAA_NAEA_J@Z 0000000140185cb0 f i libucrtd:output.obj
 0002:000cae90       ??$extract_argument_from_va_list@G_J@?$standard_base@DV?$stream_output_adapter@D@__crt_stdio_output@@@__crt_stdio_output@@IEAA_NAEA_J@Z 0000000140185e90 f i libucrtd:output.obj
 0002:000caed0       ??$extract_argument_from_va_list@G_J@?$standard_base@DV?$string_output_adapter@D@__crt_stdio_output@@@__crt_stdio_output@@IEAA_NAEA_J@Z 0000000140185ed0 f i libucrtd:output.obj
 0002:000caf10       ??$extract_argument_from_va_list@G_J@?$standard_base@_WV?$stream_output_adapter@_W@__crt_stdio_output@@@__crt_stdio_output@@IEAA_NAEA_J@Z 0000000140185f10 f i libucrtd:output.obj
 0002:000caf50       ??$extract_argument_from_va_list@G_J@?$standard_base@_WV?$string_output_adapter@_W@__crt_stdio_output@@@__crt_stdio_output@@IEAA_NAEA_J@Z 0000000140185f50 f i libucrtd:output.obj
 0002:000caf90       ??$extract_argument_from_va_list@H_J@?$positional_parameter_base@DV?$stream_output_adapter@D@__crt_stdio_output@@@__crt_stdio_output@@IEAA_NAEA_J@Z 0000000140185f90 f i libucrtd:output.obj
 0002:000cb170       ??$extract_argument_from_va_list@H_J@?$positional_parameter_base@DV?$string_output_adapter@D@__crt_stdio_output@@@__crt_stdio_output@@IEAA_NAEA_J@Z 0000000140186170 f i libucrtd:output.obj
 0002:000cb350       ??$extract_argument_from_va_list@H_J@?$positional_parameter_base@_WV?$stream_output_adapter@_W@__crt_stdio_output@@@__crt_stdio_output@@IEAA_NAEA_J@Z 0000000140186350 f i libucrtd:output.obj
 0002:000cb530       ??$extract_argument_from_va_list@H_J@?$positional_parameter_base@_WV?$string_output_adapter@_W@__crt_stdio_output@@@__crt_stdio_output@@IEAA_NAEA_J@Z 0000000140186530 f i libucrtd:output.obj
 0002:000cb710       ??$extract_argument_from_va_list@H_J@?$standard_base@DV?$stream_output_adapter@D@__crt_stdio_output@@@__crt_stdio_output@@IEAA_NAEA_J@Z 0000000140186710 f i libucrtd:output.obj
 0002:000cb750       ??$extract_argument_from_va_list@H_J@?$standard_base@DV?$string_output_adapter@D@__crt_stdio_output@@@__crt_stdio_output@@IEAA_NAEA_J@Z 0000000140186750 f i libucrtd:output.obj
 0002:000cb790       ??$extract_argument_from_va_list@H_J@?$standard_base@_WV?$stream_output_adapter@_W@__crt_stdio_output@@@__crt_stdio_output@@IEAA_NAEA_J@Z 0000000140186790 f i libucrtd:output.obj
 0002:000cb7d0       ??$extract_argument_from_va_list@H_J@?$standard_base@_WV?$string_output_adapter@_W@__crt_stdio_output@@@__crt_stdio_output@@IEAA_NAEA_J@Z 00000001401867d0 f i libucrtd:output.obj
 0002:000cb810       ??$extract_argument_from_va_list@I_J@?$positional_parameter_base@DV?$stream_output_adapter@D@__crt_stdio_output@@@__crt_stdio_output@@IEAA_NAEA_J@Z 0000000140186810 f i libucrtd:output.obj
 0002:000cb9f0       ??$extract_argument_from_va_list@I_J@?$positional_parameter_base@DV?$string_output_adapter@D@__crt_stdio_output@@@__crt_stdio_output@@IEAA_NAEA_J@Z 00000001401869f0 f i libucrtd:output.obj
 0002:000cbbd0       ??$extract_argument_from_va_list@I_J@?$positional_parameter_base@_WV?$stream_output_adapter@_W@__crt_stdio_output@@@__crt_stdio_output@@IEAA_NAEA_J@Z 0000000140186bd0 f i libucrtd:output.obj
 0002:000cbdb0       ??$extract_argument_from_va_list@I_J@?$positional_parameter_base@_WV?$string_output_adapter@_W@__crt_stdio_output@@@__crt_stdio_output@@IEAA_NAEA_J@Z 0000000140186db0 f i libucrtd:output.obj
 0002:000cbf90       ??$extract_argument_from_va_list@I_J@?$standard_base@DV?$stream_output_adapter@D@__crt_stdio_output@@@__crt_stdio_output@@IEAA_NAEA_J@Z 0000000140186f90 f i libucrtd:output.obj
 0002:000cbfd0       ??$extract_argument_from_va_list@I_J@?$standard_base@DV?$string_output_adapter@D@__crt_stdio_output@@@__crt_stdio_output@@IEAA_NAEA_J@Z 0000000140186fd0 f i libucrtd:output.obj
 0002:000cc010       ??$extract_argument_from_va_list@I_J@?$standard_base@_WV?$stream_output_adapter@_W@__crt_stdio_output@@@__crt_stdio_output@@IEAA_NAEA_J@Z 0000000140187010 f i libucrtd:output.obj
 0002:000cc050       ??$extract_argument_from_va_list@I_J@?$standard_base@_WV?$string_output_adapter@_W@__crt_stdio_output@@@__crt_stdio_output@@IEAA_NAEA_J@Z 0000000140187050 f i libucrtd:output.obj
 0002:000cc090       ??$extract_argument_from_va_list@PEADPEAD@?$positional_parameter_base@DV?$stream_output_adapter@D@__crt_stdio_output@@@__crt_stdio_output@@IEAA_NAEAPEAD@Z 0000000140187090 f i libucrtd:output.obj
 0002:000cc270       ??$extract_argument_from_va_list@PEADPEAD@?$positional_parameter_base@DV?$string_output_adapter@D@__crt_stdio_output@@@__crt_stdio_output@@IEAA_NAEAPEAD@Z 0000000140187270 f i libucrtd:output.obj
 0002:000cc450       ??$extract_argument_from_va_list@PEADPEAD@?$positional_parameter_base@_WV?$stream_output_adapter@_W@__crt_stdio_output@@@__crt_stdio_output@@IEAA_NAEAPEAD@Z 0000000140187450 f i libucrtd:output.obj
 0002:000cc630       ??$extract_argument_from_va_list@PEADPEAD@?$positional_parameter_base@_WV?$string_output_adapter@_W@__crt_stdio_output@@@__crt_stdio_output@@IEAA_NAEAPEAD@Z 0000000140187630 f i libucrtd:output.obj
 0002:000cc810       ??$extract_argument_from_va_list@PEADPEAD@?$standard_base@DV?$stream_output_adapter@D@__crt_stdio_output@@@__crt_stdio_output@@IEAA_NAEAPEAD@Z 0000000140187810 f i libucrtd:output.obj
 0002:000cc850       ??$extract_argument_from_va_list@PEADPEAD@?$standard_base@DV?$string_output_adapter@D@__crt_stdio_output@@@__crt_stdio_output@@IEAA_NAEAPEAD@Z 0000000140187850 f i libucrtd:output.obj
 0002:000cc890       ??$extract_argument_from_va_list@PEADPEAD@?$standard_base@_WV?$stream_output_adapter@_W@__crt_stdio_output@@@__crt_stdio_output@@IEAA_NAEAPEAD@Z 0000000140187890 f i libucrtd:output.obj
 0002:000cc8d0       ??$extract_argument_from_va_list@PEADPEAD@?$standard_base@_WV?$string_output_adapter@_W@__crt_stdio_output@@@__crt_stdio_output@@IEAA_NAEAPEAD@Z 00000001401878d0 f i libucrtd:output.obj
 0002:000cd390       ??$extract_argument_from_va_list@PEAXPEAX@?$positional_parameter_base@DV?$stream_output_adapter@D@__crt_stdio_output@@@__crt_stdio_output@@IEAA_NAEAPEAX@Z 0000000140188390 f i libucrtd:output.obj
 0002:000cd570       ??$extract_argument_from_va_list@PEAXPEAX@?$positional_parameter_base@DV?$string_output_adapter@D@__crt_stdio_output@@@__crt_stdio_output@@IEAA_NAEAPEAX@Z 0000000140188570 f i libucrtd:output.obj
 0002:000cd750       ??$extract_argument_from_va_list@PEAXPEAX@?$positional_parameter_base@_WV?$stream_output_adapter@_W@__crt_stdio_output@@@__crt_stdio_output@@IEAA_NAEAPEAX@Z 0000000140188750 f i libucrtd:output.obj
 0002:000cd930       ??$extract_argument_from_va_list@PEAXPEAX@?$positional_parameter_base@_WV?$string_output_adapter@_W@__crt_stdio_output@@@__crt_stdio_output@@IEAA_NAEAPEAX@Z 0000000140188930 f i libucrtd:output.obj
 0002:000cdb10       ??$extract_argument_from_va_list@PEAXPEAX@?$standard_base@DV?$stream_output_adapter@D@__crt_stdio_output@@@__crt_stdio_output@@IEAA_NAEAPEAX@Z 0000000140188b10 f i libucrtd:output.obj
 0002:000cdb50       ??$extract_argument_from_va_list@PEAXPEAX@?$standard_base@DV?$string_output_adapter@D@__crt_stdio_output@@@__crt_stdio_output@@IEAA_NAEAPEAX@Z 0000000140188b50 f i libucrtd:output.obj
 0002:000cdb90       ??$extract_argument_from_va_list@PEAXPEAX@?$standard_base@_WV?$stream_output_adapter@_W@__crt_stdio_output@@@__crt_stdio_output@@IEAA_NAEAPEAX@Z 0000000140188b90 f i libucrtd:output.obj
 0002:000cdbd0       ??$extract_argument_from_va_list@PEAXPEAX@?$standard_base@_WV?$string_output_adapter@_W@__crt_stdio_output@@@__crt_stdio_output@@IEAA_NAEAPEAX@Z 0000000140188bd0 f i libucrtd:output.obj
 0002:000cdc10       ??$extract_argument_from_va_list@U_CRT_DOUBLE@@U1@@?$positional_parameter_base@DV?$stream_output_adapter@D@__crt_stdio_output@@@__crt_stdio_output@@IEAA_NAEAU_CRT_DOUBLE@@@Z 0000000140188c10 f i libucrtd:output.obj
 0002:000cde20       ??$extract_argument_from_va_list@U_CRT_DOUBLE@@U1@@?$positional_parameter_base@DV?$string_output_adapter@D@__crt_stdio_output@@@__crt_stdio_output@@IEAA_NAEAU_CRT_DOUBLE@@@Z 0000000140188e20 f i libucrtd:output.obj
 0002:000ce030       ??$extract_argument_from_va_list@U_CRT_DOUBLE@@U1@@?$positional_parameter_base@_WV?$stream_output_adapter@_W@__crt_stdio_output@@@__crt_stdio_output@@IEAA_NAEAU_CRT_DOUBLE@@@Z 0000000140189030 f i libucrtd:output.obj
 0002:000ce240       ??$extract_argument_from_va_list@U_CRT_DOUBLE@@U1@@?$positional_parameter_base@_WV?$string_output_adapter@_W@__crt_stdio_output@@@__crt_stdio_output@@IEAA_NAEAU_CRT_DOUBLE@@@Z 0000000140189240 f i libucrtd:output.obj
 0002:000ce450       ??$extract_argument_from_va_list@U_CRT_DOUBLE@@U1@@?$standard_base@DV?$stream_output_adapter@D@__crt_stdio_output@@@__crt_stdio_output@@IEAA_NAEAU_CRT_DOUBLE@@@Z 0000000140189450 f i libucrtd:output.obj
 0002:000ce4b0       ??$extract_argument_from_va_list@U_CRT_DOUBLE@@U1@@?$standard_base@DV?$string_output_adapter@D@__crt_stdio_output@@@__crt_stdio_output@@IEAA_NAEAU_CRT_DOUBLE@@@Z 00000001401894b0 f i libucrtd:output.obj
 0002:000ce510       ??$extract_argument_from_va_list@U_CRT_DOUBLE@@U1@@?$standard_base@_WV?$stream_output_adapter@_W@__crt_stdio_output@@@__crt_stdio_output@@IEAA_NAEAU_CRT_DOUBLE@@@Z 0000000140189510 f i libucrtd:output.obj
 0002:000ce570       ??$extract_argument_from_va_list@U_CRT_DOUBLE@@U1@@?$standard_base@_WV?$string_output_adapter@_W@__crt_stdio_output@@@__crt_stdio_output@@IEAA_NAEAU_CRT_DOUBLE@@@Z 0000000140189570 f i libucrtd:output.obj
 0002:000ce5d0       ??$extract_argument_from_va_list@_J_J@?$positional_parameter_base@DV?$stream_output_adapter@D@__crt_stdio_output@@@__crt_stdio_output@@IEAA_NAEA_J@Z 00000001401895d0 f i libucrtd:output.obj
 0002:000ce7b0       ??$extract_argument_from_va_list@_J_J@?$positional_parameter_base@DV?$string_output_adapter@D@__crt_stdio_output@@@__crt_stdio_output@@IEAA_NAEA_J@Z 00000001401897b0 f i libucrtd:output.obj
 0002:000ce990       ??$extract_argument_from_va_list@_J_J@?$positional_parameter_base@_WV?$stream_output_adapter@_W@__crt_stdio_output@@@__crt_stdio_output@@IEAA_NAEA_J@Z 0000000140189990 f i libucrtd:output.obj
 0002:000ceb70       ??$extract_argument_from_va_list@_J_J@?$positional_parameter_base@_WV?$string_output_adapter@_W@__crt_stdio_output@@@__crt_stdio_output@@IEAA_NAEA_J@Z 0000000140189b70 f i libucrtd:output.obj
 0002:000ced50       ??$extract_argument_from_va_list@_J_J@?$standard_base@DV?$stream_output_adapter@D@__crt_stdio_output@@@__crt_stdio_output@@IEAA_NAEA_J@Z 0000000140189d50 f i libucrtd:output.obj
 0002:000ced90       ??$extract_argument_from_va_list@_J_J@?$standard_base@DV?$string_output_adapter@D@__crt_stdio_output@@@__crt_stdio_output@@IEAA_NAEA_J@Z 0000000140189d90 f i libucrtd:output.obj
 0002:000cedd0       ??$extract_argument_from_va_list@_J_J@?$standard_base@_WV?$stream_output_adapter@_W@__crt_stdio_output@@@__crt_stdio_output@@IEAA_NAEA_J@Z 0000000140189dd0 f i libucrtd:output.obj
 0002:000cee10       ??$extract_argument_from_va_list@_J_J@?$standard_base@_WV?$string_output_adapter@_W@__crt_stdio_output@@@__crt_stdio_output@@IEAA_NAEA_J@Z 0000000140189e10 f i libucrtd:output.obj
 0002:000cee50       ??$extract_argument_from_va_list@_K_J@?$positional_parameter_base@DV?$stream_output_adapter@D@__crt_stdio_output@@@__crt_stdio_output@@IEAA_NAEA_J@Z 0000000140189e50 f i libucrtd:output.obj
 0002:000cf030       ??$extract_argument_from_va_list@_K_J@?$positional_parameter_base@DV?$string_output_adapter@D@__crt_stdio_output@@@__crt_stdio_output@@IEAA_NAEA_J@Z 000000014018a030 f i libucrtd:output.obj
 0002:000cf210       ??$extract_argument_from_va_list@_K_J@?$positional_parameter_base@_WV?$stream_output_adapter@_W@__crt_stdio_output@@@__crt_stdio_output@@IEAA_NAEA_J@Z 000000014018a210 f i libucrtd:output.obj
 0002:000cf3f0       ??$extract_argument_from_va_list@_K_J@?$positional_parameter_base@_WV?$string_output_adapter@_W@__crt_stdio_output@@@__crt_stdio_output@@IEAA_NAEA_J@Z 000000014018a3f0 f i libucrtd:output.obj
 0002:000cf5d0       ??$extract_argument_from_va_list@_K_J@?$standard_base@DV?$stream_output_adapter@D@__crt_stdio_output@@@__crt_stdio_output@@IEAA_NAEA_J@Z 000000014018a5d0 f i libucrtd:output.obj
 0002:000cf610       ??$extract_argument_from_va_list@_K_J@?$standard_base@DV?$string_output_adapter@D@__crt_stdio_output@@@__crt_stdio_output@@IEAA_NAEA_J@Z 000000014018a610 f i libucrtd:output.obj
 0002:000cf650       ??$extract_argument_from_va_list@_K_J@?$standard_base@_WV?$stream_output_adapter@_W@__crt_stdio_output@@@__crt_stdio_output@@IEAA_NAEA_J@Z 000000014018a650 f i libucrtd:output.obj
 0002:000cf690       ??$extract_argument_from_va_list@_K_J@?$standard_base@_WV?$string_output_adapter@_W@__crt_stdio_output@@@__crt_stdio_output@@IEAA_NAEA_J@Z 000000014018a690 f i libucrtd:output.obj
 0002:000cf6d0       ??$extract_argument_from_va_list@_W_W@?$positional_parameter_base@DV?$stream_output_adapter@D@__crt_stdio_output@@@__crt_stdio_output@@IEAA_NAEA_W@Z 000000014018a6d0 f i libucrtd:output.obj
 0002:000cf8b0       ??$extract_argument_from_va_list@_W_W@?$positional_parameter_base@DV?$string_output_adapter@D@__crt_stdio_output@@@__crt_stdio_output@@IEAA_NAEA_W@Z 000000014018a8b0 f i libucrtd:output.obj
 0002:000cfa90       ??$extract_argument_from_va_list@_W_W@?$positional_parameter_base@_WV?$stream_output_adapter@_W@__crt_stdio_output@@@__crt_stdio_output@@IEAA_NAEA_W@Z 000000014018aa90 f i libucrtd:output.obj
 0002:000cfc70       ??$extract_argument_from_va_list@_W_W@?$positional_parameter_base@_WV?$string_output_adapter@_W@__crt_stdio_output@@@__crt_stdio_output@@IEAA_NAEA_W@Z 000000014018ac70 f i libucrtd:output.obj
 0002:000cfe50       ??$extract_argument_from_va_list@_W_W@?$standard_base@DV?$stream_output_adapter@D@__crt_stdio_output@@@__crt_stdio_output@@IEAA_NAEA_W@Z 000000014018ae50 f i libucrtd:output.obj
 0002:000cfe90       ??$extract_argument_from_va_list@_W_W@?$standard_base@DV?$string_output_adapter@D@__crt_stdio_output@@@__crt_stdio_output@@IEAA_NAEA_W@Z 000000014018ae90 f i libucrtd:output.obj
 0002:000cfed0       ??$extract_argument_from_va_list@_W_W@?$standard_base@_WV?$stream_output_adapter@_W@__crt_stdio_output@@@__crt_stdio_output@@IEAA_NAEA_W@Z 000000014018aed0 f i libucrtd:output.obj
 0002:000cff10       ??$extract_argument_from_va_list@_W_W@?$standard_base@_WV?$string_output_adapter@_W@__crt_stdio_output@@@__crt_stdio_output@@IEAA_NAEA_W@Z 000000014018af10 f i libucrtd:output.obj
 0002:000cff50       ??$get_parameter_type@D@?$positional_parameter_base@DV?$stream_output_adapter@D@__crt_stdio_output@@@__crt_stdio_output@@CA?AW4parameter_type@01@PEAD@Z 000000014018af50 f i libucrtd:output.obj
 0002:000cff60       ??$get_parameter_type@D@?$positional_parameter_base@DV?$string_output_adapter@D@__crt_stdio_output@@@__crt_stdio_output@@CA?AW4parameter_type@01@PEAD@Z 000000014018af60 f i libucrtd:output.obj
 0002:000cff70       ??$get_parameter_type@D@?$positional_parameter_base@_WV?$stream_output_adapter@_W@__crt_stdio_output@@@__crt_stdio_output@@CA?AW4parameter_type@01@PEAD@Z 000000014018af70 f i libucrtd:output.obj
 0002:000cff80       ??$get_parameter_type@D@?$positional_parameter_base@_WV?$string_output_adapter@_W@__crt_stdio_output@@@__crt_stdio_output@@CA?AW4parameter_type@01@PEAD@Z 000000014018af80 f i libucrtd:output.obj
 0002:000cffd0       ??$get_parameter_type@X@?$positional_parameter_base@DV?$stream_output_adapter@D@__crt_stdio_output@@@__crt_stdio_output@@CA?AW4parameter_type@01@PEAX@Z 000000014018afd0 f i libucrtd:output.obj
 0002:000cffe0       ??$get_parameter_type@X@?$positional_parameter_base@DV?$string_output_adapter@D@__crt_stdio_output@@@__crt_stdio_output@@CA?AW4parameter_type@01@PEAX@Z 000000014018afe0 f i libucrtd:output.obj
 0002:000cfff0       ??$get_parameter_type@X@?$positional_parameter_base@_WV?$stream_output_adapter@_W@__crt_stdio_output@@@__crt_stdio_output@@CA?AW4parameter_type@01@PEAX@Z 000000014018aff0 f i libucrtd:output.obj
 0002:000d0000       ??$get_parameter_type@X@?$positional_parameter_base@_WV?$string_output_adapter@_W@__crt_stdio_output@@@__crt_stdio_output@@CA?AW4parameter_type@01@PEAX@Z 000000014018b000 f i libucrtd:output.obj
 0002:000d0010       ??$is_character_specifier@D@?$positional_parameter_base@DV?$stream_output_adapter@D@__crt_stdio_output@@@__crt_stdio_output@@CA_ND@Z 000000014018b010 f i libucrtd:output.obj
 0002:000d0060       ??$is_character_specifier@D@?$positional_parameter_base@DV?$string_output_adapter@D@__crt_stdio_output@@@__crt_stdio_output@@CA_ND@Z 000000014018b060 f i libucrtd:output.obj
 0002:000d00b0       ??$is_character_specifier@_W@?$positional_parameter_base@_WV?$stream_output_adapter@_W@__crt_stdio_output@@@__crt_stdio_output@@CA_N_W@Z 000000014018b0b0 f i libucrtd:output.obj
 0002:000d0100       ??$is_character_specifier@_W@?$positional_parameter_base@_WV?$string_output_adapter@_W@__crt_stdio_output@@@__crt_stdio_output@@CA_N_W@Z 000000014018b100 f i libucrtd:output.obj
 0002:000d0150       ??$is_integral_specifier@D@?$positional_parameter_base@DV?$stream_output_adapter@D@__crt_stdio_output@@@__crt_stdio_output@@CA_ND@Z 000000014018b150 f i libucrtd:output.obj
 0002:000d01d0       ??$is_integral_specifier@D@?$positional_parameter_base@DV?$string_output_adapter@D@__crt_stdio_output@@@__crt_stdio_output@@CA_ND@Z 000000014018b1d0 f i libucrtd:output.obj
 0002:000d0250       ??$is_integral_specifier@_W@?$positional_parameter_base@_WV?$stream_output_adapter@_W@__crt_stdio_output@@@__crt_stdio_output@@CA_N_W@Z 000000014018b250 f i libucrtd:output.obj
 0002:000d02e0       ??$is_integral_specifier@_W@?$positional_parameter_base@_WV?$string_output_adapter@_W@__crt_stdio_output@@@__crt_stdio_output@@CA_N_W@Z 000000014018b2e0 f i libucrtd:output.obj
 0002:000d0370       ??$is_pointer_specifier@D@?$positional_parameter_base@DV?$stream_output_adapter@D@__crt_stdio_output@@@__crt_stdio_output@@CA_ND@Z 000000014018b370 f i libucrtd:output.obj
 0002:000d03b0       ??$is_pointer_specifier@D@?$positional_parameter_base@DV?$string_output_adapter@D@__crt_stdio_output@@@__crt_stdio_output@@CA_ND@Z 000000014018b3b0 f i libucrtd:output.obj
 0002:000d03f0       ??$is_pointer_specifier@_W@?$positional_parameter_base@_WV?$stream_output_adapter@_W@__crt_stdio_output@@@__crt_stdio_output@@CA_N_W@Z 000000014018b3f0 f i libucrtd:output.obj
 0002:000d0430       ??$is_pointer_specifier@_W@?$positional_parameter_base@_WV?$string_output_adapter@_W@__crt_stdio_output@@@__crt_stdio_output@@CA_N_W@Z 000000014018b430 f i libucrtd:output.obj
 0002:000d0470       ??$is_string_specifier@D@?$positional_parameter_base@DV?$stream_output_adapter@D@__crt_stdio_output@@@__crt_stdio_output@@CA_ND@Z 000000014018b470 f i libucrtd:output.obj
 0002:000d04c0       ??$is_string_specifier@D@?$positional_parameter_base@DV?$string_output_adapter@D@__crt_stdio_output@@@__crt_stdio_output@@CA_ND@Z 000000014018b4c0 f i libucrtd:output.obj
 0002:000d0510       ??$is_string_specifier@_W@?$positional_parameter_base@_WV?$stream_output_adapter@_W@__crt_stdio_output@@@__crt_stdio_output@@CA_N_W@Z 000000014018b510 f i libucrtd:output.obj
 0002:000d0560       ??$is_string_specifier@_W@?$positional_parameter_base@_WV?$string_output_adapter@_W@__crt_stdio_output@@@__crt_stdio_output@@CA_N_W@Z 000000014018b560 f i libucrtd:output.obj
 0002:000d05b0       ??$is_wide_character_specifier@D@__crt_stdio_output@@YA_N_KDW4length_modifier@0@@Z 000000014018b5b0 f i libucrtd:output.obj
 0002:000d0670       ??$is_wide_character_specifier@_W@__crt_stdio_output@@YA_N_K_WW4length_modifier@0@@Z 000000014018b670 f i libucrtd:output.obj
 0002:000d0770       ??$peek_va_arg@C@__crt_stdio_output@@YACPEAD@Z 000000014018b770 f i libucrtd:output.obj
 0002:000d07e0       ??$peek_va_arg@E@__crt_stdio_output@@YAEPEAD@Z 000000014018b7e0 f i libucrtd:output.obj
 0002:000d0850       ??$peek_va_arg@F@__crt_stdio_output@@YAFPEAD@Z 000000014018b850 f i libucrtd:output.obj
 0002:000d08c0       ??$peek_va_arg@G@__crt_stdio_output@@YAGPEAD@Z 000000014018b8c0 f i libucrtd:output.obj
 0002:000d0930       ??$peek_va_arg@H@__crt_stdio_output@@YAHPEAD@Z 000000014018b930 f i libucrtd:output.obj
 0002:000d09a0       ??$peek_va_arg@I@__crt_stdio_output@@YAIPEAD@Z 000000014018b9a0 f i libucrtd:output.obj
 0002:000d0a10       ??$peek_va_arg@PEAD@__crt_stdio_output@@YAPEADPEAD@Z 000000014018ba10 f i libucrtd:output.obj
 0002:000d0c40       ??$peek_va_arg@PEAX@__crt_stdio_output@@YAPEAXPEAD@Z 000000014018bc40 f i libucrtd:output.obj
 0002:000d0cb0       ??$peek_va_arg@U_CRT_DOUBLE@@@__crt_stdio_output@@YA?AU_CRT_DOUBLE@@PEAD@Z 000000014018bcb0 f i libucrtd:output.obj
 0002:000d0d20       ??$peek_va_arg@_J@__crt_stdio_output@@YA_JPEAD@Z 000000014018bd20 f i libucrtd:output.obj
 0002:000d0d90       ??$peek_va_arg@_K@__crt_stdio_output@@YA_KPEAD@Z 000000014018bd90 f i libucrtd:output.obj
 0002:000d0e00       ??$peek_va_arg@_W@__crt_stdio_output@@YA_WPEAD@Z 000000014018be00 f i libucrtd:output.obj
 0002:000d0e70       ??$puttc_nolock@AEBDPEAU_iobuf@@@?$__crt_char_traits@D@@SAHAEBD$$QEAPEAU_iobuf@@@Z 000000014018be70 f i libucrtd:output.obj
 0002:000d0eb0       ??$puttc_nolock@AEB_WPEAU_iobuf@@@?$__crt_char_traits@_W@@SAGAEB_W$$QEAPEAU_iobuf@@@Z 000000014018beb0 f i libucrtd:output.obj
 0002:000d0ef0       ??$read_va_arg@C@__crt_stdio_output@@YACAEAPEAD@Z 000000014018bef0 f i libucrtd:output.obj
 0002:000d0f70       ??$read_va_arg@E@__crt_stdio_output@@YAEAEAPEAD@Z 000000014018bf70 f i libucrtd:output.obj
 0002:000d0ff0       ??$read_va_arg@F@__crt_stdio_output@@YAFAEAPEAD@Z 000000014018bff0 f i libucrtd:output.obj
 0002:000d1070       ??$read_va_arg@G@__crt_stdio_output@@YAGAEAPEAD@Z 000000014018c070 f i libucrtd:output.obj
 0002:000d10f0       ??$read_va_arg@H@__crt_stdio_output@@YAHAEAPEAD@Z 000000014018c0f0 f i libucrtd:output.obj
 0002:000d1170       ??$read_va_arg@I@__crt_stdio_output@@YAIAEAPEAD@Z 000000014018c170 f i libucrtd:output.obj
 0002:000d11f0       ??$read_va_arg@PEAD@__crt_stdio_output@@YAPEADAEAPEAD@Z 000000014018c1f0 f i libucrtd:output.obj
 0002:000d1870       ??$read_va_arg@PEAX@__crt_stdio_output@@YAPEAXAEAPEAD@Z 000000014018c870 f i libucrtd:output.obj
 0002:000d18f0       ??$read_va_arg@U_CRT_DOUBLE@@@__crt_stdio_output@@YA?AU_CRT_DOUBLE@@AEAPEAD@Z 000000014018c8f0 f i libucrtd:output.obj
 0002:000d1970       ??$read_va_arg@_J@__crt_stdio_output@@YA_JAEAPEAD@Z 000000014018c970 f i libucrtd:output.obj
 0002:000d19f0       ??$read_va_arg@_K@__crt_stdio_output@@YA_KAEAPEAD@Z 000000014018c9f0 f i libucrtd:output.obj
 0002:000d1a70       ??$read_va_arg@_W@__crt_stdio_output@@YA_WAEAPEAD@Z 000000014018ca70 f i libucrtd:output.obj
 0002:000d1af0       ??$scratch_count@D@formatting_buffer@__crt_stdio_output@@QEBA_KXZ 000000014018caf0 f i libucrtd:output.obj
 0002:000d1b10       ??$scratch_data@D@formatting_buffer@__crt_stdio_output@@QEAAPEADXZ 000000014018cb10 f i libucrtd:output.obj
 0002:000d1ba0       ??$tcstol@AEAPEBDPEAPEADH@?$__crt_char_traits@D@@SAJAEAPEBD$$QEAPEAPEAD$$QEAH@Z 000000014018cba0 f i libucrtd:output.obj
 0002:000d1bf0       ??$tcstol@AEAPEB_WPEAPEA_WH@?$__crt_char_traits@_W@@SAJAEAPEB_W$$QEAPEAPEA_W$$QEAH@Z 000000014018cbf0 f i libucrtd:output.obj
 0002:000d1c40       ??$tcstol@PEBDPEAPEADH@?$__crt_char_traits@D@@SAJ$$QEAPEBD$$QEAPEAPEAD$$QEAH@Z 000000014018cc40 f i libucrtd:output.obj
 0002:000d1c90       ??$tcstol@PEB_WPEAPEA_WH@?$__crt_char_traits@_W@@SAJ$$QEAPEB_W$$QEAPEAPEA_W$$QEAH@Z 000000014018cc90 f i libucrtd:output.obj
 0002:000d1ce0       ??$type_case_integer_parse_into_buffer@I@?$output_processor@DV?$stream_output_adapter@D@__crt_stdio_output@@V?$format_validation_base@DV?$stream_output_adapter@D@__crt_stdio_output@@@2@@__crt_stdio_output@@AEAAXII_N@Z 000000014018cce0 f i libucrtd:output.obj
 0002:000d1e50       ??$type_case_integer_parse_into_buffer@I@?$output_processor@DV?$stream_output_adapter@D@__crt_stdio_output@@V?$positional_parameter_base@DV?$stream_output_adapter@D@__crt_stdio_output@@@2@@__crt_stdio_output@@AEAAXII_N@Z 000000014018ce50 f i libucrtd:output.obj
 0002:000d1fc0       ??$type_case_integer_parse_into_buffer@I@?$output_processor@DV?$stream_output_adapter@D@__crt_stdio_output@@V?$standard_base@DV?$stream_output_adapter@D@__crt_stdio_output@@@2@@__crt_stdio_output@@AEAAXII_N@Z 000000014018cfc0 f i libucrtd:output.obj
 0002:000d2130       ??$type_case_integer_parse_into_buffer@I@?$output_processor@DV?$string_output_adapter@D@__crt_stdio_output@@V?$format_validation_base@DV?$string_output_adapter@D@__crt_stdio_output@@@2@@__crt_stdio_output@@AEAAXII_N@Z 000000014018d130 f i libucrtd:output.obj
 0002:000d22a0       ??$type_case_integer_parse_into_buffer@I@?$output_processor@DV?$string_output_adapter@D@__crt_stdio_output@@V?$positional_parameter_base@DV?$string_output_adapter@D@__crt_stdio_output@@@2@@__crt_stdio_output@@AEAAXII_N@Z 000000014018d2a0 f i libucrtd:output.obj
 0002:000d2410       ??$type_case_integer_parse_into_buffer@I@?$output_processor@DV?$string_output_adapter@D@__crt_stdio_output@@V?$standard_base@DV?$string_output_adapter@D@__crt_stdio_output@@@2@@__crt_stdio_output@@AEAAXII_N@Z 000000014018d410 f i libucrtd:output.obj
 0002:000d2580       ??$type_case_integer_parse_into_buffer@I@?$output_processor@_WV?$stream_output_adapter@_W@__crt_stdio_output@@V?$format_validation_base@_WV?$stream_output_adapter@_W@__crt_stdio_output@@@2@@__crt_stdio_output@@AEAAXII_N@Z 000000014018d580 f i libucrtd:output.obj
 0002:000d2710       ??$type_case_integer_parse_into_buffer@I@?$output_processor@_WV?$stream_output_adapter@_W@__crt_stdio_output@@V?$positional_parameter_base@_WV?$stream_output_adapter@_W@__crt_stdio_output@@@2@@__crt_stdio_output@@AEAAXII_N@Z 000000014018d710 f i libucrtd:output.obj
 0002:000d28a0       ??$type_case_integer_parse_into_buffer@I@?$output_processor@_WV?$stream_output_adapter@_W@__crt_stdio_output@@V?$standard_base@_WV?$stream_output_adapter@_W@__crt_stdio_output@@@2@@__crt_stdio_output@@AEAAXII_N@Z 000000014018d8a0 f i libucrtd:output.obj
 0002:000d2a30       ??$type_case_integer_parse_into_buffer@I@?$output_processor@_WV?$string_output_adapter@_W@__crt_stdio_output@@V?$format_validation_base@_WV?$string_output_adapter@_W@__crt_stdio_output@@@2@@__crt_stdio_output@@AEAAXII_N@Z 000000014018da30 f i libucrtd:output.obj
 0002:000d2bc0       ??$type_case_integer_parse_into_buffer@I@?$output_processor@_WV?$string_output_adapter@_W@__crt_stdio_output@@V?$positional_parameter_base@_WV?$string_output_adapter@_W@__crt_stdio_output@@@2@@__crt_stdio_output@@AEAAXII_N@Z 000000014018dbc0 f i libucrtd:output.obj
 0002:000d2d50       ??$type_case_integer_parse_into_buffer@I@?$output_processor@_WV?$string_output_adapter@_W@__crt_stdio_output@@V?$standard_base@_WV?$string_output_adapter@_W@__crt_stdio_output@@@2@@__crt_stdio_output@@AEAAXII_N@Z 000000014018dd50 f i libucrtd:output.obj
 0002:000d2ee0       ??$type_case_integer_parse_into_buffer@_K@?$output_processor@DV?$stream_output_adapter@D@__crt_stdio_output@@V?$format_validation_base@DV?$stream_output_adapter@D@__crt_stdio_output@@@2@@__crt_stdio_output@@AEAAX_KI_N@Z 000000014018dee0 f i libucrtd:output.obj
 0002:000d3080       ??$type_case_integer_parse_into_buffer@_K@?$output_processor@DV?$stream_output_adapter@D@__crt_stdio_output@@V?$positional_parameter_base@DV?$stream_output_adapter@D@__crt_stdio_output@@@2@@__crt_stdio_output@@AEAAX_KI_N@Z 000000014018e080 f i libucrtd:output.obj
 0002:000d3220       ??$type_case_integer_parse_into_buffer@_K@?$output_processor@DV?$stream_output_adapter@D@__crt_stdio_output@@V?$standard_base@DV?$stream_output_adapter@D@__crt_stdio_output@@@2@@__crt_stdio_output@@AEAAX_KI_N@Z 000000014018e220 f i libucrtd:output.obj
 0002:000d33c0       ??$type_case_integer_parse_into_buffer@_K@?$output_processor@DV?$string_output_adapter@D@__crt_stdio_output@@V?$format_validation_base@DV?$string_output_adapter@D@__crt_stdio_output@@@2@@__crt_stdio_output@@AEAAX_KI_N@Z 000000014018e3c0 f i libucrtd:output.obj
 0002:000d3560       ??$type_case_integer_parse_into_buffer@_K@?$output_processor@DV?$string_output_adapter@D@__crt_stdio_output@@V?$positional_parameter_base@DV?$string_output_adapter@D@__crt_stdio_output@@@2@@__crt_stdio_output@@AEAAX_KI_N@Z 000000014018e560 f i libucrtd:output.obj
 0002:000d3700       ??$type_case_integer_parse_into_buffer@_K@?$output_processor@DV?$string_output_adapter@D@__crt_stdio_output@@V?$standard_base@DV?$string_output_adapter@D@__crt_stdio_output@@@2@@__crt_stdio_output@@AEAAX_KI_N@Z 000000014018e700 f i libucrtd:output.obj
 0002:000d38a0       ??$type_case_integer_parse_into_buffer@_K@?$output_processor@_WV?$stream_output_adapter@_W@__crt_stdio_output@@V?$format_validation_base@_WV?$stream_output_adapter@_W@__crt_stdio_output@@@2@@__crt_stdio_output@@AEAAX_KI_N@Z 000000014018e8a0 f i libucrtd:output.obj
 0002:000d3a50       ??$type_case_integer_parse_into_buffer@_K@?$output_processor@_WV?$stream_output_adapter@_W@__crt_stdio_output@@V?$positional_parameter_base@_WV?$stream_output_adapter@_W@__crt_stdio_output@@@2@@__crt_stdio_output@@AEAAX_KI_N@Z 000000014018ea50 f i libucrtd:output.obj
 0002:000d3c00       ??$type_case_integer_parse_into_buffer@_K@?$output_processor@_WV?$stream_output_adapter@_W@__crt_stdio_output@@V?$standard_base@_WV?$stream_output_adapter@_W@__crt_stdio_output@@@2@@__crt_stdio_output@@AEAAX_KI_N@Z 000000014018ec00 f i libucrtd:output.obj
 0002:000d3db0       ??$type_case_integer_parse_into_buffer@_K@?$output_processor@_WV?$string_output_adapter@_W@__crt_stdio_output@@V?$format_validation_base@_WV?$string_output_adapter@_W@__crt_stdio_output@@@2@@__crt_stdio_output@@AEAAX_KI_N@Z 000000014018edb0 f i libucrtd:output.obj
 0002:000d3f60       ??$type_case_integer_parse_into_buffer@_K@?$output_processor@_WV?$string_output_adapter@_W@__crt_stdio_output@@V?$positional_parameter_base@_WV?$string_output_adapter@_W@__crt_stdio_output@@@2@@__crt_stdio_output@@AEAAX_KI_N@Z 000000014018ef60 f i libucrtd:output.obj
 0002:000d4110       ??$type_case_integer_parse_into_buffer@_K@?$output_processor@_WV?$string_output_adapter@_W@__crt_stdio_output@@V?$standard_base@_WV?$string_output_adapter@_W@__crt_stdio_output@@@2@@__crt_stdio_output@@AEAAX_KI_N@Z 000000014018f110 f i libucrtd:output.obj
 0002:000d42c0       ??$write_multiple_characters@V?$stream_output_adapter@D@__crt_stdio_output@@D@__crt_stdio_output@@YAXAEBV?$stream_output_adapter@D@0@DHQEAH@Z 000000014018f2c0 f i libucrtd:output.obj
 0002:000d4340       ??$write_multiple_characters@V?$stream_output_adapter@_W@__crt_stdio_output@@D@__crt_stdio_output@@YAXAEBV?$stream_output_adapter@_W@0@DHQEAH@Z 000000014018f340 f i libucrtd:output.obj
 0002:000d43c0       ??$write_multiple_characters@V?$string_output_adapter@D@__crt_stdio_output@@D@__crt_stdio_output@@YAXAEBV?$string_output_adapter@D@0@DHQEAH@Z 000000014018f3c0 f i libucrtd:output.obj
 0002:000d4440       ??$write_multiple_characters@V?$string_output_adapter@_W@__crt_stdio_output@@D@__crt_stdio_output@@YAXAEBV?$string_output_adapter@_W@0@DHQEAH@Z 000000014018f440 f i libucrtd:output.obj
 0002:000d4a00       ??0?$common_data@D@__crt_stdio_output@@IEAA@XZ 000000014018fa00 f i libucrtd:output.obj
 0002:000d4b00       ??0?$common_data@_W@__crt_stdio_output@@IEAA@XZ 000000014018fb00 f i libucrtd:output.obj
 0002:000d4c00       ??0?$output_adapter_data@DV?$stream_output_adapter@D@__crt_stdio_output@@@__crt_stdio_output@@IEAA@AEBV?$stream_output_adapter@D@1@_KQEBDQEAU__crt_locale_pointers@@QEAD@Z 000000014018fc00 f i libucrtd:output.obj
 0002:000d4ca0       ??0?$output_adapter_data@DV?$string_output_adapter@D@__crt_stdio_output@@@__crt_stdio_output@@IEAA@AEBV?$string_output_adapter@D@1@_KQEBDQEAU__crt_locale_pointers@@QEAD@Z 000000014018fca0 f i libucrtd:output.obj
 0002:000d4d40       ??0?$output_adapter_data@_WV?$stream_output_adapter@_W@__crt_stdio_output@@@__crt_stdio_output@@IEAA@AEBV?$stream_output_adapter@_W@1@_KQEB_WQEAU__crt_locale_pointers@@QEAD@Z 000000014018fd40 f i libucrtd:output.obj
 0002:000d4de0       ??0?$output_adapter_data@_WV?$string_output_adapter@_W@__crt_stdio_output@@@__crt_stdio_output@@IEAA@AEBV?$string_output_adapter@_W@1@_KQEB_WQEAU__crt_locale_pointers@@QEAD@Z 000000014018fde0 f i libucrtd:output.obj
 0002:000d4e80       ??0?$output_processor@DV?$stream_output_adapter@D@__crt_stdio_output@@V?$format_validation_base@DV?$stream_output_adapter@D@__crt_stdio_output@@@2@@__crt_stdio_output@@QEAA@AEBV?$stream_output_adapter@D@1@_KQEBDQEAU__crt_locale_pointers@@QEAD@Z 000000014018fe80 f i libucrtd:output.obj
 0002:000d4ef0       ??0?$output_processor@DV?$stream_output_adapter@D@__crt_stdio_output@@V?$positional_parameter_base@DV?$stream_output_adapter@D@__crt_stdio_output@@@2@@__crt_stdio_output@@QEAA@AEBV?$stream_output_adapter@D@1@_KQEBDQEAU__crt_locale_pointers@@QEAD@Z 000000014018fef0 f i libucrtd:output.obj
 0002:000d4f60       ??0?$output_processor@DV?$stream_output_adapter@D@__crt_stdio_output@@V?$standard_base@DV?$stream_output_adapter@D@__crt_stdio_output@@@2@@__crt_stdio_output@@QEAA@AEBV?$stream_output_adapter@D@1@_KQEBDQEAU__crt_locale_pointers@@QEAD@Z 000000014018ff60 f i libucrtd:output.obj
 0002:000d4fd0       ??0?$output_processor@DV?$string_output_adapter@D@__crt_stdio_output@@V?$format_validation_base@DV?$string_output_adapter@D@__crt_stdio_output@@@2@@__crt_stdio_output@@QEAA@AEBV?$string_output_adapter@D@1@_KQEBDQEAU__crt_locale_pointers@@QEAD@Z 000000014018ffd0 f i libucrtd:output.obj
 0002:000d5040       ??0?$output_processor@DV?$string_output_adapter@D@__crt_stdio_output@@V?$positional_parameter_base@DV?$string_output_adapter@D@__crt_stdio_output@@@2@@__crt_stdio_output@@QEAA@AEBV?$string_output_adapter@D@1@_KQEBDQEAU__crt_locale_pointers@@QEAD@Z 0000000140190040 f i libucrtd:output.obj
 0002:000d50b0       ??0?$output_processor@DV?$string_output_adapter@D@__crt_stdio_output@@V?$standard_base@DV?$string_output_adapter@D@__crt_stdio_output@@@2@@__crt_stdio_output@@QEAA@AEBV?$string_output_adapter@D@1@_KQEBDQEAU__crt_locale_pointers@@QEAD@Z 00000001401900b0 f i libucrtd:output.obj
 0002:000d5120       ??0?$output_processor@_WV?$stream_output_adapter@_W@__crt_stdio_output@@V?$format_validation_base@_WV?$stream_output_adapter@_W@__crt_stdio_output@@@2@@__crt_stdio_output@@QEAA@AEBV?$stream_output_adapter@_W@1@_KQEB_WQEAU__crt_locale_pointers@@QEAD@Z 0000000140190120 f i libucrtd:output.obj
 0002:000d5190       ??0?$output_processor@_WV?$stream_output_adapter@_W@__crt_stdio_output@@V?$positional_parameter_base@_WV?$stream_output_adapter@_W@__crt_stdio_output@@@2@@__crt_stdio_output@@QEAA@AEBV?$stream_output_adapter@_W@1@_KQEB_WQEAU__crt_locale_pointers@@QEAD@Z 0000000140190190 f i libucrtd:output.obj
 0002:000d5200       ??0?$output_processor@_WV?$stream_output_adapter@_W@__crt_stdio_output@@V?$standard_base@_WV?$stream_output_adapter@_W@__crt_stdio_output@@@2@@__crt_stdio_output@@QEAA@AEBV?$stream_output_adapter@_W@1@_KQEB_WQEAU__crt_locale_pointers@@QEAD@Z 0000000140190200 f i libucrtd:output.obj
 0002:000d5270       ??0?$output_processor@_WV?$string_output_adapter@_W@__crt_stdio_output@@V?$format_validation_base@_WV?$string_output_adapter@_W@__crt_stdio_output@@@2@@__crt_stdio_output@@QEAA@AEBV?$string_output_adapter@_W@1@_KQEB_WQEAU__crt_locale_pointers@@QEAD@Z 0000000140190270 f i libucrtd:output.obj
 0002:000d52e0       ??0?$output_processor@_WV?$string_output_adapter@_W@__crt_stdio_output@@V?$positional_parameter_base@_WV?$string_output_adapter@_W@__crt_stdio_output@@@2@@__crt_stdio_output@@QEAA@AEBV?$string_output_adapter@_W@1@_KQEB_WQEAU__crt_locale_pointers@@QEAD@Z 00000001401902e0 f i libucrtd:output.obj
 0002:000d5350       ??0?$output_processor@_WV?$string_output_adapter@_W@__crt_stdio_output@@V?$standard_base@_WV?$string_output_adapter@_W@__crt_stdio_output@@@2@@__crt_stdio_output@@QEAA@AEBV?$string_output_adapter@_W@1@_KQEB_WQEAU__crt_locale_pointers@@QEAD@Z 0000000140190350 f i libucrtd:output.obj
 0002:000d53c0       ??0?$stream_output_adapter@D@__crt_stdio_output@@QEAA@QEAU_iobuf@@@Z 00000001401903c0 f i libucrtd:output.obj
 0002:000d5400       ??0?$stream_output_adapter@_W@__crt_stdio_output@@QEAA@QEAU_iobuf@@@Z 0000000140190400 f i libucrtd:output.obj
 0002:000d5440       ??0?$string_output_adapter@D@__crt_stdio_output@@QEAA@QEAU?$string_output_adapter_context@D@1@@Z 0000000140190440 f i libucrtd:output.obj
 0002:000d5470       ??0?$string_output_adapter@_W@__crt_stdio_output@@QEAA@QEAU?$string_output_adapter_context@_W@1@@Z 0000000140190470 f i libucrtd:output.obj
 0002:000d54a0       ??0__crt_deferred_errno_cache@@QEAA@XZ 00000001401904a0 f i libucrtd:output.obj
 0002:000d54c0       ??0__crt_errno_guard@@QEAA@QEAH@Z 00000001401904c0 f i libucrtd:output.obj
 0002:000d5510       ??0formatting_buffer@__crt_stdio_output@@QEAA@XZ 0000000140190510 f i libucrtd:output.obj
 0002:000d5560       ??1?$common_data@D@__crt_stdio_output@@QEAA@XZ 0000000140190560 f i libucrtd:output.obj
 0002:000d5590       ??1?$common_data@_W@__crt_stdio_output@@QEAA@XZ 0000000140190590 f i libucrtd:output.obj
 0002:000d55c0       ??1?$format_validation_base@DV?$stream_output_adapter@D@__crt_stdio_output@@@__crt_stdio_output@@QEAA@XZ 00000001401905c0 f i libucrtd:output.obj
 0002:000d55e0       ??1?$format_validation_base@DV?$string_output_adapter@D@__crt_stdio_output@@@__crt_stdio_output@@QEAA@XZ 00000001401905e0 f i libucrtd:output.obj
 0002:000d5600       ??1?$format_validation_base@_WV?$stream_output_adapter@_W@__crt_stdio_output@@@__crt_stdio_output@@QEAA@XZ 0000000140190600 f i libucrtd:output.obj
 0002:000d5620       ??1?$format_validation_base@_WV?$string_output_adapter@_W@__crt_stdio_output@@@__crt_stdio_output@@QEAA@XZ 0000000140190620 f i libucrtd:output.obj
 0002:000d5640       ??1?$output_adapter_data@DV?$stream_output_adapter@D@__crt_stdio_output@@@__crt_stdio_output@@QEAA@XZ 0000000140190640 f i libucrtd:output.obj
 0002:000d5660       ??1?$output_adapter_data@DV?$string_output_adapter@D@__crt_stdio_output@@@__crt_stdio_output@@QEAA@XZ 0000000140190660 f i libucrtd:output.obj
 0002:000d5680       ??1?$output_adapter_data@_WV?$stream_output_adapter@_W@__crt_stdio_output@@@__crt_stdio_output@@QEAA@XZ 0000000140190680 f i libucrtd:output.obj
 0002:000d56a0       ??1?$output_adapter_data@_WV?$string_output_adapter@_W@__crt_stdio_output@@@__crt_stdio_output@@QEAA@XZ 00000001401906a0 f i libucrtd:output.obj
 0002:000d56c0       ??1?$output_processor@DV?$stream_output_adapter@D@__crt_stdio_output@@V?$format_validation_base@DV?$stream_output_adapter@D@__crt_stdio_output@@@2@@__crt_stdio_output@@QEAA@XZ 00000001401906c0 f i libucrtd:output.obj
 0002:000d56e0       ??1?$output_processor@DV?$stream_output_adapter@D@__crt_stdio_output@@V?$positional_parameter_base@DV?$stream_output_adapter@D@__crt_stdio_output@@@2@@__crt_stdio_output@@QEAA@XZ 00000001401906e0 f i libucrtd:output.obj
 0002:000d5700       ??1?$output_processor@DV?$stream_output_adapter@D@__crt_stdio_output@@V?$standard_base@DV?$stream_output_adapter@D@__crt_stdio_output@@@2@@__crt_stdio_output@@QEAA@XZ 0000000140190700 f i libucrtd:output.obj
 0002:000d5720       ??1?$output_processor@DV?$string_output_adapter@D@__crt_stdio_output@@V?$format_validation_base@DV?$string_output_adapter@D@__crt_stdio_output@@@2@@__crt_stdio_output@@QEAA@XZ 0000000140190720 f i libucrtd:output.obj
 0002:000d5740       ??1?$output_processor@DV?$string_output_adapter@D@__crt_stdio_output@@V?$positional_parameter_base@DV?$string_output_adapter@D@__crt_stdio_output@@@2@@__crt_stdio_output@@QEAA@XZ 0000000140190740 f i libucrtd:output.obj
 0002:000d5760       ??1?$output_processor@DV?$string_output_adapter@D@__crt_stdio_output@@V?$standard_base@DV?$string_output_adapter@D@__crt_stdio_output@@@2@@__crt_stdio_output@@QEAA@XZ 0000000140190760 f i libucrtd:output.obj
 0002:000d5780       ??1?$output_processor@_WV?$stream_output_adapter@_W@__crt_stdio_output@@V?$format_validation_base@_WV?$stream_output_adapter@_W@__crt_stdio_output@@@2@@__crt_stdio_output@@QEAA@XZ 0000000140190780 f i libucrtd:output.obj
 0002:000d57a0       ??1?$output_processor@_WV?$stream_output_adapter@_W@__crt_stdio_output@@V?$positional_parameter_base@_WV?$stream_output_adapter@_W@__crt_stdio_output@@@2@@__crt_stdio_output@@QEAA@XZ 00000001401907a0 f i libucrtd:output.obj
 0002:000d57c0       ??1?$output_processor@_WV?$stream_output_adapter@_W@__crt_stdio_output@@V?$standard_base@_WV?$stream_output_adapter@_W@__crt_stdio_output@@@2@@__crt_stdio_output@@QEAA@XZ 00000001401907c0 f i libucrtd:output.obj
 0002:000d57e0       ??1?$output_processor@_WV?$string_output_adapter@_W@__crt_stdio_output@@V?$format_validation_base@_WV?$string_output_adapter@_W@__crt_stdio_output@@@2@@__crt_stdio_output@@QEAA@XZ 00000001401907e0 f i libucrtd:output.obj
 0002:000d5800       ??1?$output_processor@_WV?$string_output_adapter@_W@__crt_stdio_output@@V?$positional_parameter_base@_WV?$string_output_adapter@_W@__crt_stdio_output@@@2@@__crt_stdio_output@@QEAA@XZ 0000000140190800 f i libucrtd:output.obj
 0002:000d5820       ??1?$output_processor@_WV?$string_output_adapter@_W@__crt_stdio_output@@V?$standard_base@_WV?$string_output_adapter@_W@__crt_stdio_output@@@2@@__crt_stdio_output@@QEAA@XZ 0000000140190820 f i libucrtd:output.obj
 0002:000d5840       ??1?$positional_parameter_base@DV?$stream_output_adapter@D@__crt_stdio_output@@@__crt_stdio_output@@QEAA@XZ 0000000140190840 f i libucrtd:output.obj
 0002:000d5860       ??1?$positional_parameter_base@DV?$string_output_adapter@D@__crt_stdio_output@@@__crt_stdio_output@@QEAA@XZ 0000000140190860 f i libucrtd:output.obj
 0002:000d5880       ??1?$positional_parameter_base@_WV?$stream_output_adapter@_W@__crt_stdio_output@@@__crt_stdio_output@@QEAA@XZ 0000000140190880 f i libucrtd:output.obj
 0002:000d58a0       ??1?$positional_parameter_base@_WV?$string_output_adapter@_W@__crt_stdio_output@@@__crt_stdio_output@@QEAA@XZ 00000001401908a0 f i libucrtd:output.obj
 0002:000d58c0       ??1?$standard_base@DV?$stream_output_adapter@D@__crt_stdio_output@@@__crt_stdio_output@@QEAA@XZ 00000001401908c0 f i libucrtd:output.obj
 0002:000d58e0       ??1?$standard_base@DV?$string_output_adapter@D@__crt_stdio_output@@@__crt_stdio_output@@QEAA@XZ 00000001401908e0 f i libucrtd:output.obj
 0002:000d5900       ??1?$standard_base@_WV?$stream_output_adapter@_W@__crt_stdio_output@@@__crt_stdio_output@@QEAA@XZ 0000000140190900 f i libucrtd:output.obj
 0002:000d5920       ??1?$standard_base@_WV?$string_output_adapter@_W@__crt_stdio_output@@@__crt_stdio_output@@QEAA@XZ 0000000140190920 f i libucrtd:output.obj
 0002:000d5940       ??1__crt_errno_guard@@QEAA@XZ 0000000140190940 f i libucrtd:output.obj
 0002:000d5980       ??1formatting_buffer@__crt_stdio_output@@QEAA@XZ 0000000140190980 f i libucrtd:output.obj
 0002:000d59b0       ??4?$__crt_unique_heap_ptr@DU__crt_internal_free_policy@@@@QEAAAEAV0@$$QEAV0@@Z 00000001401909b0 f i libucrtd:output.obj
 0002:000d6540       ?adjust_hexit@?$output_processor@DV?$stream_output_adapter@D@__crt_stdio_output@@V?$format_validation_base@DV?$stream_output_adapter@D@__crt_stdio_output@@@2@@__crt_stdio_output@@CADH_N@Z 0000000140191540 f i libucrtd:output.obj
 0002:000d65a0       ?adjust_hexit@?$output_processor@DV?$stream_output_adapter@D@__crt_stdio_output@@V?$positional_parameter_base@DV?$stream_output_adapter@D@__crt_stdio_output@@@2@@__crt_stdio_output@@CADH_N@Z 00000001401915a0 f i libucrtd:output.obj
 0002:000d6600       ?adjust_hexit@?$output_processor@DV?$stream_output_adapter@D@__crt_stdio_output@@V?$standard_base@DV?$stream_output_adapter@D@__crt_stdio_output@@@2@@__crt_stdio_output@@CADH_N@Z 0000000140191600 f i libucrtd:output.obj
 0002:000d6660       ?adjust_hexit@?$output_processor@DV?$string_output_adapter@D@__crt_stdio_output@@V?$format_validation_base@DV?$string_output_adapter@D@__crt_stdio_output@@@2@@__crt_stdio_output@@CADH_N@Z 0000000140191660 f i libucrtd:output.obj
 0002:000d66c0       ?adjust_hexit@?$output_processor@DV?$string_output_adapter@D@__crt_stdio_output@@V?$positional_parameter_base@DV?$string_output_adapter@D@__crt_stdio_output@@@2@@__crt_stdio_output@@CADH_N@Z 00000001401916c0 f i libucrtd:output.obj
 0002:000d6720       ?adjust_hexit@?$output_processor@DV?$string_output_adapter@D@__crt_stdio_output@@V?$standard_base@DV?$string_output_adapter@D@__crt_stdio_output@@@2@@__crt_stdio_output@@CADH_N@Z 0000000140191720 f i libucrtd:output.obj
 0002:000d6780       ?adjust_hexit@?$output_processor@_WV?$stream_output_adapter@_W@__crt_stdio_output@@V?$format_validation_base@_WV?$stream_output_adapter@_W@__crt_stdio_output@@@2@@__crt_stdio_output@@CADH_N@Z 0000000140191780 f i libucrtd:output.obj
 0002:000d67e0       ?adjust_hexit@?$output_processor@_WV?$stream_output_adapter@_W@__crt_stdio_output@@V?$positional_parameter_base@_WV?$stream_output_adapter@_W@__crt_stdio_output@@@2@@__crt_stdio_output@@CADH_N@Z 00000001401917e0 f i libucrtd:output.obj
 0002:000d6840       ?adjust_hexit@?$output_processor@_WV?$stream_output_adapter@_W@__crt_stdio_output@@V?$standard_base@_WV?$stream_output_adapter@_W@__crt_stdio_output@@@2@@__crt_stdio_output@@CADH_N@Z 0000000140191840 f i libucrtd:output.obj
 0002:000d68a0       ?adjust_hexit@?$output_processor@_WV?$string_output_adapter@_W@__crt_stdio_output@@V?$format_validation_base@_WV?$string_output_adapter@_W@__crt_stdio_output@@@2@@__crt_stdio_output@@CADH_N@Z 00000001401918a0 f i libucrtd:output.obj
 0002:000d6900       ?adjust_hexit@?$output_processor@_WV?$string_output_adapter@_W@__crt_stdio_output@@V?$positional_parameter_base@_WV?$string_output_adapter@_W@__crt_stdio_output@@@2@@__crt_stdio_output@@CADH_N@Z 0000000140191900 f i libucrtd:output.obj
 0002:000d6960       ?adjust_hexit@?$output_processor@_WV?$string_output_adapter@_W@__crt_stdio_output@@V?$standard_base@_WV?$string_output_adapter@_W@__crt_stdio_output@@@2@@__crt_stdio_output@@CADH_N@Z 0000000140191960 f i libucrtd:output.obj
 0002:000d69c0       ?advance_to_next_pass@?$positional_parameter_base@DV?$stream_output_adapter@D@__crt_stdio_output@@@__crt_stdio_output@@IEAA_NXZ 00000001401919c0 f i libucrtd:output.obj
 0002:000d6aa0       ?advance_to_next_pass@?$positional_parameter_base@DV?$string_output_adapter@D@__crt_stdio_output@@@__crt_stdio_output@@IEAA_NXZ 0000000140191aa0 f i libucrtd:output.obj
 0002:000d6b80       ?advance_to_next_pass@?$positional_parameter_base@_WV?$stream_output_adapter@_W@__crt_stdio_output@@@__crt_stdio_output@@IEAA_NXZ 0000000140191b80 f i libucrtd:output.obj
 0002:000d6c60       ?advance_to_next_pass@?$positional_parameter_base@_WV?$string_output_adapter@_W@__crt_stdio_output@@@__crt_stdio_output@@IEAA_NXZ 0000000140191c60 f i libucrtd:output.obj
 0002:000d6d40       ?advance_to_next_pass@?$standard_base@DV?$stream_output_adapter@D@__crt_stdio_output@@@__crt_stdio_output@@IEAA_NXZ 0000000140191d40 f i libucrtd:output.obj
 0002:000d6da0       ?advance_to_next_pass@?$standard_base@DV?$string_output_adapter@D@__crt_stdio_output@@@__crt_stdio_output@@IEAA_NXZ 0000000140191da0 f i libucrtd:output.obj
 0002:000d6e00       ?advance_to_next_pass@?$standard_base@_WV?$stream_output_adapter@_W@__crt_stdio_output@@@__crt_stdio_output@@IEAA_NXZ 0000000140191e00 f i libucrtd:output.obj
 0002:000d6e60       ?advance_to_next_pass@?$standard_base@_WV?$string_output_adapter@_W@__crt_stdio_output@@@__crt_stdio_output@@IEAA_NXZ 0000000140191e60 f i libucrtd:output.obj
 0002:000d6ec0       ?crop_zeroes@__crt_stdio_output@@YAXPEADQEAU__crt_locale_pointers@@@Z 0000000140191ec0 f i libucrtd:output.obj
 0002:000d7050       ?find_next_state@?$output_processor@DV?$stream_output_adapter@D@__crt_stdio_output@@V?$format_validation_base@DV?$stream_output_adapter@D@__crt_stdio_output@@@2@@__crt_stdio_output@@AEBA?AW4state@2@DW432@@Z 0000000140192050 f i libucrtd:output.obj
 0002:000d7110       ?find_next_state@?$output_processor@DV?$stream_output_adapter@D@__crt_stdio_output@@V?$positional_parameter_base@DV?$stream_output_adapter@D@__crt_stdio_output@@@2@@__crt_stdio_output@@AEBA?AW4state@2@DW432@@Z 0000000140192110 f i libucrtd:output.obj
 0002:000d71d0       ?find_next_state@?$output_processor@DV?$stream_output_adapter@D@__crt_stdio_output@@V?$standard_base@DV?$stream_output_adapter@D@__crt_stdio_output@@@2@@__crt_stdio_output@@AEBA?AW4state@2@DW432@@Z 00000001401921d0 f i libucrtd:output.obj
 0002:000d7290       ?find_next_state@?$output_processor@DV?$string_output_adapter@D@__crt_stdio_output@@V?$format_validation_base@DV?$string_output_adapter@D@__crt_stdio_output@@@2@@__crt_stdio_output@@AEBA?AW4state@2@DW432@@Z 0000000140192290 f i libucrtd:output.obj
 0002:000d7350       ?find_next_state@?$output_processor@DV?$string_output_adapter@D@__crt_stdio_output@@V?$positional_parameter_base@DV?$string_output_adapter@D@__crt_stdio_output@@@2@@__crt_stdio_output@@AEBA?AW4state@2@DW432@@Z 0000000140192350 f i libucrtd:output.obj
 0002:000d7410       ?find_next_state@?$output_processor@DV?$string_output_adapter@D@__crt_stdio_output@@V?$standard_base@DV?$string_output_adapter@D@__crt_stdio_output@@@2@@__crt_stdio_output@@AEBA?AW4state@2@DW432@@Z 0000000140192410 f i libucrtd:output.obj
 0002:000d74d0       ?find_next_state@?$output_processor@_WV?$stream_output_adapter@_W@__crt_stdio_output@@V?$format_validation_base@_WV?$stream_output_adapter@_W@__crt_stdio_output@@@2@@__crt_stdio_output@@AEBA?AW4state@2@_WW432@@Z 00000001401924d0 f i libucrtd:output.obj
 0002:000d7590       ?find_next_state@?$output_processor@_WV?$stream_output_adapter@_W@__crt_stdio_output@@V?$positional_parameter_base@_WV?$stream_output_adapter@_W@__crt_stdio_output@@@2@@__crt_stdio_output@@AEBA?AW4state@2@_WW432@@Z 0000000140192590 f i libucrtd:output.obj
 0002:000d7650       ?find_next_state@?$output_processor@_WV?$stream_output_adapter@_W@__crt_stdio_output@@V?$standard_base@_WV?$stream_output_adapter@_W@__crt_stdio_output@@@2@@__crt_stdio_output@@AEBA?AW4state@2@_WW432@@Z 0000000140192650 f i libucrtd:output.obj
 0002:000d7710       ?find_next_state@?$output_processor@_WV?$string_output_adapter@_W@__crt_stdio_output@@V?$format_validation_base@_WV?$string_output_adapter@_W@__crt_stdio_output@@@2@@__crt_stdio_output@@AEBA?AW4state@2@_WW432@@Z 0000000140192710 f i libucrtd:output.obj
 0002:000d77d0       ?find_next_state@?$output_processor@_WV?$string_output_adapter@_W@__crt_stdio_output@@V?$positional_parameter_base@_WV?$string_output_adapter@_W@__crt_stdio_output@@@2@@__crt_stdio_output@@AEBA?AW4state@2@_WW432@@Z 00000001401927d0 f i libucrtd:output.obj
 0002:000d7890       ?find_next_state@?$output_processor@_WV?$string_output_adapter@_W@__crt_stdio_output@@V?$standard_base@_WV?$string_output_adapter@_W@__crt_stdio_output@@@2@@__crt_stdio_output@@AEBA?AW4state@2@_WW432@@Z 0000000140192890 f i libucrtd:output.obj
 0002:000d7950       ?force_decimal_point@__crt_stdio_output@@YAXPEADQEAU__crt_locale_pointers@@@Z 0000000140192950 f i libucrtd:output.obj
 0002:000d7a70       ?get@__crt_deferred_errno_cache@@QEAAAEAHXZ 0000000140192a70 f i libucrtd:output.obj
 0002:000d7ab0       ?get_parameter_type@?$positional_parameter_base@DV?$stream_output_adapter@D@__crt_stdio_output@@@__crt_stdio_output@@CA?AW4parameter_type@12@F@Z 0000000140192ab0 f i libucrtd:output.obj
 0002:000d7ac0       ?get_parameter_type@?$positional_parameter_base@DV?$stream_output_adapter@D@__crt_stdio_output@@@__crt_stdio_output@@CA?AW4parameter_type@12@G@Z 0000000140192ac0 f i libucrtd:output.obj
 0002:000d7ad0       ?get_parameter_type@?$positional_parameter_base@DV?$stream_output_adapter@D@__crt_stdio_output@@@__crt_stdio_output@@CA?AW4parameter_type@12@H@Z 0000000140192ad0 f i libucrtd:output.obj
 0002:000d7ae0       ?get_parameter_type@?$positional_parameter_base@DV?$stream_output_adapter@D@__crt_stdio_output@@@__crt_stdio_output@@CA?AW4parameter_type@12@I@Z 0000000140192ae0 f i libucrtd:output.obj
 0002:000d7af0       ?get_parameter_type@?$positional_parameter_base@DV?$stream_output_adapter@D@__crt_stdio_output@@@__crt_stdio_output@@CA?AW4parameter_type@12@U_CRT_DOUBLE@@@Z 0000000140192af0 f i libucrtd:output.obj
 0002:000d7b00       ?get_parameter_type@?$positional_parameter_base@DV?$stream_output_adapter@D@__crt_stdio_output@@@__crt_stdio_output@@CA?AW4parameter_type@12@_J@Z 0000000140192b00 f i libucrtd:output.obj
 0002:000d7b10       ?get_parameter_type@?$positional_parameter_base@DV?$stream_output_adapter@D@__crt_stdio_output@@@__crt_stdio_output@@CA?AW4parameter_type@12@_K@Z 0000000140192b10 f i libucrtd:output.obj
 0002:000d7b20       ?get_parameter_type@?$positional_parameter_base@DV?$stream_output_adapter@D@__crt_stdio_output@@@__crt_stdio_output@@CA?AW4parameter_type@12@_W@Z 0000000140192b20 f i libucrtd:output.obj
 0002:000d7b30       ?get_parameter_type@?$positional_parameter_base@DV?$string_output_adapter@D@__crt_stdio_output@@@__crt_stdio_output@@CA?AW4parameter_type@12@F@Z 0000000140192b30 f i libucrtd:output.obj
 0002:000d7b40       ?get_parameter_type@?$positional_parameter_base@DV?$string_output_adapter@D@__crt_stdio_output@@@__crt_stdio_output@@CA?AW4parameter_type@12@G@Z 0000000140192b40 f i libucrtd:output.obj
 0002:000d7b50       ?get_parameter_type@?$positional_parameter_base@DV?$string_output_adapter@D@__crt_stdio_output@@@__crt_stdio_output@@CA?AW4parameter_type@12@H@Z 0000000140192b50 f i libucrtd:output.obj
 0002:000d7b60       ?get_parameter_type@?$positional_parameter_base@DV?$string_output_adapter@D@__crt_stdio_output@@@__crt_stdio_output@@CA?AW4parameter_type@12@I@Z 0000000140192b60 f i libucrtd:output.obj
 0002:000d7b70       ?get_parameter_type@?$positional_parameter_base@DV?$string_output_adapter@D@__crt_stdio_output@@@__crt_stdio_output@@CA?AW4parameter_type@12@U_CRT_DOUBLE@@@Z 0000000140192b70 f i libucrtd:output.obj
 0002:000d7b80       ?get_parameter_type@?$positional_parameter_base@DV?$string_output_adapter@D@__crt_stdio_output@@@__crt_stdio_output@@CA?AW4parameter_type@12@_J@Z 0000000140192b80 f i libucrtd:output.obj
 0002:000d7b90       ?get_parameter_type@?$positional_parameter_base@DV?$string_output_adapter@D@__crt_stdio_output@@@__crt_stdio_output@@CA?AW4parameter_type@12@_K@Z 0000000140192b90 f i libucrtd:output.obj
 0002:000d7ba0       ?get_parameter_type@?$positional_parameter_base@DV?$string_output_adapter@D@__crt_stdio_output@@@__crt_stdio_output@@CA?AW4parameter_type@12@_W@Z 0000000140192ba0 f i libucrtd:output.obj
 0002:000d7bb0       ?get_parameter_type@?$positional_parameter_base@_WV?$stream_output_adapter@_W@__crt_stdio_output@@@__crt_stdio_output@@CA?AW4parameter_type@12@F@Z 0000000140192bb0 f i libucrtd:output.obj
 0002:000d7bc0       ?get_parameter_type@?$positional_parameter_base@_WV?$stream_output_adapter@_W@__crt_stdio_output@@@__crt_stdio_output@@CA?AW4parameter_type@12@G@Z 0000000140192bc0 f i libucrtd:output.obj
 0002:000d7bd0       ?get_parameter_type@?$positional_parameter_base@_WV?$stream_output_adapter@_W@__crt_stdio_output@@@__crt_stdio_output@@CA?AW4parameter_type@12@H@Z 0000000140192bd0 f i libucrtd:output.obj
 0002:000d7be0       ?get_parameter_type@?$positional_parameter_base@_WV?$stream_output_adapter@_W@__crt_stdio_output@@@__crt_stdio_output@@CA?AW4parameter_type@12@I@Z 0000000140192be0 f i libucrtd:output.obj
 0002:000d7bf0       ?get_parameter_type@?$positional_parameter_base@_WV?$stream_output_adapter@_W@__crt_stdio_output@@@__crt_stdio_output@@CA?AW4parameter_type@12@U_CRT_DOUBLE@@@Z 0000000140192bf0 f i libucrtd:output.obj
 0002:000d7c00       ?get_parameter_type@?$positional_parameter_base@_WV?$stream_output_adapter@_W@__crt_stdio_output@@@__crt_stdio_output@@CA?AW4parameter_type@12@_J@Z 0000000140192c00 f i libucrtd:output.obj
 0002:000d7c10       ?get_parameter_type@?$positional_parameter_base@_WV?$stream_output_adapter@_W@__crt_stdio_output@@@__crt_stdio_output@@CA?AW4parameter_type@12@_K@Z 0000000140192c10 f i libucrtd:output.obj
 0002:000d7c20       ?get_parameter_type@?$positional_parameter_base@_WV?$stream_output_adapter@_W@__crt_stdio_output@@@__crt_stdio_output@@CA?AW4parameter_type@12@_W@Z 0000000140192c20 f i libucrtd:output.obj
 0002:000d7c30       ?get_parameter_type@?$positional_parameter_base@_WV?$string_output_adapter@_W@__crt_stdio_output@@@__crt_stdio_output@@CA?AW4parameter_type@12@F@Z 0000000140192c30 f i libucrtd:output.obj
 0002:000d7c40       ?get_parameter_type@?$positional_parameter_base@_WV?$string_output_adapter@_W@__crt_stdio_output@@@__crt_stdio_output@@CA?AW4parameter_type@12@G@Z 0000000140192c40 f i libucrtd:output.obj
 0002:000d7c50       ?get_parameter_type@?$positional_parameter_base@_WV?$string_output_adapter@_W@__crt_stdio_output@@@__crt_stdio_output@@CA?AW4parameter_type@12@H@Z 0000000140192c50 f i libucrtd:output.obj
 0002:000d7c60       ?get_parameter_type@?$positional_parameter_base@_WV?$string_output_adapter@_W@__crt_stdio_output@@@__crt_stdio_output@@CA?AW4parameter_type@12@I@Z 0000000140192c60 f i libucrtd:output.obj
 0002:000d7c70       ?get_parameter_type@?$positional_parameter_base@_WV?$string_output_adapter@_W@__crt_stdio_output@@@__crt_stdio_output@@CA?AW4parameter_type@12@U_CRT_DOUBLE@@@Z 0000000140192c70 f i libucrtd:output.obj
 0002:000d7c80       ?get_parameter_type@?$positional_parameter_base@_WV?$string_output_adapter@_W@__crt_stdio_output@@@__crt_stdio_output@@CA?AW4parameter_type@12@_J@Z 0000000140192c80 f i libucrtd:output.obj
 0002:000d7c90       ?get_parameter_type@?$positional_parameter_base@_WV?$string_output_adapter@_W@__crt_stdio_output@@@__crt_stdio_output@@CA?AW4parameter_type@12@_K@Z 0000000140192c90 f i libucrtd:output.obj
 0002:000d7ca0       ?get_parameter_type@?$positional_parameter_base@_WV?$string_output_adapter@_W@__crt_stdio_output@@@__crt_stdio_output@@CA?AW4parameter_type@12@_W@Z 0000000140192ca0 f i libucrtd:output.obj
 0002:000d7cb0       ?has_flag@?$output_processor@DV?$stream_output_adapter@D@__crt_stdio_output@@V?$format_validation_base@DV?$stream_output_adapter@D@__crt_stdio_output@@@2@@__crt_stdio_output@@AEBA_NI@Z 0000000140192cb0 f i libucrtd:output.obj
 0002:000d7d00       ?has_flag@?$output_processor@DV?$stream_output_adapter@D@__crt_stdio_output@@V?$positional_parameter_base@DV?$stream_output_adapter@D@__crt_stdio_output@@@2@@__crt_stdio_output@@AEBA_NI@Z 0000000140192d00 f i libucrtd:output.obj
 0002:000d7d50       ?has_flag@?$output_processor@DV?$stream_output_adapter@D@__crt_stdio_output@@V?$standard_base@DV?$stream_output_adapter@D@__crt_stdio_output@@@2@@__crt_stdio_output@@AEBA_NI@Z 0000000140192d50 f i libucrtd:output.obj
 0002:000d7da0       ?has_flag@?$output_processor@DV?$string_output_adapter@D@__crt_stdio_output@@V?$format_validation_base@DV?$string_output_adapter@D@__crt_stdio_output@@@2@@__crt_stdio_output@@AEBA_NI@Z 0000000140192da0 f i libucrtd:output.obj
 0002:000d7df0       ?has_flag@?$output_processor@DV?$string_output_adapter@D@__crt_stdio_output@@V?$positional_parameter_base@DV?$string_output_adapter@D@__crt_stdio_output@@@2@@__crt_stdio_output@@AEBA_NI@Z 0000000140192df0 f i libucrtd:output.obj
 0002:000d7e40       ?has_flag@?$output_processor@DV?$string_output_adapter@D@__crt_stdio_output@@V?$standard_base@DV?$string_output_adapter@D@__crt_stdio_output@@@2@@__crt_stdio_output@@AEBA_NI@Z 0000000140192e40 f i libucrtd:output.obj
 0002:000d7e90       ?has_flag@?$output_processor@_WV?$stream_output_adapter@_W@__crt_stdio_output@@V?$format_validation_base@_WV?$stream_output_adapter@_W@__crt_stdio_output@@@2@@__crt_stdio_output@@AEBA_NI@Z 0000000140192e90 f i libucrtd:output.obj
 0002:000d7ee0       ?has_flag@?$output_processor@_WV?$stream_output_adapter@_W@__crt_stdio_output@@V?$positional_parameter_base@_WV?$stream_output_adapter@_W@__crt_stdio_output@@@2@@__crt_stdio_output@@AEBA_NI@Z 0000000140192ee0 f i libucrtd:output.obj
 0002:000d7f30       ?has_flag@?$output_processor@_WV?$stream_output_adapter@_W@__crt_stdio_output@@V?$standard_base@_WV?$stream_output_adapter@_W@__crt_stdio_output@@@2@@__crt_stdio_output@@AEBA_NI@Z 0000000140192f30 f i libucrtd:output.obj
 0002:000d7f80       ?has_flag@?$output_processor@_WV?$string_output_adapter@_W@__crt_stdio_output@@V?$format_validation_base@_WV?$string_output_adapter@_W@__crt_stdio_output@@@2@@__crt_stdio_output@@AEBA_NI@Z 0000000140192f80 f i libucrtd:output.obj
 0002:000d7fd0       ?has_flag@?$output_processor@_WV?$string_output_adapter@_W@__crt_stdio_output@@V?$positional_parameter_base@_WV?$string_output_adapter@_W@__crt_stdio_output@@@2@@__crt_stdio_output@@AEBA_NI@Z 0000000140192fd0 f i libucrtd:output.obj
 0002:000d8020       ?has_flag@?$output_processor@_WV?$string_output_adapter@_W@__crt_stdio_output@@V?$standard_base@_WV?$string_output_adapter@_W@__crt_stdio_output@@@2@@__crt_stdio_output@@AEBA_NI@Z 0000000140193020 f i libucrtd:output.obj
 0002:000d8070       ?is_positional_parameter_reappearance_consistent@?$positional_parameter_base@DV?$stream_output_adapter@D@__crt_stdio_output@@@__crt_stdio_output@@AEAA_NAEBUparameter_data@12@W4parameter_type@12@DW4length_modifier@2@@Z 0000000140193070 f i libucrtd:output.obj
 0002:000d8360       ?is_positional_parameter_reappearance_consistent@?$positional_parameter_base@DV?$string_output_adapter@D@__crt_stdio_output@@@__crt_stdio_output@@AEAA_NAEBUparameter_data@12@W4parameter_type@12@DW4length_modifier@2@@Z 0000000140193360 f i libucrtd:output.obj
 0002:000d8650       ?is_positional_parameter_reappearance_consistent@?$positional_parameter_base@_WV?$stream_output_adapter@_W@__crt_stdio_output@@@__crt_stdio_output@@AEAA_NAEBUparameter_data@12@W4parameter_type@12@_WW4length_modifier@2@@Z 0000000140193650 f i libucrtd:output.obj
 0002:000d8940       ?is_positional_parameter_reappearance_consistent@?$positional_parameter_base@_WV?$string_output_adapter@_W@__crt_stdio_output@@@__crt_stdio_output@@AEAA_NAEBUparameter_data@12@W4parameter_type@12@_WW4length_modifier@2@@Z 0000000140193940 f i libucrtd:output.obj
 0002:000d8c30       ?narrow_null_string@?$output_processor@DV?$stream_output_adapter@D@__crt_stdio_output@@V?$format_validation_base@DV?$stream_output_adapter@D@__crt_stdio_output@@@2@@__crt_stdio_output@@CAPEADXZ 0000000140193c30 f i libucrtd:output.obj
 0002:000d8c40       ?narrow_null_string@?$output_processor@DV?$stream_output_adapter@D@__crt_stdio_output@@V?$positional_parameter_base@DV?$stream_output_adapter@D@__crt_stdio_output@@@2@@__crt_stdio_output@@CAPEADXZ 0000000140193c40 f i libucrtd:output.obj
 0002:000d8c50       ?narrow_null_string@?$output_processor@DV?$stream_output_adapter@D@__crt_stdio_output@@V?$standard_base@DV?$stream_output_adapter@D@__crt_stdio_output@@@2@@__crt_stdio_output@@CAPEADXZ 0000000140193c50 f i libucrtd:output.obj
 0002:000d8c60       ?narrow_null_string@?$output_processor@DV?$string_output_adapter@D@__crt_stdio_output@@V?$format_validation_base@DV?$string_output_adapter@D@__crt_stdio_output@@@2@@__crt_stdio_output@@CAPEADXZ 0000000140193c60 f i libucrtd:output.obj
 0002:000d8c70       ?narrow_null_string@?$output_processor@DV?$string_output_adapter@D@__crt_stdio_output@@V?$positional_parameter_base@DV?$string_output_adapter@D@__crt_stdio_output@@@2@@__crt_stdio_output@@CAPEADXZ 0000000140193c70 f i libucrtd:output.obj
 0002:000d8c80       ?narrow_null_string@?$output_processor@DV?$string_output_adapter@D@__crt_stdio_output@@V?$standard_base@DV?$string_output_adapter@D@__crt_stdio_output@@@2@@__crt_stdio_output@@CAPEADXZ 0000000140193c80 f i libucrtd:output.obj
 0002:000d8c90       ?narrow_null_string@?$output_processor@_WV?$stream_output_adapter@_W@__crt_stdio_output@@V?$format_validation_base@_WV?$stream_output_adapter@_W@__crt_stdio_output@@@2@@__crt_stdio_output@@CAPEADXZ 0000000140193c90 f i libucrtd:output.obj
 0002:000d8ca0       ?narrow_null_string@?$output_processor@_WV?$stream_output_adapter@_W@__crt_stdio_output@@V?$positional_parameter_base@_WV?$stream_output_adapter@_W@__crt_stdio_output@@@2@@__crt_stdio_output@@CAPEADXZ 0000000140193ca0 f i libucrtd:output.obj
 0002:000d8cb0       ?narrow_null_string@?$output_processor@_WV?$stream_output_adapter@_W@__crt_stdio_output@@V?$standard_base@_WV?$stream_output_adapter@_W@__crt_stdio_output@@@2@@__crt_stdio_output@@CAPEADXZ 0000000140193cb0 f i libucrtd:output.obj
 0002:000d8cc0       ?narrow_null_string@?$output_processor@_WV?$string_output_adapter@_W@__crt_stdio_output@@V?$format_validation_base@_WV?$string_output_adapter@_W@__crt_stdio_output@@@2@@__crt_stdio_output@@CAPEADXZ 0000000140193cc0 f i libucrtd:output.obj
 0002:000d8cd0       ?narrow_null_string@?$output_processor@_WV?$string_output_adapter@_W@__crt_stdio_output@@V?$positional_parameter_base@_WV?$string_output_adapter@_W@__crt_stdio_output@@@2@@__crt_stdio_output@@CAPEADXZ 0000000140193cd0 f i libucrtd:output.obj
 0002:000d8ce0       ?narrow_null_string@?$output_processor@_WV?$string_output_adapter@_W@__crt_stdio_output@@V?$standard_base@_WV?$string_output_adapter@_W@__crt_stdio_output@@@2@@__crt_stdio_output@@CAPEADXZ 0000000140193ce0 f i libucrtd:output.obj
 0002:000d8cf0       ?parse_int_from_format_string@?$output_processor@DV?$stream_output_adapter@D@__crt_stdio_output@@V?$format_validation_base@DV?$stream_output_adapter@D@__crt_stdio_output@@@2@@__crt_stdio_output@@AEAA_NQEAH@Z 0000000140193cf0 f i libucrtd:output.obj
 0002:000d8e20       ?parse_int_from_format_string@?$output_processor@DV?$stream_output_adapter@D@__crt_stdio_output@@V?$positional_parameter_base@DV?$stream_output_adapter@D@__crt_stdio_output@@@2@@__crt_stdio_output@@AEAA_NQEAH@Z 0000000140193e20 f i libucrtd:output.obj
 0002:000d8f50       ?parse_int_from_format_string@?$output_processor@DV?$stream_output_adapter@D@__crt_stdio_output@@V?$standard_base@DV?$stream_output_adapter@D@__crt_stdio_output@@@2@@__crt_stdio_output@@AEAA_NQEAH@Z 0000000140193f50 f i libucrtd:output.obj
 0002:000d9080       ?parse_int_from_format_string@?$output_processor@DV?$string_output_adapter@D@__crt_stdio_output@@V?$format_validation_base@DV?$string_output_adapter@D@__crt_stdio_output@@@2@@__crt_stdio_output@@AEAA_NQEAH@Z 0000000140194080 f i libucrtd:output.obj
 0002:000d91b0       ?parse_int_from_format_string@?$output_processor@DV?$string_output_adapter@D@__crt_stdio_output@@V?$positional_parameter_base@DV?$string_output_adapter@D@__crt_stdio_output@@@2@@__crt_stdio_output@@AEAA_NQEAH@Z 00000001401941b0 f i libucrtd:output.obj
 0002:000d92e0       ?parse_int_from_format_string@?$output_processor@DV?$string_output_adapter@D@__crt_stdio_output@@V?$standard_base@DV?$string_output_adapter@D@__crt_stdio_output@@@2@@__crt_stdio_output@@AEAA_NQEAH@Z 00000001401942e0 f i libucrtd:output.obj
 0002:000d9410       ?parse_int_from_format_string@?$output_processor@_WV?$stream_output_adapter@_W@__crt_stdio_output@@V?$format_validation_base@_WV?$stream_output_adapter@_W@__crt_stdio_output@@@2@@__crt_stdio_output@@AEAA_NQEAH@Z 0000000140194410 f i libucrtd:output.obj
 0002:000d9540       ?parse_int_from_format_string@?$output_processor@_WV?$stream_output_adapter@_W@__crt_stdio_output@@V?$positional_parameter_base@_WV?$stream_output_adapter@_W@__crt_stdio_output@@@2@@__crt_stdio_output@@AEAA_NQEAH@Z 0000000140194540 f i libucrtd:output.obj
 0002:000d9670       ?parse_int_from_format_string@?$output_processor@_WV?$stream_output_adapter@_W@__crt_stdio_output@@V?$standard_base@_WV?$stream_output_adapter@_W@__crt_stdio_output@@@2@@__crt_stdio_output@@AEAA_NQEAH@Z 0000000140194670 f i libucrtd:output.obj
 0002:000d97a0       ?parse_int_from_format_string@?$output_processor@_WV?$string_output_adapter@_W@__crt_stdio_output@@V?$format_validation_base@_WV?$string_output_adapter@_W@__crt_stdio_output@@@2@@__crt_stdio_output@@AEAA_NQEAH@Z 00000001401947a0 f i libucrtd:output.obj
 0002:000d98d0       ?parse_int_from_format_string@?$output_processor@_WV?$string_output_adapter@_W@__crt_stdio_output@@V?$positional_parameter_base@_WV?$string_output_adapter@_W@__crt_stdio_output@@@2@@__crt_stdio_output@@AEAA_NQEAH@Z 00000001401948d0 f i libucrtd:output.obj
 0002:000d9a00       ?parse_int_from_format_string@?$output_processor@_WV?$string_output_adapter@_W@__crt_stdio_output@@V?$standard_base@_WV?$string_output_adapter@_W@__crt_stdio_output@@@2@@__crt_stdio_output@@AEAA_NQEAH@Z 0000000140194a00 f i libucrtd:output.obj
 0002:000d9b30       ?process@?$output_processor@DV?$stream_output_adapter@D@__crt_stdio_output@@V?$format_validation_base@DV?$stream_output_adapter@D@__crt_stdio_output@@@2@@__crt_stdio_output@@QEAAHXZ 0000000140194b30 f i libucrtd:output.obj
 0002:000d9f70       ?process@?$output_processor@DV?$stream_output_adapter@D@__crt_stdio_output@@V?$positional_parameter_base@DV?$stream_output_adapter@D@__crt_stdio_output@@@2@@__crt_stdio_output@@QEAAHXZ 0000000140194f70 f i libucrtd:output.obj
 0002:000da3b0       ?process@?$output_processor@DV?$stream_output_adapter@D@__crt_stdio_output@@V?$standard_base@DV?$stream_output_adapter@D@__crt_stdio_output@@@2@@__crt_stdio_output@@QEAAHXZ 00000001401953b0 f i libucrtd:output.obj
 0002:000da7f0       ?process@?$output_processor@DV?$string_output_adapter@D@__crt_stdio_output@@V?$format_validation_base@DV?$string_output_adapter@D@__crt_stdio_output@@@2@@__crt_stdio_output@@QEAAHXZ 00000001401957f0 f i libucrtd:output.obj
 0002:000dac30       ?process@?$output_processor@DV?$string_output_adapter@D@__crt_stdio_output@@V?$positional_parameter_base@DV?$string_output_adapter@D@__crt_stdio_output@@@2@@__crt_stdio_output@@QEAAHXZ 0000000140195c30 f i libucrtd:output.obj
 0002:000db070       ?process@?$output_processor@DV?$string_output_adapter@D@__crt_stdio_output@@V?$standard_base@DV?$string_output_adapter@D@__crt_stdio_output@@@2@@__crt_stdio_output@@QEAAHXZ 0000000140196070 f i libucrtd:output.obj
 0002:000db4b0       ?process@?$output_processor@_WV?$stream_output_adapter@_W@__crt_stdio_output@@V?$format_validation_base@_WV?$stream_output_adapter@_W@__crt_stdio_output@@@2@@__crt_stdio_output@@QEAAHXZ 00000001401964b0 f i libucrtd:output.obj
 0002:000db8f0       ?process@?$output_processor@_WV?$stream_output_adapter@_W@__crt_stdio_output@@V?$positional_parameter_base@_WV?$stream_output_adapter@_W@__crt_stdio_output@@@2@@__crt_stdio_output@@QEAAHXZ 00000001401968f0 f i libucrtd:output.obj
 0002:000dbd30       ?process@?$output_processor@_WV?$stream_output_adapter@_W@__crt_stdio_output@@V?$standard_base@_WV?$stream_output_adapter@_W@__crt_stdio_output@@@2@@__crt_stdio_output@@QEAAHXZ 0000000140196d30 f i libucrtd:output.obj
 0002:000dc170       ?process@?$output_processor@_WV?$string_output_adapter@_W@__crt_stdio_output@@V?$format_validation_base@_WV?$string_output_adapter@_W@__crt_stdio_output@@@2@@__crt_stdio_output@@QEAAHXZ 0000000140197170 f i libucrtd:output.obj
 0002:000dc5b0       ?process@?$output_processor@_WV?$string_output_adapter@_W@__crt_stdio_output@@V?$positional_parameter_base@_WV?$string_output_adapter@_W@__crt_stdio_output@@@2@@__crt_stdio_output@@QEAAHXZ 00000001401975b0 f i libucrtd:output.obj
 0002:000dc9f0       ?process@?$output_processor@_WV?$string_output_adapter@_W@__crt_stdio_output@@V?$standard_base@_WV?$string_output_adapter@_W@__crt_stdio_output@@@2@@__crt_stdio_output@@QEAAHXZ 00000001401979f0 f i libucrtd:output.obj
 0002:000dce30       ?set_flag@?$output_processor@DV?$stream_output_adapter@D@__crt_stdio_output@@V?$format_validation_base@DV?$stream_output_adapter@D@__crt_stdio_output@@@2@@__crt_stdio_output@@AEAAXI@Z 0000000140197e30 f i libucrtd:output.obj
 0002:000dce60       ?set_flag@?$output_processor@DV?$stream_output_adapter@D@__crt_stdio_output@@V?$positional_parameter_base@DV?$stream_output_adapter@D@__crt_stdio_output@@@2@@__crt_stdio_output@@AEAAXI@Z 0000000140197e60 f i libucrtd:output.obj
 0002:000dce90       ?set_flag@?$output_processor@DV?$stream_output_adapter@D@__crt_stdio_output@@V?$standard_base@DV?$stream_output_adapter@D@__crt_stdio_output@@@2@@__crt_stdio_output@@AEAAXI@Z 0000000140197e90 f i libucrtd:output.obj
 0002:000dcec0       ?set_flag@?$output_processor@DV?$string_output_adapter@D@__crt_stdio_output@@V?$format_validation_base@DV?$string_output_adapter@D@__crt_stdio_output@@@2@@__crt_stdio_output@@AEAAXI@Z 0000000140197ec0 f i libucrtd:output.obj
 0002:000dcef0       ?set_flag@?$output_processor@DV?$string_output_adapter@D@__crt_stdio_output@@V?$positional_parameter_base@DV?$string_output_adapter@D@__crt_stdio_output@@@2@@__crt_stdio_output@@AEAAXI@Z 0000000140197ef0 f i libucrtd:output.obj
 0002:000dcf20       ?set_flag@?$output_processor@DV?$string_output_adapter@D@__crt_stdio_output@@V?$standard_base@DV?$string_output_adapter@D@__crt_stdio_output@@@2@@__crt_stdio_output@@AEAAXI@Z 0000000140197f20 f i libucrtd:output.obj
 0002:000dcf50       ?set_flag@?$output_processor@_WV?$stream_output_adapter@_W@__crt_stdio_output@@V?$format_validation_base@_WV?$stream_output_adapter@_W@__crt_stdio_output@@@2@@__crt_stdio_output@@AEAAXI@Z 0000000140197f50 f i libucrtd:output.obj
 0002:000dcf80       ?set_flag@?$output_processor@_WV?$stream_output_adapter@_W@__crt_stdio_output@@V?$positional_parameter_base@_WV?$stream_output_adapter@_W@__crt_stdio_output@@@2@@__crt_stdio_output@@AEAAXI@Z 0000000140197f80 f i libucrtd:output.obj
 0002:000dcfb0       ?set_flag@?$output_processor@_WV?$stream_output_adapter@_W@__crt_stdio_output@@V?$standard_base@_WV?$stream_output_adapter@_W@__crt_stdio_output@@@2@@__crt_stdio_output@@AEAAXI@Z 0000000140197fb0 f i libucrtd:output.obj
 0002:000dcfe0       ?set_flag@?$output_processor@_WV?$string_output_adapter@_W@__crt_stdio_output@@V?$format_validation_base@_WV?$string_output_adapter@_W@__crt_stdio_output@@@2@@__crt_stdio_output@@AEAAXI@Z 0000000140197fe0 f i libucrtd:output.obj
 0002:000dd010       ?set_flag@?$output_processor@_WV?$string_output_adapter@_W@__crt_stdio_output@@V?$positional_parameter_base@_WV?$string_output_adapter@_W@__crt_stdio_output@@@2@@__crt_stdio_output@@AEAAXI@Z 0000000140198010 f i libucrtd:output.obj
 0002:000dd040       ?set_flag@?$output_processor@_WV?$string_output_adapter@_W@__crt_stdio_output@@V?$standard_base@_WV?$string_output_adapter@_W@__crt_stdio_output@@@2@@__crt_stdio_output@@AEAAXI@Z 0000000140198040 f i libucrtd:output.obj
 0002:000dd070       ?should_format@?$positional_parameter_base@DV?$stream_output_adapter@D@__crt_stdio_output@@@__crt_stdio_output@@IEAA_NXZ 0000000140198070 f i libucrtd:output.obj
 0002:000dd0c0       ?should_format@?$positional_parameter_base@DV?$string_output_adapter@D@__crt_stdio_output@@@__crt_stdio_output@@IEAA_NXZ 00000001401980c0 f i libucrtd:output.obj
 0002:000dd110       ?should_format@?$positional_parameter_base@_WV?$stream_output_adapter@_W@__crt_stdio_output@@@__crt_stdio_output@@IEAA_NXZ 0000000140198110 f i libucrtd:output.obj
 0002:000dd160       ?should_format@?$positional_parameter_base@_WV?$string_output_adapter@_W@__crt_stdio_output@@@__crt_stdio_output@@IEAA_NXZ 0000000140198160 f i libucrtd:output.obj
 0002:000dd1b0       ?should_format@?$standard_base@DV?$stream_output_adapter@D@__crt_stdio_output@@@__crt_stdio_output@@IEAA_NXZ 00000001401981b0 f i libucrtd:output.obj
 0002:000dd1c0       ?should_format@?$standard_base@DV?$string_output_adapter@D@__crt_stdio_output@@@__crt_stdio_output@@IEAA_NXZ 00000001401981c0 f i libucrtd:output.obj
 0002:000dd1d0       ?should_format@?$standard_base@_WV?$stream_output_adapter@_W@__crt_stdio_output@@@__crt_stdio_output@@IEAA_NXZ 00000001401981d0 f i libucrtd:output.obj
 0002:000dd1e0       ?should_format@?$standard_base@_WV?$string_output_adapter@_W@__crt_stdio_output@@@__crt_stdio_output@@IEAA_NXZ 00000001401981e0 f i libucrtd:output.obj
 0002:000dd1f0       ?should_skip_normal_state_processing@?$positional_parameter_base@DV?$stream_output_adapter@D@__crt_stdio_output@@@__crt_stdio_output@@IEAA_NXZ 00000001401981f0 f i libucrtd:output.obj
 0002:000dd250       ?should_skip_normal_state_processing@?$positional_parameter_base@DV?$string_output_adapter@D@__crt_stdio_output@@@__crt_stdio_output@@IEAA_NXZ 0000000140198250 f i libucrtd:output.obj
 0002:000dd2b0       ?should_skip_normal_state_processing@?$positional_parameter_base@_WV?$stream_output_adapter@_W@__crt_stdio_output@@@__crt_stdio_output@@IEAA_NXZ 00000001401982b0 f i libucrtd:output.obj
 0002:000dd310       ?should_skip_normal_state_processing@?$positional_parameter_base@_WV?$string_output_adapter@_W@__crt_stdio_output@@@__crt_stdio_output@@IEAA_NXZ 0000000140198310 f i libucrtd:output.obj
 0002:000dd370       ?should_skip_normal_state_processing@?$standard_base@DV?$stream_output_adapter@D@__crt_stdio_output@@@__crt_stdio_output@@IEAA_NXZ 0000000140198370 f i libucrtd:output.obj
 0002:000dd380       ?should_skip_normal_state_processing@?$standard_base@DV?$string_output_adapter@D@__crt_stdio_output@@@__crt_stdio_output@@IEAA_NXZ 0000000140198380 f i libucrtd:output.obj
 0002:000dd390       ?should_skip_normal_state_processing@?$standard_base@_WV?$stream_output_adapter@_W@__crt_stdio_output@@@__crt_stdio_output@@IEAA_NXZ 0000000140198390 f i libucrtd:output.obj
 0002:000dd3a0       ?should_skip_normal_state_processing@?$standard_base@_WV?$string_output_adapter@_W@__crt_stdio_output@@@__crt_stdio_output@@IEAA_NXZ 00000001401983a0 f i libucrtd:output.obj
 0002:000dd3b0       ?should_skip_type_state_output@?$positional_parameter_base@DV?$stream_output_adapter@D@__crt_stdio_output@@@__crt_stdio_output@@IEBA_NXZ 00000001401983b0 f i libucrtd:output.obj
 0002:000dd400       ?should_skip_type_state_output@?$positional_parameter_base@DV?$string_output_adapter@D@__crt_stdio_output@@@__crt_stdio_output@@IEBA_NXZ 0000000140198400 f i libucrtd:output.obj
 0002:000dd450       ?should_skip_type_state_output@?$positional_parameter_base@_WV?$stream_output_adapter@_W@__crt_stdio_output@@@__crt_stdio_output@@IEBA_NXZ 0000000140198450 f i libucrtd:output.obj
 0002:000dd4a0       ?should_skip_type_state_output@?$positional_parameter_base@_WV?$string_output_adapter@_W@__crt_stdio_output@@@__crt_stdio_output@@IEBA_NXZ 00000001401984a0 f i libucrtd:output.obj
 0002:000dd4f0       ?should_skip_type_state_output@?$standard_base@DV?$stream_output_adapter@D@__crt_stdio_output@@@__crt_stdio_output@@IEBA_NXZ 00000001401984f0 f i libucrtd:output.obj
 0002:000dd500       ?should_skip_type_state_output@?$standard_base@DV?$string_output_adapter@D@__crt_stdio_output@@@__crt_stdio_output@@IEBA_NXZ 0000000140198500 f i libucrtd:output.obj
 0002:000dd510       ?should_skip_type_state_output@?$standard_base@_WV?$stream_output_adapter@_W@__crt_stdio_output@@@__crt_stdio_output@@IEBA_NXZ 0000000140198510 f i libucrtd:output.obj
 0002:000dd520       ?should_skip_type_state_output@?$standard_base@_WV?$string_output_adapter@_W@__crt_stdio_output@@@__crt_stdio_output@@IEBA_NXZ 0000000140198520 f i libucrtd:output.obj
 0002:000dd530       ?state_case_dot@?$output_processor@DV?$stream_output_adapter@D@__crt_stdio_output@@V?$format_validation_base@DV?$stream_output_adapter@D@__crt_stdio_output@@@2@@__crt_stdio_output@@AEAA_NXZ 0000000140198530 f i libucrtd:output.obj
 0002:000dd550       ?state_case_dot@?$output_processor@DV?$stream_output_adapter@D@__crt_stdio_output@@V?$positional_parameter_base@DV?$stream_output_adapter@D@__crt_stdio_output@@@2@@__crt_stdio_output@@AEAA_NXZ 0000000140198550 f i libucrtd:output.obj
 0002:000dd570       ?state_case_dot@?$output_processor@DV?$stream_output_adapter@D@__crt_stdio_output@@V?$standard_base@DV?$stream_output_adapter@D@__crt_stdio_output@@@2@@__crt_stdio_output@@AEAA_NXZ 0000000140198570 f i libucrtd:output.obj
 0002:000dd590       ?state_case_dot@?$output_processor@DV?$string_output_adapter@D@__crt_stdio_output@@V?$format_validation_base@DV?$string_output_adapter@D@__crt_stdio_output@@@2@@__crt_stdio_output@@AEAA_NXZ 0000000140198590 f i libucrtd:output.obj
 0002:000dd5b0       ?state_case_dot@?$output_processor@DV?$string_output_adapter@D@__crt_stdio_output@@V?$positional_parameter_base@DV?$string_output_adapter@D@__crt_stdio_output@@@2@@__crt_stdio_output@@AEAA_NXZ 00000001401985b0 f i libucrtd:output.obj
 0002:000dd5d0       ?state_case_dot@?$output_processor@DV?$string_output_adapter@D@__crt_stdio_output@@V?$standard_base@DV?$string_output_adapter@D@__crt_stdio_output@@@2@@__crt_stdio_output@@AEAA_NXZ 00000001401985d0 f i libucrtd:output.obj
 0002:000dd5f0       ?state_case_dot@?$output_processor@_WV?$stream_output_adapter@_W@__crt_stdio_output@@V?$format_validation_base@_WV?$stream_output_adapter@_W@__crt_stdio_output@@@2@@__crt_stdio_output@@AEAA_NXZ 00000001401985f0 f i libucrtd:output.obj
 0002:000dd610       ?state_case_dot@?$output_processor@_WV?$stream_output_adapter@_W@__crt_stdio_output@@V?$positional_parameter_base@_WV?$stream_output_adapter@_W@__crt_stdio_output@@@2@@__crt_stdio_output@@AEAA_NXZ 0000000140198610 f i libucrtd:output.obj
 0002:000dd630       ?state_case_dot@?$output_processor@_WV?$stream_output_adapter@_W@__crt_stdio_output@@V?$standard_base@_WV?$stream_output_adapter@_W@__crt_stdio_output@@@2@@__crt_stdio_output@@AEAA_NXZ 0000000140198630 f i libucrtd:output.obj
 0002:000dd650       ?state_case_dot@?$output_processor@_WV?$string_output_adapter@_W@__crt_stdio_output@@V?$format_validation_base@_WV?$string_output_adapter@_W@__crt_stdio_output@@@2@@__crt_stdio_output@@AEAA_NXZ 0000000140198650 f i libucrtd:output.obj
 0002:000dd670       ?state_case_dot@?$output_processor@_WV?$string_output_adapter@_W@__crt_stdio_output@@V?$positional_parameter_base@_WV?$string_output_adapter@_W@__crt_stdio_output@@@2@@__crt_stdio_output@@AEAA_NXZ 0000000140198670 f i libucrtd:output.obj
 0002:000dd690       ?state_case_dot@?$output_processor@_WV?$string_output_adapter@_W@__crt_stdio_output@@V?$standard_base@_WV?$string_output_adapter@_W@__crt_stdio_output@@@2@@__crt_stdio_output@@AEAA_NXZ 0000000140198690 f i libucrtd:output.obj
 0002:000dd6b0       ?state_case_flag@?$output_processor@DV?$stream_output_adapter@D@__crt_stdio_output@@V?$format_validation_base@DV?$stream_output_adapter@D@__crt_stdio_output@@@2@@__crt_stdio_output@@AEAA_NXZ 00000001401986b0 f i libucrtd:output.obj
 0002:000dd770       ?state_case_flag@?$output_processor@DV?$stream_output_adapter@D@__crt_stdio_output@@V?$positional_parameter_base@DV?$stream_output_adapter@D@__crt_stdio_output@@@2@@__crt_stdio_output@@AEAA_NXZ 0000000140198770 f i libucrtd:output.obj
 0002:000dd830       ?state_case_flag@?$output_processor@DV?$stream_output_adapter@D@__crt_stdio_output@@V?$standard_base@DV?$stream_output_adapter@D@__crt_stdio_output@@@2@@__crt_stdio_output@@AEAA_NXZ 0000000140198830 f i libucrtd:output.obj
 0002:000dd8f0       ?state_case_flag@?$output_processor@DV?$string_output_adapter@D@__crt_stdio_output@@V?$format_validation_base@DV?$string_output_adapter@D@__crt_stdio_output@@@2@@__crt_stdio_output@@AEAA_NXZ 00000001401988f0 f i libucrtd:output.obj
 0002:000dd9b0       ?state_case_flag@?$output_processor@DV?$string_output_adapter@D@__crt_stdio_output@@V?$positional_parameter_base@DV?$string_output_adapter@D@__crt_stdio_output@@@2@@__crt_stdio_output@@AEAA_NXZ 00000001401989b0 f i libucrtd:output.obj
 0002:000dda70       ?state_case_flag@?$output_processor@DV?$string_output_adapter@D@__crt_stdio_output@@V?$standard_base@DV?$string_output_adapter@D@__crt_stdio_output@@@2@@__crt_stdio_output@@AEAA_NXZ 0000000140198a70 f i libucrtd:output.obj
 0002:000ddb30       ?state_case_flag@?$output_processor@_WV?$stream_output_adapter@_W@__crt_stdio_output@@V?$format_validation_base@_WV?$stream_output_adapter@_W@__crt_stdio_output@@@2@@__crt_stdio_output@@AEAA_NXZ 0000000140198b30 f i libucrtd:output.obj
 0002:000ddbf0       ?state_case_flag@?$output_processor@_WV?$stream_output_adapter@_W@__crt_stdio_output@@V?$positional_parameter_base@_WV?$stream_output_adapter@_W@__crt_stdio_output@@@2@@__crt_stdio_output@@AEAA_NXZ 0000000140198bf0 f i libucrtd:output.obj
 0002:000ddcb0       ?state_case_flag@?$output_processor@_WV?$stream_output_adapter@_W@__crt_stdio_output@@V?$standard_base@_WV?$stream_output_adapter@_W@__crt_stdio_output@@@2@@__crt_stdio_output@@AEAA_NXZ 0000000140198cb0 f i libucrtd:output.obj
 0002:000ddd70       ?state_case_flag@?$output_processor@_WV?$string_output_adapter@_W@__crt_stdio_output@@V?$format_validation_base@_WV?$string_output_adapter@_W@__crt_stdio_output@@@2@@__crt_stdio_output@@AEAA_NXZ 0000000140198d70 f i libucrtd:output.obj
