; Listing generated by Microsoft (R) Optimizing Compiler Version 19.11.25547.0 

	TITLE	f:\users\krzysztof\documents\szko?a\2017-2018\informatyka\labolatorium\ruletka\ruletka\main.cpp
	.686P
	.XMM
	include listing.inc
	.model	flat

INCLUDELIB OLDNAMES

PUBLIC	??_C@_0BC@EOODALEL@Unknown?5exception?$AA@	; `string'
PUBLIC	??_C@_08EPJLHIJG@bad?5cast?$AA@			; `string'
PUBLIC	??_C@_00CNPNBAHC@?$AA@				; `string'
PUBLIC	??_C@_06JGCGFIEG@polish?$AA@			; `string'
PUBLIC	??_C@_0P@GMFAENOC@log_og?slny?4txt?$AA@		; `string'
PUBLIC	??_C@_05PDJBBECF@pause?$AA@			; `string'
PUBLIC	??_C@_0DM@FGCBIOFJ@Jak?$LJ?5opcje?5chcesz?5obstawic?5?$DP?5?$CIzg@ ; `string'
PUBLIC	??_C@_0N@KLINIBPG@p?5?9?5parzyste?$AA@		; `string'
PUBLIC	??_C@_0BA@GNAADEAG@n?5?9?5nieparzyste?$AA@	; `string'
PUBLIC	??_C@_0BC@GOMOHEMO@r?5?9?5czerwone?$CIred?$CJ?$AA@ ; `string'
PUBLIC	??_C@_0BC@LKBFHLDI@b?5?9?5czarne?$CIblack?$CJ?$AA@ ; `string'
PUBLIC	??_C@_0BB@FMNKHOJE@g?5?9?5g?srna?5po?$LDowa?$AA@ ; `string'
PUBLIC	??_C@_0BB@CHNPGJIO@d?5?9?5dolna?5po?$LDowa?$AA@	; `string'
PUBLIC	??_C@_0CN@EJBDEIIK@k1?0?5k2?0?5k3?5?9?5kolumna?51?0?5kolumna?5@ ; `string'
PUBLIC	??_C@_0CJ@KMEGGBFA@w1?0?5w2?0?5?4?4?4?0?5w12?5?9?5wiersz?5trzech@ ; `string'
PUBLIC	??_C@_0CP@FOKBNGLG@0?5?9?536?5?9?5pojedyncze?5pole?5o?5odpow@ ; `string'
PUBLIC	??_C@_01JBBJJEPG@p?$AA@				; `string'
PUBLIC	??_C@_01EFFIKLCJ@n?$AA@				; `string'
PUBLIC	??_C@_01KDCPPGHE@r?$AA@				; `string'
PUBLIC	??_C@_01OJONOECF@b?$AA@				; `string'
PUBLIC	??_C@_01JEJKBAGA@g?$AA@				; `string'
PUBLIC	??_C@_01LPLHEDKD@d?$AA@				; `string'
PUBLIC	??_C@_02ICGBAFJO@k1?$AA@			; `string'
PUBLIC	??_C@_02KJEMFGFN@k2?$AA@			; `string'
PUBLIC	??_C@_02LAFHGHBM@k3?$AA@			; `string'
PUBLIC	??_C@_02JHFNFPIK@w1?$AA@			; `string'
PUBLIC	??_C@_02LMHAAMEJ@w2?$AA@			; `string'
PUBLIC	??_C@_02KFGLDNAI@w3?$AA@			; `string'
PUBLIC	??_C@_02OKCKKLMP@w4?$AA@			; `string'
PUBLIC	??_C@_02PDDBJKIO@w5?$AA@			; `string'
PUBLIC	??_C@_02NIBMMJEN@w6?$AA@			; `string'
PUBLIC	??_C@_02MBAHPIAM@w7?$AA@			; `string'
PUBLIC	??_C@_02EGJPOEMD@w8?$AA@			; `string'
PUBLIC	??_C@_02FPIENFIC@w9?$AA@			; `string'
PUBLIC	??_C@_03NCLMABJC@w10?$AA@			; `string'
PUBLIC	??_C@_03MLKHDAND@w11?$AA@			; `string'
PUBLIC	??_C@_03OAIKGDBA@w12?$AA@			; `string'
PUBLIC	??_C@_01GBGANLPD@0?$AA@				; `string'
PUBLIC	??_C@_01HIHLOKLC@1?$AA@				; `string'
PUBLIC	??_C@_01FDFGLJHB@2?$AA@				; `string'
PUBLIC	??_C@_01EKENIIDA@3?$AA@				; `string'
PUBLIC	??_C@_01FAMBOPH@4?$AA@				; `string'
PUBLIC	??_C@_01BMBHCPLG@5?$AA@				; `string'
PUBLIC	??_C@_01DHDKHMHF@6?$AA@				; `string'
PUBLIC	??_C@_01COCBENDE@7?$AA@				; `string'
PUBLIC	??_C@_01KJLJFBPL@8?$AA@				; `string'
PUBLIC	??_C@_01LAKCGALK@9?$AA@				; `string'
PUBLIC	??_C@_02PKFBJPLJ@10?$AA@			; `string'
PUBLIC	??_C@_02ODEKKOPI@11?$AA@			; `string'
PUBLIC	??_C@_02MIGHPNDL@12?$AA@			; `string'
PUBLIC	??_C@_02NBHMMMHK@13?$AA@			; `string'
PUBLIC	??_C@_02JODNFKLN@14?$AA@			; `string'
PUBLIC	??_C@_02IHCGGLPM@15?$AA@			; `string'
PUBLIC	??_C@_02KMALDIDP@16?$AA@			; `string'
PUBLIC	??_C@_02LFBAAJHO@17?$AA@			; `string'
PUBLIC	??_C@_02DCIIBFLB@18?$AA@			; `string'
PUBLIC	??_C@_02CLJDCEPA@19?$AA@			; `string'
PUBLIC	??_C@_02PIBHCBOA@20?$AA@			; `string'
PUBLIC	??_C@_02OBAMBAKB@21?$AA@			; `string'
PUBLIC	??_C@_02MKCBEDGC@22?$AA@			; `string'
PUBLIC	??_C@_02NDDKHCCD@23?$AA@			; `string'
PUBLIC	??_C@_02JMHLOEOE@24?$AA@			; `string'
PUBLIC	??_C@_02IFGANFKF@25?$AA@			; `string'
PUBLIC	??_C@_02KOENIGGG@26?$AA@			; `string'
PUBLIC	??_C@_02LHFGLHCH@27?$AA@			; `string'
PUBLIC	??_C@_02DAMOKLOI@28?$AA@			; `string'
PUBLIC	??_C@_02CJNFJKKJ@29?$AA@			; `string'
PUBLIC	??_C@_02PJNFELNH@30?$AA@			; `string'
PUBLIC	??_C@_02OAMOHKJG@31?$AA@			; `string'
PUBLIC	??_C@_02MLODCJFF@32?$AA@			; `string'
PUBLIC	??_C@_02NCPIBIBE@33?$AA@			; `string'
PUBLIC	??_C@_02JNLJIOND@34?$AA@			; `string'
PUBLIC	??_C@_02IEKCLPJC@35?$AA@			; `string'
PUBLIC	??_C@_02KPIPOMFB@36?$AA@			; `string'
PUBLIC	??_C@_0CF@BGACGNBA@$?0?5jak?$LJ?5kwot?j?5chcesz?5obstawi?f?5wy@ ; `string'
PUBLIC	??_C@_05OMMBNPEF@Masz?5?$AA@			; `string'
PUBLIC	??_C@_0CD@OGNPPNBN@Wprowadzi?$LDe?f?5nieprawid?$LDow?$LJ?5warto@ ; `string'
PUBLIC	??_C@_01PBGHHLMH@?$AH?$AA@			; `string'
PUBLIC	??_C@_0CF@LJDHNEHM@Nie?5mo?$LPesz?5obstawi?f?5zerowego?5zak@ ; `string'
PUBLIC	??_C@_0BI@CMKDFAEK@Nie?5masz?5tyle?5pieni?jdzy?$AA@ ; `string'
PUBLIC	??_C@_0CJ@PMIHJCIC@Nie?5mo?$LPesz?5obstawi?f?5ujemn?$LJ?5kwot?$LJ@ ; `string'
PUBLIC	??_C@_02MGHEPNFN@?$AI?$AI?$AA@			; `string'
PUBLIC	??_C@_02KNHHEEKP@?5?5?$AA@			; `string'
PUBLIC	??_C@_0BC@IEHJKDDM@Wylosowano?5numer?5?$AA@	; `string'
PUBLIC	??_C@_02KHOJGJKF@?4?5?$AA@			; `string'
PUBLIC	??_C@_02DEPNMBPN@$?4?$AA@			; `string'
PUBLIC	??_C@_0CB@MBIMKPJH@Obstawiles?5poprawnie?0?5wygrywasz?5@ ; `string'
PUBLIC	??_C@_0EF@FAPGEAPP@Obstawiles?5niepoprawnie?5lecz?5uda@ ; `string'
PUBLIC	??_C@_0CF@EMPIFKEH@Obstawiles?5niepoprawnie?0?5przegra@ ; `string'
PUBLIC	??_C@_0CM@BIICBBPD@Nie?5mo?$LPesz?5kontynuowa?f?0?5przegra?$LD@ ; `string'
PUBLIC	??_C@_0DB@MONJHHJM@$?0?5czy?5chcesz?5grac?5dalej?$CI?8t?8?5?9?5t@ ; `string'
PUBLIC	??_C@_0BA@KCLBOCHC@Na?5koncie?5masz?5?$AA@	; `string'
PUBLIC	??_C@_01PFHFFBPC@t?$AA@				; `string'
PUBLIC	??_C@_03PFPKAEFD@tak?$AA@			; `string'
PUBLIC	??_C@_03FFMIKLGN@Tak?$AA@			; `string'
PUBLIC	??_C@_03PIABMJCP@TAK?$AA@			; `string'
PUBLIC	??_C@_03FKMOMPJO@nie?$AA@			; `string'
PUBLIC	??_C@_03PKPMGAKA@Nie?$AA@			; `string'
PUBLIC	??_C@_03FHDFACOC@NIE?$AA@			; `string'
PUBLIC	??_C@_04IBLEHOMF@?4wav?$AA@			; `string'
PUBLIC	??_C@_05PNHGCFLK@p?4wav?$AA@			; `string'
PUBLIC	??_C@_05MEKKEGFB@n?4wav?$AA@			; `string'
PUBLIC	??_C@_05LALOIELB@r?4wav?$AA@			; `string'
PUBLIC	??_C@_05LDGIIGCK@b?4wav?$AA@			; `string'
PUBLIC	??_C@_05ODKFBHJJ@g?4wav?$AA@			; `string'
PUBLIC	??_C@_05GFDBGFDH@d?4wav?$AA@			; `string'
PUBLIC	??_C@_01DICPFPGM@k?$AA@				; `string'
PUBLIC	??_C@_01NOFIACDB@w?$AA@				; `string'
PUBLIC	??_C@_0BB@KLDNCCFE@log_aktualny?4txt?$AA@	; `string'
PUBLIC	??_C@_0DJ@EFIKGJBI@Uruchomiono?5ponownie?5gr?j?5z?5wy?$LD?$LJc@ ; `string'
PUBLIC	??_C@_09LFKNBKJA@Posiadasz?$AA@			; `string'
PUBLIC	??_C@_0L@DAFLKCID@Wylosowano?$AA@		; `string'
PUBLIC	??_C@_0M@DIDIAOPI@?5Wylosowano?$AA@		; `string'
PUBLIC	??_C@_0BC@EAGHPBJK@Obstawiono?5zaklad?$AA@	; `string'
PUBLIC	??_C@_0O@POHKAIHJ@Obstawiono?5za?$AA@		; `string'
PUBLIC	??_C@_0BE@CILJHICG@Gra?5rozpoczeta?5dnia?$AA@	; `string'
PUBLIC	??_C@_0N@KHLIPMCA@?5o?5godzinie?5?$AA@		; `string'
PUBLIC	??_C@_01LFCBOECM@?4?$AA@			; `string'
PUBLIC	??_C@_0BF@EHKBBICH@Gra?5rozpoczeta?5dnia?5?$AA@	; `string'
PUBLIC	??_C@_01JLIPDDHJ@?3?$AA@			; `string'
PUBLIC	??_C@_0BK@PLEOEKGI@Nowa?5gra?5rozpoczeta?5dnia?5?$AA@ ; `string'
PUBLIC	??_C@_0BB@GJELGIOA@Efekty_d?$JPwi?jkowe?$AA@	; `string'
PUBLIC	??_C@_0BN@JMMCOBLJ@Efekty_d?$JPwi?jkowe?1bankrut?4wav?$AA@ ; `string'
PUBLIC	??_C@_0DC@DNDHBNPK@Rozpoczynam?5pobieranie?5brakuj?$LJcy@ ; `string'
PUBLIC	??_C@_0FP@HCIMMKGN@https?3?1?1github?4com?1talez2709?1Rul@ ; `string'
PUBLIC	??_C@_0IB@GKCCNHLI@Brak?5plik?sw?5dla?5efekt?sw?5d?$JPwi?jkow@ ; `string'
PUBLIC	??_C@_0BO@OCGMENDH@Efekty_d?$JPwi?jkowe?1wygrana1?4wav?$AA@ ; `string'
PUBLIC	??_C@_0BO@GEPIDPJJ@Efekty_d?$JPwi?jkowe?1wygrana2?4wav?$AA@ ; `string'
PUBLIC	??_C@_0GA@OFKIGHHP@https?3?1?1github?4com?1talez2709?1Rul@ ; `string'
PUBLIC	??_C@_0CF@PNMICDIM@Efekty_d?$JPwi?jkowe?1zwielokrotnenie@ ; `string'
PUBLIC	??_C@_0GH@BAJDCEKO@https?3?1?1github?4com?1talez2709?1Rul@ ; `string'
PUBLIC	??_C@_0CA@KILAJOJF@Pobrano?5brakuj?$LJce?5pliki?5efekt?sw?$AA@ ; `string'
PUBLIC	??_C@_05CMOJBPHN@G?$LDos?1?$AA@			; `string'
PUBLIC	??_C@_05KFCKMKOB@Jacek?$AA@			; `string'
PUBLIC	??_C@_03FPCJKMNP@Ewa?$AA@			; `string'
PUBLIC	??_C@_04CDICBAGM@Maja?$AA@			; `string'
PUBLIC	??_C@_03JIHJHPIE@Jan?$AA@			; `string'
PUBLIC	??_C@_06DKNIKMFF@Jacek2?$AA@			; `string'
PUBLIC	??_C@_04PLEDLCJI@Ewa2?$AA@			; `string'
PUBLIC	??_C@_05KJFHPLBC@Maja2?$AA@			; `string'
PUBLIC	??_C@_04HDNGKDH@Jan2?$AA@			; `string'
PUBLIC	??_C@_05NKPCGME@Agata?$AA@			; `string'
PUBLIC	??_C@_01IDAFKMJL@_?$AA@				; `string'
PUBLIC	??_C@_01KMDKNFGN@?1?$AA@			; `string'
PUBLIC	??_C@_0ED@KNLDKMLM@https?3?1?1github?4com?1talez2709?1Rul@ ; `string'
PUBLIC	??_C@_04JLFAMLOH@G?$LDos?$AA@			; `string'
PUBLIC	??_C@_0DB@JAANGCNE@Rozpoczynam?5pobieranie?5brakuj?$LJcy@ ; `string'
PUBLIC	??_C@_0FC@DPJNGIHL@Brak?5plik?sw?5dla?5g?$LDosu?5oraz?5nie?5m@ ; `string'
PUBLIC	??_C@_0BP@KIMEIPBM@Pobrano?5brakuj?$LJce?5pliki?5g?$LDos?sw?$AA@ ; `string'
PUBLIC	??_C@_0M@COFBHHKL@setting?4txt?$AA@		; `string'
PUBLIC	??_C@_0CC@GBEJJAFD@ilo?$JM?f_minimalna_obrot?sw_ruletki?5@ ; `string'
PUBLIC	??_C@_0CI@KGOEKJAK@ilo?$JM?f_max_dodatkowych_obrot?sw_ru@ ; `string'
PUBLIC	??_C@_0BP@NMHFMMDP@czas_przeskoku_kulki_szybki?550?$AA@ ; `string'
PUBLIC	??_C@_0BO@ELNOLLHD@czas_przeskoku_kulki_wolny?575?$AA@ ; `string'
PUBLIC	??_C@_0BJ@OHAGCGBG@czas_przerwy_dzwi?jku?5500?$AA@ ; `string'
PUBLIC	??_C@_0BJ@NJDCNPPC@styl_liczenia_wygranej?51?$AA@ ; `string'
PUBLIC	??_C@_0BG@DNDOADBI@kwota_pocz?$LJtkowa?51000?$AA@ ; `string'
PUBLIC	??_C@_0BA@ILKGKHCK@stan_d?$JPwi?jk?sw?51?$AA@	; `string'
PUBLIC	??_C@_0BG@EMABALP@czy_kontynuowa?f_gr?j?51?$AA@	; `string'
PUBLIC	??_C@_0BG@COMBOMN@g?$LDos_odczytu_numeru?51?$AA@ ; `string'
PUBLIC	??_C@_0BP@CJDLAIMM@g?$LDos_szybko?$JM?f_odczytu_numeru?54?$AA@ ; `string'
PUBLIC	??_C@_0BD@MFIDEEIL@efekty_d?$JPwi?jkowe?51?$AA@	; `string'
PUBLIC	??_C@_0GC@FGDMKFMP@Warto?$JM?f?5wolnego?5czasu?5przeskoku?5@ ; `string'
PUBLIC	??_C@_0BN@KMOICOCN@Ustawiam?5domy?$JMlne?5ustawienie?$AA@ ; `string'
PUBLIC	??_C@_0DL@EDLBNLFA@Ilo?$JM?f?5minimalna?5obrot?sw?5ruletki?5@ ; `string'
PUBLIC	??_C@_0DF@PACHBLM@Ilo?$JM?f?5max?5obrot?sw?5ruletki?5nie?5mo@ ; `string'
PUBLIC	??_C@_0EG@FJFKONPC@Jedna?5z?5deklaracji?5w?5sprawie?5obr@ ; `string'
PUBLIC	??_C@_0DH@EDACBMH@Styl?5liczeia?5wygranej?5przyjmuje?5@ ; `string'
PUBLIC	??_C@_0DD@CJFGHGHP@Czas?5przerwy?5d?$JPwi?jku?5nie?5mo?$LPe?5by@ ; `string'
PUBLIC	??_C@_0CP@ODEFLMCC@Kwota?5pocz?$LJtkowa?5nie?5mo?$LPe?5by?f?5mn@ ; `string'
PUBLIC	??_C@_0CP@LNDFINPO@Stan?5d?$JPwi?jk?sw?5przyjmuje?5warto?$JMci@ ; `string'
PUBLIC	??_C@_0DJ@OKKJHGDF@Opcja?5kontynuowania?5gry?5przyjmuj@ ; `string'
PUBLIC	??_C@_0EB@BAPPBOHB@Opcja?5g?$LDos?5odczytu?5numeru?5przyjm@ ; `string'
PUBLIC	??_C@_0ED@BNKOADPP@Opcja?5szybko?$JM?f?5g?$LDosu?5odczytu?5prz@ ; `string'
PUBLIC	??_C@_0DC@HENMFLLO@Opcja?5efekty?5d?$JPwi?jkowe?5przyjmuje@ ; `string'
PUBLIC	??_C@_0EG@GKBLFIMF@Nie?5mo?$LPesz?5mie?f?5wy?$LD?$LJczonych?5d?$JPwi@ ; `string'
PUBLIC	??_C@_0DF@LJEKJLPK@Nie?5mo?$LPesz?5mie?f?5wy?$LD?$LJczonych?5d?$JPwi@ ; `string'
PUBLIC	??_C@_01EPMOAMKG@$?$AA@				; `string'
PUBLIC	??_C@_0M@GPFIMODH@?5Wygrywasz?5?$AA@		; `string'
PUBLIC	??_C@_0M@GNFNLGIH@?5Posiadasz?5?$AA@		; `string'
PUBLIC	??_C@_07KIPBKJCE@win?4wav?$AA@			; `string'
PUBLIC	??_C@_0BL@LJEGNEAJ@?5Dostajesz?5polowe?5zak?$LDadu?5?$AA@ ; `string'
PUBLIC	??_C@_0N@NPCHEJIF@?5Przegrales?5?$AA@		; `string'
PUBLIC	??_C@_0BJ@GCHIFPGC@Ko?qczysz?5gr?j?5z?5wynikiem?5?$AA@ ; `string'
PUBLIC	??_C@_0CL@DCKMMPCF@Gratuluje?5zwi?jkszy?$LDe?$JM?5sw?sj?5zas?sb@ ; `string'
PUBLIC	??_C@_0BO@CAHFKDBP@?5krotnie?5sw?sj?5zas?sb?5finansowy?$AA@ ; `string'
PUBLIC	??_C@_0BH@GDCLDFHN@Gratuluje?5zwi?jkszy?$LDe?$JM?5?$AA@ ; `string'
PUBLIC	??_C@_0P@LMKDJHDC@Obstawiono?5za?5?$AA@		; `string'
PUBLIC	??_C@_0BD@IOLLNBIB@Obstawiono?5zak?$LDad?5?$AA@	; `string'
PUBLIC	??_C@_0BE@EKDPDLOA@?5Obstawiono?5zaklad?5?$AA@	; `string'
PUBLIC	??_C@_0DA@EJNBAHOM@Kulka?5w?5grze?0?5zaczekaj?5na?5wyloso@ ; `string'
PUBLIC	??_C@_0N@CGNKGGIC@?5Wylosowano?5?$AA@		; `string'
PUBLIC	??_C@_0CA@FGPIEHEM@ilo?$JM?f_minimalna_obrot?sw_ruletki?$AA@ ; `string'
PUBLIC	??_C@_0CG@KNEPJEMG@ilo?$JM?f_max_dodatkowych_obrot?sw_ru@ ; `string'
PUBLIC	??_C@_0BM@MMKKMDHC@czas_przeskoku_kulki_szybki?$AA@ ; `string'
PUBLIC	??_C@_0BL@LHGCEKLG@czas_przeskoku_kulki_wolny?$AA@ ; `string'
PUBLIC	??_C@_0BH@LAIPMCHF@styl_liczenia_wygranej?$AA@	; `string'
PUBLIC	??_C@_0BB@KJAOIHBF@kwota_pocz?$LJtkowa?$AA@	; `string'
PUBLIC	??_C@_0O@JDOJANCO@stan_d?$JPwi?jk?sw?$AA@	; `string'
PUBLIC	??_C@_0BE@MGBNNKM@czy_kontynuowa?f_gr?j?$AA@	; `string'
PUBLIC	??_C@_0BE@ILPCOCN@g?$LDos_odczytu_numeru?$AA@	; `string'
PUBLIC	??_C@_0BN@ECEAENDF@g?$LDos_szybko?$JM?f_odczytu_numeru?$AA@ ; `string'
PUBLIC	??_C@_0BB@EHOIFKBK@efekty_d?$JPwi?jkowe?$AA@	; `string'
PUBLIC	??_C@_0BI@CFPLBAOH@invalid?5string?5position?$AA@ ; `string'
PUBLIC	??_C@_0BA@JFNIOLAK@string?5too?5long?$AA@	; `string'
PUBLIC	??_R3?$basic_istream@DU?$char_traits@D@std@@@std@@8 ; std::basic_istream<char,std::char_traits<char> >::`RTTI Class Hierarchy Descriptor'
PUBLIC	??_R3?$basic_iostream@DU?$char_traits@D@std@@@std@@8 ; std::basic_iostream<char,std::char_traits<char> >::`RTTI Class Hierarchy Descriptor'
PUBLIC	??_R0?AV?$basic_stringstream@DU?$char_traits@D@std@@V?$allocator@D@2@@std@@@8 ; std::basic_stringstream<char,std::char_traits<char>,std::allocator<char> > `RTTI Type Descriptor'
PUBLIC	??_R2?$basic_fstream@DU?$char_traits@D@std@@@std@@8 ; std::basic_fstream<char,std::char_traits<char> >::`RTTI Base Class Array'
PUBLIC	??_R0?AV?$basic_filebuf@DU?$char_traits@D@std@@@std@@@8 ; std::basic_filebuf<char,std::char_traits<char> > `RTTI Type Descriptor'
PUBLIC	??_R4exception@std@@6B@				; std::exception::`RTTI Complete Object Locator'
PUBLIC	?czy_kontynuowaæ_grê@@3FA			; czy_kontynuowaæ_grê
PUBLIC	??_R4?$basic_ofstream@DU?$char_traits@D@std@@@std@@6B@ ; std::basic_ofstream<char,std::char_traits<char> >::`RTTI Complete Object Locator'
PUBLIC	??_R0?AV?$basic_fstream@DU?$char_traits@D@std@@@std@@@8 ; std::basic_fstream<char,std::char_traits<char> > `RTTI Type Descriptor'
PUBLIC	?iloœæ_max_dodatkowych_obrotów_ruletki@@3FA	; iloœæ_max_dodatkowych_obrotów_ruletki
PUBLIC	?iloœæ_minimalna_obrotów_ruletki@@3FA		; iloœæ_minimalna_obrotów_ruletki
PUBLIC	??_8?$basic_fstream@DU?$char_traits@D@std@@@std@@7B?$basic_ostream@DU?$char_traits@D@std@@@1@@ ; std::basic_fstream<char,std::char_traits<char> >::`vbtable'
PUBLIC	??_R3?$basic_ofstream@DU?$char_traits@D@std@@@std@@8 ; std::basic_ofstream<char,std::char_traits<char> >::`RTTI Class Hierarchy Descriptor'
PUBLIC	??_R1A@?0A@EA@?$basic_istream@DU?$char_traits@D@std@@@std@@8 ; std::basic_istream<char,std::char_traits<char> >::`RTTI Base Class Descriptor at (0,-1,0,64)'
PUBLIC	??_R0?AV?$basic_ifstream@DU?$char_traits@D@std@@@std@@@8 ; std::basic_ifstream<char,std::char_traits<char> > `RTTI Type Descriptor'
PUBLIC	?efekty_dŸwiêkowe@@3FA				; efekty_dŸwiêkowe
PUBLIC	?kwota_pocz¹tkowa@@3HA				; kwota_pocz¹tkowa
PUBLIC	?g³os_szybkoœæ_odczytu_numeru@@3FA		; g³os_szybkoœæ_odczytu_numeru
PUBLIC	??_R1A@?0A@EA@bad_cast@std@@8			; std::bad_cast::`RTTI Base Class Descriptor at (0,-1,0,64)'
PUBLIC	??_R3?$basic_ifstream@DU?$char_traits@D@std@@@std@@8 ; std::basic_ifstream<char,std::char_traits<char> >::`RTTI Class Hierarchy Descriptor'
PUBLIC	??_R0?AV?$basic_stringbuf@DU?$char_traits@D@std@@V?$allocator@D@2@@std@@@8 ; std::basic_stringbuf<char,std::char_traits<char>,std::allocator<char> > `RTTI Type Descriptor'
PUBLIC	??_R0?AVios_base@std@@@8			; std::ios_base `RTTI Type Descriptor'
PUBLIC	??_R2?$basic_stringbuf@DU?$char_traits@D@std@@V?$allocator@D@2@@std@@8 ; std::basic_stringbuf<char,std::char_traits<char>,std::allocator<char> >::`RTTI Base Class Array'
PUBLIC	??_R1A@?0A@EA@?$basic_ifstream@DU?$char_traits@D@std@@@std@@8 ; std::basic_ifstream<char,std::char_traits<char> >::`RTTI Base Class Descriptor at (0,-1,0,64)'
PUBLIC	??_R3?$basic_fstream@DU?$char_traits@D@std@@@std@@8 ; std::basic_fstream<char,std::char_traits<char> >::`RTTI Class Hierarchy Descriptor'
PUBLIC	?stan_dŸwiêków@@3FA				; stan_dŸwiêków
PUBLIC	??_R0?AV?$basic_iostream@DU?$char_traits@D@std@@@std@@@8 ; std::basic_iostream<char,std::char_traits<char> > `RTTI Type Descriptor'
PUBLIC	??_R17A@3EA@?$_Iosb@H@std@@8			; std::_Iosb<int>::`RTTI Base Class Descriptor at (8,0,4,64)'
PUBLIC	??_R1A@?0A@EA@?$basic_stringstream@DU?$char_traits@D@std@@V?$allocator@D@2@@std@@8 ; std::basic_stringstream<char,std::char_traits<char>,std::allocator<char> >::`RTTI Base Class Descriptor at (0,-1,0,64)'
PUBLIC	??_R1A@?0A@EA@?$basic_fstream@DU?$char_traits@D@std@@@std@@8 ; std::basic_fstream<char,std::char_traits<char> >::`RTTI Base Class Descriptor at (0,-1,0,64)'
PUBLIC	??_R1A@?0A@EA@exception@std@@8			; std::exception::`RTTI Base Class Descriptor at (0,-1,0,64)'
PUBLIC	??_R2?$basic_ofstream@DU?$char_traits@D@std@@@std@@8 ; std::basic_ofstream<char,std::char_traits<char> >::`RTTI Base Class Array'
PUBLIC	??_R1A@?0A@EA@?$basic_streambuf@DU?$char_traits@D@std@@@std@@8 ; std::basic_streambuf<char,std::char_traits<char> >::`RTTI Base Class Descriptor at (0,-1,0,64)'
PUBLIC	??_7?$basic_filebuf@DU?$char_traits@D@std@@@std@@6B@ ; std::basic_filebuf<char,std::char_traits<char> >::`vftable'
PUBLIC	??_8?$basic_stringstream@DU?$char_traits@D@std@@V?$allocator@D@2@@std@@7B?$basic_ostream@DU?$char_traits@D@std@@@1@@ ; std::basic_stringstream<char,std::char_traits<char>,std::allocator<char> >::`vbtable'
PUBLIC	??_R2?$basic_istream@DU?$char_traits@D@std@@@std@@8 ; std::basic_istream<char,std::char_traits<char> >::`RTTI Base Class Array'
PUBLIC	?czas_przeskoku_kulki_wolny@@3FA		; czas_przeskoku_kulki_wolny
PUBLIC	??_R0?AV?$_Iosb@H@std@@@8			; std::_Iosb<int> `RTTI Type Descriptor'
PUBLIC	??_7?$basic_ofstream@DU?$char_traits@D@std@@@std@@6B@ ; std::basic_ofstream<char,std::char_traits<char> >::`vftable'
PUBLIC	??_R0?AV?$basic_ofstream@DU?$char_traits@D@std@@@std@@@8 ; std::basic_ofstream<char,std::char_traits<char> > `RTTI Type Descriptor'
PUBLIC	?styl_liczenia_wygranej@@3FA			; styl_liczenia_wygranej
PUBLIC	??_R0?AV?$basic_streambuf@DU?$char_traits@D@std@@@std@@@8 ; std::basic_streambuf<char,std::char_traits<char> > `RTTI Type Descriptor'
PUBLIC	??_R3?$basic_stringbuf@DU?$char_traits@D@std@@V?$allocator@D@2@@std@@8 ; std::basic_stringbuf<char,std::char_traits<char>,std::allocator<char> >::`RTTI Class Hierarchy Descriptor'
PUBLIC	??_R2bad_cast@std@@8				; std::bad_cast::`RTTI Base Class Array'
PUBLIC	??_R2exception@std@@8				; std::exception::`RTTI Base Class Array'
PUBLIC	??_R2?$basic_ostream@DU?$char_traits@D@std@@@std@@8 ; std::basic_ostream<char,std::char_traits<char> >::`RTTI Base Class Array'
PUBLIC	??_7bad_cast@std@@6B@				; std::bad_cast::`vftable'
PUBLIC	??_R3?$basic_ios@DU?$char_traits@D@std@@@std@@8	; std::basic_ios<char,std::char_traits<char> >::`RTTI Class Hierarchy Descriptor'
PUBLIC	?czas_przeskoku_kulki_szybki@@3FA		; czas_przeskoku_kulki_szybki
PUBLIC	?g³os_odczytu_numeru@@3FA			; g³os_odczytu_numeru
PUBLIC	__CT??_R0?AVbad_cast@std@@@8??0bad_cast@std@@QAE@ABV01@@Z12
PUBLIC	??_8?$basic_ofstream@DU?$char_traits@D@std@@@std@@7B@ ; std::basic_ofstream<char,std::char_traits<char> >::`vbtable'
PUBLIC	??_R0?AVbad_cast@std@@@8			; std::bad_cast `RTTI Type Descriptor'
PUBLIC	__CTA2?AVbad_cast@std@@
PUBLIC	??_7?$basic_stringbuf@DU?$char_traits@D@std@@V?$allocator@D@2@@std@@6B@ ; std::basic_stringbuf<char,std::char_traits<char>,std::allocator<char> >::`vftable'
PUBLIC	??_7exception@std@@6B@				; std::exception::`vftable'
PUBLIC	?EfektyKompletne@@3_NA				; EfektyKompletne
PUBLIC	__TI2?AVbad_cast@std@@
PUBLIC	??_R1BA@?0A@EA@?$basic_ostream@DU?$char_traits@D@std@@@std@@8 ; std::basic_ostream<char,std::char_traits<char> >::`RTTI Base Class Descriptor at (16,-1,0,64)'
PUBLIC	??_R0?AV?$basic_istream@DU?$char_traits@D@std@@@std@@@8 ; std::basic_istream<char,std::char_traits<char> > `RTTI Type Descriptor'
PUBLIC	??_R4?$basic_ifstream@DU?$char_traits@D@std@@@std@@6B@ ; std::basic_ifstream<char,std::char_traits<char> >::`RTTI Complete Object Locator'
PUBLIC	??_R1A@?0A@EA@ios_base@std@@8			; std::ios_base::`RTTI Base Class Descriptor at (0,-1,0,64)'
PUBLIC	??_R3exception@std@@8				; std::exception::`RTTI Class Hierarchy Descriptor'
PUBLIC	??_R1A@?0A@EA@?$basic_ostream@DU?$char_traits@D@std@@@std@@8 ; std::basic_ostream<char,std::char_traits<char> >::`RTTI Base Class Descriptor at (0,-1,0,64)'
PUBLIC	??_R4?$basic_filebuf@DU?$char_traits@D@std@@@std@@6B@ ; std::basic_filebuf<char,std::char_traits<char> >::`RTTI Complete Object Locator'
PUBLIC	??_R0?AV?$basic_ios@DU?$char_traits@D@std@@@std@@@8 ; std::basic_ios<char,std::char_traits<char> > `RTTI Type Descriptor'
PUBLIC	??_7?$basic_stringstream@DU?$char_traits@D@std@@V?$allocator@D@2@@std@@6B@ ; std::basic_stringstream<char,std::char_traits<char>,std::allocator<char> >::`vftable'
PUBLIC	??_7?$basic_fstream@DU?$char_traits@D@std@@@std@@6B@ ; std::basic_fstream<char,std::char_traits<char> >::`vftable'
PUBLIC	??_R2?$basic_streambuf@DU?$char_traits@D@std@@@std@@8 ; std::basic_streambuf<char,std::char_traits<char> >::`RTTI Base Class Array'
PUBLIC	??_R1A@?0A@EA@?$_Iosb@H@std@@8			; std::_Iosb<int>::`RTTI Base Class Descriptor at (0,-1,0,64)'
PUBLIC	??_8?$basic_ifstream@DU?$char_traits@D@std@@@std@@7B@ ; std::basic_ifstream<char,std::char_traits<char> >::`vbtable'
PUBLIC	??_R1A@?0A@EA@?$basic_stringbuf@DU?$char_traits@D@std@@V?$allocator@D@2@@std@@8 ; std::basic_stringbuf<char,std::char_traits<char>,std::allocator<char> >::`RTTI Base Class Descriptor at (0,-1,0,64)'
PUBLIC	?npos@?$basic_string@DU?$char_traits@D@std@@V?$allocator@D@2@@std@@2IB ; std::basic_string<char,std::char_traits<char>,std::allocator<char> >::npos
PUBLIC	?_Psave@?$_Facetptr@V?$ctype@D@std@@@std@@2PBVfacet@locale@2@B ; std::_Facetptr<std::ctype<char> >::_Psave
PUBLIC	?_Psave@?$_Facetptr@V?$codecvt@DDU_Mbstatet@@@std@@@std@@2PBVfacet@locale@2@B ; std::_Facetptr<std::codecvt<char,char,_Mbstatet> >::_Psave
PUBLIC	??_R2?$basic_iostream@DU?$char_traits@D@std@@@std@@8 ; std::basic_iostream<char,std::char_traits<char> >::`RTTI Base Class Array'
PUBLIC	??_R3bad_cast@std@@8				; std::bad_cast::`RTTI Class Hierarchy Descriptor'
PUBLIC	??_R2?$basic_stringstream@DU?$char_traits@D@std@@V?$allocator@D@2@@std@@8 ; std::basic_stringstream<char,std::char_traits<char>,std::allocator<char> >::`RTTI Base Class Array'
PUBLIC	??_R4bad_cast@std@@6B@				; std::bad_cast::`RTTI Complete Object Locator'
PUBLIC	??_R4?$basic_stringbuf@DU?$char_traits@D@std@@V?$allocator@D@2@@std@@6B@ ; std::basic_stringbuf<char,std::char_traits<char>,std::allocator<char> >::`RTTI Complete Object Locator'
PUBLIC	??_R4?$basic_stringstream@DU?$char_traits@D@std@@V?$allocator@D@2@@std@@6B@ ; std::basic_stringstream<char,std::char_traits<char>,std::allocator<char> >::`RTTI Complete Object Locator'
PUBLIC	??_R1A@?0A@EA@?$basic_ofstream@DU?$char_traits@D@std@@@std@@8 ; std::basic_ofstream<char,std::char_traits<char> >::`RTTI Base Class Descriptor at (0,-1,0,64)'
PUBLIC	__CT??_R0?AVexception@std@@@8??0exception@std@@QAE@ABV01@@Z12
PUBLIC	??_8?$basic_fstream@DU?$char_traits@D@std@@@std@@7B?$basic_istream@DU?$char_traits@D@std@@@1@@ ; std::basic_fstream<char,std::char_traits<char> >::`vbtable'
PUBLIC	??_R1A@?0A@EA@?$basic_filebuf@DU?$char_traits@D@std@@@std@@8 ; std::basic_filebuf<char,std::char_traits<char> >::`RTTI Base Class Descriptor at (0,-1,0,64)'
PUBLIC	?Czas@@3U_SYSTEMTIME@@A				; Czas
PUBLIC	??_R1A@A@3FA@?$basic_ios@DU?$char_traits@D@std@@@std@@8 ; std::basic_ios<char,std::char_traits<char> >::`RTTI Base Class Descriptor at (0,0,4,80)'
PUBLIC	??_R3?$basic_filebuf@DU?$char_traits@D@std@@@std@@8 ; std::basic_filebuf<char,std::char_traits<char> >::`RTTI Class Hierarchy Descriptor'
PUBLIC	?G³osyKompletne@@3_NA				; G³osyKompletne
PUBLIC	??_R0?AV?$basic_ostream@DU?$char_traits@D@std@@@std@@@8 ; std::basic_ostream<char,std::char_traits<char> > `RTTI Type Descriptor'
PUBLIC	??_R2ios_base@std@@8				; std::ios_base::`RTTI Base Class Array'
PUBLIC	??_R3?$basic_ostream@DU?$char_traits@D@std@@@std@@8 ; std::basic_ostream<char,std::char_traits<char> >::`RTTI Class Hierarchy Descriptor'
PUBLIC	??_R1A@?0A@EA@?$basic_iostream@DU?$char_traits@D@std@@@std@@8 ; std::basic_iostream<char,std::char_traits<char> >::`RTTI Base Class Descriptor at (0,-1,0,64)'
PUBLIC	??_8?$basic_stringstream@DU?$char_traits@D@std@@V?$allocator@D@2@@std@@7B?$basic_istream@DU?$char_traits@D@std@@@1@@ ; std::basic_stringstream<char,std::char_traits<char>,std::allocator<char> >::`vbtable'
PUBLIC	??_R3ios_base@std@@8				; std::ios_base::`RTTI Class Hierarchy Descriptor'
PUBLIC	??_R2?$basic_filebuf@DU?$char_traits@D@std@@@std@@8 ; std::basic_filebuf<char,std::char_traits<char> >::`RTTI Base Class Array'
PUBLIC	??_R3?$basic_streambuf@DU?$char_traits@D@std@@@std@@8 ; std::basic_streambuf<char,std::char_traits<char> >::`RTTI Class Hierarchy Descriptor'
PUBLIC	??_R3?$basic_stringstream@DU?$char_traits@D@std@@V?$allocator@D@2@@std@@8 ; std::basic_stringstream<char,std::char_traits<char>,std::allocator<char> >::`RTTI Class Hierarchy Descriptor'
PUBLIC	??_7?$basic_ifstream@DU?$char_traits@D@std@@@std@@6B@ ; std::basic_ifstream<char,std::char_traits<char> >::`vftable'
PUBLIC	??_R2?$_Iosb@H@std@@8				; std::_Iosb<int>::`RTTI Base Class Array'
PUBLIC	??_R1A@A@3EA@ios_base@std@@8			; std::ios_base::`RTTI Base Class Descriptor at (0,0,4,64)'
PUBLIC	??_R1A@?0A@EA@?$basic_ios@DU?$char_traits@D@std@@@std@@8 ; std::basic_ios<char,std::char_traits<char> >::`RTTI Base Class Descriptor at (0,-1,0,64)'
PUBLIC	??_R4?$basic_fstream@DU?$char_traits@D@std@@@std@@6B@ ; std::basic_fstream<char,std::char_traits<char> >::`RTTI Complete Object Locator'
PUBLIC	??_R2?$basic_ifstream@DU?$char_traits@D@std@@@std@@8 ; std::basic_ifstream<char,std::char_traits<char> >::`RTTI Base Class Array'
PUBLIC	??_R3?$_Iosb@H@std@@8				; std::_Iosb<int>::`RTTI Class Hierarchy Descriptor'
PUBLIC	??_R0?AVexception@std@@@8			; std::exception `RTTI Type Descriptor'
PUBLIC	??_R17?0A@EA@?$_Iosb@H@std@@8			; std::_Iosb<int>::`RTTI Base Class Descriptor at (8,-1,0,64)'
PUBLIC	?czas_przerwy_dzwiêku@@3FA			; czas_przerwy_dzwiêku
PUBLIC	??_R2?$basic_ios@DU?$char_traits@D@std@@@std@@8	; std::basic_ios<char,std::char_traits<char> >::`RTTI Base Class Array'
EXTRN	__imp_??Bid@locale@std@@QAEIXZ:PROC
EXTRN	__imp_?always_noconv@codecvt_base@std@@QBE_NXZ:PROC
EXTRN	__imp_?is@?$ctype@D@std@@QBE_NFD@Z:PROC
EXTRN	__imp_?_Getcat@?$ctype@D@std@@SAIPAPBVfacet@locale@2@PBV42@@Z:PROC
EXTRN	__imp_?rdstate@ios_base@std@@QBEHXZ:PROC
EXTRN	__imp_?good@ios_base@std@@QBE_NXZ:PROC
EXTRN	__imp_?eof@ios_base@std@@QBE_NXZ:PROC
EXTRN	__imp_?flags@ios_base@std@@QBEHXZ:PROC
EXTRN	__imp_?width@ios_base@std@@QBE_JXZ:PROC
EXTRN	__imp_?width@ios_base@std@@QAE_J_J@Z:PROC
EXTRN	__imp_?getloc@ios_base@std@@QBE?AVlocale@2@XZ:PROC
EXTRN	__imp_??1?$basic_iostream@DU?$char_traits@D@std@@@std@@UAE@XZ:PROC
EXTRN	__imp_?flush@?$basic_ostream@DU?$char_traits@D@std@@@std@@QAEAAV12@XZ:PROC
EXTRN	__imp_??6?$basic_ostream@DU?$char_traits@D@std@@@std@@QAEAAV01@H@Z:PROC
EXTRN	__imp_??6?$basic_ostream@DU?$char_traits@D@std@@@std@@QAEAAV01@G@Z:PROC
EXTRN	__imp_??6?$basic_ostream@DU?$char_traits@D@std@@@std@@QAEAAV01@P6AAAV01@AAV01@@Z@Z:PROC
EXTRN	__imp_??1?$basic_ostream@DU?$char_traits@D@std@@@std@@UAE@XZ:PROC
EXTRN	__imp_??1?$basic_istream@DU?$char_traits@D@std@@@std@@UAE@XZ:PROC
EXTRN	?imbue@?$basic_streambuf@DU?$char_traits@D@std@@@std@@MAEXABVlocale@2@@Z:PROC ; std::basic_streambuf<char,std::char_traits<char> >::imbue
EXTRN	__imp_?imbue@?$basic_streambuf@DU?$char_traits@D@std@@@std@@MAEXABVlocale@2@@Z:PROC
EXTRN	?sync@?$basic_streambuf@DU?$char_traits@D@std@@@std@@MAEHXZ:PROC ; std::basic_streambuf<char,std::char_traits<char> >::sync
EXTRN	__imp_?sync@?$basic_streambuf@DU?$char_traits@D@std@@@std@@MAEHXZ:PROC
EXTRN	?setbuf@?$basic_streambuf@DU?$char_traits@D@std@@@std@@MAEPAV12@PAD_J@Z:PROC ; std::basic_streambuf<char,std::char_traits<char> >::setbuf
EXTRN	__imp_?setbuf@?$basic_streambuf@DU?$char_traits@D@std@@@std@@MAEPAV12@PAD_J@Z:PROC
EXTRN	?xsputn@?$basic_streambuf@DU?$char_traits@D@std@@@std@@MAE_JPBD_J@Z:PROC ; std::basic_streambuf<char,std::char_traits<char> >::xsputn
EXTRN	__imp_?xsputn@?$basic_streambuf@DU?$char_traits@D@std@@@std@@MAE_JPBD_J@Z:PROC
EXTRN	?xsgetn@?$basic_streambuf@DU?$char_traits@D@std@@@std@@MAE_JPAD_J@Z:PROC ; std::basic_streambuf<char,std::char_traits<char> >::xsgetn
EXTRN	__imp_?xsgetn@?$basic_streambuf@DU?$char_traits@D@std@@@std@@MAE_JPAD_J@Z:PROC
EXTRN	?uflow@?$basic_streambuf@DU?$char_traits@D@std@@@std@@MAEHXZ:PROC ; std::basic_streambuf<char,std::char_traits<char> >::uflow
EXTRN	__imp_?uflow@?$basic_streambuf@DU?$char_traits@D@std@@@std@@MAEHXZ:PROC
EXTRN	?showmanyc@?$basic_streambuf@DU?$char_traits@D@std@@@std@@MAE_JXZ:PROC ; std::basic_streambuf<char,std::char_traits<char> >::showmanyc
EXTRN	__imp_?showmanyc@?$basic_streambuf@DU?$char_traits@D@std@@@std@@MAE_JXZ:PROC
EXTRN	?_Unlock@?$basic_streambuf@DU?$char_traits@D@std@@@std@@UAEXXZ:PROC ; std::basic_streambuf<char,std::char_traits<char> >::_Unlock
EXTRN	__imp_?_Unlock@?$basic_streambuf@DU?$char_traits@D@std@@@std@@UAEXXZ:PROC
EXTRN	?_Lock@?$basic_streambuf@DU?$char_traits@D@std@@@std@@UAEXXZ:PROC ; std::basic_streambuf<char,std::char_traits<char> >::_Lock
EXTRN	__imp_?_Lock@?$basic_streambuf@DU?$char_traits@D@std@@@std@@UAEXXZ:PROC
EXTRN	__imp_??1?$basic_streambuf@DU?$char_traits@D@std@@@std@@UAE@XZ:PROC
EXTRN	__imp_??1?$basic_ios@DU?$char_traits@D@std@@@std@@UAE@XZ:PROC
EXTRN	__imp_?out@?$codecvt@DDU_Mbstatet@@@std@@QBEHAAU_Mbstatet@@PBD1AAPBDPAD3AAPAD@Z:PROC
EXTRN	__imp_?in@?$codecvt@DDU_Mbstatet@@@std@@QBEHAAU_Mbstatet@@PBD1AAPBDPAD3AAPAD@Z:PROC
EXTRN	__imp_??0?$basic_iostream@DU?$char_traits@D@std@@@std@@QAE@PAV?$basic_streambuf@DU?$char_traits@D@std@@@1@@Z:PROC
EXTRN	__imp_??0?$basic_ostream@DU?$char_traits@D@std@@@std@@QAE@PAV?$basic_streambuf@DU?$char_traits@D@std@@@1@_N@Z:PROC
EXTRN	__imp_??0?$basic_istream@DU?$char_traits@D@std@@@std@@QAE@PAV?$basic_streambuf@DU?$char_traits@D@std@@@1@_N@Z:PROC
EXTRN	__imp_?_Pninc@?$basic_streambuf@DU?$char_traits@D@std@@@std@@IAEPADXZ:PROC
EXTRN	__imp_?setp@?$basic_streambuf@DU?$char_traits@D@std@@@std@@IAEXPAD00@Z:PROC
EXTRN	__imp_?setp@?$basic_streambuf@DU?$char_traits@D@std@@@std@@IAEXPAD0@Z:PROC
EXTRN	__imp_?pbump@?$basic_streambuf@DU?$char_traits@D@std@@@std@@IAEXH@Z:PROC
EXTRN	__imp_?_Gninc@?$basic_streambuf@DU?$char_traits@D@std@@@std@@IAEPADXZ:PROC
EXTRN	__imp_?_Gndec@?$basic_streambuf@DU?$char_traits@D@std@@@std@@IAEPADXZ:PROC
EXTRN	__imp_?epptr@?$basic_streambuf@DU?$char_traits@D@std@@@std@@IBEPADXZ:PROC
EXTRN	__imp_?setg@?$basic_streambuf@DU?$char_traits@D@std@@@std@@IAEXPAD00@Z:PROC
EXTRN	__imp_?gbump@?$basic_streambuf@DU?$char_traits@D@std@@@std@@IAEXH@Z:PROC
EXTRN	__imp_?egptr@?$basic_streambuf@DU?$char_traits@D@std@@@std@@IBEPADXZ:PROC
EXTRN	__imp_?pptr@?$basic_streambuf@DU?$char_traits@D@std@@@std@@IBEPADXZ:PROC
EXTRN	__imp_?pbase@?$basic_streambuf@DU?$char_traits@D@std@@@std@@IBEPADXZ:PROC
EXTRN	__imp_?gptr@?$basic_streambuf@DU?$char_traits@D@std@@@std@@IBEPADXZ:PROC
EXTRN	__imp_?eback@?$basic_streambuf@DU?$char_traits@D@std@@@std@@IBEPADXZ:PROC
EXTRN	__imp_??0?$basic_ios@DU?$char_traits@D@std@@@std@@IAE@XZ:PROC
EXTRN	__imp_?fill@?$basic_ios@DU?$char_traits@D@std@@@std@@QBEDXZ:PROC
EXTRN	__imp_?rdbuf@?$basic_ios@DU?$char_traits@D@std@@@std@@QBEPAV?$basic_streambuf@DU?$char_traits@D@std@@@2@XZ:PROC
EXTRN	__imp_?setstate@?$basic_ios@DU?$char_traits@D@std@@@std@@QAEXH_N@Z:PROC
EXTRN	__imp_?clear@?$basic_ios@DU?$char_traits@D@std@@@std@@QAEXH_N@Z:PROC
EXTRN	__imp_?unshift@?$codecvt@DDU_Mbstatet@@@std@@QBEHAAU_Mbstatet@@PAD1AAPAD@Z:PROC
EXTRN	__imp_?_Osfx@?$basic_ostream@DU?$char_traits@D@std@@@std@@QAEXXZ:PROC
EXTRN	__imp_?_Init@?$basic_streambuf@DU?$char_traits@D@std@@@std@@IAEXPAPAD0PAH001@Z:PROC
EXTRN	__imp_?_Init@?$basic_streambuf@DU?$char_traits@D@std@@@std@@IAEXXZ:PROC
EXTRN	__imp_?getloc@?$basic_streambuf@DU?$char_traits@D@std@@@std@@QBE?AVlocale@2@XZ:PROC
EXTRN	__imp_??0?$basic_streambuf@DU?$char_traits@D@std@@@std@@IAE@XZ:PROC
EXTRN	__imp_?tie@?$basic_ios@DU?$char_traits@D@std@@@std@@QBEPAV?$basic_ostream@DU?$char_traits@D@std@@@2@XZ:PROC
EXTRN	__imp_?sputc@?$basic_streambuf@DU?$char_traits@D@std@@@std@@QAEHD@Z:PROC
EXTRN	__imp_?widen@?$basic_ios@DU?$char_traits@D@std@@@std@@QBEDD@Z:PROC
EXTRN	__imp_?sgetc@?$basic_streambuf@DU?$char_traits@D@std@@@std@@QAEHXZ:PROC
EXTRN	__imp_?sbumpc@?$basic_streambuf@DU?$char_traits@D@std@@@std@@QAEHXZ:PROC
EXTRN	__imp_?_Getcat@?$codecvt@DDU_Mbstatet@@@std@@SAIPAPBVfacet@locale@2@PBV42@@Z:PROC
EXTRN	__imp_?put@?$basic_ostream@DU?$char_traits@D@std@@@std@@QAEAAV12@D@Z:PROC
EXTRN	__imp_?sputn@?$basic_streambuf@DU?$char_traits@D@std@@@std@@QAE_JPBD_J@Z:PROC
EXTRN	__imp_?snextc@?$basic_streambuf@DU?$char_traits@D@std@@@std@@QAEHXZ:PROC
EXTRN	__imp_?_Ipfx@?$basic_istream@DU?$char_traits@D@std@@@std@@QAE_N_N@Z:PROC
EXTRN	__imp___get_stream_buffer_pointers:PROC
EXTRN	__imp___invalid_parameter_noinfo_noreturn:PROC
EXTRN	__imp___fseeki64:PROC
EXTRN	??_7type_info@@6B@:QWORD			; type_info::`vftable'
EXTRN	__imp__GetSystemTime@4:PROC
EXTRN	__imp__CreateDirectoryA@8:PROC
EXTRN	__imp__fsetpos:PROC
EXTRN	__imp____std_terminate:PROC
EXTRN	__imp__ungetc:PROC
EXTRN	__imp__atoi:PROC
EXTRN	__imp___time64:PROC
EXTRN	__imp__memchr:PROC
EXTRN	__imp__setvbuf:PROC
EXTRN	__imp__fgetpos:PROC
EXTRN	__imp___errno:PROC
EXTRN	__imp__fwrite:PROC
EXTRN	__imp___lock_file:PROC
EXTRN	__imp___unlock_file:PROC
EXTRN	__imp__SetConsoleCursorInfo@8:PROC
EXTRN	__imp___access:PROC
EXTRN	__imp__system:PROC
EXTRN	__imp__Sleep@4:PROC
EXTRN	__imp__PlaySoundA@12:PROC
EXTRN	??3@YAXPAXI@Z:PROC				; operator delete
EXTRN	??3@YAXPAX@Z:PROC				; operator delete
EXTRN	__imp___invalid_parameter_noinfo:PROC
EXTRN	__imp__fgetc:PROC
EXTRN	_atexit:PROC
EXTRN	__imp__rand:PROC
EXTRN	__imp____std_exception_copy:PROC
EXTRN	__imp__URLDownloadToFileA@20:PROC
EXTRN	__imp__remove:PROC
EXTRN	__imp_?_Xlength_error@std@@YAXPBD@Z:PROC
EXTRN	__imp_?_Random_device@std@@YAIXZ:PROC
EXTRN	__imp_?id@?$ctype@D@std@@2V0locale@2@A:DWORD
EXTRN	__imp_?_Fiopen@std@@YAPAU_iobuf@@PBDHH@Z:PROC
EXTRN	?_Facet_Register@std@@YAXPAV_Facet_base@1@@Z:PROC ; std::_Facet_Register
EXTRN	__imp_?id@?$codecvt@DDU_Mbstatet@@@std@@2V0locale@2@A:DWORD
EXTRN	__imp_?_BADOFF@std@@3_JB:QWORD
EXTRN	__imp_?_Xout_of_range@std@@YAXPBD@Z:PROC
EXTRN	__imp_?_Xbad_alloc@std@@YAXXZ:PROC
EXTRN	__imp_?cin@std@@3V?$basic_istream@DU?$char_traits@D@std@@@1@A:BYTE
EXTRN	__imp_?uncaught_exception@std@@YA_NXZ:PROC
EXTRN	__imp_?_Getgloballocale@locale@std@@CAPAV_Locimp@12@XZ:PROC
EXTRN	__imp_?cout@std@@3V?$basic_ostream@DU?$char_traits@D@std@@@1@A:BYTE
EXTRN	__imp_??0_Lockit@std@@QAE@H@Z:PROC
EXTRN	__imp_??1_Lockit@std@@QAE@XZ:PROC
EXTRN	__imp__fclose:PROC
EXTRN	??2@YAPAXI@Z:PROC				; operator new
EXTRN	__imp__fflush:PROC
EXTRN	__imp__GetConsoleCursorInfo@8:PROC
EXTRN	__imp__srand:PROC
EXTRN	__imp__GetStdHandle@4:PROC
EXTRN	__imp__SetConsoleTextAttribute@8:PROC
EXTRN	__imp__memmove:PROC
EXTRN	__imp__fputc:PROC
EXTRN	__imp__setlocale:PROC
EXTRN	__imp____std_exception_destroy:PROC
EXTRN	@__security_check_cookie@4:PROC
EXTRN	__imp____CxxFrameHandler3:PROC
;	COMDAT ?_Psave@?$_Facetptr@V?$ctype@D@std@@@std@@2PBVfacet@locale@2@B
_BSS	SEGMENT
?_Psave@?$_Facetptr@V?$ctype@D@std@@@std@@2PBVfacet@locale@2@B DD 01H DUP (?) ; std::_Facetptr<std::ctype<char> >::_Psave
_BSS	ENDS
;	COMDAT ?_Psave@?$_Facetptr@V?$codecvt@DDU_Mbstatet@@@std@@@std@@2PBVfacet@locale@2@B
_BSS	SEGMENT
?_Psave@?$_Facetptr@V?$codecvt@DDU_Mbstatet@@@std@@@std@@2PBVfacet@locale@2@B DD 01H DUP (?) ; std::_Facetptr<std::codecvt<char,char,_Mbstatet> >::_Psave
?Czas@@3U_SYSTEMTIME@@A DB 010H DUP (?)			; Czas
_BSS	ENDS
;	COMDAT ??_R2?$basic_ios@DU?$char_traits@D@std@@@std@@8
rdata$r	SEGMENT
??_R2?$basic_ios@DU?$char_traits@D@std@@@std@@8 DD FLAT:??_R1A@?0A@EA@?$basic_ios@DU?$char_traits@D@std@@@std@@8 ; std::basic_ios<char,std::char_traits<char> >::`RTTI Base Class Array'
	DD	FLAT:??_R1A@?0A@EA@ios_base@std@@8
	DD	FLAT:??_R17?0A@EA@?$_Iosb@H@std@@8
rdata$r	ENDS
;	COMDAT ??_R17?0A@EA@?$_Iosb@H@std@@8
rdata$r	SEGMENT
??_R17?0A@EA@?$_Iosb@H@std@@8 DD FLAT:??_R0?AV?$_Iosb@H@std@@@8 ; std::_Iosb<int>::`RTTI Base Class Descriptor at (8,-1,0,64)'
	DD	00H
	DD	08H
	DD	0ffffffffH
	DD	00H
	DD	040H
	DD	FLAT:??_R3?$_Iosb@H@std@@8
rdata$r	ENDS
;	COMDAT ??_R0?AVexception@std@@@8
data$r	SEGMENT
??_R0?AVexception@std@@@8 DD FLAT:??_7type_info@@6B@	; std::exception `RTTI Type Descriptor'
	DD	00H
	DB	'.?AVexception@std@@', 00H
data$r	ENDS
;	COMDAT ??_R3?$_Iosb@H@std@@8
rdata$r	SEGMENT
??_R3?$_Iosb@H@std@@8 DD 00H				; std::_Iosb<int>::`RTTI Class Hierarchy Descriptor'
	DD	00H
	DD	01H
	DD	FLAT:??_R2?$_Iosb@H@std@@8
rdata$r	ENDS
;	COMDAT ??_R2?$basic_ifstream@DU?$char_traits@D@std@@@std@@8
rdata$r	SEGMENT
??_R2?$basic_ifstream@DU?$char_traits@D@std@@@std@@8 DD FLAT:??_R1A@?0A@EA@?$basic_ifstream@DU?$char_traits@D@std@@@std@@8 ; std::basic_ifstream<char,std::char_traits<char> >::`RTTI Base Class Array'
	DD	FLAT:??_R1A@?0A@EA@?$basic_istream@DU?$char_traits@D@std@@@std@@8
	DD	FLAT:??_R1A@A@3FA@?$basic_ios@DU?$char_traits@D@std@@@std@@8
	DD	FLAT:??_R1A@A@3EA@ios_base@std@@8
	DD	FLAT:??_R17A@3EA@?$_Iosb@H@std@@8
rdata$r	ENDS
;	COMDAT ??_R4?$basic_fstream@DU?$char_traits@D@std@@@std@@6B@
rdata$r	SEGMENT
??_R4?$basic_fstream@DU?$char_traits@D@std@@@std@@6B@ DD 00H ; std::basic_fstream<char,std::char_traits<char> >::`RTTI Complete Object Locator'
	DD	078H
	DD	04H
	DD	FLAT:??_R0?AV?$basic_fstream@DU?$char_traits@D@std@@@std@@@8
	DD	FLAT:??_R3?$basic_fstream@DU?$char_traits@D@std@@@std@@8
rdata$r	ENDS
;	COMDAT ??_R1A@?0A@EA@?$basic_ios@DU?$char_traits@D@std@@@std@@8
rdata$r	SEGMENT
??_R1A@?0A@EA@?$basic_ios@DU?$char_traits@D@std@@@std@@8 DD FLAT:??_R0?AV?$basic_ios@DU?$char_traits@D@std@@@std@@@8 ; std::basic_ios<char,std::char_traits<char> >::`RTTI Base Class Descriptor at (0,-1,0,64)'
	DD	02H
	DD	00H
	DD	0ffffffffH
	DD	00H
	DD	040H
	DD	FLAT:??_R3?$basic_ios@DU?$char_traits@D@std@@@std@@8
rdata$r	ENDS
;	COMDAT ??_R1A@A@3EA@ios_base@std@@8
rdata$r	SEGMENT
??_R1A@A@3EA@ios_base@std@@8 DD FLAT:??_R0?AVios_base@std@@@8 ; std::ios_base::`RTTI Base Class Descriptor at (0,0,4,64)'
	DD	01H
	DD	00H
	DD	00H
	DD	04H
	DD	040H
	DD	FLAT:??_R3ios_base@std@@8
rdata$r	ENDS
;	COMDAT ??_R2?$_Iosb@H@std@@8
rdata$r	SEGMENT
??_R2?$_Iosb@H@std@@8 DD FLAT:??_R1A@?0A@EA@?$_Iosb@H@std@@8 ; std::_Iosb<int>::`RTTI Base Class Array'
rdata$r	ENDS
;	COMDAT ??_7?$basic_ifstream@DU?$char_traits@D@std@@@std@@6B@
CONST	SEGMENT
??_7?$basic_ifstream@DU?$char_traits@D@std@@@std@@6B@ DD FLAT:??_R4?$basic_ifstream@DU?$char_traits@D@std@@@std@@6B@ ; std::basic_ifstream<char,std::char_traits<char> >::`vftable'
	DD	FLAT:??_E?$basic_ifstream@DU?$char_traits@D@std@@@std@@$4PPPPPPPM@A@AEPAXI@Z
CONST	ENDS
;	COMDAT ??_R3?$basic_stringstream@DU?$char_traits@D@std@@V?$allocator@D@2@@std@@8
rdata$r	SEGMENT
??_R3?$basic_stringstream@DU?$char_traits@D@std@@V?$allocator@D@2@@std@@8 DD 00H ; std::basic_stringstream<char,std::char_traits<char>,std::allocator<char> >::`RTTI Class Hierarchy Descriptor'
	DD	03H
	DD	0aH
	DD	FLAT:??_R2?$basic_stringstream@DU?$char_traits@D@std@@V?$allocator@D@2@@std@@8
rdata$r	ENDS
;	COMDAT ??_R3?$basic_streambuf@DU?$char_traits@D@std@@@std@@8
rdata$r	SEGMENT
??_R3?$basic_streambuf@DU?$char_traits@D@std@@@std@@8 DD 00H ; std::basic_streambuf<char,std::char_traits<char> >::`RTTI Class Hierarchy Descriptor'
	DD	00H
	DD	01H
	DD	FLAT:??_R2?$basic_streambuf@DU?$char_traits@D@std@@@std@@8
rdata$r	ENDS
;	COMDAT ??_R2?$basic_filebuf@DU?$char_traits@D@std@@@std@@8
rdata$r	SEGMENT
??_R2?$basic_filebuf@DU?$char_traits@D@std@@@std@@8 DD FLAT:??_R1A@?0A@EA@?$basic_filebuf@DU?$char_traits@D@std@@@std@@8 ; std::basic_filebuf<char,std::char_traits<char> >::`RTTI Base Class Array'
	DD	FLAT:??_R1A@?0A@EA@?$basic_streambuf@DU?$char_traits@D@std@@@std@@8
rdata$r	ENDS
;	COMDAT ??_R3ios_base@std@@8
rdata$r	SEGMENT
??_R3ios_base@std@@8 DD 00H				; std::ios_base::`RTTI Class Hierarchy Descriptor'
	DD	00H
	DD	02H
	DD	FLAT:??_R2ios_base@std@@8
rdata$r	ENDS
;	COMDAT ??_8?$basic_stringstream@DU?$char_traits@D@std@@V?$allocator@D@2@@std@@7B?$basic_istream@DU?$char_traits@D@std@@@1@@
CONST	SEGMENT
??_8?$basic_stringstream@DU?$char_traits@D@std@@V?$allocator@D@2@@std@@7B?$basic_istream@DU?$char_traits@D@std@@@1@@ DD 00H ; std::basic_stringstream<char,std::char_traits<char>,std::allocator<char> >::`vbtable'
	DD	068H
CONST	ENDS
;	COMDAT ??_R1A@?0A@EA@?$basic_iostream@DU?$char_traits@D@std@@@std@@8
rdata$r	SEGMENT
??_R1A@?0A@EA@?$basic_iostream@DU?$char_traits@D@std@@@std@@8 DD FLAT:??_R0?AV?$basic_iostream@DU?$char_traits@D@std@@@std@@@8 ; std::basic_iostream<char,std::char_traits<char> >::`RTTI Base Class Descriptor at (0,-1,0,64)'
	DD	08H
	DD	00H
	DD	0ffffffffH
	DD	00H
	DD	040H
	DD	FLAT:??_R3?$basic_iostream@DU?$char_traits@D@std@@@std@@8
rdata$r	ENDS
;	COMDAT ??_R3?$basic_ostream@DU?$char_traits@D@std@@@std@@8
rdata$r	SEGMENT
??_R3?$basic_ostream@DU?$char_traits@D@std@@@std@@8 DD 00H ; std::basic_ostream<char,std::char_traits<char> >::`RTTI Class Hierarchy Descriptor'
	DD	00H
	DD	04H
	DD	FLAT:??_R2?$basic_ostream@DU?$char_traits@D@std@@@std@@8
rdata$r	ENDS
;	COMDAT ??_R2ios_base@std@@8
rdata$r	SEGMENT
??_R2ios_base@std@@8 DD FLAT:??_R1A@?0A@EA@ios_base@std@@8 ; std::ios_base::`RTTI Base Class Array'
	DD	FLAT:??_R17?0A@EA@?$_Iosb@H@std@@8
rdata$r	ENDS
;	COMDAT ??_R0?AV?$basic_ostream@DU?$char_traits@D@std@@@std@@@8
data$r	SEGMENT
??_R0?AV?$basic_ostream@DU?$char_traits@D@std@@@std@@@8 DD FLAT:??_7type_info@@6B@ ; std::basic_ostream<char,std::char_traits<char> > `RTTI Type Descriptor'
	DD	00H
	DB	'.?AV?$basic_ostream@DU?$char_traits@D@std@@@std@@', 00H
data$r	ENDS
;	COMDAT ??_R3?$basic_filebuf@DU?$char_traits@D@std@@@std@@8
rdata$r	SEGMENT
??_R3?$basic_filebuf@DU?$char_traits@D@std@@@std@@8 DD 00H ; std::basic_filebuf<char,std::char_traits<char> >::`RTTI Class Hierarchy Descriptor'
	DD	00H
	DD	02H
	DD	FLAT:??_R2?$basic_filebuf@DU?$char_traits@D@std@@@std@@8
rdata$r	ENDS
;	COMDAT ??_R1A@A@3FA@?$basic_ios@DU?$char_traits@D@std@@@std@@8
rdata$r	SEGMENT
??_R1A@A@3FA@?$basic_ios@DU?$char_traits@D@std@@@std@@8 DD FLAT:??_R0?AV?$basic_ios@DU?$char_traits@D@std@@@std@@@8 ; std::basic_ios<char,std::char_traits<char> >::`RTTI Base Class Descriptor at (0,0,4,80)'
	DD	02H
	DD	00H
	DD	00H
	DD	04H
	DD	050H
	DD	FLAT:??_R3?$basic_ios@DU?$char_traits@D@std@@@std@@8
rdata$r	ENDS
;	COMDAT ??_R1A@?0A@EA@?$basic_filebuf@DU?$char_traits@D@std@@@std@@8
rdata$r	SEGMENT
??_R1A@?0A@EA@?$basic_filebuf@DU?$char_traits@D@std@@@std@@8 DD FLAT:??_R0?AV?$basic_filebuf@DU?$char_traits@D@std@@@std@@@8 ; std::basic_filebuf<char,std::char_traits<char> >::`RTTI Base Class Descriptor at (0,-1,0,64)'
	DD	01H
	DD	00H
	DD	0ffffffffH
	DD	00H
	DD	040H
	DD	FLAT:??_R3?$basic_filebuf@DU?$char_traits@D@std@@@std@@8
rdata$r	ENDS
;	COMDAT ??_8?$basic_fstream@DU?$char_traits@D@std@@@std@@7B?$basic_istream@DU?$char_traits@D@std@@@1@@
CONST	SEGMENT
??_8?$basic_fstream@DU?$char_traits@D@std@@@std@@7B?$basic_istream@DU?$char_traits@D@std@@@1@@ DD 00H ; std::basic_fstream<char,std::char_traits<char> >::`vbtable'
	DD	078H
CONST	ENDS
;	COMDAT __CT??_R0?AVexception@std@@@8??0exception@std@@QAE@ABV01@@Z12
xdata$x	SEGMENT
__CT??_R0?AVexception@std@@@8??0exception@std@@QAE@ABV01@@Z12 DD 00H
	DD	FLAT:??_R0?AVexception@std@@@8
	DD	00H
	DD	0ffffffffH
	ORG $+4
	DD	0cH
	DD	FLAT:??0exception@std@@QAE@ABV01@@Z
xdata$x	ENDS
;	COMDAT ??_R1A@?0A@EA@?$basic_ofstream@DU?$char_traits@D@std@@@std@@8
rdata$r	SEGMENT
??_R1A@?0A@EA@?$basic_ofstream@DU?$char_traits@D@std@@@std@@8 DD FLAT:??_R0?AV?$basic_ofstream@DU?$char_traits@D@std@@@std@@@8 ; std::basic_ofstream<char,std::char_traits<char> >::`RTTI Base Class Descriptor at (0,-1,0,64)'
	DD	04H
	DD	00H
	DD	0ffffffffH
	DD	00H
	DD	040H
	DD	FLAT:??_R3?$basic_ofstream@DU?$char_traits@D@std@@@std@@8
rdata$r	ENDS
;	COMDAT ??_R4?$basic_stringstream@DU?$char_traits@D@std@@V?$allocator@D@2@@std@@6B@
rdata$r	SEGMENT
??_R4?$basic_stringstream@DU?$char_traits@D@std@@V?$allocator@D@2@@std@@6B@ DD 00H ; std::basic_stringstream<char,std::char_traits<char>,std::allocator<char> >::`RTTI Complete Object Locator'
	DD	068H
	DD	04H
	DD	FLAT:??_R0?AV?$basic_stringstream@DU?$char_traits@D@std@@V?$allocator@D@2@@std@@@8
	DD	FLAT:??_R3?$basic_stringstream@DU?$char_traits@D@std@@V?$allocator@D@2@@std@@8
rdata$r	ENDS
;	COMDAT ??_R4?$basic_stringbuf@DU?$char_traits@D@std@@V?$allocator@D@2@@std@@6B@
rdata$r	SEGMENT
??_R4?$basic_stringbuf@DU?$char_traits@D@std@@V?$allocator@D@2@@std@@6B@ DD 00H ; std::basic_stringbuf<char,std::char_traits<char>,std::allocator<char> >::`RTTI Complete Object Locator'
	DD	00H
	DD	00H
	DD	FLAT:??_R0?AV?$basic_stringbuf@DU?$char_traits@D@std@@V?$allocator@D@2@@std@@@8
	DD	FLAT:??_R3?$basic_stringbuf@DU?$char_traits@D@std@@V?$allocator@D@2@@std@@8
rdata$r	ENDS
;	COMDAT ??_R4bad_cast@std@@6B@
rdata$r	SEGMENT
??_R4bad_cast@std@@6B@ DD 00H				; std::bad_cast::`RTTI Complete Object Locator'
	DD	00H
	DD	00H
	DD	FLAT:??_R0?AVbad_cast@std@@@8
	DD	FLAT:??_R3bad_cast@std@@8
rdata$r	ENDS
;	COMDAT ??_R2?$basic_stringstream@DU?$char_traits@D@std@@V?$allocator@D@2@@std@@8
rdata$r	SEGMENT
??_R2?$basic_stringstream@DU?$char_traits@D@std@@V?$allocator@D@2@@std@@8 DD FLAT:??_R1A@?0A@EA@?$basic_stringstream@DU?$char_traits@D@std@@V?$allocator@D@2@@std@@8 ; std::basic_stringstream<char,std::char_traits<char>,std::allocator<char> >::`RTTI Base Class Array'
	DD	FLAT:??_R1A@?0A@EA@?$basic_iostream@DU?$char_traits@D@std@@@std@@8
	DD	FLAT:??_R1A@?0A@EA@?$basic_istream@DU?$char_traits@D@std@@@std@@8
	DD	FLAT:??_R1A@A@3FA@?$basic_ios@DU?$char_traits@D@std@@@std@@8
	DD	FLAT:??_R1A@A@3EA@ios_base@std@@8
	DD	FLAT:??_R17A@3EA@?$_Iosb@H@std@@8
	DD	FLAT:??_R1BA@?0A@EA@?$basic_ostream@DU?$char_traits@D@std@@@std@@8
	DD	FLAT:??_R1A@A@3FA@?$basic_ios@DU?$char_traits@D@std@@@std@@8
	DD	FLAT:??_R1A@A@3EA@ios_base@std@@8
	DD	FLAT:??_R17A@3EA@?$_Iosb@H@std@@8
rdata$r	ENDS
;	COMDAT ??_R3bad_cast@std@@8
rdata$r	SEGMENT
??_R3bad_cast@std@@8 DD 00H				; std::bad_cast::`RTTI Class Hierarchy Descriptor'
	DD	00H
	DD	02H
	DD	FLAT:??_R2bad_cast@std@@8
rdata$r	ENDS
;	COMDAT ??_R2?$basic_iostream@DU?$char_traits@D@std@@@std@@8
rdata$r	SEGMENT
??_R2?$basic_iostream@DU?$char_traits@D@std@@@std@@8 DD FLAT:??_R1A@?0A@EA@?$basic_iostream@DU?$char_traits@D@std@@@std@@8 ; std::basic_iostream<char,std::char_traits<char> >::`RTTI Base Class Array'
	DD	FLAT:??_R1A@?0A@EA@?$basic_istream@DU?$char_traits@D@std@@@std@@8
	DD	FLAT:??_R1A@A@3FA@?$basic_ios@DU?$char_traits@D@std@@@std@@8
	DD	FLAT:??_R1A@A@3EA@ios_base@std@@8
	DD	FLAT:??_R17A@3EA@?$_Iosb@H@std@@8
	DD	FLAT:??_R1BA@?0A@EA@?$basic_ostream@DU?$char_traits@D@std@@@std@@8
	DD	FLAT:??_R1A@A@3FA@?$basic_ios@DU?$char_traits@D@std@@@std@@8
	DD	FLAT:??_R1A@A@3EA@ios_base@std@@8
	DD	FLAT:??_R17A@3EA@?$_Iosb@H@std@@8
rdata$r	ENDS
;	COMDAT ?npos@?$basic_string@DU?$char_traits@D@std@@V?$allocator@D@2@@std@@2IB
CONST	SEGMENT
?npos@?$basic_string@DU?$char_traits@D@std@@V?$allocator@D@2@@std@@2IB DD 0ffffffffH ; std::basic_string<char,std::char_traits<char>,std::allocator<char> >::npos
CONST	ENDS
;	COMDAT ??_R1A@?0A@EA@?$basic_stringbuf@DU?$char_traits@D@std@@V?$allocator@D@2@@std@@8
rdata$r	SEGMENT
??_R1A@?0A@EA@?$basic_stringbuf@DU?$char_traits@D@std@@V?$allocator@D@2@@std@@8 DD FLAT:??_R0?AV?$basic_stringbuf@DU?$char_traits@D@std@@V?$allocator@D@2@@std@@@8 ; std::basic_stringbuf<char,std::char_traits<char>,std::allocator<char> >::`RTTI Base Class Descriptor at (0,-1,0,64)'
	DD	01H
	DD	00H
	DD	0ffffffffH
	DD	00H
	DD	040H
	DD	FLAT:??_R3?$basic_stringbuf@DU?$char_traits@D@std@@V?$allocator@D@2@@std@@8
rdata$r	ENDS
;	COMDAT ??_8?$basic_ifstream@DU?$char_traits@D@std@@@std@@7B@
CONST	SEGMENT
??_8?$basic_ifstream@DU?$char_traits@D@std@@@std@@7B@ DD 00H ; std::basic_ifstream<char,std::char_traits<char> >::`vbtable'
	DD	070H
CONST	ENDS
;	COMDAT ??_R1A@?0A@EA@?$_Iosb@H@std@@8
rdata$r	SEGMENT
??_R1A@?0A@EA@?$_Iosb@H@std@@8 DD FLAT:??_R0?AV?$_Iosb@H@std@@@8 ; std::_Iosb<int>::`RTTI Base Class Descriptor at (0,-1,0,64)'
	DD	00H
	DD	00H
	DD	0ffffffffH
	DD	00H
	DD	040H
	DD	FLAT:??_R3?$_Iosb@H@std@@8
rdata$r	ENDS
;	COMDAT ??_R2?$basic_streambuf@DU?$char_traits@D@std@@@std@@8
rdata$r	SEGMENT
??_R2?$basic_streambuf@DU?$char_traits@D@std@@@std@@8 DD FLAT:??_R1A@?0A@EA@?$basic_streambuf@DU?$char_traits@D@std@@@std@@8 ; std::basic_streambuf<char,std::char_traits<char> >::`RTTI Base Class Array'
rdata$r	ENDS
;	COMDAT ??_7?$basic_fstream@DU?$char_traits@D@std@@@std@@6B@
CONST	SEGMENT
??_7?$basic_fstream@DU?$char_traits@D@std@@@std@@6B@ DD FLAT:??_R4?$basic_fstream@DU?$char_traits@D@std@@@std@@6B@ ; std::basic_fstream<char,std::char_traits<char> >::`vftable'
	DD	FLAT:??_E?$basic_fstream@DU?$char_traits@D@std@@@std@@$4PPPPPPPM@A@AEPAXI@Z
CONST	ENDS
;	COMDAT ??_7?$basic_stringstream@DU?$char_traits@D@std@@V?$allocator@D@2@@std@@6B@
CONST	SEGMENT
??_7?$basic_stringstream@DU?$char_traits@D@std@@V?$allocator@D@2@@std@@6B@ DD FLAT:??_R4?$basic_stringstream@DU?$char_traits@D@std@@V?$allocator@D@2@@std@@6B@ ; std::basic_stringstream<char,std::char_traits<char>,std::allocator<char> >::`vftable'
	DD	FLAT:??_E?$basic_stringstream@DU?$char_traits@D@std@@V?$allocator@D@2@@std@@$4PPPPPPPM@A@AEPAXI@Z
CONST	ENDS
;	COMDAT ??_R0?AV?$basic_ios@DU?$char_traits@D@std@@@std@@@8
data$r	SEGMENT
??_R0?AV?$basic_ios@DU?$char_traits@D@std@@@std@@@8 DD FLAT:??_7type_info@@6B@ ; std::basic_ios<char,std::char_traits<char> > `RTTI Type Descriptor'
	DD	00H
	DB	'.?AV?$basic_ios@DU?$char_traits@D@std@@@std@@', 00H
data$r	ENDS
;	COMDAT ??_R4?$basic_filebuf@DU?$char_traits@D@std@@@std@@6B@
rdata$r	SEGMENT
??_R4?$basic_filebuf@DU?$char_traits@D@std@@@std@@6B@ DD 00H ; std::basic_filebuf<char,std::char_traits<char> >::`RTTI Complete Object Locator'
	DD	00H
	DD	00H
	DD	FLAT:??_R0?AV?$basic_filebuf@DU?$char_traits@D@std@@@std@@@8
	DD	FLAT:??_R3?$basic_filebuf@DU?$char_traits@D@std@@@std@@8
rdata$r	ENDS
;	COMDAT ??_R1A@?0A@EA@?$basic_ostream@DU?$char_traits@D@std@@@std@@8
rdata$r	SEGMENT
??_R1A@?0A@EA@?$basic_ostream@DU?$char_traits@D@std@@@std@@8 DD FLAT:??_R0?AV?$basic_ostream@DU?$char_traits@D@std@@@std@@@8 ; std::basic_ostream<char,std::char_traits<char> >::`RTTI Base Class Descriptor at (0,-1,0,64)'
	DD	03H
	DD	00H
	DD	0ffffffffH
	DD	00H
	DD	040H
	DD	FLAT:??_R3?$basic_ostream@DU?$char_traits@D@std@@@std@@8
rdata$r	ENDS
;	COMDAT ??_R3exception@std@@8
rdata$r	SEGMENT
??_R3exception@std@@8 DD 00H				; std::exception::`RTTI Class Hierarchy Descriptor'
	DD	00H
	DD	01H
	DD	FLAT:??_R2exception@std@@8
rdata$r	ENDS
;	COMDAT ??_R1A@?0A@EA@ios_base@std@@8
rdata$r	SEGMENT
??_R1A@?0A@EA@ios_base@std@@8 DD FLAT:??_R0?AVios_base@std@@@8 ; std::ios_base::`RTTI Base Class Descriptor at (0,-1,0,64)'
	DD	01H
	DD	00H
	DD	0ffffffffH
	DD	00H
	DD	040H
	DD	FLAT:??_R3ios_base@std@@8
rdata$r	ENDS
;	COMDAT ??_R4?$basic_ifstream@DU?$char_traits@D@std@@@std@@6B@
rdata$r	SEGMENT
??_R4?$basic_ifstream@DU?$char_traits@D@std@@@std@@6B@ DD 00H ; std::basic_ifstream<char,std::char_traits<char> >::`RTTI Complete Object Locator'
	DD	070H
	DD	04H
	DD	FLAT:??_R0?AV?$basic_ifstream@DU?$char_traits@D@std@@@std@@@8
	DD	FLAT:??_R3?$basic_ifstream@DU?$char_traits@D@std@@@std@@8
rdata$r	ENDS
;	COMDAT ??_R0?AV?$basic_istream@DU?$char_traits@D@std@@@std@@@8
data$r	SEGMENT
??_R0?AV?$basic_istream@DU?$char_traits@D@std@@@std@@@8 DD FLAT:??_7type_info@@6B@ ; std::basic_istream<char,std::char_traits<char> > `RTTI Type Descriptor'
	DD	00H
	DB	'.?AV?$basic_istream@DU?$char_traits@D@std@@@std@@', 00H
data$r	ENDS
;	COMDAT ??_R1BA@?0A@EA@?$basic_ostream@DU?$char_traits@D@std@@@std@@8
rdata$r	SEGMENT
??_R1BA@?0A@EA@?$basic_ostream@DU?$char_traits@D@std@@@std@@8 DD FLAT:??_R0?AV?$basic_ostream@DU?$char_traits@D@std@@@std@@@8 ; std::basic_ostream<char,std::char_traits<char> >::`RTTI Base Class Descriptor at (16,-1,0,64)'
	DD	03H
	DD	010H
	DD	0ffffffffH
	DD	00H
	DD	040H
	DD	FLAT:??_R3?$basic_ostream@DU?$char_traits@D@std@@@std@@8
rdata$r	ENDS
;	COMDAT __TI2?AVbad_cast@std@@
xdata$x	SEGMENT
__TI2?AVbad_cast@std@@ DD 00H
	DD	FLAT:??1bad_cast@std@@UAE@XZ
	DD	00H
	DD	FLAT:__CTA2?AVbad_cast@std@@
xdata$x	ENDS
;	COMDAT ??_7exception@std@@6B@
CONST	SEGMENT
??_7exception@std@@6B@ DD FLAT:??_R4exception@std@@6B@	; std::exception::`vftable'
	DD	FLAT:??_Eexception@std@@UAEPAXI@Z
	DD	FLAT:?what@exception@std@@UBEPBDXZ
CONST	ENDS
;	COMDAT ??_7?$basic_stringbuf@DU?$char_traits@D@std@@V?$allocator@D@2@@std@@6B@
CONST	SEGMENT
??_7?$basic_stringbuf@DU?$char_traits@D@std@@V?$allocator@D@2@@std@@6B@ DD FLAT:??_R4?$basic_stringbuf@DU?$char_traits@D@std@@V?$allocator@D@2@@std@@6B@ ; std::basic_stringbuf<char,std::char_traits<char>,std::allocator<char> >::`vftable'
	DD	FLAT:??_E?$basic_stringbuf@DU?$char_traits@D@std@@V?$allocator@D@2@@std@@UAEPAXI@Z
	DD	FLAT:?_Lock@?$basic_streambuf@DU?$char_traits@D@std@@@std@@UAEXXZ
	DD	FLAT:?_Unlock@?$basic_streambuf@DU?$char_traits@D@std@@@std@@UAEXXZ
	DD	FLAT:?overflow@?$basic_stringbuf@DU?$char_traits@D@std@@V?$allocator@D@2@@std@@MAEHH@Z
	DD	FLAT:?pbackfail@?$basic_stringbuf@DU?$char_traits@D@std@@V?$allocator@D@2@@std@@MAEHH@Z
	DD	FLAT:?showmanyc@?$basic_streambuf@DU?$char_traits@D@std@@@std@@MAE_JXZ
	DD	FLAT:?underflow@?$basic_stringbuf@DU?$char_traits@D@std@@V?$allocator@D@2@@std@@MAEHXZ
	DD	FLAT:?uflow@?$basic_streambuf@DU?$char_traits@D@std@@@std@@MAEHXZ
	DD	FLAT:?xsgetn@?$basic_streambuf@DU?$char_traits@D@std@@@std@@MAE_JPAD_J@Z
	DD	FLAT:?xsputn@?$basic_streambuf@DU?$char_traits@D@std@@@std@@MAE_JPBD_J@Z
	DD	FLAT:?seekoff@?$basic_stringbuf@DU?$char_traits@D@std@@V?$allocator@D@2@@std@@MAE?AV?$fpos@U_Mbstatet@@@2@_JHH@Z
	DD	FLAT:?seekpos@?$basic_stringbuf@DU?$char_traits@D@std@@V?$allocator@D@2@@std@@MAE?AV?$fpos@U_Mbstatet@@@2@V32@H@Z
	DD	FLAT:?setbuf@?$basic_streambuf@DU?$char_traits@D@std@@@std@@MAEPAV12@PAD_J@Z
	DD	FLAT:?sync@?$basic_streambuf@DU?$char_traits@D@std@@@std@@MAEHXZ
	DD	FLAT:?imbue@?$basic_streambuf@DU?$char_traits@D@std@@@std@@MAEXABVlocale@2@@Z
CONST	ENDS
;	COMDAT __CTA2?AVbad_cast@std@@
xdata$x	SEGMENT
__CTA2?AVbad_cast@std@@ DD 02H
	DD	FLAT:__CT??_R0?AVbad_cast@std@@@8??0bad_cast@std@@QAE@ABV01@@Z12
	DD	FLAT:__CT??_R0?AVexception@std@@@8??0exception@std@@QAE@ABV01@@Z12
xdata$x	ENDS
;	COMDAT ??_R0?AVbad_cast@std@@@8
data$r	SEGMENT
??_R0?AVbad_cast@std@@@8 DD FLAT:??_7type_info@@6B@	; std::bad_cast `RTTI Type Descriptor'
	DD	00H
	DB	'.?AVbad_cast@std@@', 00H
data$r	ENDS
;	COMDAT ??_8?$basic_ofstream@DU?$char_traits@D@std@@@std@@7B@
CONST	SEGMENT
??_8?$basic_ofstream@DU?$char_traits@D@std@@@std@@7B@ DD 00H ; std::basic_ofstream<char,std::char_traits<char> >::`vbtable'
	DD	068H
CONST	ENDS
;	COMDAT __CT??_R0?AVbad_cast@std@@@8??0bad_cast@std@@QAE@ABV01@@Z12
xdata$x	SEGMENT
__CT??_R0?AVbad_cast@std@@@8??0bad_cast@std@@QAE@ABV01@@Z12 DD 00H
	DD	FLAT:??_R0?AVbad_cast@std@@@8
	DD	00H
	DD	0ffffffffH
	ORG $+4
	DD	0cH
	DD	FLAT:??0bad_cast@std@@QAE@ABV01@@Z
xdata$x	ENDS
;	COMDAT ??_R3?$basic_ios@DU?$char_traits@D@std@@@std@@8
rdata$r	SEGMENT
??_R3?$basic_ios@DU?$char_traits@D@std@@@std@@8 DD 00H	; std::basic_ios<char,std::char_traits<char> >::`RTTI Class Hierarchy Descriptor'
	DD	00H
	DD	03H
	DD	FLAT:??_R2?$basic_ios@DU?$char_traits@D@std@@@std@@8
rdata$r	ENDS
;	COMDAT ??_7bad_cast@std@@6B@
CONST	SEGMENT
??_7bad_cast@std@@6B@ DD FLAT:??_R4bad_cast@std@@6B@	; std::bad_cast::`vftable'
	DD	FLAT:??_Ebad_cast@std@@UAEPAXI@Z
	DD	FLAT:?what@exception@std@@UBEPBDXZ
CONST	ENDS
;	COMDAT ??_R2?$basic_ostream@DU?$char_traits@D@std@@@std@@8
rdata$r	SEGMENT
??_R2?$basic_ostream@DU?$char_traits@D@std@@@std@@8 DD FLAT:??_R1A@?0A@EA@?$basic_ostream@DU?$char_traits@D@std@@@std@@8 ; std::basic_ostream<char,std::char_traits<char> >::`RTTI Base Class Array'
	DD	FLAT:??_R1A@A@3FA@?$basic_ios@DU?$char_traits@D@std@@@std@@8
	DD	FLAT:??_R1A@A@3EA@ios_base@std@@8
	DD	FLAT:??_R17A@3EA@?$_Iosb@H@std@@8
rdata$r	ENDS
;	COMDAT ??_R2exception@std@@8
rdata$r	SEGMENT
??_R2exception@std@@8 DD FLAT:??_R1A@?0A@EA@exception@std@@8 ; std::exception::`RTTI Base Class Array'
rdata$r	ENDS
;	COMDAT ??_R2bad_cast@std@@8
rdata$r	SEGMENT
??_R2bad_cast@std@@8 DD FLAT:??_R1A@?0A@EA@bad_cast@std@@8 ; std::bad_cast::`RTTI Base Class Array'
	DD	FLAT:??_R1A@?0A@EA@exception@std@@8
rdata$r	ENDS
;	COMDAT ??_R3?$basic_stringbuf@DU?$char_traits@D@std@@V?$allocator@D@2@@std@@8
rdata$r	SEGMENT
??_R3?$basic_stringbuf@DU?$char_traits@D@std@@V?$allocator@D@2@@std@@8 DD 00H ; std::basic_stringbuf<char,std::char_traits<char>,std::allocator<char> >::`RTTI Class Hierarchy Descriptor'
	DD	00H
	DD	02H
	DD	FLAT:??_R2?$basic_stringbuf@DU?$char_traits@D@std@@V?$allocator@D@2@@std@@8
rdata$r	ENDS
;	COMDAT ??_R0?AV?$basic_streambuf@DU?$char_traits@D@std@@@std@@@8
data$r	SEGMENT
??_R0?AV?$basic_streambuf@DU?$char_traits@D@std@@@std@@@8 DD FLAT:??_7type_info@@6B@ ; std::basic_streambuf<char,std::char_traits<char> > `RTTI Type Descriptor'
	DD	00H
	DB	'.?AV?$basic_streambuf@DU?$char_traits@D@std@@@std@@', 00H
data$r	ENDS
;	COMDAT ??_R0?AV?$basic_ofstream@DU?$char_traits@D@std@@@std@@@8
data$r	SEGMENT
??_R0?AV?$basic_ofstream@DU?$char_traits@D@std@@@std@@@8 DD FLAT:??_7type_info@@6B@ ; std::basic_ofstream<char,std::char_traits<char> > `RTTI Type Descriptor'
	DD	00H
	DB	'.?AV?$basic_ofstream@DU?$char_traits@D@std@@@std@@', 00H
data$r	ENDS
;	COMDAT ??_7?$basic_ofstream@DU?$char_traits@D@std@@@std@@6B@
CONST	SEGMENT
??_7?$basic_ofstream@DU?$char_traits@D@std@@@std@@6B@ DD FLAT:??_R4?$basic_ofstream@DU?$char_traits@D@std@@@std@@6B@ ; std::basic_ofstream<char,std::char_traits<char> >::`vftable'
	DD	FLAT:??_E?$basic_ofstream@DU?$char_traits@D@std@@@std@@$4PPPPPPPM@A@AEPAXI@Z
CONST	ENDS
;	COMDAT ??_R0?AV?$_Iosb@H@std@@@8
data$r	SEGMENT
??_R0?AV?$_Iosb@H@std@@@8 DD FLAT:??_7type_info@@6B@	; std::_Iosb<int> `RTTI Type Descriptor'
	DD	00H
	DB	'.?AV?$_Iosb@H@std@@', 00H
data$r	ENDS
;	COMDAT ??_R2?$basic_istream@DU?$char_traits@D@std@@@std@@8
rdata$r	SEGMENT
??_R2?$basic_istream@DU?$char_traits@D@std@@@std@@8 DD FLAT:??_R1A@?0A@EA@?$basic_istream@DU?$char_traits@D@std@@@std@@8 ; std::basic_istream<char,std::char_traits<char> >::`RTTI Base Class Array'
	DD	FLAT:??_R1A@A@3FA@?$basic_ios@DU?$char_traits@D@std@@@std@@8
	DD	FLAT:??_R1A@A@3EA@ios_base@std@@8
	DD	FLAT:??_R17A@3EA@?$_Iosb@H@std@@8
rdata$r	ENDS
;	COMDAT ??_8?$basic_stringstream@DU?$char_traits@D@std@@V?$allocator@D@2@@std@@7B?$basic_ostream@DU?$char_traits@D@std@@@1@@
CONST	SEGMENT
??_8?$basic_stringstream@DU?$char_traits@D@std@@V?$allocator@D@2@@std@@7B?$basic_ostream@DU?$char_traits@D@std@@@1@@ DD 00H ; std::basic_stringstream<char,std::char_traits<char>,std::allocator<char> >::`vbtable'
	DD	058H
CONST	ENDS
;	COMDAT ??_7?$basic_filebuf@DU?$char_traits@D@std@@@std@@6B@
CONST	SEGMENT
??_7?$basic_filebuf@DU?$char_traits@D@std@@@std@@6B@ DD FLAT:??_R4?$basic_filebuf@DU?$char_traits@D@std@@@std@@6B@ ; std::basic_filebuf<char,std::char_traits<char> >::`vftable'
	DD	FLAT:??_E?$basic_filebuf@DU?$char_traits@D@std@@@std@@UAEPAXI@Z
	DD	FLAT:?_Lock@?$basic_filebuf@DU?$char_traits@D@std@@@std@@UAEXXZ
	DD	FLAT:?_Unlock@?$basic_filebuf@DU?$char_traits@D@std@@@std@@UAEXXZ
	DD	FLAT:?overflow@?$basic_filebuf@DU?$char_traits@D@std@@@std@@MAEHH@Z
	DD	FLAT:?pbackfail@?$basic_filebuf@DU?$char_traits@D@std@@@std@@MAEHH@Z
	DD	FLAT:?showmanyc@?$basic_streambuf@DU?$char_traits@D@std@@@std@@MAE_JXZ
	DD	FLAT:?underflow@?$basic_filebuf@DU?$char_traits@D@std@@@std@@MAEHXZ
	DD	FLAT:?uflow@?$basic_filebuf@DU?$char_traits@D@std@@@std@@MAEHXZ
	DD	FLAT:?xsgetn@?$basic_streambuf@DU?$char_traits@D@std@@@std@@MAE_JPAD_J@Z
	DD	FLAT:?xsputn@?$basic_streambuf@DU?$char_traits@D@std@@@std@@MAE_JPBD_J@Z
	DD	FLAT:?seekoff@?$basic_filebuf@DU?$char_traits@D@std@@@std@@MAE?AV?$fpos@U_Mbstatet@@@2@_JHH@Z
	DD	FLAT:?seekpos@?$basic_filebuf@DU?$char_traits@D@std@@@std@@MAE?AV?$fpos@U_Mbstatet@@@2@V32@H@Z
	DD	FLAT:?setbuf@?$basic_filebuf@DU?$char_traits@D@std@@@std@@MAEPAV?$basic_streambuf@DU?$char_traits@D@std@@@2@PAD_J@Z
	DD	FLAT:?sync@?$basic_filebuf@DU?$char_traits@D@std@@@std@@MAEHXZ
	DD	FLAT:?imbue@?$basic_filebuf@DU?$char_traits@D@std@@@std@@MAEXABVlocale@2@@Z
CONST	ENDS
;	COMDAT ??_R1A@?0A@EA@?$basic_streambuf@DU?$char_traits@D@std@@@std@@8
rdata$r	SEGMENT
??_R1A@?0A@EA@?$basic_streambuf@DU?$char_traits@D@std@@@std@@8 DD FLAT:??_R0?AV?$basic_streambuf@DU?$char_traits@D@std@@@std@@@8 ; std::basic_streambuf<char,std::char_traits<char> >::`RTTI Base Class Descriptor at (0,-1,0,64)'
	DD	00H
	DD	00H
	DD	0ffffffffH
	DD	00H
	DD	040H
	DD	FLAT:??_R3?$basic_streambuf@DU?$char_traits@D@std@@@std@@8
rdata$r	ENDS
;	COMDAT ??_R2?$basic_ofstream@DU?$char_traits@D@std@@@std@@8
rdata$r	SEGMENT
??_R2?$basic_ofstream@DU?$char_traits@D@std@@@std@@8 DD FLAT:??_R1A@?0A@EA@?$basic_ofstream@DU?$char_traits@D@std@@@std@@8 ; std::basic_ofstream<char,std::char_traits<char> >::`RTTI Base Class Array'
	DD	FLAT:??_R1A@?0A@EA@?$basic_ostream@DU?$char_traits@D@std@@@std@@8
	DD	FLAT:??_R1A@A@3FA@?$basic_ios@DU?$char_traits@D@std@@@std@@8
	DD	FLAT:??_R1A@A@3EA@ios_base@std@@8
	DD	FLAT:??_R17A@3EA@?$_Iosb@H@std@@8
rdata$r	ENDS
;	COMDAT ??_R1A@?0A@EA@exception@std@@8
rdata$r	SEGMENT
??_R1A@?0A@EA@exception@std@@8 DD FLAT:??_R0?AVexception@std@@@8 ; std::exception::`RTTI Base Class Descriptor at (0,-1,0,64)'
	DD	00H
	DD	00H
	DD	0ffffffffH
	DD	00H
	DD	040H
	DD	FLAT:??_R3exception@std@@8
rdata$r	ENDS
;	COMDAT ??_R1A@?0A@EA@?$basic_fstream@DU?$char_traits@D@std@@@std@@8
rdata$r	SEGMENT
??_R1A@?0A@EA@?$basic_fstream@DU?$char_traits@D@std@@@std@@8 DD FLAT:??_R0?AV?$basic_fstream@DU?$char_traits@D@std@@@std@@@8 ; std::basic_fstream<char,std::char_traits<char> >::`RTTI Base Class Descriptor at (0,-1,0,64)'
	DD	09H
	DD	00H
	DD	0ffffffffH
	DD	00H
	DD	040H
	DD	FLAT:??_R3?$basic_fstream@DU?$char_traits@D@std@@@std@@8
rdata$r	ENDS
;	COMDAT ??_R1A@?0A@EA@?$basic_stringstream@DU?$char_traits@D@std@@V?$allocator@D@2@@std@@8
rdata$r	SEGMENT
??_R1A@?0A@EA@?$basic_stringstream@DU?$char_traits@D@std@@V?$allocator@D@2@@std@@8 DD FLAT:??_R0?AV?$basic_stringstream@DU?$char_traits@D@std@@V?$allocator@D@2@@std@@@8 ; std::basic_stringstream<char,std::char_traits<char>,std::allocator<char> >::`RTTI Base Class Descriptor at (0,-1,0,64)'
	DD	09H
	DD	00H
	DD	0ffffffffH
	DD	00H
	DD	040H
	DD	FLAT:??_R3?$basic_stringstream@DU?$char_traits@D@std@@V?$allocator@D@2@@std@@8
rdata$r	ENDS
;	COMDAT ??_R17A@3EA@?$_Iosb@H@std@@8
rdata$r	SEGMENT
??_R17A@3EA@?$_Iosb@H@std@@8 DD FLAT:??_R0?AV?$_Iosb@H@std@@@8 ; std::_Iosb<int>::`RTTI Base Class Descriptor at (8,0,4,64)'
	DD	00H
	DD	08H
	DD	00H
	DD	04H
	DD	040H
	DD	FLAT:??_R3?$_Iosb@H@std@@8
rdata$r	ENDS
;	COMDAT ??_R0?AV?$basic_iostream@DU?$char_traits@D@std@@@std@@@8
data$r	SEGMENT
??_R0?AV?$basic_iostream@DU?$char_traits@D@std@@@std@@@8 DD FLAT:??_7type_info@@6B@ ; std::basic_iostream<char,std::char_traits<char> > `RTTI Type Descriptor'
	DD	00H
	DB	'.?AV?$basic_iostream@DU?$char_traits@D@std@@@std@@', 00H
data$r	ENDS
;	COMDAT ??_R3?$basic_fstream@DU?$char_traits@D@std@@@std@@8
rdata$r	SEGMENT
??_R3?$basic_fstream@DU?$char_traits@D@std@@@std@@8 DD 00H ; std::basic_fstream<char,std::char_traits<char> >::`RTTI Class Hierarchy Descriptor'
	DD	03H
	DD	0aH
	DD	FLAT:??_R2?$basic_fstream@DU?$char_traits@D@std@@@std@@8
rdata$r	ENDS
;	COMDAT ??_R1A@?0A@EA@?$basic_ifstream@DU?$char_traits@D@std@@@std@@8
rdata$r	SEGMENT
??_R1A@?0A@EA@?$basic_ifstream@DU?$char_traits@D@std@@@std@@8 DD FLAT:??_R0?AV?$basic_ifstream@DU?$char_traits@D@std@@@std@@@8 ; std::basic_ifstream<char,std::char_traits<char> >::`RTTI Base Class Descriptor at (0,-1,0,64)'
	DD	04H
	DD	00H
	DD	0ffffffffH
	DD	00H
	DD	040H
	DD	FLAT:??_R3?$basic_ifstream@DU?$char_traits@D@std@@@std@@8
rdata$r	ENDS
;	COMDAT ??_R2?$basic_stringbuf@DU?$char_traits@D@std@@V?$allocator@D@2@@std@@8
rdata$r	SEGMENT
??_R2?$basic_stringbuf@DU?$char_traits@D@std@@V?$allocator@D@2@@std@@8 DD FLAT:??_R1A@?0A@EA@?$basic_stringbuf@DU?$char_traits@D@std@@V?$allocator@D@2@@std@@8 ; std::basic_stringbuf<char,std::char_traits<char>,std::allocator<char> >::`RTTI Base Class Array'
	DD	FLAT:??_R1A@?0A@EA@?$basic_streambuf@DU?$char_traits@D@std@@@std@@8
rdata$r	ENDS
;	COMDAT ??_R0?AVios_base@std@@@8
data$r	SEGMENT
??_R0?AVios_base@std@@@8 DD FLAT:??_7type_info@@6B@	; std::ios_base `RTTI Type Descriptor'
	DD	00H
	DB	'.?AVios_base@std@@', 00H
data$r	ENDS
;	COMDAT ??_R0?AV?$basic_stringbuf@DU?$char_traits@D@std@@V?$allocator@D@2@@std@@@8
data$r	SEGMENT
??_R0?AV?$basic_stringbuf@DU?$char_traits@D@std@@V?$allocator@D@2@@std@@@8 DD FLAT:??_7type_info@@6B@ ; std::basic_stringbuf<char,std::char_traits<char>,std::allocator<char> > `RTTI Type Descriptor'
	DD	00H
	DB	'.?AV?$basic_stringbuf@DU?$char_traits@D@std@@V?$allocato'
	DB	'r@D@2@@std@@', 00H
data$r	ENDS
;	COMDAT ??_R3?$basic_ifstream@DU?$char_traits@D@std@@@std@@8
rdata$r	SEGMENT
??_R3?$basic_ifstream@DU?$char_traits@D@std@@@std@@8 DD 00H ; std::basic_ifstream<char,std::char_traits<char> >::`RTTI Class Hierarchy Descriptor'
	DD	00H
	DD	05H
	DD	FLAT:??_R2?$basic_ifstream@DU?$char_traits@D@std@@@std@@8
rdata$r	ENDS
;	COMDAT ??_R1A@?0A@EA@bad_cast@std@@8
rdata$r	SEGMENT
??_R1A@?0A@EA@bad_cast@std@@8 DD FLAT:??_R0?AVbad_cast@std@@@8 ; std::bad_cast::`RTTI Base Class Descriptor at (0,-1,0,64)'
	DD	01H
	DD	00H
	DD	0ffffffffH
	DD	00H
	DD	040H
	DD	FLAT:??_R3bad_cast@std@@8
rdata$r	ENDS
;	COMDAT ??_R0?AV?$basic_ifstream@DU?$char_traits@D@std@@@std@@@8
data$r	SEGMENT
??_R0?AV?$basic_ifstream@DU?$char_traits@D@std@@@std@@@8 DD FLAT:??_7type_info@@6B@ ; std::basic_ifstream<char,std::char_traits<char> > `RTTI Type Descriptor'
	DD	00H
	DB	'.?AV?$basic_ifstream@DU?$char_traits@D@std@@@std@@', 00H
data$r	ENDS
;	COMDAT ??_R1A@?0A@EA@?$basic_istream@DU?$char_traits@D@std@@@std@@8
rdata$r	SEGMENT
??_R1A@?0A@EA@?$basic_istream@DU?$char_traits@D@std@@@std@@8 DD FLAT:??_R0?AV?$basic_istream@DU?$char_traits@D@std@@@std@@@8 ; std::basic_istream<char,std::char_traits<char> >::`RTTI Base Class Descriptor at (0,-1,0,64)'
	DD	03H
	DD	00H
	DD	0ffffffffH
	DD	00H
	DD	040H
	DD	FLAT:??_R3?$basic_istream@DU?$char_traits@D@std@@@std@@8
rdata$r	ENDS
;	COMDAT ??_R3?$basic_ofstream@DU?$char_traits@D@std@@@std@@8
rdata$r	SEGMENT
??_R3?$basic_ofstream@DU?$char_traits@D@std@@@std@@8 DD 00H ; std::basic_ofstream<char,std::char_traits<char> >::`RTTI Class Hierarchy Descriptor'
	DD	00H
	DD	05H
	DD	FLAT:??_R2?$basic_ofstream@DU?$char_traits@D@std@@@std@@8
rdata$r	ENDS
;	COMDAT ??_8?$basic_fstream@DU?$char_traits@D@std@@@std@@7B?$basic_ostream@DU?$char_traits@D@std@@@1@@
CONST	SEGMENT
??_8?$basic_fstream@DU?$char_traits@D@std@@@std@@7B?$basic_ostream@DU?$char_traits@D@std@@@1@@ DD 00H ; std::basic_fstream<char,std::char_traits<char> >::`vbtable'
	DD	068H
?Ruletka_ko³o@@3QBHB DD 00H				; Ruletka_ko³o
	DD	020H
	DD	0fH
	DD	013H
	DD	04H
	DD	015H
	DD	02H
	DD	019H
	DD	011H
	DD	022H
	DD	06H
	DD	01bH
	DD	0dH
	DD	024H
	DD	0bH
	DD	01eH
	DD	08H
	DD	017H
	DD	0aH
	DD	05H
	DD	018H
	DD	010H
	DD	021H
	DD	01H
	DD	014H
	DD	0eH
	DD	01fH
	DD	09H
	DD	016H
	DD	012H
	DD	01dH
	DD	07H
	DD	01cH
	DD	0cH
	DD	023H
	DD	03H
	DD	01aH
	ORG $+4
?Ruletka_plansza_kolor_col@@3QBHB DD 02H		; Ruletka_plansza_kolor_col
	DD	04H
	DD	08H
	DD	04H
	DD	08H
	DD	04H
	DD	08H
	DD	04H
	DD	08H
	DD	04H
	DD	08H
	DD	08H
	DD	04H
	DD	08H
	DD	04H
	DD	08H
	DD	04H
	DD	08H
	DD	04H
	DD	04H
	DD	08H
	DD	04H
	DD	08H
	DD	04H
	DD	08H
	DD	04H
	DD	08H
	DD	04H
	DD	08H
	DD	08H
	DD	04H
	DD	08H
	DD	04H
	DD	08H
	DD	04H
	DD	08H
	DD	04H
?Ruletka_plansza_kolor@@3QBDB DB 067H			; Ruletka_plansza_kolor
	DB	072H
	DB	062H
	DB	072H
	DB	062H
	DB	072H
	DB	062H
	DB	072H
	DB	062H
	DB	072H
	DB	062H
	DB	062H
	DB	072H
	DB	062H
	DB	072H
	DB	062H
	DB	072H
	DB	062H
	DB	072H
	DB	072H
	DB	062H
	DB	072H
	DB	062H
	DB	072H
	DB	062H
	DB	072H
	DB	062H
	DB	072H
	DB	062H
	DB	062H
	DB	072H
	DB	062H
	DB	072H
	DB	062H
	DB	072H
	DB	062H
	DB	072H
CONST	ENDS
;	COMDAT ??_R0?AV?$basic_fstream@DU?$char_traits@D@std@@@std@@@8
data$r	SEGMENT
??_R0?AV?$basic_fstream@DU?$char_traits@D@std@@@std@@@8 DD FLAT:??_7type_info@@6B@ ; std::basic_fstream<char,std::char_traits<char> > `RTTI Type Descriptor'
	DD	00H
	DB	'.?AV?$basic_fstream@DU?$char_traits@D@std@@@std@@', 00H
data$r	ENDS
;	COMDAT ??_R4?$basic_ofstream@DU?$char_traits@D@std@@@std@@6B@
rdata$r	SEGMENT
??_R4?$basic_ofstream@DU?$char_traits@D@std@@@std@@6B@ DD 00H ; std::basic_ofstream<char,std::char_traits<char> >::`RTTI Complete Object Locator'
	DD	068H
	DD	04H
	DD	FLAT:??_R0?AV?$basic_ofstream@DU?$char_traits@D@std@@@std@@@8
	DD	FLAT:??_R3?$basic_ofstream@DU?$char_traits@D@std@@@std@@8
?czy_kontynuowaæ_grê@@3FA DW 01H			; czy_kontynuowaæ_grê
?EfektyKompletne@@3_NA DB 01H				; EfektyKompletne
?G³osyKompletne@@3_NA DB 01H				; G³osyKompletne
?iloœæ_max_dodatkowych_obrotów_ruletki@@3FA DW 03H	; iloœæ_max_dodatkowych_obrotów_ruletki
	ORG $+2
?iloœæ_minimalna_obrotów_ruletki@@3FA DW 02H		; iloœæ_minimalna_obrotów_ruletki
	ORG $+2
?efekty_dŸwiêkowe@@3FA DW 01H				; efekty_dŸwiêkowe
	ORG $+2
?kwota_pocz¹tkowa@@3HA DD 03e8H				; kwota_pocz¹tkowa
?g³os_szybkoœæ_odczytu_numeru@@3FA DW 04H		; g³os_szybkoœæ_odczytu_numeru
	ORG $+2
?stan_dŸwiêków@@3FA DW 01H				; stan_dŸwiêków
	ORG $+2
?czas_przeskoku_kulki_wolny@@3FA DW 04bH		; czas_przeskoku_kulki_wolny
	ORG $+2
?styl_liczenia_wygranej@@3FA DW 01H			; styl_liczenia_wygranej
	ORG $+2
?czas_przeskoku_kulki_szybki@@3FA DW 032H		; czas_przeskoku_kulki_szybki
	ORG $+2
?g³os_odczytu_numeru@@3FA DW 01H			; g³os_odczytu_numeru
	ORG $+2
?czas_przerwy_dzwiêku@@3FA DW 01f4H			; czas_przerwy_dzwiêku
_DATA	ENDS
;	COMDAT ??_R4exception@std@@6B@
rdata$r	SEGMENT
??_R4exception@std@@6B@ DD 00H				; std::exception::`RTTI Complete Object Locator'
	DD	00H
	DD	00H
	DD	FLAT:??_R0?AVexception@std@@@8
	DD	FLAT:??_R3exception@std@@8
rdata$r	ENDS
;	COMDAT ??_R0?AV?$basic_filebuf@DU?$char_traits@D@std@@@std@@@8
data$r	SEGMENT
??_R0?AV?$basic_filebuf@DU?$char_traits@D@std@@@std@@@8 DD FLAT:??_7type_info@@6B@ ; std::basic_filebuf<char,std::char_traits<char> > `RTTI Type Descriptor'
	DD	00H
	DB	'.?AV?$basic_filebuf@DU?$char_traits@D@std@@@std@@', 00H
data$r	ENDS
;	COMDAT ??_R2?$basic_fstream@DU?$char_traits@D@std@@@std@@8
rdata$r	SEGMENT
??_R2?$basic_fstream@DU?$char_traits@D@std@@@std@@8 DD FLAT:??_R1A@?0A@EA@?$basic_fstream@DU?$char_traits@D@std@@@std@@8 ; std::basic_fstream<char,std::char_traits<char> >::`RTTI Base Class Array'
	DD	FLAT:??_R1A@?0A@EA@?$basic_iostream@DU?$char_traits@D@std@@@std@@8
	DD	FLAT:??_R1A@?0A@EA@?$basic_istream@DU?$char_traits@D@std@@@std@@8
	DD	FLAT:??_R1A@A@3FA@?$basic_ios@DU?$char_traits@D@std@@@std@@8
	DD	FLAT:??_R1A@A@3EA@ios_base@std@@8
	DD	FLAT:??_R17A@3EA@?$_Iosb@H@std@@8
	DD	FLAT:??_R1BA@?0A@EA@?$basic_ostream@DU?$char_traits@D@std@@@std@@8
	DD	FLAT:??_R1A@A@3FA@?$basic_ios@DU?$char_traits@D@std@@@std@@8
	DD	FLAT:??_R1A@A@3EA@ios_base@std@@8
	DD	FLAT:??_R17A@3EA@?$_Iosb@H@std@@8
rdata$r	ENDS
;	COMDAT ??_R0?AV?$basic_stringstream@DU?$char_traits@D@std@@V?$allocator@D@2@@std@@@8
data$r	SEGMENT
??_R0?AV?$basic_stringstream@DU?$char_traits@D@std@@V?$allocator@D@2@@std@@@8 DD FLAT:??_7type_info@@6B@ ; std::basic_stringstream<char,std::char_traits<char>,std::allocator<char> > `RTTI Type Descriptor'
	DD	00H
	DB	'.?AV?$basic_stringstream@DU?$char_traits@D@std@@V?$alloc'
	DB	'ator@D@2@@std@@', 00H
data$r	ENDS
;	COMDAT ??_R3?$basic_iostream@DU?$char_traits@D@std@@@std@@8
rdata$r	SEGMENT
??_R3?$basic_iostream@DU?$char_traits@D@std@@@std@@8 DD 00H ; std::basic_iostream<char,std::char_traits<char> >::`RTTI Class Hierarchy Descriptor'
	DD	03H
	DD	09H
	DD	FLAT:??_R2?$basic_iostream@DU?$char_traits@D@std@@@std@@8
rdata$r	ENDS
;	COMDAT ??_R3?$basic_istream@DU?$char_traits@D@std@@@std@@8
rdata$r	SEGMENT
??_R3?$basic_istream@DU?$char_traits@D@std@@@std@@8 DD 00H ; std::basic_istream<char,std::char_traits<char> >::`RTTI Class Hierarchy Descriptor'
	DD	00H
	DD	04H
	DD	FLAT:??_R2?$basic_istream@DU?$char_traits@D@std@@@std@@8
rdata$r	ENDS
;	COMDAT ??_C@_0BA@JFNIOLAK@string?5too?5long?$AA@
CONST	SEGMENT
??_C@_0BA@JFNIOLAK@string?5too?5long?$AA@ DB 'string too long', 00H ; `string'
CONST	ENDS
;	COMDAT ??_C@_0BI@CFPLBAOH@invalid?5string?5position?$AA@
CONST	SEGMENT
??_C@_0BI@CFPLBAOH@invalid?5string?5position?$AA@ DB 'invalid string posi'
	DB	'tion', 00H					; `string'
CONST	ENDS
;	COMDAT ??_C@_0BB@EHOIFKBK@efekty_d?$JPwi?jkowe?$AA@
CONST	SEGMENT
??_C@_0BB@EHOIFKBK@efekty_d?$JPwi?jkowe?$AA@ DB 'efekty_d', 09fH, 'wi', 0eaH
	DB	'kowe', 00H					; `string'
CONST	ENDS
;	COMDAT ??_C@_0BN@ECEAENDF@g?$LDos_szybko?$JM?f_odczytu_numeru?$AA@
CONST	SEGMENT
??_C@_0BN@ECEAENDF@g?$LDos_szybko?$JM?f_odczytu_numeru?$AA@ DB 'g', 0b3H, 'o'
	DB	's_szybko', 09cH, 0e6H, '_odczytu_numeru', 00H ; `string'
CONST	ENDS
;	COMDAT ??_C@_0BE@ILPCOCN@g?$LDos_odczytu_numeru?$AA@
CONST	SEGMENT
??_C@_0BE@ILPCOCN@g?$LDos_odczytu_numeru?$AA@ DB 'g', 0b3H, 'os_odczytu_n'
	DB	'umeru', 00H					; `string'
CONST	ENDS
;	COMDAT ??_C@_0BE@MGBNNKM@czy_kontynuowa?f_gr?j?$AA@
CONST	SEGMENT
??_C@_0BE@MGBNNKM@czy_kontynuowa?f_gr?j?$AA@ DB 'czy_kontynuowa', 0e6H, '_'
	DB	'gr', 0eaH, 00H				; `string'
CONST	ENDS
;	COMDAT ??_C@_0O@JDOJANCO@stan_d?$JPwi?jk?sw?$AA@
CONST	SEGMENT
??_C@_0O@JDOJANCO@stan_d?$JPwi?jk?sw?$AA@ DB 'stan_d', 09fH, 'wi', 0eaH, 'k'
	DB	0f3H, 'w', 00H				; `string'
CONST	ENDS
;	COMDAT ??_C@_0BB@KJAOIHBF@kwota_pocz?$LJtkowa?$AA@
CONST	SEGMENT
??_C@_0BB@KJAOIHBF@kwota_pocz?$LJtkowa?$AA@ DB 'kwota_pocz', 0b9H, 'tkowa'
	DB	00H						; `string'
CONST	ENDS
;	COMDAT ??_C@_0BH@LAIPMCHF@styl_liczenia_wygranej?$AA@
CONST	SEGMENT
??_C@_0BH@LAIPMCHF@styl_liczenia_wygranej?$AA@ DB 'styl_liczenia_wygranej'
	DB	00H						; `string'
CONST	ENDS
;	COMDAT ??_C@_0BL@LHGCEKLG@czas_przeskoku_kulki_wolny?$AA@
CONST	SEGMENT
??_C@_0BL@LHGCEKLG@czas_przeskoku_kulki_wolny?$AA@ DB 'czas_przeskoku_kul'
	DB	'ki_wolny', 00H				; `string'
CONST	ENDS
;	COMDAT ??_C@_0BM@MMKKMDHC@czas_przeskoku_kulki_szybki?$AA@
CONST	SEGMENT
??_C@_0BM@MMKKMDHC@czas_przeskoku_kulki_szybki?$AA@ DB 'czas_przeskoku_ku'
	DB	'lki_szybki', 00H				; `string'
CONST	ENDS
;	COMDAT ??_C@_0CG@KNEPJEMG@ilo?$JM?f_max_dodatkowych_obrot?sw_ru@
CONST	SEGMENT
??_C@_0CG@KNEPJEMG@ilo?$JM?f_max_dodatkowych_obrot?sw_ru@ DB 'ilo', 09cH, 0e6H
	DB	'_max_dodatkowych_obrot', 0f3H, 'w_ruletki', 00H ; `string'
CONST	ENDS
;	COMDAT ??_C@_0CA@FGPIEHEM@ilo?$JM?f_minimalna_obrot?sw_ruletki?$AA@
CONST	SEGMENT
??_C@_0CA@FGPIEHEM@ilo?$JM?f_minimalna_obrot?sw_ruletki?$AA@ DB 'ilo', 09cH
	DB	0e6H, '_minimalna_obrot', 0f3H, 'w_ruletki', 00H ; `string'
CONST	ENDS
;	COMDAT ??_C@_0N@CGNKGGIC@?5Wylosowano?5?$AA@
CONST	SEGMENT
??_C@_0N@CGNKGGIC@?5Wylosowano?5?$AA@ DB ' Wylosowano ', 00H ; `string'
CONST	ENDS
;	COMDAT ??_C@_0DA@EJNBAHOM@Kulka?5w?5grze?0?5zaczekaj?5na?5wyloso@
CONST	SEGMENT
??_C@_0DA@EJNBAHOM@Kulka?5w?5grze?0?5zaczekaj?5na?5wyloso@ DB 'Kulka w gr'
	DB	'ze, zaczekaj na wylosowanie numeru...', 00H	; `string'
CONST	ENDS
;	COMDAT ??_C@_0BE@EKDPDLOA@?5Obstawiono?5zaklad?5?$AA@
CONST	SEGMENT
??_C@_0BE@EKDPDLOA@?5Obstawiono?5zaklad?5?$AA@ DB ' Obstawiono zaklad ', 00H ; `string'
CONST	ENDS
;	COMDAT ??_C@_0BD@IOLLNBIB@Obstawiono?5zak?$LDad?5?$AA@
CONST	SEGMENT
??_C@_0BD@IOLLNBIB@Obstawiono?5zak?$LDad?5?$AA@ DB 'Obstawiono zak', 0b3H
	DB	'ad ', 00H					; `string'
CONST	ENDS
;	COMDAT ??_C@_0P@LMKDJHDC@Obstawiono?5za?5?$AA@
CONST	SEGMENT
??_C@_0P@LMKDJHDC@Obstawiono?5za?5?$AA@ DB 'Obstawiono za ', 00H ; `string'
CONST	ENDS
;	COMDAT ??_C@_0BH@GDCLDFHN@Gratuluje?5zwi?jkszy?$LDe?$JM?5?$AA@
CONST	SEGMENT
??_C@_0BH@GDCLDFHN@Gratuluje?5zwi?jkszy?$LDe?$JM?5?$AA@ DB 'Gratuluje zwi'
	DB	0eaH, 'kszy', 0b3H, 'e', 09cH, ' ', 00H	; `string'
CONST	ENDS
;	COMDAT ??_C@_0BO@CAHFKDBP@?5krotnie?5sw?sj?5zas?sb?5finansowy?$AA@
CONST	SEGMENT
??_C@_0BO@CAHFKDBP@?5krotnie?5sw?sj?5zas?sb?5finansowy?$AA@ DB ' krotnie '
	DB	'sw', 0f3H, 'j zas', 0f3H, 'b finansowy', 00H ; `string'
CONST	ENDS
;	COMDAT ??_C@_0CL@DCKMMPCF@Gratuluje?5zwi?jkszy?$LDe?$JM?5sw?sj?5zas?sb@
CONST	SEGMENT
??_C@_0CL@DCKMMPCF@Gratuluje?5zwi?jkszy?$LDe?$JM?5sw?sj?5zas?sb@ DB 'Grat'
	DB	'uluje zwi', 0eaH, 'kszy', 0b3H, 'e', 09cH, ' sw', 0f3H, 'j za'
	DB	's', 0f3H, 'b finansowy', 00H		; `string'
CONST	ENDS
;	COMDAT ??_C@_0BJ@GCHIFPGC@Ko?qczysz?5gr?j?5z?5wynikiem?5?$AA@
CONST	SEGMENT
??_C@_0BJ@GCHIFPGC@Ko?qczysz?5gr?j?5z?5wynikiem?5?$AA@ DB 'Ko', 0f1H, 'cz'
	DB	'ysz gr', 0eaH, ' z wynikiem ', 00H		; `string'
CONST	ENDS
;	COMDAT ??_C@_0N@NPCHEJIF@?5Przegrales?5?$AA@
CONST	SEGMENT
??_C@_0N@NPCHEJIF@?5Przegrales?5?$AA@ DB ' Przegrales ', 00H ; `string'
CONST	ENDS
;	COMDAT ??_C@_0BL@LJEGNEAJ@?5Dostajesz?5polowe?5zak?$LDadu?5?$AA@
CONST	SEGMENT
??_C@_0BL@LJEGNEAJ@?5Dostajesz?5polowe?5zak?$LDadu?5?$AA@ DB ' Dostajesz '
	DB	'polowe zak', 0b3H, 'adu ', 00H		; `string'
CONST	ENDS
;	COMDAT ??_C@_07KIPBKJCE@win?4wav?$AA@
CONST	SEGMENT
??_C@_07KIPBKJCE@win?4wav?$AA@ DB 'win.wav', 00H	; `string'
CONST	ENDS
;	COMDAT ??_C@_0M@GNFNLGIH@?5Posiadasz?5?$AA@
CONST	SEGMENT
??_C@_0M@GNFNLGIH@?5Posiadasz?5?$AA@ DB ' Posiadasz ', 00H ; `string'
CONST	ENDS
;	COMDAT ??_C@_0M@GPFIMODH@?5Wygrywasz?5?$AA@
CONST	SEGMENT
??_C@_0M@GPFIMODH@?5Wygrywasz?5?$AA@ DB ' Wygrywasz ', 00H ; `string'
CONST	ENDS
;	COMDAT ??_C@_01EPMOAMKG@$?$AA@
CONST	SEGMENT
??_C@_01EPMOAMKG@$?$AA@ DB '$', 00H			; `string'
CONST	ENDS
;	COMDAT ??_C@_0DF@LJEKJLPK@Nie?5mo?$LPesz?5mie?f?5wy?$LD?$LJczonych?5d?$JPwi@
CONST	SEGMENT
??_C@_0DF@LJEKJLPK@Nie?5mo?$LPesz?5mie?f?5wy?$LD?$LJczonych?5d?$JPwi@ DB 'N'
	DB	'ie mo', 0bfH, 'esz mie', 0e6H, ' wy', 0b3H, 0b9H, 'czonych d', 09fH
	DB	'wi', 0eaH, 'k', 0f3H, 'w i w', 0b3H, 0b9H, 'czon', 0b9H, ' mo'
	DB	'w', 0eaH, 00H				; `string'
CONST	ENDS
;	COMDAT ??_C@_0EG@GKBLFIMF@Nie?5mo?$LPesz?5mie?f?5wy?$LD?$LJczonych?5d?$JPwi@
CONST	SEGMENT
??_C@_0EG@GKBLFIMF@Nie?5mo?$LPesz?5mie?f?5wy?$LD?$LJczonych?5d?$JPwi@ DB 'N'
	DB	'ie mo', 0bfH, 'esz mie', 0e6H, ' wy', 0b3H, 0b9H, 'czonych d', 09fH
	DB	'wi', 0eaH, 'k', 0f3H, 'w i w', 0b3H, 0b9H, 'czonych efekt', 0f3H
	DB	'w d', 09fH, 'wi', 0eaH, 'kowych', 00H	; `string'
CONST	ENDS
;	COMDAT ??_C@_0DC@HENMFLLO@Opcja?5efekty?5d?$JPwi?jkowe?5przyjmuje@
CONST	SEGMENT
??_C@_0DC@HENMFLLO@Opcja?5efekty?5d?$JPwi?jkowe?5przyjmuje@ DB 'Opcja efe'
	DB	'kty d', 09fH, 'wi', 0eaH, 'kowe przyjmuje warto', 09cH, 'ci 0'
	DB	' lub 1', 00H				; `string'
CONST	ENDS
;	COMDAT ??_C@_0ED@BNKOADPP@Opcja?5szybko?$JM?f?5g?$LDosu?5odczytu?5prz@
CONST	SEGMENT
??_C@_0ED@BNKOADPP@Opcja?5szybko?$JM?f?5g?$LDosu?5odczytu?5prz@ DB 'Opcja'
	DB	' szybko', 09cH, 0e6H, ' g', 0b3H, 'osu odczytu przyjmuje wart'
	DB	'o', 09cH, 'ci w przedziale [1;5]', 00H	; `string'
CONST	ENDS
;	COMDAT ??_C@_0EB@BAPPBOHB@Opcja?5g?$LDos?5odczytu?5numeru?5przyjm@
CONST	SEGMENT
??_C@_0EB@BAPPBOHB@Opcja?5g?$LDos?5odczytu?5numeru?5przyjm@ DB 'Opcja g', 0b3H
	DB	'os odczytu numeru przyjmuje warto', 09cH, 'ci w przedziale [0'
	DB	';10]', 00H					; `string'
CONST	ENDS
;	COMDAT ??_C@_0DJ@OKKJHGDF@Opcja?5kontynuowania?5gry?5przyjmuj@
CONST	SEGMENT
??_C@_0DJ@OKKJHGDF@Opcja?5kontynuowania?5gry?5przyjmuj@ DB 'Opcja kontynu'
	DB	'owania gry przyjmuje warto', 09cH, 'ci tylko 0 lub 1', 00H ; `string'
CONST	ENDS
;	COMDAT ??_C@_0CP@LNDFINPO@Stan?5d?$JPwi?jk?sw?5przyjmuje?5warto?$JMci@
CONST	SEGMENT
??_C@_0CP@LNDFINPO@Stan?5d?$JPwi?jk?sw?5przyjmuje?5warto?$JMci@ DB 'Stan '
	DB	'd', 09fH, 'wi', 0eaH, 'k', 0f3H, 'w przyjmuje warto', 09cH, 'c'
	DB	'i tylko 0 lub 1', 00H			; `string'
CONST	ENDS
;	COMDAT ??_C@_0CP@ODEFLMCC@Kwota?5pocz?$LJtkowa?5nie?5mo?$LPe?5by?f?5mn@
CONST	SEGMENT
??_C@_0CP@ODEFLMCC@Kwota?5pocz?$LJtkowa?5nie?5mo?$LPe?5by?f?5mn@ DB 'Kwot'
	DB	'a pocz', 0b9H, 'tkowa nie mo', 0bfH, 'e by', 0e6H, ' mniejsza'
	DB	' od zera', 00H				; `string'
CONST	ENDS
;	COMDAT ??_C@_0DD@CJFGHGHP@Czas?5przerwy?5d?$JPwi?jku?5nie?5mo?$LPe?5by@
CONST	SEGMENT
??_C@_0DD@CJFGHGHP@Czas?5przerwy?5d?$JPwi?jku?5nie?5mo?$LPe?5by@ DB 'Czas'
	DB	' przerwy d', 09fH, 'wi', 0eaH, 'ku nie mo', 0bfH, 'e by', 0e6H
	DB	' mniejszy od zera', 00H			; `string'
CONST	ENDS
;	COMDAT ??_C@_0DH@EDACBMH@Styl?5liczeia?5wygranej?5przyjmuje?5@
CONST	SEGMENT
??_C@_0DH@EDACBMH@Styl?5liczeia?5wygranej?5przyjmuje?5@ DB 'Styl liczeia '
	DB	'wygranej przyjmuje warto', 09cH, 'ci tylko 0 lub 1', 00H ; `string'
CONST	ENDS
;	COMDAT ??_C@_0EG@FJFKONPC@Jedna?5z?5deklaracji?5w?5sprawie?5obr@
CONST	SEGMENT
??_C@_0EG@FJFKONPC@Jedna?5z?5deklaracji?5w?5sprawie?5obr@ DB 'Jedna z dek'
	DB	'laracji w sprawie obrot', 0f3H, 'w ruletki musi by', 0e6H, ' '
	DB	'wi', 0eaH, 'ksza od zera', 00H		; `string'
CONST	ENDS
;	COMDAT ??_C@_0DF@PACHBLM@Ilo?$JM?f?5max?5obrot?sw?5ruletki?5nie?5mo@
CONST	SEGMENT
??_C@_0DF@PACHBLM@Ilo?$JM?f?5max?5obrot?sw?5ruletki?5nie?5mo@ DB 'Ilo', 09cH
	DB	0e6H, ' max obrot', 0f3H, 'w ruletki nie mo', 0bfH, 'e by', 0e6H
	DB	' mniejsza od 0', 00H			; `string'
CONST	ENDS
;	COMDAT ??_C@_0DL@EDLBNLFA@Ilo?$JM?f?5minimalna?5obrot?sw?5ruletki?5@
CONST	SEGMENT
??_C@_0DL@EDLBNLFA@Ilo?$JM?f?5minimalna?5obrot?sw?5ruletki?5@ DB 'Ilo', 09cH
	DB	0e6H, ' minimalna obrot', 0f3H, 'w ruletki nie mo', 0bfH, 'e b'
	DB	'y', 0e6H, ' mniejsza od 0', 00H		; `string'
CONST	ENDS
;	COMDAT ??_C@_0BN@KMOICOCN@Ustawiam?5domy?$JMlne?5ustawienie?$AA@
CONST	SEGMENT
??_C@_0BN@KMOICOCN@Ustawiam?5domy?$JMlne?5ustawienie?$AA@ DB 'Ustawiam do'
	DB	'my', 09cH, 'lne ustawienie', 00H		; `string'
CONST	ENDS
;	COMDAT ??_C@_0GC@FGDMKFMP@Warto?$JM?f?5wolnego?5czasu?5przeskoku?5@
CONST	SEGMENT
??_C@_0GC@FGDMKFMP@Warto?$JM?f?5wolnego?5czasu?5przeskoku?5@ DB 'Warto', 09cH
	DB	0e6H, ' wolnego czasu przeskoku kulki musi by', 0e6H, ' ni', 0bfH
	DB	'sza ni', 0bfH, ' warto', 09cH, 0e6H, ' szybkiego czasu przesk'
	DB	'oku kulki', 00H				; `string'
CONST	ENDS
;	COMDAT ??_C@_0BD@MFIDEEIL@efekty_d?$JPwi?jkowe?51?$AA@
CONST	SEGMENT
??_C@_0BD@MFIDEEIL@efekty_d?$JPwi?jkowe?51?$AA@ DB 'efekty_d', 09fH, 'wi', 0eaH
	DB	'kowe 1', 00H				; `string'
CONST	ENDS
;	COMDAT ??_C@_0BP@CJDLAIMM@g?$LDos_szybko?$JM?f_odczytu_numeru?54?$AA@
CONST	SEGMENT
??_C@_0BP@CJDLAIMM@g?$LDos_szybko?$JM?f_odczytu_numeru?54?$AA@ DB 'g', 0b3H
	DB	'os_szybko', 09cH, 0e6H, '_odczytu_numeru 4', 00H ; `string'
CONST	ENDS
;	COMDAT ??_C@_0BG@COMBOMN@g?$LDos_odczytu_numeru?51?$AA@
CONST	SEGMENT
??_C@_0BG@COMBOMN@g?$LDos_odczytu_numeru?51?$AA@ DB 'g', 0b3H, 'os_odczyt'
	DB	'u_numeru 1', 00H				; `string'
CONST	ENDS
;	COMDAT ??_C@_0BG@EMABALP@czy_kontynuowa?f_gr?j?51?$AA@
CONST	SEGMENT
??_C@_0BG@EMABALP@czy_kontynuowa?f_gr?j?51?$AA@ DB 'czy_kontynuowa', 0e6H
	DB	'_gr', 0eaH, ' 1', 00H			; `string'
CONST	ENDS
;	COMDAT ??_C@_0BA@ILKGKHCK@stan_d?$JPwi?jk?sw?51?$AA@
CONST	SEGMENT
??_C@_0BA@ILKGKHCK@stan_d?$JPwi?jk?sw?51?$AA@ DB 'stan_d', 09fH, 'wi', 0eaH
	DB	'k', 0f3H, 'w 1', 00H			; `string'
CONST	ENDS
;	COMDAT ??_C@_0BG@DNDOADBI@kwota_pocz?$LJtkowa?51000?$AA@
CONST	SEGMENT
??_C@_0BG@DNDOADBI@kwota_pocz?$LJtkowa?51000?$AA@ DB 'kwota_pocz', 0b9H, 't'
	DB	'kowa 1000', 00H				; `string'
CONST	ENDS
;	COMDAT ??_C@_0BJ@NJDCNPPC@styl_liczenia_wygranej?51?$AA@
CONST	SEGMENT
??_C@_0BJ@NJDCNPPC@styl_liczenia_wygranej?51?$AA@ DB 'styl_liczenia_wygra'
	DB	'nej 1', 00H					; `string'
CONST	ENDS
;	COMDAT ??_C@_0BJ@OHAGCGBG@czas_przerwy_dzwi?jku?5500?$AA@
CONST	SEGMENT
??_C@_0BJ@OHAGCGBG@czas_przerwy_dzwi?jku?5500?$AA@ DB 'czas_przerwy_dzwi', 0eaH
	DB	'ku 500', 00H				; `string'
CONST	ENDS
;	COMDAT ??_C@_0BO@ELNOLLHD@czas_przeskoku_kulki_wolny?575?$AA@
CONST	SEGMENT
??_C@_0BO@ELNOLLHD@czas_przeskoku_kulki_wolny?575?$AA@ DB 'czas_przeskoku'
	DB	'_kulki_wolny 75', 00H			; `string'
CONST	ENDS
;	COMDAT ??_C@_0BP@NMHFMMDP@czas_przeskoku_kulki_szybki?550?$AA@
CONST	SEGMENT
??_C@_0BP@NMHFMMDP@czas_przeskoku_kulki_szybki?550?$AA@ DB 'czas_przeskok'
	DB	'u_kulki_szybki 50', 00H			; `string'
CONST	ENDS
;	COMDAT ??_C@_0CI@KGOEKJAK@ilo?$JM?f_max_dodatkowych_obrot?sw_ru@
CONST	SEGMENT
??_C@_0CI@KGOEKJAK@ilo?$JM?f_max_dodatkowych_obrot?sw_ru@ DB 'ilo', 09cH, 0e6H
	DB	'_max_dodatkowych_obrot', 0f3H, 'w_ruletki 3', 00H ; `string'
CONST	ENDS
;	COMDAT ??_C@_0CC@GBEJJAFD@ilo?$JM?f_minimalna_obrot?sw_ruletki?5@
CONST	SEGMENT
??_C@_0CC@GBEJJAFD@ilo?$JM?f_minimalna_obrot?sw_ruletki?5@ DB 'ilo', 09cH
	DB	0e6H, '_minimalna_obrot', 0f3H, 'w_ruletki 2', 00H ; `string'
CONST	ENDS
;	COMDAT ??_C@_0M@COFBHHKL@setting?4txt?$AA@
CONST	SEGMENT
??_C@_0M@COFBHHKL@setting?4txt?$AA@ DB 'setting.txt', 00H ; `string'
CONST	ENDS
;	COMDAT ??_C@_0BP@KIMEIPBM@Pobrano?5brakuj?$LJce?5pliki?5g?$LDos?sw?$AA@
CONST	SEGMENT
??_C@_0BP@KIMEIPBM@Pobrano?5brakuj?$LJce?5pliki?5g?$LDos?sw?$AA@ DB 'Pobr'
	DB	'ano brakuj', 0b9H, 'ce pliki g', 0b3H, 'os', 0f3H, 'w', 00H ; `string'
CONST	ENDS
;	COMDAT ??_C@_0FC@DPJNGIHL@Brak?5plik?sw?5dla?5g?$LDosu?5oraz?5nie?5m@
CONST	SEGMENT
??_C@_0FC@DPJNGIHL@Brak?5plik?sw?5dla?5g?$LDosu?5oraz?5nie?5m@ DB 'Brak p'
	DB	'lik', 0f3H, 'w dla g', 0b3H, 'osu oraz nie mo', 0bfH, 'na pob'
	DB	'ra', 0e6H, ' danych, wy', 0b3H, 0b9H, 'czono odczytywanie wyn'
	DB	'iku', 00H					; `string'
CONST	ENDS
;	COMDAT ??_C@_0DB@JAANGCNE@Rozpoczynam?5pobieranie?5brakuj?$LJcy@
CONST	SEGMENT
??_C@_0DB@JAANGCNE@Rozpoczynam?5pobieranie?5brakuj?$LJcy@ DB 'Rozpoczynam'
	DB	' pobieranie brakuj', 0b9H, 'cych plik', 0f3H, 'w g', 0b3H, 'o'
	DB	's', 0f3H, 'w', 00H				; `string'
CONST	ENDS
;	COMDAT ??_C@_04JLFAMLOH@G?$LDos?$AA@
CONST	SEGMENT
??_C@_04JLFAMLOH@G?$LDos?$AA@ DB 'G', 0b3H, 'os', 00H	; `string'
CONST	ENDS
;	COMDAT ??_C@_0ED@KNLDKMLM@https?3?1?1github?4com?1talez2709?1Rul@
CONST	SEGMENT
??_C@_0ED@KNLDKMLM@https?3?1?1github?4com?1talez2709?1Rul@ DB 'https://gi'
	DB	'thub.com/talez2709/Ruletka/raw/master/Ruletka/G%C5%82os/', 00H ; `string'
CONST	ENDS
;	COMDAT ??_C@_01KMDKNFGN@?1?$AA@
CONST	SEGMENT
??_C@_01KMDKNFGN@?1?$AA@ DB '/', 00H			; `string'
CONST	ENDS
;	COMDAT ??_C@_01IDAFKMJL@_?$AA@
CONST	SEGMENT
??_C@_01IDAFKMJL@_?$AA@ DB '_', 00H			; `string'
CONST	ENDS
;	COMDAT ??_C@_05NKPCGME@Agata?$AA@
CONST	SEGMENT
??_C@_05NKPCGME@Agata?$AA@ DB 'Agata', 00H		; `string'
CONST	ENDS
;	COMDAT ??_C@_04HDNGKDH@Jan2?$AA@
CONST	SEGMENT
??_C@_04HDNGKDH@Jan2?$AA@ DB 'Jan2', 00H		; `string'
CONST	ENDS
;	COMDAT ??_C@_05KJFHPLBC@Maja2?$AA@
CONST	SEGMENT
??_C@_05KJFHPLBC@Maja2?$AA@ DB 'Maja2', 00H		; `string'
CONST	ENDS
;	COMDAT ??_C@_04PLEDLCJI@Ewa2?$AA@
CONST	SEGMENT
??_C@_04PLEDLCJI@Ewa2?$AA@ DB 'Ewa2', 00H		; `string'
CONST	ENDS
;	COMDAT ??_C@_06DKNIKMFF@Jacek2?$AA@
CONST	SEGMENT
??_C@_06DKNIKMFF@Jacek2?$AA@ DB 'Jacek2', 00H		; `string'
CONST	ENDS
;	COMDAT ??_C@_03JIHJHPIE@Jan?$AA@
CONST	SEGMENT
??_C@_03JIHJHPIE@Jan?$AA@ DB 'Jan', 00H			; `string'
CONST	ENDS
;	COMDAT ??_C@_04CDICBAGM@Maja?$AA@
CONST	SEGMENT
??_C@_04CDICBAGM@Maja?$AA@ DB 'Maja', 00H		; `string'
CONST	ENDS
;	COMDAT ??_C@_03FPCJKMNP@Ewa?$AA@
CONST	SEGMENT
??_C@_03FPCJKMNP@Ewa?$AA@ DB 'Ewa', 00H			; `string'
CONST	ENDS
;	COMDAT ??_C@_05KFCKMKOB@Jacek?$AA@
CONST	SEGMENT
??_C@_05KFCKMKOB@Jacek?$AA@ DB 'Jacek', 00H		; `string'
CONST	ENDS
;	COMDAT ??_C@_05CMOJBPHN@G?$LDos?1?$AA@
CONST	SEGMENT
??_C@_05CMOJBPHN@G?$LDos?1?$AA@ DB 'G', 0b3H, 'os/', 00H ; `string'
CONST	ENDS
;	COMDAT ??_C@_0CA@KILAJOJF@Pobrano?5brakuj?$LJce?5pliki?5efekt?sw?$AA@
CONST	SEGMENT
??_C@_0CA@KILAJOJF@Pobrano?5brakuj?$LJce?5pliki?5efekt?sw?$AA@ DB 'Pobran'
	DB	'o brakuj', 0b9H, 'ce pliki efekt', 0f3H, 'w', 00H ; `string'
CONST	ENDS
;	COMDAT ??_C@_0GH@BAJDCEKO@https?3?1?1github?4com?1talez2709?1Rul@
CONST	SEGMENT
??_C@_0GH@BAJDCEKO@https?3?1?1github?4com?1talez2709?1Rul@ DB 'https://gi'
	DB	'thub.com/talez2709/Ruletka/raw/master/Ruletka/Efekty_d%C5%BAw'
	DB	'i%C4%99kowe/zwielokrotnenie.wav', 00H	; `string'
CONST	ENDS
;	COMDAT ??_C@_0CF@PNMICDIM@Efekty_d?$JPwi?jkowe?1zwielokrotnenie@
CONST	SEGMENT
??_C@_0CF@PNMICDIM@Efekty_d?$JPwi?jkowe?1zwielokrotnenie@ DB 'Efekty_d', 09fH
	DB	'wi', 0eaH, 'kowe/zwielokrotnenie.wav', 00H	; `string'
CONST	ENDS
;	COMDAT ??_C@_0GA@OFKIGHHP@https?3?1?1github?4com?1talez2709?1Rul@
CONST	SEGMENT
??_C@_0GA@OFKIGHHP@https?3?1?1github?4com?1talez2709?1Rul@ DB 'https://gi'
	DB	'thub.com/talez2709/Ruletka/raw/master/Ruletka/Efekty_d%C5%BAw'
	DB	'i%C4%99kowe/wygrana2.wav', 00H		; `string'
CONST	ENDS
;	COMDAT ??_C@_0BO@GEPIDPJJ@Efekty_d?$JPwi?jkowe?1wygrana2?4wav?$AA@
CONST	SEGMENT
??_C@_0BO@GEPIDPJJ@Efekty_d?$JPwi?jkowe?1wygrana2?4wav?$AA@ DB 'Efekty_d', 09fH
	DB	'wi', 0eaH, 'kowe/wygrana2.wav', 00H		; `string'
CONST	ENDS
;	COMDAT ??_C@_0BO@OCGMENDH@Efekty_d?$JPwi?jkowe?1wygrana1?4wav?$AA@
CONST	SEGMENT
??_C@_0BO@OCGMENDH@Efekty_d?$JPwi?jkowe?1wygrana1?4wav?$AA@ DB 'Efekty_d', 09fH
	DB	'wi', 0eaH, 'kowe/wygrana1.wav', 00H		; `string'
CONST	ENDS
;	COMDAT ??_C@_0IB@GKCCNHLI@Brak?5plik?sw?5dla?5efekt?sw?5d?$JPwi?jkow@
CONST	SEGMENT
??_C@_0IB@GKCCNHLI@Brak?5plik?sw?5dla?5efekt?sw?5d?$JPwi?jkow@ DB 'Brak p'
	DB	'lik', 0f3H, 'w dla efekt', 0f3H, 'w d', 09fH, 'wi', 0eaH, 'ko'
	DB	'wych oraz nie mo', 0bfH, 'na pobra', 0e6H, ' danych, wy', 0b3H
	DB	0b9H, 'czono efekty d', 09fH, 'wi', 0eaH, 'kowe muzyczne, w', 0b3H
	DB	0b9H, 'czono efekty systemowe', 00H		; `string'
CONST	ENDS
;	COMDAT ??_C@_0FP@HCIMMKGN@https?3?1?1github?4com?1talez2709?1Rul@
CONST	SEGMENT
??_C@_0FP@HCIMMKGN@https?3?1?1github?4com?1talez2709?1Rul@ DB 'https://gi'
	DB	'thub.com/talez2709/Ruletka/raw/master/Ruletka/Efekty_d%C5%BAw'
	DB	'i%C4%99kowe/bankrut.wav', 00H		; `string'
CONST	ENDS
;	COMDAT ??_C@_0DC@DNDHBNPK@Rozpoczynam?5pobieranie?5brakuj?$LJcy@
CONST	SEGMENT
??_C@_0DC@DNDHBNPK@Rozpoczynam?5pobieranie?5brakuj?$LJcy@ DB 'Rozpoczynam'
	DB	' pobieranie brakuj', 0b9H, 'cych plik', 0f3H, 'w efekt', 0f3H
	DB	'w', 00H					; `string'
CONST	ENDS
;	COMDAT ??_C@_0BN@JMMCOBLJ@Efekty_d?$JPwi?jkowe?1bankrut?4wav?$AA@
CONST	SEGMENT
??_C@_0BN@JMMCOBLJ@Efekty_d?$JPwi?jkowe?1bankrut?4wav?$AA@ DB 'Efekty_d', 09fH
	DB	'wi', 0eaH, 'kowe/bankrut.wav', 00H		; `string'
CONST	ENDS
;	COMDAT ??_C@_0BB@GJELGIOA@Efekty_d?$JPwi?jkowe?$AA@
CONST	SEGMENT
??_C@_0BB@GJELGIOA@Efekty_d?$JPwi?jkowe?$AA@ DB 'Efekty_d', 09fH, 'wi', 0eaH
	DB	'kowe', 00H					; `string'
CONST	ENDS
;	COMDAT ??_C@_0BK@PLEOEKGI@Nowa?5gra?5rozpoczeta?5dnia?5?$AA@
CONST	SEGMENT
??_C@_0BK@PLEOEKGI@Nowa?5gra?5rozpoczeta?5dnia?5?$AA@ DB 'Nowa gra rozpoc'
	DB	'zeta dnia ', 00H				; `string'
CONST	ENDS
;	COMDAT ??_C@_01JLIPDDHJ@?3?$AA@
CONST	SEGMENT
??_C@_01JLIPDDHJ@?3?$AA@ DB ':', 00H			; `string'
CONST	ENDS
;	COMDAT ??_C@_0BF@EHKBBICH@Gra?5rozpoczeta?5dnia?5?$AA@
CONST	SEGMENT
??_C@_0BF@EHKBBICH@Gra?5rozpoczeta?5dnia?5?$AA@ DB 'Gra rozpoczeta dnia ', 00H ; `string'
CONST	ENDS
;	COMDAT ??_C@_01LFCBOECM@?4?$AA@
CONST	SEGMENT
??_C@_01LFCBOECM@?4?$AA@ DB '.', 00H			; `string'
CONST	ENDS
;	COMDAT ??_C@_0N@KHLIPMCA@?5o?5godzinie?5?$AA@
CONST	SEGMENT
??_C@_0N@KHLIPMCA@?5o?5godzinie?5?$AA@ DB ' o godzinie ', 00H ; `string'
CONST	ENDS
;	COMDAT ??_C@_0BE@CILJHICG@Gra?5rozpoczeta?5dnia?$AA@
CONST	SEGMENT
??_C@_0BE@CILJHICG@Gra?5rozpoczeta?5dnia?$AA@ DB 'Gra rozpoczeta dnia', 00H ; `string'
CONST	ENDS
;	COMDAT ??_C@_0O@POHKAIHJ@Obstawiono?5za?$AA@
CONST	SEGMENT
??_C@_0O@POHKAIHJ@Obstawiono?5za?$AA@ DB 'Obstawiono za', 00H ; `string'
CONST	ENDS
;	COMDAT ??_C@_0BC@EAGHPBJK@Obstawiono?5zaklad?$AA@
CONST	SEGMENT
??_C@_0BC@EAGHPBJK@Obstawiono?5zaklad?$AA@ DB 'Obstawiono zaklad', 00H ; `string'
CONST	ENDS
;	COMDAT ??_C@_0M@DIDIAOPI@?5Wylosowano?$AA@
CONST	SEGMENT
??_C@_0M@DIDIAOPI@?5Wylosowano?$AA@ DB ' Wylosowano', 00H ; `string'
CONST	ENDS
;	COMDAT ??_C@_0L@DAFLKCID@Wylosowano?$AA@
CONST	SEGMENT
??_C@_0L@DAFLKCID@Wylosowano?$AA@ DB 'Wylosowano', 00H	; `string'
CONST	ENDS
;	COMDAT ??_C@_09LFKNBKJA@Posiadasz?$AA@
CONST	SEGMENT
??_C@_09LFKNBKJA@Posiadasz?$AA@ DB 'Posiadasz', 00H	; `string'
CONST	ENDS
;	COMDAT ??_C@_0DJ@EFIKGJBI@Uruchomiono?5ponownie?5gr?j?5z?5wy?$LD?$LJc@
CONST	SEGMENT
??_C@_0DJ@EFIKGJBI@Uruchomiono?5ponownie?5gr?j?5z?5wy?$LD?$LJc@ DB 'Uruch'
	DB	'omiono ponownie gr', 0eaH, ' z wy', 0b3H, 0b9H, 'czon', 0b9H, ' '
	DB	'opcj', 0b9H, ' kontynuowania', 00H		; `string'
CONST	ENDS
;	COMDAT ??_C@_0BB@KLDNCCFE@log_aktualny?4txt?$AA@
CONST	SEGMENT
??_C@_0BB@KLDNCCFE@log_aktualny?4txt?$AA@ DB 'log_aktualny.txt', 00H ; `string'
CONST	ENDS
;	COMDAT ??_C@_01NOFIACDB@w?$AA@
CONST	SEGMENT
??_C@_01NOFIACDB@w?$AA@ DB 'w', 00H			; `string'
CONST	ENDS
;	COMDAT ??_C@_01DICPFPGM@k?$AA@
CONST	SEGMENT
??_C@_01DICPFPGM@k?$AA@ DB 'k', 00H			; `string'
CONST	ENDS
;	COMDAT ??_C@_05GFDBGFDH@d?4wav?$AA@
CONST	SEGMENT
??_C@_05GFDBGFDH@d?4wav?$AA@ DB 'd.wav', 00H		; `string'
CONST	ENDS
;	COMDAT ??_C@_05ODKFBHJJ@g?4wav?$AA@
CONST	SEGMENT
??_C@_05ODKFBHJJ@g?4wav?$AA@ DB 'g.wav', 00H		; `string'
CONST	ENDS
;	COMDAT ??_C@_05LDGIIGCK@b?4wav?$AA@
CONST	SEGMENT
??_C@_05LDGIIGCK@b?4wav?$AA@ DB 'b.wav', 00H		; `string'
CONST	ENDS
;	COMDAT ??_C@_05LALOIELB@r?4wav?$AA@
CONST	SEGMENT
??_C@_05LALOIELB@r?4wav?$AA@ DB 'r.wav', 00H		; `string'
CONST	ENDS
;	COMDAT ??_C@_05MEKKEGFB@n?4wav?$AA@
CONST	SEGMENT
??_C@_05MEKKEGFB@n?4wav?$AA@ DB 'n.wav', 00H		; `string'
CONST	ENDS
;	COMDAT ??_C@_05PNHGCFLK@p?4wav?$AA@
CONST	SEGMENT
??_C@_05PNHGCFLK@p?4wav?$AA@ DB 'p.wav', 00H		; `string'
CONST	ENDS
;	COMDAT ??_C@_04IBLEHOMF@?4wav?$AA@
CONST	SEGMENT
??_C@_04IBLEHOMF@?4wav?$AA@ DB '.wav', 00H		; `string'
CONST	ENDS
;	COMDAT ??_C@_03FHDFACOC@NIE?$AA@
CONST	SEGMENT
??_C@_03FHDFACOC@NIE?$AA@ DB 'NIE', 00H			; `string'
CONST	ENDS
;	COMDAT ??_C@_03PKPMGAKA@Nie?$AA@
CONST	SEGMENT
??_C@_03PKPMGAKA@Nie?$AA@ DB 'Nie', 00H			; `string'
CONST	ENDS
;	COMDAT ??_C@_03FKMOMPJO@nie?$AA@
CONST	SEGMENT
??_C@_03FKMOMPJO@nie?$AA@ DB 'nie', 00H			; `string'
CONST	ENDS
;	COMDAT ??_C@_03PIABMJCP@TAK?$AA@
CONST	SEGMENT
??_C@_03PIABMJCP@TAK?$AA@ DB 'TAK', 00H			; `string'
CONST	ENDS
;	COMDAT ??_C@_03FFMIKLGN@Tak?$AA@
CONST	SEGMENT
??_C@_03FFMIKLGN@Tak?$AA@ DB 'Tak', 00H			; `string'
CONST	ENDS
;	COMDAT ??_C@_03PFPKAEFD@tak?$AA@
CONST	SEGMENT
??_C@_03PFPKAEFD@tak?$AA@ DB 'tak', 00H			; `string'
CONST	ENDS
;	COMDAT ??_C@_01PFHFFBPC@t?$AA@
CONST	SEGMENT
??_C@_01PFHFFBPC@t?$AA@ DB 't', 00H			; `string'
CONST	ENDS
;	COMDAT ??_C@_0BA@KCLBOCHC@Na?5koncie?5masz?5?$AA@
CONST	SEGMENT
??_C@_0BA@KCLBOCHC@Na?5koncie?5masz?5?$AA@ DB 'Na koncie masz ', 00H ; `string'
CONST	ENDS
;	COMDAT ??_C@_0DB@MONJHHJM@$?0?5czy?5chcesz?5grac?5dalej?$CI?8t?8?5?9?5t@
CONST	SEGMENT
??_C@_0DB@MONJHHJM@$?0?5czy?5chcesz?5grac?5dalej?$CI?8t?8?5?9?5t@ DB '$, '
	DB	'czy chcesz grac dalej(''t'' - tak, ''n'' - nie) ?', 00H ; `string'
CONST	ENDS
;	COMDAT ??_C@_0CM@BIICBBPD@Nie?5mo?$LPesz?5kontynuowa?f?0?5przegra?$LD@
CONST	SEGMENT
??_C@_0CM@BIICBBPD@Nie?5mo?$LPesz?5kontynuowa?f?0?5przegra?$LD@ DB 'Nie m'
	DB	'o', 0bfH, 'esz kontynuowa', 0e6H, ', przegra', 0b3H, 'e', 09cH
	DB	' wszystko', 00H				; `string'
CONST	ENDS
;	COMDAT ??_C@_0CF@EMPIFKEH@Obstawiles?5niepoprawnie?0?5przegra@
CONST	SEGMENT
??_C@_0CF@EMPIFKEH@Obstawiles?5niepoprawnie?0?5przegra@ DB 'Obstawiles ni'
	DB	'epoprawnie, przegra', 0b3H, 'e', 09cH, ' ', 00H ; `string'
CONST	ENDS
;	COMDAT ??_C@_0EF@FAPGEAPP@Obstawiles?5niepoprawnie?5lecz?5uda@
CONST	SEGMENT
??_C@_0EF@FAPGEAPP@Obstawiles?5niepoprawnie?5lecz?5uda@ DB 'Obstawiles ni'
	DB	'epoprawnie lecz uda', 0b3H, 'o Ci si', 0eaH, ', dostajesz po', 0b3H
	DB	'ow', 0eaH, ' zak', 0b3H, 'adu ', 00H	; `string'
CONST	ENDS
;	COMDAT ??_C@_0CB@MBIMKPJH@Obstawiles?5poprawnie?0?5wygrywasz?5@
CONST	SEGMENT
??_C@_0CB@MBIMKPJH@Obstawiles?5poprawnie?0?5wygrywasz?5@ DB 'Obstawiles p'
	DB	'oprawnie, wygrywasz ', 00H			; `string'
CONST	ENDS
;	COMDAT ??_C@_02DEPNMBPN@$?4?$AA@
CONST	SEGMENT
??_C@_02DEPNMBPN@$?4?$AA@ DB '$.', 00H			; `string'
CONST	ENDS
;	COMDAT ??_C@_02KHOJGJKF@?4?5?$AA@
CONST	SEGMENT
??_C@_02KHOJGJKF@?4?5?$AA@ DB '. ', 00H			; `string'
CONST	ENDS
;	COMDAT ??_C@_0BC@IEHJKDDM@Wylosowano?5numer?5?$AA@
CONST	SEGMENT
??_C@_0BC@IEHJKDDM@Wylosowano?5numer?5?$AA@ DB 'Wylosowano numer ', 00H ; `string'
CONST	ENDS
;	COMDAT ??_C@_02KNHHEEKP@?5?5?$AA@
CONST	SEGMENT
??_C@_02KNHHEEKP@?5?5?$AA@ DB '  ', 00H			; `string'
CONST	ENDS
;	COMDAT ??_C@_02MGHEPNFN@?$AI?$AI?$AA@
CONST	SEGMENT
??_C@_02MGHEPNFN@?$AI?$AI?$AA@ DB 08H, 08H, 00H		; `string'
CONST	ENDS
;	COMDAT ??_C@_0CJ@PMIHJCIC@Nie?5mo?$LPesz?5obstawi?f?5ujemn?$LJ?5kwot?$LJ@
CONST	SEGMENT
??_C@_0CJ@PMIHJCIC@Nie?5mo?$LPesz?5obstawi?f?5ujemn?$LJ?5kwot?$LJ@ DB 'Ni'
	DB	'e mo', 0bfH, 'esz obstawi', 0e6H, ' ujemn', 0b9H, ' kwot', 0b9H
	DB	' zak', 0b3H, 'adu', 00H			; `string'
CONST	ENDS
;	COMDAT ??_C@_0BI@CMKDFAEK@Nie?5masz?5tyle?5pieni?jdzy?$AA@
CONST	SEGMENT
??_C@_0BI@CMKDFAEK@Nie?5masz?5tyle?5pieni?jdzy?$AA@ DB 'Nie masz tyle pie'
	DB	'ni', 0eaH, 'dzy', 00H			; `string'
CONST	ENDS
;	COMDAT ??_C@_0CF@LJDHNEHM@Nie?5mo?$LPesz?5obstawi?f?5zerowego?5zak@
CONST	SEGMENT
??_C@_0CF@LJDHNEHM@Nie?5mo?$LPesz?5obstawi?f?5zerowego?5zak@ DB 'Nie mo', 0bfH
	DB	'esz obstawi', 0e6H, ' zerowego zak', 0b3H, 'adu', 00H ; `string'
CONST	ENDS
;	COMDAT ??_C@_01PBGHHLMH@?$AH?$AA@
CONST	SEGMENT
??_C@_01PBGHHLMH@?$AH?$AA@ DB 07H, 00H			; `string'
CONST	ENDS
;	COMDAT ??_C@_0CD@OGNPPNBN@Wprowadzi?$LDe?f?5nieprawid?$LDow?$LJ?5warto@
CONST	SEGMENT
??_C@_0CD@OGNPPNBN@Wprowadzi?$LDe?f?5nieprawid?$LDow?$LJ?5warto@ DB 'Wpro'
	DB	'wadzi', 0b3H, 'e', 0e6H, ' nieprawid', 0b3H, 'ow', 0b9H, ' wa'
	DB	'rto', 09cH, 0e6H, 00H			; `string'
CONST	ENDS
;	COMDAT ??_C@_05OMMBNPEF@Masz?5?$AA@
CONST	SEGMENT
??_C@_05OMMBNPEF@Masz?5?$AA@ DB 'Masz ', 00H		; `string'
CONST	ENDS
;	COMDAT ??_C@_0CF@BGACGNBA@$?0?5jak?$LJ?5kwot?j?5chcesz?5obstawi?f?5wy@
CONST	SEGMENT
??_C@_0CF@BGACGNBA@$?0?5jak?$LJ?5kwot?j?5chcesz?5obstawi?f?5wy@ DB '$, ja'
	DB	'k', 0b9H, ' kwot', 0eaH, ' chcesz obstawi', 0e6H, ' wynik?', 00H ; `string'
CONST	ENDS
;	COMDAT ??_C@_02KPIPOMFB@36?$AA@
CONST	SEGMENT
??_C@_02KPIPOMFB@36?$AA@ DB '36', 00H			; `string'
CONST	ENDS
;	COMDAT ??_C@_02IEKCLPJC@35?$AA@
CONST	SEGMENT
??_C@_02IEKCLPJC@35?$AA@ DB '35', 00H			; `string'
CONST	ENDS
;	COMDAT ??_C@_02JNLJIOND@34?$AA@
CONST	SEGMENT
??_C@_02JNLJIOND@34?$AA@ DB '34', 00H			; `string'
CONST	ENDS
;	COMDAT ??_C@_02NCPIBIBE@33?$AA@
CONST	SEGMENT
??_C@_02NCPIBIBE@33?$AA@ DB '33', 00H			; `string'
CONST	ENDS
;	COMDAT ??_C@_02MLODCJFF@32?$AA@
CONST	SEGMENT
??_C@_02MLODCJFF@32?$AA@ DB '32', 00H			; `string'
CONST	ENDS
;	COMDAT ??_C@_02OAMOHKJG@31?$AA@
CONST	SEGMENT
??_C@_02OAMOHKJG@31?$AA@ DB '31', 00H			; `string'
CONST	ENDS
;	COMDAT ??_C@_02PJNFELNH@30?$AA@
CONST	SEGMENT
??_C@_02PJNFELNH@30?$AA@ DB '30', 00H			; `string'
CONST	ENDS
;	COMDAT ??_C@_02CJNFJKKJ@29?$AA@
CONST	SEGMENT
??_C@_02CJNFJKKJ@29?$AA@ DB '29', 00H			; `string'
CONST	ENDS
;	COMDAT ??_C@_02DAMOKLOI@28?$AA@
CONST	SEGMENT
??_C@_02DAMOKLOI@28?$AA@ DB '28', 00H			; `string'
CONST	ENDS
;	COMDAT ??_C@_02LHFGLHCH@27?$AA@
CONST	SEGMENT
??_C@_02LHFGLHCH@27?$AA@ DB '27', 00H			; `string'
CONST	ENDS
;	COMDAT ??_C@_02KOENIGGG@26?$AA@
CONST	SEGMENT
??_C@_02KOENIGGG@26?$AA@ DB '26', 00H			; `string'
CONST	ENDS
;	COMDAT ??_C@_02IFGANFKF@25?$AA@
CONST	SEGMENT
??_C@_02IFGANFKF@25?$AA@ DB '25', 00H			; `string'
CONST	ENDS
;	COMDAT ??_C@_02JMHLOEOE@24?$AA@
CONST	SEGMENT
??_C@_02JMHLOEOE@24?$AA@ DB '24', 00H			; `string'
CONST	ENDS
;	COMDAT ??_C@_02NDDKHCCD@23?$AA@
CONST	SEGMENT
??_C@_02NDDKHCCD@23?$AA@ DB '23', 00H			; `string'
CONST	ENDS
;	COMDAT ??_C@_02MKCBEDGC@22?$AA@
CONST	SEGMENT
??_C@_02MKCBEDGC@22?$AA@ DB '22', 00H			; `string'
CONST	ENDS
;	COMDAT ??_C@_02OBAMBAKB@21?$AA@
CONST	SEGMENT
??_C@_02OBAMBAKB@21?$AA@ DB '21', 00H			; `string'
CONST	ENDS
;	COMDAT ??_C@_02PIBHCBOA@20?$AA@
CONST	SEGMENT
??_C@_02PIBHCBOA@20?$AA@ DB '20', 00H			; `string'
CONST	ENDS
;	COMDAT ??_C@_02CLJDCEPA@19?$AA@
CONST	SEGMENT
??_C@_02CLJDCEPA@19?$AA@ DB '19', 00H			; `string'
CONST	ENDS
;	COMDAT ??_C@_02DCIIBFLB@18?$AA@
CONST	SEGMENT
??_C@_02DCIIBFLB@18?$AA@ DB '18', 00H			; `string'
CONST	ENDS
;	COMDAT ??_C@_02LFBAAJHO@17?$AA@
CONST	SEGMENT
??_C@_02LFBAAJHO@17?$AA@ DB '17', 00H			; `string'
CONST	ENDS
;	COMDAT ??_C@_02KMALDIDP@16?$AA@
CONST	SEGMENT
??_C@_02KMALDIDP@16?$AA@ DB '16', 00H			; `string'
CONST	ENDS
;	COMDAT ??_C@_02IHCGGLPM@15?$AA@
CONST	SEGMENT
??_C@_02IHCGGLPM@15?$AA@ DB '15', 00H			; `string'
CONST	ENDS
;	COMDAT ??_C@_02JODNFKLN@14?$AA@
CONST	SEGMENT
??_C@_02JODNFKLN@14?$AA@ DB '14', 00H			; `string'
CONST	ENDS
;	COMDAT ??_C@_02NBHMMMHK@13?$AA@
CONST	SEGMENT
??_C@_02NBHMMMHK@13?$AA@ DB '13', 00H			; `string'
CONST	ENDS
;	COMDAT ??_C@_02MIGHPNDL@12?$AA@
CONST	SEGMENT
??_C@_02MIGHPNDL@12?$AA@ DB '12', 00H			; `string'
CONST	ENDS
;	COMDAT ??_C@_02ODEKKOPI@11?$AA@
CONST	SEGMENT
??_C@_02ODEKKOPI@11?$AA@ DB '11', 00H			; `string'
CONST	ENDS
;	COMDAT ??_C@_02PKFBJPLJ@10?$AA@
CONST	SEGMENT
??_C@_02PKFBJPLJ@10?$AA@ DB '10', 00H			; `string'
CONST	ENDS
;	COMDAT ??_C@_01LAKCGALK@9?$AA@
CONST	SEGMENT
??_C@_01LAKCGALK@9?$AA@ DB '9', 00H			; `string'
CONST	ENDS
;	COMDAT ??_C@_01KJLJFBPL@8?$AA@
CONST	SEGMENT
??_C@_01KJLJFBPL@8?$AA@ DB '8', 00H			; `string'
CONST	ENDS
;	COMDAT ??_C@_01COCBENDE@7?$AA@
CONST	SEGMENT
??_C@_01COCBENDE@7?$AA@ DB '7', 00H			; `string'
CONST	ENDS
;	COMDAT ??_C@_01DHDKHMHF@6?$AA@
CONST	SEGMENT
??_C@_01DHDKHMHF@6?$AA@ DB '6', 00H			; `string'
CONST	ENDS
;	COMDAT ??_C@_01BMBHCPLG@5?$AA@
CONST	SEGMENT
??_C@_01BMBHCPLG@5?$AA@ DB '5', 00H			; `string'
CONST	ENDS
;	COMDAT ??_C@_01FAMBOPH@4?$AA@
CONST	SEGMENT
??_C@_01FAMBOPH@4?$AA@ DB '4', 00H			; `string'
CONST	ENDS
;	COMDAT ??_C@_01EKENIIDA@3?$AA@
CONST	SEGMENT
??_C@_01EKENIIDA@3?$AA@ DB '3', 00H			; `string'
CONST	ENDS
;	COMDAT ??_C@_01FDFGLJHB@2?$AA@
CONST	SEGMENT
??_C@_01FDFGLJHB@2?$AA@ DB '2', 00H			; `string'
CONST	ENDS
;	COMDAT ??_C@_01HIHLOKLC@1?$AA@
CONST	SEGMENT
??_C@_01HIHLOKLC@1?$AA@ DB '1', 00H			; `string'
CONST	ENDS
;	COMDAT ??_C@_01GBGANLPD@0?$AA@
CONST	SEGMENT
??_C@_01GBGANLPD@0?$AA@ DB '0', 00H			; `string'
CONST	ENDS
;	COMDAT ??_C@_03OAIKGDBA@w12?$AA@
CONST	SEGMENT
??_C@_03OAIKGDBA@w12?$AA@ DB 'w12', 00H			; `string'
CONST	ENDS
;	COMDAT ??_C@_03MLKHDAND@w11?$AA@
CONST	SEGMENT
??_C@_03MLKHDAND@w11?$AA@ DB 'w11', 00H			; `string'
CONST	ENDS
;	COMDAT ??_C@_03NCLMABJC@w10?$AA@
CONST	SEGMENT
??_C@_03NCLMABJC@w10?$AA@ DB 'w10', 00H			; `string'
CONST	ENDS
;	COMDAT ??_C@_02FPIENFIC@w9?$AA@
CONST	SEGMENT
??_C@_02FPIENFIC@w9?$AA@ DB 'w9', 00H			; `string'
CONST	ENDS
;	COMDAT ??_C@_02EGJPOEMD@w8?$AA@
CONST	SEGMENT
??_C@_02EGJPOEMD@w8?$AA@ DB 'w8', 00H			; `string'
CONST	ENDS
;	COMDAT ??_C@_02MBAHPIAM@w7?$AA@
CONST	SEGMENT
??_C@_02MBAHPIAM@w7?$AA@ DB 'w7', 00H			; `string'
CONST	ENDS
;	COMDAT ??_C@_02NIBMMJEN@w6?$AA@
CONST	SEGMENT
??_C@_02NIBMMJEN@w6?$AA@ DB 'w6', 00H			; `string'
CONST	ENDS
;	COMDAT ??_C@_02PDDBJKIO@w5?$AA@
CONST	SEGMENT
??_C@_02PDDBJKIO@w5?$AA@ DB 'w5', 00H			; `string'
CONST	ENDS
;	COMDAT ??_C@_02OKCKKLMP@w4?$AA@
CONST	SEGMENT
??_C@_02OKCKKLMP@w4?$AA@ DB 'w4', 00H			; `string'
CONST	ENDS
;	COMDAT ??_C@_02KFGLDNAI@w3?$AA@
CONST	SEGMENT
??_C@_02KFGLDNAI@w3?$AA@ DB 'w3', 00H			; `string'
CONST	ENDS
;	COMDAT ??_C@_02LMHAAMEJ@w2?$AA@
CONST	SEGMENT
??_C@_02LMHAAMEJ@w2?$AA@ DB 'w2', 00H			; `string'
CONST	ENDS
;	COMDAT ??_C@_02JHFNFPIK@w1?$AA@
CONST	SEGMENT
??_C@_02JHFNFPIK@w1?$AA@ DB 'w1', 00H			; `string'
CONST	ENDS
;	COMDAT ??_C@_02LAFHGHBM@k3?$AA@
CONST	SEGMENT
??_C@_02LAFHGHBM@k3?$AA@ DB 'k3', 00H			; `string'
CONST	ENDS
;	COMDAT ??_C@_02KJEMFGFN@k2?$AA@
CONST	SEGMENT
??_C@_02KJEMFGFN@k2?$AA@ DB 'k2', 00H			; `string'
CONST	ENDS
;	COMDAT ??_C@_02ICGBAFJO@k1?$AA@
CONST	SEGMENT
??_C@_02ICGBAFJO@k1?$AA@ DB 'k1', 00H			; `string'
CONST	ENDS
;	COMDAT ??_C@_01LPLHEDKD@d?$AA@
CONST	SEGMENT
??_C@_01LPLHEDKD@d?$AA@ DB 'd', 00H			; `string'
CONST	ENDS
;	COMDAT ??_C@_01JEJKBAGA@g?$AA@
CONST	SEGMENT
??_C@_01JEJKBAGA@g?$AA@ DB 'g', 00H			; `string'
CONST	ENDS
;	COMDAT ??_C@_01OJONOECF@b?$AA@
CONST	SEGMENT
??_C@_01OJONOECF@b?$AA@ DB 'b', 00H			; `string'
CONST	ENDS
;	COMDAT ??_C@_01KDCPPGHE@r?$AA@
CONST	SEGMENT
??_C@_01KDCPPGHE@r?$AA@ DB 'r', 00H			; `string'
CONST	ENDS
;	COMDAT ??_C@_01EFFIKLCJ@n?$AA@
CONST	SEGMENT
??_C@_01EFFIKLCJ@n?$AA@ DB 'n', 00H			; `string'
CONST	ENDS
;	COMDAT ??_C@_01JBBJJEPG@p?$AA@
CONST	SEGMENT
??_C@_01JBBJJEPG@p?$AA@ DB 'p', 00H			; `string'
CONST	ENDS
;	COMDAT ??_C@_0CP@FOKBNGLG@0?5?9?536?5?9?5pojedyncze?5pole?5o?5odpow@
CONST	SEGMENT
??_C@_0CP@FOKBNGLG@0?5?9?536?5?9?5pojedyncze?5pole?5o?5odpow@ DB '0 - 36 '
	DB	'- pojedyncze pole o odpowiednim numerze', 00H ; `string'
CONST	ENDS
;	COMDAT ??_C@_0CJ@KMEGGBFA@w1?0?5w2?0?5?4?4?4?0?5w12?5?9?5wiersz?5trzech@
CONST	SEGMENT
??_C@_0CJ@KMEGGBFA@w1?0?5w2?0?5?4?4?4?0?5w12?5?9?5wiersz?5trzech@ DB 'w1,'
	DB	' w2, ..., w12 - wiersz trzech numer', 0f3H, 'w', 00H ; `string'
CONST	ENDS
;	COMDAT ??_C@_0CN@EJBDEIIK@k1?0?5k2?0?5k3?5?9?5kolumna?51?0?5kolumna?5@
CONST	SEGMENT
??_C@_0CN@EJBDEIIK@k1?0?5k2?0?5k3?5?9?5kolumna?51?0?5kolumna?5@ DB 'k1, k'
	DB	'2, k3 - kolumna 1, kolumna 2, kolumna 3', 00H ; `string'
CONST	ENDS
;	COMDAT ??_C@_0BB@CHNPGJIO@d?5?9?5dolna?5po?$LDowa?$AA@
CONST	SEGMENT
??_C@_0BB@CHNPGJIO@d?5?9?5dolna?5po?$LDowa?$AA@ DB 'd - dolna po', 0b3H, 'o'
	DB	'wa', 00H					; `string'
CONST	ENDS
;	COMDAT ??_C@_0BB@FMNKHOJE@g?5?9?5g?srna?5po?$LDowa?$AA@
CONST	SEGMENT
??_C@_0BB@FMNKHOJE@g?5?9?5g?srna?5po?$LDowa?$AA@ DB 'g - g', 0f3H, 'rna p'
	DB	'o', 0b3H, 'owa', 00H			; `string'
CONST	ENDS
;	COMDAT ??_C@_0BC@LKBFHLDI@b?5?9?5czarne?$CIblack?$CJ?$AA@
CONST	SEGMENT
??_C@_0BC@LKBFHLDI@b?5?9?5czarne?$CIblack?$CJ?$AA@ DB 'b - czarne(black)', 00H ; `string'
CONST	ENDS
;	COMDAT ??_C@_0BC@GOMOHEMO@r?5?9?5czerwone?$CIred?$CJ?$AA@
CONST	SEGMENT
??_C@_0BC@GOMOHEMO@r?5?9?5czerwone?$CIred?$CJ?$AA@ DB 'r - czerwone(red)', 00H ; `string'
CONST	ENDS
;	COMDAT ??_C@_0BA@GNAADEAG@n?5?9?5nieparzyste?$AA@
CONST	SEGMENT
??_C@_0BA@GNAADEAG@n?5?9?5nieparzyste?$AA@ DB 'n - nieparzyste', 00H ; `string'
CONST	ENDS
;	COMDAT ??_C@_0N@KLINIBPG@p?5?9?5parzyste?$AA@
CONST	SEGMENT
??_C@_0N@KLINIBPG@p?5?9?5parzyste?$AA@ DB 'p - parzyste', 00H ; `string'
CONST	ENDS
;	COMDAT ??_C@_0DM@FGCBIOFJ@Jak?$LJ?5opcje?5chcesz?5obstawic?5?$DP?5?$CIzg@
CONST	SEGMENT
??_C@_0DM@FGCBIOFJ@Jak?$LJ?5opcje?5chcesz?5obstawic?5?$DP?5?$CIzg@ DB 'Ja'
	DB	'k', 0b9H, ' opcje chcesz obstawic ? (zgodnie z poni', 0bfH, 's'
	DB	'zym opisem) :', 00H				; `string'
CONST	ENDS
;	COMDAT ??_C@_05PDJBBECF@pause?$AA@
CONST	SEGMENT
??_C@_05PDJBBECF@pause?$AA@ DB 'pause', 00H		; `string'
CONST	ENDS
;	COMDAT ??_C@_0P@GMFAENOC@log_og?slny?4txt?$AA@
CONST	SEGMENT
??_C@_0P@GMFAENOC@log_og?slny?4txt?$AA@ DB 'log_og', 0f3H, 'lny.txt', 00H ; `string'
CONST	ENDS
;	COMDAT ??_C@_06JGCGFIEG@polish?$AA@
CONST	SEGMENT
??_C@_06JGCGFIEG@polish?$AA@ DB 'polish', 00H		; `string'
CONST	ENDS
;	COMDAT ??_C@_00CNPNBAHC@?$AA@
CONST	SEGMENT
??_C@_00CNPNBAHC@?$AA@ DB 00H				; `string'
CONST	ENDS
;	COMDAT ??_C@_08EPJLHIJG@bad?5cast?$AA@
CONST	SEGMENT
??_C@_08EPJLHIJG@bad?5cast?$AA@ DB 'bad cast', 00H	; `string'
CONST	ENDS
;	COMDAT ??_C@_0BC@EOODALEL@Unknown?5exception?$AA@
CONST	SEGMENT
??_C@_0BC@EOODALEL@Unknown?5exception?$AA@ DB 'Unknown exception', 00H ; `string'
CONST	ENDS
PUBLIC	??_E?$basic_fstream@DU?$char_traits@D@std@@@std@@$4PPPPPPPM@A@AEPAXI@Z ; std::basic_fstream<char,std::char_traits<char> >::`vector deleting destructor'
PUBLIC	??_E?$basic_ofstream@DU?$char_traits@D@std@@@std@@$4PPPPPPPM@A@AEPAXI@Z ; std::basic_ofstream<char,std::char_traits<char> >::`vector deleting destructor'
PUBLIC	??_E?$basic_ifstream@DU?$char_traits@D@std@@@std@@$4PPPPPPPM@A@AEPAXI@Z ; std::basic_ifstream<char,std::char_traits<char> >::`vector deleting destructor'
PUBLIC	??_E?$basic_stringstream@DU?$char_traits@D@std@@V?$allocator@D@2@@std@@$4PPPPPPPM@A@AEPAXI@Z ; std::basic_stringstream<char,std::char_traits<char>,std::allocator<char> >::`vector deleting destructor'
PUBLIC	??0_Sentry_base@?$basic_istream@DU?$char_traits@D@std@@@std@@QAE@AAV12@@Z ; std::basic_istream<char,std::char_traits<char> >::_Sentry_base::_Sentry_base
PUBLIC	?_Adjust@?$uniform_int@H@std@@CAIIU?$integral_constant@_N$00@2@@Z ; std::uniform_int<int>::_Adjust
PUBLIC	?_Get_bits@?$_Rng_from_urng@IVrandom_device@std@@@std@@AAEIXZ ; std::_Rng_from_urng<unsigned int,std::random_device>::_Get_bits
PUBLIC	?erase@?$basic_string@DU?$char_traits@D@std@@V?$allocator@D@2@@std@@QAEAAV12@I@Z ; std::basic_string<char,std::char_traits<char>,std::allocator<char> >::erase
PUBLIC	??1_Sentry_base@?$basic_istream@DU?$char_traits@D@std@@@std@@QAE@XZ ; std::basic_istream<char,std::char_traits<char> >::_Sentry_base::~_Sentry_base
PUBLIC	??0sentry@?$basic_istream@DU?$char_traits@D@std@@@std@@QAE@AAV12@_N@Z ; std::basic_istream<char,std::char_traits<char> >::sentry::sentry
PUBLIC	??Bsentry@?$basic_istream@DU?$char_traits@D@std@@@std@@QBE_NXZ ; std::basic_istream<char,std::char_traits<char> >::sentry::operator bool
PUBLIC	?_Adjust@?$uniform_int@H@std@@CAII@Z		; std::uniform_int<int>::_Adjust
PUBLIC	??0?$_Rng_from_urng@IVrandom_device@std@@@std@@QAE@AAVrandom_device@1@@Z ; std::_Rng_from_urng<unsigned int,std::random_device>::_Rng_from_urng<unsigned int,std::random_device>
PUBLIC	??R?$_Rng_from_urng@IVrandom_device@std@@@std@@QAEII@Z ; std::_Rng_from_urng<unsigned int,std::random_device>::operator()
PUBLIC	?_Get_all_bits@?$_Rng_from_urng@IVrandom_device@std@@@std@@QAEIXZ ; std::_Rng_from_urng<unsigned int,std::random_device>::_Get_all_bits
PUBLIC	??1sentry@?$basic_istream@DU?$char_traits@D@std@@@std@@QAE@XZ ; std::basic_istream<char,std::char_traits<char> >::sentry::~sentry
PUBLIC	??$_Traits_equal@U?$char_traits@D@std@@@std@@YA_NQBDI0I@Z ; std::_Traits_equal<std::char_traits<char> >
PUBLIC	??$forward@ABQAD@std@@YAABQADABQAD@Z		; std::forward<char * const &>
PUBLIC	??$_Pocca@V?$allocator@D@std@@@std@@YAXAAV?$allocator@D@0@ABV10@U?$integral_constant@_N$0A@@0@@Z ; std::_Pocca<std::allocator<char> >
PUBLIC	??$_Pocma@V?$allocator@D@std@@@std@@YAXAAV?$allocator@D@0@0U?$integral_constant@_N$00@0@@Z ; std::_Pocma<std::allocator<char> >
PUBLIC	??$?0V?$allocator@D@std@@$$V@?$_Compressed_pair@V?$allocator@D@std@@V?$_String_val@U?$_Simple_types@D@std@@@2@$00@std@@QAE@U_One_then_variadic_args_t@1@$$QAV?$allocator@D@1@@Z ; std::_Compressed_pair<std::allocator<char>,std::_String_val<std::_Simple_types<char> >,1>::_Compressed_pair<std::allocator<char>,std::_String_val<std::_Simple_types<char> >,1><std::allocator<char> >
PUBLIC	??$forward@V?$allocator@D@std@@@std@@YA$$QAV?$allocator@D@0@AAV10@@Z ; std::forward<std::allocator<char> >
PUBLIC	??$_Insert_string@DU?$char_traits@D@std@@I@std@@YAAAV?$basic_ostream@DU?$char_traits@D@std@@@0@AAV10@QBDI@Z ; std::_Insert_string<char,std::char_traits<char>,unsigned int>
PUBLIC	??$getline@DU?$char_traits@D@std@@V?$allocator@D@2@@std@@YAAAV?$basic_istream@DU?$char_traits@D@std@@@0@$$QAV10@AAV?$basic_string@DU?$char_traits@D@std@@V?$allocator@D@2@@0@D@Z ; std::getline<char,std::char_traits<char>,std::allocator<char> >
PUBLIC	??$_Eval@Vrandom_device@std@@@?$uniform_int@H@std@@ABEHAAVrandom_device@1@HH@Z ; std::uniform_int<int>::_Eval<std::random_device>
PUBLIC	??$move@AAV?$basic_istream@DU?$char_traits@D@std@@@std@@@std@@YA$$QAV?$basic_istream@DU?$char_traits@D@std@@@0@AAV10@@Z ; std::move<std::basic_istream<char,std::char_traits<char> > &>
PUBLIC	??$?5DU?$char_traits@D@std@@V?$allocator@D@1@@std@@YAAAV?$basic_istream@DU?$char_traits@D@std@@@0@$$QAV10@AAV?$basic_string@DU?$char_traits@D@std@@V?$allocator@D@2@@0@@Z ; std::operator>><char,std::char_traits<char>,std::allocator<char> >
PUBLIC	?insert@?$basic_string@DU?$char_traits@D@std@@V?$allocator@D@2@@std@@QAEAAV12@IQBDI@Z ; std::basic_string<char,std::char_traits<char>,std::allocator<char> >::insert
PUBLIC	??0_Bxty@?$_String_val@U?$_Simple_types@D@std@@@std@@QAE@XZ ; std::_String_val<std::_Simple_types<char> >::_Bxty::_Bxty
PUBLIC	?insert@?$basic_string@DU?$char_traits@D@std@@V?$allocator@D@2@@std@@QAEAAV12@IABV12@@Z ; std::basic_string<char,std::char_traits<char>,std::allocator<char> >::insert
PUBLIC	?data@?$basic_string@DU?$char_traits@D@std@@V?$allocator@D@2@@std@@QBEPBDXZ ; std::basic_string<char,std::char_traits<char>,std::allocator<char> >::data
PUBLIC	?capacity@?$basic_string@DU?$char_traits@D@std@@V?$allocator@D@2@@std@@QBEIXZ ; std::basic_string<char,std::char_traits<char>,std::allocator<char> >::capacity
PUBLIC	?reserve@?$basic_string@DU?$char_traits@D@std@@V?$allocator@D@2@@std@@QAEXI@Z ; std::basic_string<char,std::char_traits<char>,std::allocator<char> >::reserve
PUBLIC	?_Equal@?$basic_string@DU?$char_traits@D@std@@V?$allocator@D@2@@std@@QBE_NQBD@Z ; std::basic_string<char,std::char_traits<char>,std::allocator<char> >::_Equal
PUBLIC	?_Calculate_growth@?$basic_string@DU?$char_traits@D@std@@V?$allocator@D@2@@std@@QBEII@Z ; std::basic_string<char,std::char_traits<char>,std::allocator<char> >::_Calculate_growth
PUBLIC	?_Xlen@?$basic_string@DU?$char_traits@D@std@@V?$allocator@D@2@@std@@SAXXZ ; std::basic_string<char,std::char_traits<char>,std::allocator<char> >::_Xlen
PUBLIC	??0?$_String_val@U?$_Simple_types@D@std@@@std@@QAE@XZ ; std::_String_val<std::_Simple_types<char> >::_String_val<std::_Simple_types<char> >
PUBLIC	??0bad_cast@std@@QAE@ABV01@@Z			; std::bad_cast::bad_cast
PUBLIC	??$construct@PADABQAD@?$_Default_allocator_traits@V?$allocator@D@std@@@std@@SAXAAV?$allocator@D@1@QAPADABQAD@Z ; std::_Default_allocator_traits<std::allocator<char> >::construct<char *,char * const &>
PUBLIC	??$_Refancy@PAD$0A@@std@@YAPADPAD@Z		; std::_Refancy<char *,0>
PUBLIC	??$addressof@V?$_String_val@U?$_Simple_types@D@std@@@std@@@std@@YAPAV?$_String_val@U?$_Simple_types@D@std@@@0@AAV10@@Z ; std::addressof<std::_String_val<std::_Simple_types<char> > >
PUBLIC	??$destroy@PAD@?$_Default_allocator_traits@V?$allocator@D@std@@@std@@SAXAAV?$allocator@D@1@QAPAD@Z ; std::_Default_allocator_traits<std::allocator<char> >::destroy<char *>
PUBLIC	??$addressof@PAD@std@@YAPAPADAAPAD@Z		; std::addressof<char *>
PUBLIC	??$?0$$V@?$_Compressed_pair@V?$allocator@D@std@@V?$_String_val@U?$_Simple_types@D@std@@@2@$00@std@@QAE@U_Zero_then_variadic_args_t@1@@Z ; std::_Compressed_pair<std::allocator<char>,std::_String_val<std::_Simple_types<char> >,1>::_Compressed_pair<std::allocator<char>,std::_String_val<std::_Simple_types<char> >,1><>
PUBLIC	??$_Pocca@V?$allocator@D@std@@@std@@YAXAAV?$allocator@D@0@ABV10@@Z ; std::_Pocca<std::allocator<char> >
PUBLIC	??$_Pocma@V?$allocator@D@std@@@std@@YAXAAV?$allocator@D@0@0@Z ; std::_Pocma<std::allocator<char> >
PUBLIC	??$addressof@D@std@@YAPADAAD@Z			; std::addressof<char>
PUBLIC	??$use_facet@V?$codecvt@DDU_Mbstatet@@@std@@@std@@YAABV?$codecvt@DDU_Mbstatet@@@0@ABVlocale@0@@Z ; std::use_facet<std::codecvt<char,char,_Mbstatet> >
PUBLIC	??$?0V?$allocator@D@std@@X@?$_String_alloc@U?$_String_base_types@DV?$allocator@D@std@@@std@@@std@@QAE@$$QAV?$allocator@D@1@@Z ; std::_String_alloc<std::_String_base_types<char,std::allocator<char> > >::_String_alloc<std::_String_base_types<char,std::allocator<char> > ><std::allocator<char>,void>
PUBLIC	??$move@AAV?$allocator@D@std@@@std@@YA$$QAV?$allocator@D@0@AAV10@@Z ; std::move<std::allocator<char> &>
PUBLIC	??$move@AAV?$basic_string@DU?$char_traits@D@std@@V?$allocator@D@2@@std@@@std@@YA$$QAV?$basic_string@DU?$char_traits@D@std@@V?$allocator@D@2@@0@AAV10@@Z ; std::move<std::basic_string<char,std::char_traits<char>,std::allocator<char> > &>
PUBLIC	??$addressof@V?$basic_string@DU?$char_traits@D@std@@V?$allocator@D@2@@std@@@std@@YAPAV?$basic_string@DU?$char_traits@D@std@@V?$allocator@D@2@@0@AAV10@@Z ; std::addressof<std::basic_string<char,std::char_traits<char>,std::allocator<char> > >
PUBLIC	??$addressof@$$CBV?$basic_string@DU?$char_traits@D@std@@V?$allocator@D@2@@std@@@std@@YAPBV?$basic_string@DU?$char_traits@D@std@@V?$allocator@D@2@@0@ABV10@@Z ; std::addressof<std::basic_string<char,std::char_traits<char>,std::allocator<char> > const >
PUBLIC	??$_Unfancy@D@std@@YAPADPAD@Z			; std::_Unfancy<char>
PUBLIC	??$_Min_value@I@std@@YAABIABI0@Z		; std::_Min_value<unsigned int>
PUBLIC	??$_Traits_find@U?$char_traits@D@std@@@std@@YAIQBDII0I@Z ; std::_Traits_find<std::char_traits<char> >
PUBLIC	??$size@D$0BN@@std@@YAIAAY0BN@$$CBD@Z		; std::size<char,29>
PUBLIC	??$size@D$0BE@@std@@YAIAAY0BE@$$CBD@Z		; std::size<char,20>
PUBLIC	??$size@D$0O@@std@@YAIAAY0O@$$CBD@Z		; std::size<char,14>
PUBLIC	??$size@D$0BB@@std@@YAIAAY0BB@$$CBD@Z		; std::size<char,17>
PUBLIC	??$size@D$0BH@@std@@YAIAAY0BH@$$CBD@Z		; std::size<char,23>
PUBLIC	??$size@D$0BL@@std@@YAIAAY0BL@$$CBD@Z		; std::size<char,27>
PUBLIC	??$size@D$0BM@@std@@YAIAAY0BM@$$CBD@Z		; std::size<char,28>
PUBLIC	??$size@D$0CG@@std@@YAIAAY0CG@$$CBD@Z		; std::size<char,38>
PUBLIC	??$size@D$0CA@@std@@YAIAAY0CA@$$CBD@Z		; std::size<char,32>
PUBLIC	??$?6DU?$char_traits@D@std@@V?$allocator@D@1@@std@@YAAAV?$basic_ostream@DU?$char_traits@D@std@@@0@AAV10@ABV?$basic_string@DU?$char_traits@D@std@@V?$allocator@D@2@@0@@Z ; std::operator<<<char,std::char_traits<char>,std::allocator<char> >
PUBLIC	??$?HDU?$char_traits@D@std@@V?$allocator@D@1@@std@@YA?AV?$basic_string@DU?$char_traits@D@std@@V?$allocator@D@2@@0@QBDABV10@@Z ; std::operator+<char,std::char_traits<char>,std::allocator<char> >
PUBLIC	??$getline@DU?$char_traits@D@std@@V?$allocator@D@2@@std@@YAAAV?$basic_istream@DU?$char_traits@D@std@@@0@AAV10@AAV?$basic_string@DU?$char_traits@D@std@@V?$allocator@D@2@@0@@Z ; std::getline<char,std::char_traits<char>,std::allocator<char> >
PUBLIC	??$?HDU?$char_traits@D@std@@V?$allocator@D@1@@std@@YA?AV?$basic_string@DU?$char_traits@D@std@@V?$allocator@D@2@@0@$$QAV10@D@Z ; std::operator+<char,std::char_traits<char>,std::allocator<char> >
PUBLIC	??$?HDU?$char_traits@D@std@@V?$allocator@D@1@@std@@YA?AV?$basic_string@DU?$char_traits@D@std@@V?$allocator@D@2@@0@ABV10@QBD@Z ; std::operator+<char,std::char_traits<char>,std::allocator<char> >
PUBLIC	??$?HDU?$char_traits@D@std@@V?$allocator@D@1@@std@@YA?AV?$basic_string@DU?$char_traits@D@std@@V?$allocator@D@2@@0@$$QAV10@QBD@Z ; std::operator+<char,std::char_traits<char>,std::allocator<char> >
PUBLIC	??$?HDU?$char_traits@D@std@@V?$allocator@D@1@@std@@YA?AV?$basic_string@DU?$char_traits@D@std@@V?$allocator@D@2@@0@ABV10@0@Z ; std::operator+<char,std::char_traits<char>,std::allocator<char> >
PUBLIC	??$?HDU?$char_traits@D@std@@V?$allocator@D@1@@std@@YA?AV?$basic_string@DU?$char_traits@D@std@@V?$allocator@D@2@@0@ABV10@$$QAV10@@Z ; std::operator+<char,std::char_traits<char>,std::allocator<char> >
PUBLIC	??$?HDU?$char_traits@D@std@@V?$allocator@D@1@@std@@YA?AV?$basic_string@DU?$char_traits@D@std@@V?$allocator@D@2@@0@$$QAV10@0@Z ; std::operator+<char,std::char_traits<char>,std::allocator<char> >
PUBLIC	??$?RVrandom_device@std@@@?$uniform_int@H@std@@QBEHAAVrandom_device@1@@Z ; std::uniform_int<int>::operator()<std::random_device>
PUBLIC	??$?8DU?$char_traits@D@std@@V?$allocator@D@1@@std@@YA_NABV?$basic_string@DU?$char_traits@D@std@@V?$allocator@D@2@@0@QBD@Z ; std::operator==<char,std::char_traits<char>,std::allocator<char> >
PUBLIC	??$?9DU?$char_traits@D@std@@V?$allocator@D@1@@std@@YA_NABV?$basic_string@DU?$char_traits@D@std@@V?$allocator@D@2@@0@QBD@Z ; std::operator!=<char,std::char_traits<char>,std::allocator<char> >
PUBLIC	??$?5DU?$char_traits@D@std@@V?$allocator@D@1@@std@@YAAAV?$basic_istream@DU?$char_traits@D@std@@@0@AAV10@AAV?$basic_string@DU?$char_traits@D@std@@V?$allocator@D@2@@0@@Z ; std::operator>><char,std::char_traits<char>,std::allocator<char> >
PUBLIC	??$endl@DU?$char_traits@D@std@@@std@@YAAAV?$basic_ostream@DU?$char_traits@D@std@@@0@AAV10@@Z ; std::endl<char,std::char_traits<char> >
PUBLIC	??$?6U?$char_traits@D@std@@@std@@YAAAV?$basic_ostream@DU?$char_traits@D@std@@@0@AAV10@PBD@Z ; std::operator<<<std::char_traits<char> >
PUBLIC	??$use_facet@V?$ctype@D@std@@@std@@YAABV?$ctype@D@0@ABVlocale@0@@Z ; std::use_facet<std::ctype<char> >
PUBLIC	??0?$_String_const_iterator@V?$_String_val@U?$_Simple_types@D@std@@@std@@@std@@QAE@PBDPBU_Container_base0@1@@Z ; std::_String_const_iterator<std::_String_val<std::_Simple_types<char> > >::_String_const_iterator<std::_String_val<std::_Simple_types<char> > >
PUBLIC	?_Init@param_type@?$uniform_int@H@std@@QAEXHH@Z	; std::uniform_int<int>::param_type::_Init
PUBLIC	??0?$allocator@D@std@@QAE@XZ			; std::allocator<char>::allocator<char>
PUBLIC	?_Init@?$basic_stringbuf@DU?$char_traits@D@std@@V?$allocator@D@2@@std@@IAEXPBDIH@Z ; std::basic_stringbuf<char,std::char_traits<char>,std::allocator<char> >::_Init
PUBLIC	?_Getstate@?$basic_stringbuf@DU?$char_traits@D@std@@V?$allocator@D@2@@std@@AAEHH@Z ; std::basic_stringbuf<char,std::char_traits<char>,std::allocator<char> >::_Getstate
PUBLIC	?max_size@?$_Default_allocator_traits@V?$allocator@D@std@@@std@@SAIABV?$allocator@D@2@@Z ; std::_Default_allocator_traits<std::allocator<char> >::max_size
PUBLIC	?_Xran@?$_String_val@U?$_Simple_types@D@std@@@std@@SAXXZ ; std::_String_val<std::_Simple_types<char> >::_Xran
PUBLIC	??0?$_String_iterator@V?$_String_val@U?$_Simple_types@D@std@@@std@@@std@@QAE@PADPBU_Container_base0@1@@Z ; std::_String_iterator<std::_String_val<std::_Simple_types<char> > >::_String_iterator<std::_String_val<std::_Simple_types<char> > >
PUBLIC	??D?$_String_const_iterator@V?$_String_val@U?$_Simple_types@D@std@@@std@@@std@@QBEABDXZ ; std::_String_const_iterator<std::_String_val<std::_Simple_types<char> > >::operator*
PUBLIC	?_Get_first@?$_Compressed_pair@V?$allocator@D@std@@V?$_String_val@U?$_Simple_types@D@std@@@2@$00@std@@QAEAAV?$allocator@D@2@XZ ; std::_Compressed_pair<std::allocator<char>,std::_String_val<std::_Simple_types<char> >,1>::_Get_first
PUBLIC	?_Get_first@?$_Compressed_pair@V?$allocator@D@std@@V?$_String_val@U?$_Simple_types@D@std@@@2@$00@std@@QBEABV?$allocator@D@2@XZ ; std::_Compressed_pair<std::allocator<char>,std::_String_val<std::_Simple_types<char> >,1>::_Get_first
PUBLIC	?_Get_second@?$_Compressed_pair@V?$allocator@D@std@@V?$_String_val@U?$_Simple_types@D@std@@@2@$00@std@@QAEAAV?$_String_val@U?$_Simple_types@D@std@@@2@XZ ; std::_Compressed_pair<std::allocator<char>,std::_String_val<std::_Simple_types<char> >,1>::_Get_second
PUBLIC	?_Get_second@?$_Compressed_pair@V?$allocator@D@std@@V?$_String_val@U?$_Simple_types@D@std@@@2@$00@std@@QBEABV?$_String_val@U?$_Simple_types@D@std@@@2@XZ ; std::_Compressed_pair<std::allocator<char>,std::_String_val<std::_Simple_types<char> >,1>::_Get_second
PUBLIC	??0_Sentry_base@?$basic_ostream@DU?$char_traits@D@std@@@std@@QAE@AAV12@@Z ; std::basic_ostream<char,std::char_traits<char> >::_Sentry_base::_Sentry_base
PUBLIC	??1_Sentry_base@?$basic_ostream@DU?$char_traits@D@std@@@std@@QAE@XZ ; std::basic_ostream<char,std::char_traits<char> >::_Sentry_base::~_Sentry_base
PUBLIC	?seed@?$mersenne_twister@I$0CA@$0CHA@$0BIN@$0BP@$0JJAILANP@$0L@$06$0JNCMFGIA@$0P@$0OPMGAAAA@$0BC@@std@@QAEXII@Z ; std::mersenne_twister<unsigned int,32,624,397,31,2567483615,11,7,2636928640,15,4022730752,18>::seed
PUBLIC	??0param_type@?$uniform_int@H@std@@QAE@HH@Z	; std::uniform_int<int>::param_type::param_type
PUBLIC	??0?$fpos@U_Mbstatet@@@std@@QAE@_J@Z		; std::fpos<_Mbstatet>::fpos<_Mbstatet>
PUBLIC	??0?$fpos@U_Mbstatet@@@std@@QAE@U_Mbstatet@@_J@Z ; std::fpos<_Mbstatet>::fpos<_Mbstatet>
PUBLIC	?state@?$fpos@U_Mbstatet@@@std@@QBE?AU_Mbstatet@@XZ ; std::fpos<_Mbstatet>::state
PUBLIC	?seekpos@?$fpos@U_Mbstatet@@@std@@QBE_JXZ	; std::fpos<_Mbstatet>::seekpos
PUBLIC	??B?$fpos@U_Mbstatet@@@std@@QBE_JXZ		; std::fpos<_Mbstatet>::operator __int64
PUBLIC	?deallocate@?$allocator@D@std@@QAEXQADI@Z	; std::allocator<char>::deallocate
PUBLIC	?allocate@?$allocator@D@std@@QAEPADI@Z		; std::allocator<char>::allocate
PUBLIC	??0?$basic_stringbuf@DU?$char_traits@D@std@@V?$allocator@D@2@@std@@QAE@H@Z ; std::basic_stringbuf<char,std::char_traits<char>,std::allocator<char> >::basic_stringbuf<char,std::char_traits<char>,std::allocator<char> >
PUBLIC	?str@?$basic_stringbuf@DU?$char_traits@D@std@@V?$allocator@D@2@@std@@QBE?AV?$basic_string@DU?$char_traits@D@std@@V?$allocator@D@2@@2@XZ ; std::basic_stringbuf<char,std::char_traits<char>,std::allocator<char> >::str
PUBLIC	?_Tidy@?$basic_stringbuf@DU?$char_traits@D@std@@V?$allocator@D@2@@std@@IAEXXZ ; std::basic_stringbuf<char,std::char_traits<char>,std::allocator<char> >::_Tidy
PUBLIC	??0?$basic_filebuf@DU?$char_traits@D@std@@@std@@QAE@PAU_iobuf@@@Z ; std::basic_filebuf<char,std::char_traits<char> >::basic_filebuf<char,std::char_traits<char> >
PUBLIC	?open@?$basic_filebuf@DU?$char_traits@D@std@@@std@@QAEPAV12@PBDHH@Z ; std::basic_filebuf<char,std::char_traits<char> >::open
PUBLIC	?close@?$basic_filebuf@DU?$char_traits@D@std@@@std@@QAEPAV12@XZ ; std::basic_filebuf<char,std::char_traits<char> >::close
PUBLIC	?_Init@?$basic_filebuf@DU?$char_traits@D@std@@@std@@IAEXPAU_iobuf@@W4_Initfl@12@@Z ; std::basic_filebuf<char,std::char_traits<char> >::_Init
PUBLIC	?_Endwrite@?$basic_filebuf@DU?$char_traits@D@std@@@std@@IAE_NXZ ; std::basic_filebuf<char,std::char_traits<char> >::_Endwrite
PUBLIC	?_Initcvt@?$basic_filebuf@DU?$char_traits@D@std@@@std@@IAEXPBV?$codecvt@DDU_Mbstatet@@@2@@Z ; std::basic_filebuf<char,std::char_traits<char> >::_Initcvt
PUBLIC	?_Reset_back@?$basic_filebuf@DU?$char_traits@D@std@@@std@@AAEXXZ ; std::basic_filebuf<char,std::char_traits<char> >::_Reset_back
PUBLIC	?_Set_back@?$basic_filebuf@DU?$char_traits@D@std@@@std@@AAEXXZ ; std::basic_filebuf<char,std::char_traits<char> >::_Set_back
PUBLIC	?_Assign_rv_contents@?$basic_string@DU?$char_traits@D@std@@V?$allocator@D@2@@std@@QAEX$$QAV12@U?$integral_constant@_N$00@2@@Z ; std::basic_string<char,std::char_traits<char>,std::allocator<char> >::_Assign_rv_contents
PUBLIC	?_Assign_rv_contents_with_alloc_always_equal@?$basic_string@DU?$char_traits@D@std@@V?$allocator@D@2@@std@@QAEX$$QAV12@U?$integral_constant@_N$00@2@@Z ; std::basic_string<char,std::char_traits<char>,std::allocator<char> >::_Assign_rv_contents_with_alloc_always_equal
PUBLIC	?_Construct_lv_contents@?$basic_string@DU?$char_traits@D@std@@V?$allocator@D@2@@std@@QAEXABV12@@Z ; std::basic_string<char,std::char_traits<char>,std::allocator<char> >::_Construct_lv_contents
PUBLIC	??Y?$basic_string@DU?$char_traits@D@std@@V?$allocator@D@2@@std@@QAEAAV01@ABV01@@Z ; std::basic_string<char,std::char_traits<char>,std::allocator<char> >::operator+=
PUBLIC	?append@?$basic_string@DU?$char_traits@D@std@@V?$allocator@D@2@@std@@QAEAAV12@QBDI@Z ; std::basic_string<char,std::char_traits<char>,std::allocator<char> >::append
PUBLIC	?append@?$basic_string@DU?$char_traits@D@std@@V?$allocator@D@2@@std@@QAEAAV12@ID@Z ; std::basic_string<char,std::char_traits<char>,std::allocator<char> >::append
PUBLIC	?assign@?$basic_string@DU?$char_traits@D@std@@V?$allocator@D@2@@std@@QAEAAV12@QBDI@Z ; std::basic_string<char,std::char_traits<char>,std::allocator<char> >::assign
PUBLIC	?assign@?$basic_string@DU?$char_traits@D@std@@V?$allocator@D@2@@std@@QAEAAV12@QBD@Z ; std::basic_string<char,std::char_traits<char>,std::allocator<char> >::assign
PUBLIC	?assign@?$basic_string@DU?$char_traits@D@std@@V?$allocator@D@2@@std@@QAEAAV12@ID@Z ; std::basic_string<char,std::char_traits<char>,std::allocator<char> >::assign
PUBLIC	?begin@?$basic_string@DU?$char_traits@D@std@@V?$allocator@D@2@@std@@QAE?AV?$_String_iterator@V?$_String_val@U?$_Simple_types@D@std@@@std@@@2@XZ ; std::basic_string<char,std::char_traits<char>,std::allocator<char> >::begin
PUBLIC	?push_back@?$basic_string@DU?$char_traits@D@std@@V?$allocator@D@2@@std@@QAEXD@Z ; std::basic_string<char,std::char_traits<char>,std::allocator<char> >::push_back
PUBLIC	??$_Max_value@I@std@@YAABIABI0@Z		; std::_Max_value<unsigned int>
PUBLIC	?max_size@?$basic_string@DU?$char_traits@D@std@@V?$allocator@D@2@@std@@QBEIXZ ; std::basic_string<char,std::char_traits<char>,std::allocator<char> >::max_size
PUBLIC	?_Become_small@?$basic_string@DU?$char_traits@D@std@@V?$allocator@D@2@@std@@QAEXXZ ; std::basic_string<char,std::char_traits<char>,std::allocator<char> >::_Become_small
PUBLIC	?_Eos@?$basic_string@DU?$char_traits@D@std@@V?$allocator@D@2@@std@@QAEXI@Z ; std::basic_string<char,std::char_traits<char>,std::allocator<char> >::_Eos
PUBLIC	?_Tidy_init@?$basic_string@DU?$char_traits@D@std@@V?$allocator@D@2@@std@@QAEXXZ ; std::basic_string<char,std::char_traits<char>,std::allocator<char> >::_Tidy_init
PUBLIC	?_Tidy_deallocate@?$basic_string@DU?$char_traits@D@std@@V?$allocator@D@2@@std@@QAEXXZ ; std::basic_string<char,std::char_traits<char>,std::allocator<char> >::_Tidy_deallocate
PUBLIC	??0?$_String_alloc@U?$_String_base_types@DV?$allocator@D@std@@@std@@@std@@QAE@XZ ; std::_String_alloc<std::_String_base_types<char,std::allocator<char> > >::_String_alloc<std::_String_base_types<char,std::allocator<char> > >
PUBLIC	?_Copy_alloc@?$_String_alloc@U?$_String_base_types@DV?$allocator@D@std@@@std@@@std@@QAEXABV?$allocator@D@2@@Z ; std::_String_alloc<std::_String_base_types<char,std::allocator<char> > >::_Copy_alloc
PUBLIC	?_Move_alloc@?$_String_alloc@U?$_String_base_types@DV?$allocator@D@std@@@std@@@std@@QAEXAAV?$allocator@D@2@@Z ; std::_String_alloc<std::_String_base_types<char,std::allocator<char> > >::_Move_alloc
PUBLIC	?_Orphan_all@?$_String_alloc@U?$_String_base_types@DV?$allocator@D@std@@@std@@@std@@QAEXXZ ; std::_String_alloc<std::_String_base_types<char,std::allocator<char> > >::_Orphan_all
PUBLIC	?_Getal@?$_String_alloc@U?$_String_base_types@DV?$allocator@D@std@@@std@@@std@@QAEAAV?$allocator@D@2@XZ ; std::_String_alloc<std::_String_base_types<char,std::allocator<char> > >::_Getal
PUBLIC	?_Getal@?$_String_alloc@U?$_String_base_types@DV?$allocator@D@std@@@std@@@std@@QBEABV?$allocator@D@2@XZ ; std::_String_alloc<std::_String_base_types<char,std::allocator<char> > >::_Getal
PUBLIC	?_Get_data@?$_String_alloc@U?$_String_base_types@DV?$allocator@D@std@@@std@@@std@@QAEAAV?$_String_val@U?$_Simple_types@D@std@@@2@XZ ; std::_String_alloc<std::_String_base_types<char,std::allocator<char> > >::_Get_data
PUBLIC	?_Get_data@?$_String_alloc@U?$_String_base_types@DV?$allocator@D@std@@@std@@@std@@QBEABV?$_String_val@U?$_Simple_types@D@std@@@2@XZ ; std::_String_alloc<std::_String_base_types<char,std::allocator<char> > >::_Get_data
PUBLIC	?select_on_container_copy_construction@?$_Default_allocator_traits@V?$allocator@D@std@@@std@@SA?AV?$allocator@D@2@ABV32@@Z ; std::_Default_allocator_traits<std::allocator<char> >::select_on_container_copy_construction
PUBLIC	?_Myptr@?$_String_val@U?$_Simple_types@D@std@@@std@@QAEPADXZ ; std::_String_val<std::_Simple_types<char> >::_Myptr
PUBLIC	?_Myptr@?$_String_val@U?$_Simple_types@D@std@@@std@@QBEPBDXZ ; std::_String_val<std::_Simple_types<char> >::_Myptr
PUBLIC	?_Large_string_engaged@?$_String_val@U?$_Simple_types@D@std@@@std@@QBE_NXZ ; std::_String_val<std::_Simple_types<char> >::_Large_string_engaged
PUBLIC	?_Check_offset@?$_String_val@U?$_Simple_types@D@std@@@std@@QBEXI@Z ; std::_String_val<std::_Simple_types<char> >::_Check_offset
PUBLIC	?_Clamp_suffix_size@?$_String_val@U?$_Simple_types@D@std@@@std@@QBEIII@Z ; std::_String_val<std::_Simple_types<char> >::_Clamp_suffix_size
PUBLIC	??1_Bxty@?$_String_val@U?$_Simple_types@D@std@@@std@@QAE@XZ ; std::_String_val<std::_Simple_types<char> >::_Bxty::~_Bxty
PUBLIC	??D?$_String_iterator@V?$_String_val@U?$_Simple_types@D@std@@@std@@@std@@QBEAADXZ ; std::_String_iterator<std::_String_val<std::_Simple_types<char> > >::operator*
PUBLIC	??0sentry@?$basic_ostream@DU?$char_traits@D@std@@@std@@QAE@AAV12@@Z ; std::basic_ostream<char,std::char_traits<char> >::sentry::sentry
PUBLIC	??1sentry@?$basic_ostream@DU?$char_traits@D@std@@@std@@QAE@XZ ; std::basic_ostream<char,std::char_traits<char> >::sentry::~sentry
PUBLIC	??Bsentry@?$basic_ostream@DU?$char_traits@D@std@@@std@@QBE_NXZ ; std::basic_ostream<char,std::char_traits<char> >::sentry::operator bool
PUBLIC	??0?$mersenne_twister@I$0CA@$0CHA@$0BIN@$0BP@$0JJAILANP@$0L@$06$0JNCMFGIA@$0P@$0OPMGAAAA@$0BC@@std@@QAE@III@Z ; std::mersenne_twister<unsigned int,32,624,397,31,2567483615,11,7,2636928640,15,4022730752,18>::mersenne_twister<unsigned int,32,624,397,31,2567483615,11,7,2636928640,15,4022730752,18>
PUBLIC	??0?$uniform_int@H@std@@QAE@HH@Z		; std::uniform_int<int>::uniform_int<int>
PUBLIC	?pointer_to@?$pointer_traits@PAD@std@@SAPADAAD@Z ; std::pointer_traits<char *>::pointer_to
PUBLIC	??1?$_String_val@U?$_Simple_types@D@std@@@std@@QAE@XZ ; std::_String_val<std::_Simple_types<char> >::~_String_val<std::_Simple_types<char> >
PUBLIC	??1?$_Compressed_pair@V?$allocator@D@std@@V?$_String_val@U?$_Simple_types@D@std@@@2@$00@std@@QAE@XZ ; std::_Compressed_pair<std::allocator<char>,std::_String_val<std::_Simple_types<char> >,1>::~_Compressed_pair<std::allocator<char>,std::_String_val<std::_Simple_types<char> >,1>
PUBLIC	??_G?$basic_stringbuf@DU?$char_traits@D@std@@V?$allocator@D@2@@std@@UAEPAXI@Z ; std::basic_stringbuf<char,std::char_traits<char>,std::allocator<char> >::`scalar deleting destructor'
PUBLIC	??_G?$basic_stringstream@DU?$char_traits@D@std@@V?$allocator@D@2@@std@@UAEPAXI@Z ; std::basic_stringstream<char,std::char_traits<char>,std::allocator<char> >::`scalar deleting destructor'
PUBLIC	??_G?$basic_filebuf@DU?$char_traits@D@std@@@std@@UAEPAXI@Z ; std::basic_filebuf<char,std::char_traits<char> >::`scalar deleting destructor'
PUBLIC	??_G?$basic_ifstream@DU?$char_traits@D@std@@@std@@UAEPAXI@Z ; std::basic_ifstream<char,std::char_traits<char> >::`scalar deleting destructor'
PUBLIC	??_G?$basic_ofstream@DU?$char_traits@D@std@@@std@@UAEPAXI@Z ; std::basic_ofstream<char,std::char_traits<char> >::`scalar deleting destructor'
PUBLIC	??_G?$basic_fstream@DU?$char_traits@D@std@@@std@@UAEPAXI@Z ; std::basic_fstream<char,std::char_traits<char> >::`scalar deleting destructor'
PUBLIC	??1?$_String_alloc@U?$_String_base_types@DV?$allocator@D@std@@@std@@@std@@QAE@XZ ; std::_String_alloc<std::_String_base_types<char,std::allocator<char> > >::~_String_alloc<std::_String_base_types<char,std::allocator<char> > >
PUBLIC	??1?$basic_stringbuf@DU?$char_traits@D@std@@V?$allocator@D@2@@std@@UAE@XZ ; std::basic_stringbuf<char,std::char_traits<char>,std::allocator<char> >::~basic_stringbuf<char,std::char_traits<char>,std::allocator<char> >
PUBLIC	?overflow@?$basic_stringbuf@DU?$char_traits@D@std@@V?$allocator@D@2@@std@@MAEHH@Z ; std::basic_stringbuf<char,std::char_traits<char>,std::allocator<char> >::overflow
PUBLIC	?pbackfail@?$basic_stringbuf@DU?$char_traits@D@std@@V?$allocator@D@2@@std@@MAEHH@Z ; std::basic_stringbuf<char,std::char_traits<char>,std::allocator<char> >::pbackfail
PUBLIC	?underflow@?$basic_stringbuf@DU?$char_traits@D@std@@V?$allocator@D@2@@std@@MAEHXZ ; std::basic_stringbuf<char,std::char_traits<char>,std::allocator<char> >::underflow
PUBLIC	?seekoff@?$basic_stringbuf@DU?$char_traits@D@std@@V?$allocator@D@2@@std@@MAE?AV?$fpos@U_Mbstatet@@@2@_JHH@Z ; std::basic_stringbuf<char,std::char_traits<char>,std::allocator<char> >::seekoff
PUBLIC	?seekpos@?$basic_stringbuf@DU?$char_traits@D@std@@V?$allocator@D@2@@std@@MAE?AV?$fpos@U_Mbstatet@@@2@V32@H@Z ; std::basic_stringbuf<char,std::char_traits<char>,std::allocator<char> >::seekpos
PUBLIC	??0?$basic_stringstream@DU?$char_traits@D@std@@V?$allocator@D@2@@std@@QAE@H@Z ; std::basic_stringstream<char,std::char_traits<char>,std::allocator<char> >::basic_stringstream<char,std::char_traits<char>,std::allocator<char> >
PUBLIC	??1?$basic_stringstream@DU?$char_traits@D@std@@V?$allocator@D@2@@std@@UAE@XZ ; std::basic_stringstream<char,std::char_traits<char>,std::allocator<char> >::~basic_stringstream<char,std::char_traits<char>,std::allocator<char> >
PUBLIC	?str@?$basic_stringstream@DU?$char_traits@D@std@@V?$allocator@D@2@@std@@QBE?AV?$basic_string@DU?$char_traits@D@std@@V?$allocator@D@2@@2@XZ ; std::basic_stringstream<char,std::char_traits<char>,std::allocator<char> >::str
PUBLIC	??1?$basic_filebuf@DU?$char_traits@D@std@@@std@@UAE@XZ ; std::basic_filebuf<char,std::char_traits<char> >::~basic_filebuf<char,std::char_traits<char> >
PUBLIC	?_Lock@?$basic_filebuf@DU?$char_traits@D@std@@@std@@UAEXXZ ; std::basic_filebuf<char,std::char_traits<char> >::_Lock
PUBLIC	?_Unlock@?$basic_filebuf@DU?$char_traits@D@std@@@std@@UAEXXZ ; std::basic_filebuf<char,std::char_traits<char> >::_Unlock
PUBLIC	?overflow@?$basic_filebuf@DU?$char_traits@D@std@@@std@@MAEHH@Z ; std::basic_filebuf<char,std::char_traits<char> >::overflow
PUBLIC	?pbackfail@?$basic_filebuf@DU?$char_traits@D@std@@@std@@MAEHH@Z ; std::basic_filebuf<char,std::char_traits<char> >::pbackfail
PUBLIC	?underflow@?$basic_filebuf@DU?$char_traits@D@std@@@std@@MAEHXZ ; std::basic_filebuf<char,std::char_traits<char> >::underflow
PUBLIC	?uflow@?$basic_filebuf@DU?$char_traits@D@std@@@std@@MAEHXZ ; std::basic_filebuf<char,std::char_traits<char> >::uflow
PUBLIC	?seekoff@?$basic_filebuf@DU?$char_traits@D@std@@@std@@MAE?AV?$fpos@U_Mbstatet@@@2@_JHH@Z ; std::basic_filebuf<char,std::char_traits<char> >::seekoff
PUBLIC	?seekpos@?$basic_filebuf@DU?$char_traits@D@std@@@std@@MAE?AV?$fpos@U_Mbstatet@@@2@V32@H@Z ; std::basic_filebuf<char,std::char_traits<char> >::seekpos
PUBLIC	?setbuf@?$basic_filebuf@DU?$char_traits@D@std@@@std@@MAEPAV?$basic_streambuf@DU?$char_traits@D@std@@@2@PAD_J@Z ; std::basic_filebuf<char,std::char_traits<char> >::setbuf
PUBLIC	?sync@?$basic_filebuf@DU?$char_traits@D@std@@@std@@MAEHXZ ; std::basic_filebuf<char,std::char_traits<char> >::sync
PUBLIC	?imbue@?$basic_filebuf@DU?$char_traits@D@std@@@std@@MAEXABVlocale@2@@Z ; std::basic_filebuf<char,std::char_traits<char> >::imbue
PUBLIC	??0?$basic_ifstream@DU?$char_traits@D@std@@@std@@QAE@XZ ; std::basic_ifstream<char,std::char_traits<char> >::basic_ifstream<char,std::char_traits<char> >
PUBLIC	??1?$basic_ifstream@DU?$char_traits@D@std@@@std@@UAE@XZ ; std::basic_ifstream<char,std::char_traits<char> >::~basic_ifstream<char,std::char_traits<char> >
PUBLIC	?open@?$basic_ifstream@DU?$char_traits@D@std@@@std@@QAEXPBDHH@Z ; std::basic_ifstream<char,std::char_traits<char> >::open
PUBLIC	??0?$basic_ofstream@DU?$char_traits@D@std@@@std@@QAE@XZ ; std::basic_ofstream<char,std::char_traits<char> >::basic_ofstream<char,std::char_traits<char> >
PUBLIC	??1?$basic_ofstream@DU?$char_traits@D@std@@@std@@UAE@XZ ; std::basic_ofstream<char,std::char_traits<char> >::~basic_ofstream<char,std::char_traits<char> >
PUBLIC	?open@?$basic_ofstream@DU?$char_traits@D@std@@@std@@QAEXPBDHH@Z ; std::basic_ofstream<char,std::char_traits<char> >::open
PUBLIC	??0?$basic_fstream@DU?$char_traits@D@std@@@std@@QAE@XZ ; std::basic_fstream<char,std::char_traits<char> >::basic_fstream<char,std::char_traits<char> >
PUBLIC	??1?$basic_fstream@DU?$char_traits@D@std@@@std@@UAE@XZ ; std::basic_fstream<char,std::char_traits<char> >::~basic_fstream<char,std::char_traits<char> >
PUBLIC	?open@?$basic_fstream@DU?$char_traits@D@std@@@std@@QAEXPBDHH@Z ; std::basic_fstream<char,std::char_traits<char> >::open
PUBLIC	?close@?$basic_fstream@DU?$char_traits@D@std@@@std@@QAEXXZ ; std::basic_fstream<char,std::char_traits<char> >::close
PUBLIC	??0?$basic_string@DU?$char_traits@D@std@@V?$allocator@D@2@@std@@QAE@ABV01@@Z ; std::basic_string<char,std::char_traits<char>,std::allocator<char> >::basic_string<char,std::char_traits<char>,std::allocator<char> >
PUBLIC	??0?$basic_string@DU?$char_traits@D@std@@V?$allocator@D@2@@std@@QAE@XZ ; std::basic_string<char,std::char_traits<char>,std::allocator<char> >::basic_string<char,std::char_traits<char>,std::allocator<char> >
PUBLIC	??0?$basic_string@DU?$char_traits@D@std@@V?$allocator@D@2@@std@@QAE@QBDI@Z ; std::basic_string<char,std::char_traits<char>,std::allocator<char> >::basic_string<char,std::char_traits<char>,std::allocator<char> >
PUBLIC	??0?$basic_string@DU?$char_traits@D@std@@V?$allocator@D@2@@std@@QAE@QBD@Z ; std::basic_string<char,std::char_traits<char>,std::allocator<char> >::basic_string<char,std::char_traits<char>,std::allocator<char> >
PUBLIC	??0?$basic_string@DU?$char_traits@D@std@@V?$allocator@D@2@@std@@QAE@ID@Z ; std::basic_string<char,std::char_traits<char>,std::allocator<char> >::basic_string<char,std::char_traits<char>,std::allocator<char> >
PUBLIC	??0?$basic_string@DU?$char_traits@D@std@@V?$allocator@D@2@@std@@QAE@$$QAV01@@Z ; std::basic_string<char,std::char_traits<char>,std::allocator<char> >::basic_string<char,std::char_traits<char>,std::allocator<char> >
PUBLIC	??4?$basic_string@DU?$char_traits@D@std@@V?$allocator@D@2@@std@@QAEAAV01@$$QAV01@@Z ; std::basic_string<char,std::char_traits<char>,std::allocator<char> >::operator=
PUBLIC	??1?$basic_string@DU?$char_traits@D@std@@V?$allocator@D@2@@std@@QAE@XZ ; std::basic_string<char,std::char_traits<char>,std::allocator<char> >::~basic_string<char,std::char_traits<char>,std::allocator<char> >
PUBLIC	??4?$basic_string@DU?$char_traits@D@std@@V?$allocator@D@2@@std@@QAEAAV01@ABV01@@Z ; std::basic_string<char,std::char_traits<char>,std::allocator<char> >::operator=
PUBLIC	??4?$basic_string@DU?$char_traits@D@std@@V?$allocator@D@2@@std@@QAEAAV01@QBD@Z ; std::basic_string<char,std::char_traits<char>,std::allocator<char> >::operator=
PUBLIC	??Y?$basic_string@DU?$char_traits@D@std@@V?$allocator@D@2@@std@@QAEAAV01@QBD@Z ; std::basic_string<char,std::char_traits<char>,std::allocator<char> >::operator+=
PUBLIC	??Y?$basic_string@DU?$char_traits@D@std@@V?$allocator@D@2@@std@@QAEAAV01@D@Z ; std::basic_string<char,std::char_traits<char>,std::allocator<char> >::operator+=
PUBLIC	?append@?$basic_string@DU?$char_traits@D@std@@V?$allocator@D@2@@std@@QAEAAV12@ABV12@@Z ; std::basic_string<char,std::char_traits<char>,std::allocator<char> >::append
PUBLIC	?append@?$basic_string@DU?$char_traits@D@std@@V?$allocator@D@2@@std@@QAEAAV12@QBD@Z ; std::basic_string<char,std::char_traits<char>,std::allocator<char> >::append
PUBLIC	?erase@?$basic_string@DU?$char_traits@D@std@@V?$allocator@D@2@@std@@QAEAAV12@II@Z ; std::basic_string<char,std::char_traits<char>,std::allocator<char> >::erase
PUBLIC	?_Unchecked_begin@?$basic_string@DU?$char_traits@D@std@@V?$allocator@D@2@@std@@QAEPADXZ ; std::basic_string<char,std::char_traits<char>,std::allocator<char> >::_Unchecked_begin
PUBLIC	?_Unchecked_end@?$basic_string@DU?$char_traits@D@std@@V?$allocator@D@2@@std@@QAEPADXZ ; std::basic_string<char,std::char_traits<char>,std::allocator<char> >::_Unchecked_end
PUBLIC	??A?$basic_string@DU?$char_traits@D@std@@V?$allocator@D@2@@std@@QAEAADI@Z ; std::basic_string<char,std::char_traits<char>,std::allocator<char> >::operator[]
PUBLIC	??A?$basic_string@DU?$char_traits@D@std@@V?$allocator@D@2@@std@@QBEABDI@Z ; std::basic_string<char,std::char_traits<char>,std::allocator<char> >::operator[]
PUBLIC	?c_str@?$basic_string@DU?$char_traits@D@std@@V?$allocator@D@2@@std@@QBEPBDXZ ; std::basic_string<char,std::char_traits<char>,std::allocator<char> >::c_str
PUBLIC	?size@?$basic_string@DU?$char_traits@D@std@@V?$allocator@D@2@@std@@QBEIXZ ; std::basic_string<char,std::char_traits<char>,std::allocator<char> >::size
PUBLIC	?find@?$basic_string@DU?$char_traits@D@std@@V?$allocator@D@2@@std@@QBEIQBDI@Z ; std::basic_string<char,std::char_traits<char>,std::allocator<char> >::find
PUBLIC	??0?$mersenne_twister_engine@I$0CA@$0CHA@$0BIN@$0BP@$0JJAILANP@$0L@$0PPPPPPPP@$06$0JNCMFGIA@$0P@$0OPMGAAAA@$0BC@$0GMAHIJGF@@std@@QAE@I@Z ; std::mersenne_twister_engine<unsigned int,32,624,397,31,2567483615,11,4294967295,7,2636928640,15,4022730752,18,1812433253>::mersenne_twister_engine<unsigned int,32,624,397,31,2567483615,11,4294967295,7,2636928640,15,4022730752,18,1812433253>
PUBLIC	??0?$uniform_int_distribution@H@std@@QAE@HH@Z	; std::uniform_int_distribution<int>::uniform_int_distribution<int>
PUBLIC	?Ustaw_ustawienia@@YAXAAV?$basic_string@DU?$char_traits@D@std@@V?$allocator@D@2@@std@@@Z ; Ustaw_ustawienia
PUBLIC	?Pêtla_g³ówna@@YAXAAH00AAV?$basic_ofstream@DU?$char_traits@D@std@@@std@@AAV?$basic_fstream@DU?$char_traits@D@std@@@2@AADAAV?$basic_string@DU?$char_traits@D@std@@V?$allocator@D@2@@2@0@Z ; Pêtla_g³ówna
PUBLIC	?Koniec_gry@@YAXAAV?$basic_ofstream@DU?$char_traits@D@std@@@std@@AAV?$basic_fstream@DU?$char_traits@D@std@@@2@AAH@Z ; Koniec_gry
PUBLIC	?Og³oœ_wynik@@YAXABH0AAHAAV?$basic_ofstream@DU?$char_traits@D@std@@@std@@AAV?$basic_fstream@DU?$char_traits@D@std@@@2@@Z ; Og³oœ_wynik
PUBLIC	?__autoclassinit2@?$basic_ifstream@DU?$char_traits@D@std@@@std@@QAEXI@Z ; std::basic_ifstream<char,std::char_traits<char> >::__autoclassinit2
PUBLIC	??_D?$basic_ifstream@DU?$char_traits@D@std@@@std@@QAEXXZ ; std::basic_ifstream<char,std::char_traits<char> >::`vbase destructor'
PUBLIC	?SprawdŸ_ustawienia@@YAXXZ			; SprawdŸ_ustawienia
PUBLIC	?SprawdŸ_Pliki@@YAXXZ				; SprawdŸ_Pliki
PUBLIC	?Wczytaj_z_pliku@@YAXAAV?$basic_ofstream@DU?$char_traits@D@std@@@std@@AAV?$basic_fstream@DU?$char_traits@D@std@@@2@AADAAH33AAV?$basic_string@DU?$char_traits@D@std@@V?$allocator@D@2@@2@@Z ; Wczytaj_z_pliku
PUBLIC	?__autoclassinit2@?$basic_stringstream@DU?$char_traits@D@std@@V?$allocator@D@2@@std@@QAEXI@Z ; std::basic_stringstream<char,std::char_traits<char>,std::allocator<char> >::__autoclassinit2
PUBLIC	??_D?$basic_stringstream@DU?$char_traits@D@std@@V?$allocator@D@2@@std@@QAEXXZ ; std::basic_stringstream<char,std::char_traits<char>,std::allocator<char> >::`vbase destructor'
PUBLIC	?Odczytaj_liczbê@@YAXABHABV?$basic_string@DU?$char_traits@D@std@@V?$allocator@D@2@@std@@@Z ; Odczytaj_liczbê
PUBLIC	?Wylosuj@@YAHABH0@Z				; Wylosuj
PUBLIC	?Show_Cursor@@YAXXZ				; Show_Cursor
PUBLIC	?Hide_Cursor@@YAXXZ				; Hide_Cursor
PUBLIC	?Change_Col@@YAXABH@Z				; Change_Col
PUBLIC	?Czy_Kontynuowaæ@@YA_NABH@Z			; Czy_Kontynuowaæ
PUBLIC	?SprawdŸ_Zak³ad@@YAHABHV?$basic_string@DU?$char_traits@D@std@@V?$allocator@D@2@@std@@0@Z ; SprawdŸ_Zak³ad
PUBLIC	?Zakrêæ_Ruletk¹@@YAHXZ				; Zakrêæ_Ruletk¹
PUBLIC	?Wczytaj_Kwotê_Zak³adu@@YAXAAHABH@Z		; Wczytaj_Kwotê_Zak³adu
PUBLIC	?Obstaw@@YA?AV?$basic_string@DU?$char_traits@D@std@@V?$allocator@D@2@@std@@XZ ; Obstaw
PUBLIC	?__autoclassinit2@?$basic_fstream@DU?$char_traits@D@std@@@std@@QAEXI@Z ; std::basic_fstream<char,std::char_traits<char> >::__autoclassinit2
PUBLIC	??_D?$basic_fstream@DU?$char_traits@D@std@@@std@@QAEXXZ ; std::basic_fstream<char,std::char_traits<char> >::`vbase destructor'
PUBLIC	?__autoclassinit2@?$basic_ofstream@DU?$char_traits@D@std@@@std@@QAEXI@Z ; std::basic_ofstream<char,std::char_traits<char> >::__autoclassinit2
PUBLIC	??_D?$basic_ofstream@DU?$char_traits@D@std@@@std@@QAEXXZ ; std::basic_ofstream<char,std::char_traits<char> >::`vbase destructor'
PUBLIC	_main
PUBLIC	??Rrandom_device@std@@QAEIXZ			; std::random_device::operator()
PUBLIC	?entropy@random_device@std@@QAENXZ		; std::random_device::entropy
PUBLIC	?max@random_device@std@@SAIXZ			; std::random_device::max
PUBLIC	?min@random_device@std@@SAIXZ			; std::random_device::min
PUBLIC	??0random_device@std@@QAE@ABV?$basic_string@DU?$char_traits@D@std@@V?$allocator@D@2@@1@@Z ; std::random_device::random_device
PUBLIC	??$_Ungetc@D@std@@YA_NABDPAU_iobuf@@@Z		; std::_Ungetc<char>
PUBLIC	??$_Fputc@D@std@@YA_NDPAU_iobuf@@@Z		; std::_Fputc<char>
PUBLIC	??$_Fgetc@D@std@@YA_NAADPAU_iobuf@@@Z		; std::_Fgetc<char>
PUBLIC	?_Getfacet@locale@std@@QBEPBVfacet@12@I@Z	; std::locale::_Getfacet
PUBLIC	??1locale@std@@QAE@XZ				; std::locale::~locale
PUBLIC	??1bad_cast@std@@UAE@XZ				; std::bad_cast::~bad_cast
PUBLIC	??_Gbad_cast@std@@UAEPAXI@Z			; std::bad_cast::`scalar deleting destructor'
PUBLIC	??0bad_cast@std@@QAE@XZ				; std::bad_cast::bad_cast
PUBLIC	??$_Convert_size@I@std@@YAII@Z			; std::_Convert_size<unsigned int>
PUBLIC	?_Deallocate@std@@YAXPAXII@Z			; std::_Deallocate
PUBLIC	?_Allocate@std@@YAPAXII_N@Z			; std::_Allocate
PUBLIC	?_Adopt@_Iterator_base0@std@@QAEXPBX@Z		; std::_Iterator_base0::_Adopt
PUBLIC	?_Orphan_all@_Container_base0@std@@QAEXXZ	; std::_Container_base0::_Orphan_all
PUBLIC	?eof@?$char_traits@D@std@@SAHXZ			; std::char_traits<char>::eof
PUBLIC	?not_eof@?$char_traits@D@std@@SAHABH@Z		; std::char_traits<char>::not_eof
PUBLIC	?eq_int_type@?$char_traits@D@std@@SA_NABH0@Z	; std::char_traits<char>::eq_int_type
PUBLIC	?to_int_type@?$char_traits@D@std@@SAHABD@Z	; std::char_traits<char>::to_int_type
PUBLIC	?to_char_type@?$char_traits@D@std@@SADABH@Z	; std::char_traits<char>::to_char_type
PUBLIC	?eq@?$char_traits@D@std@@SA_NABD0@Z		; std::char_traits<char>::eq
PUBLIC	?assign@?$char_traits@D@std@@SAXAADABD@Z	; std::char_traits<char>::assign
PUBLIC	?assign@?$char_traits@D@std@@SAPADQADID@Z	; std::char_traits<char>::assign
PUBLIC	?move@?$char_traits@D@std@@SAPADQADQBDI@Z	; std::char_traits<char>::move
PUBLIC	?find@?$char_traits@D@std@@SAPBDQBDIABD@Z	; std::char_traits<char>::find
PUBLIC	?copy@?$char_traits@D@std@@SAPADQADQBDI@Z	; std::char_traits<char>::copy
PUBLIC	?length@?$char_traits@D@std@@SAIQBD@Z		; std::char_traits<char>::length
PUBLIC	?compare@?$char_traits@D@std@@SAHQBD0I@Z	; std::char_traits<char>::compare
PUBLIC	??2@YAPAXIPAX@Z					; operator new
PUBLIC	?max@?$numeric_limits@H@std@@SAHXZ		; std::numeric_limits<int>::max
PUBLIC	??_Gexception@std@@UAEPAXI@Z			; std::exception::`scalar deleting destructor'
PUBLIC	?what@exception@std@@UBEPBDXZ			; std::exception::what
PUBLIC	??1exception@std@@UAE@XZ			; std::exception::~exception
PUBLIC	??0exception@std@@QAE@ABV01@@Z			; std::exception::exception
PUBLIC	??0exception@std@@QAE@QBDH@Z			; std::exception::exception
PUBLIC	?_Stinit@?1??_Init@?$basic_filebuf@DU?$char_traits@D@std@@@std@@IAEXPAU_iobuf@@W4_Initfl@23@@Z@4U_Mbstatet@@A ; `std::basic_filebuf<char,std::char_traits<char> >::_Init'::`2'::_Stinit
PUBLIC	?G³os@@3V?$basic_string@DU?$char_traits@D@std@@V?$allocator@D@2@@std@@A ; G³os
PUBLIC	__real@4040000000000000
PUBLIC	__real@4042800000000000
EXTRN	??_E?$basic_stringstream@DU?$char_traits@D@std@@V?$allocator@D@2@@std@@UAEPAXI@Z:PROC ; std::basic_stringstream<char,std::char_traits<char>,std::allocator<char> >::`vector deleting destructor'
EXTRN	??_Ebad_cast@std@@UAEPAXI@Z:PROC		; std::bad_cast::`vector deleting destructor'
EXTRN	??_E?$basic_ifstream@DU?$char_traits@D@std@@@std@@UAEPAXI@Z:PROC ; std::basic_ifstream<char,std::char_traits<char> >::`vector deleting destructor'
EXTRN	??_E?$basic_filebuf@DU?$char_traits@D@std@@@std@@UAEPAXI@Z:PROC ; std::basic_filebuf<char,std::char_traits<char> >::`vector deleting destructor'
EXTRN	??_E?$basic_stringbuf@DU?$char_traits@D@std@@V?$allocator@D@2@@std@@UAEPAXI@Z:PROC ; std::basic_stringbuf<char,std::char_traits<char>,std::allocator<char> >::`vector deleting destructor'
EXTRN	??_Eexception@std@@UAEPAXI@Z:PROC		; std::exception::`vector deleting destructor'
EXTRN	??_E?$basic_ofstream@DU?$char_traits@D@std@@@std@@UAEPAXI@Z:PROC ; std::basic_ofstream<char,std::char_traits<char> >::`vector deleting destructor'
EXTRN	??_E?$basic_fstream@DU?$char_traits@D@std@@@std@@UAEPAXI@Z:PROC ; std::basic_fstream<char,std::char_traits<char> >::`vector deleting destructor'
EXTRN	__CxxThrowException@8:PROC
EXTRN	___CxxFrameHandler3:PROC
EXTRN	___std_terminate:PROC
EXTRN	__dtoui3:PROC
EXTRN	_memcpy:PROC
EXTRN	_memset:PROC
EXTRN	___security_cookie:DWORD
EXTRN	__fltused:DWORD
;	COMDAT ?_Stinit@?1??_Init@?$basic_filebuf@DU?$char_traits@D@std@@@std@@IAEXPAU_iobuf@@W4_Initfl@23@@Z@4U_Mbstatet@@A
_BSS	SEGMENT
?_Stinit@?1??_Init@?$basic_filebuf@DU?$char_traits@D@std@@@std@@IAEXPAU_iobuf@@W4_Initfl@23@@Z@4U_Mbstatet@@A DQ 01H DUP (?) ; `std::basic_filebuf<char,std::char_traits<char> >::_Init'::`2'::_Stinit
_BSS	ENDS
CRT$XCU	SEGMENT
?G³os$initializer$@@3P6AXXZA DD FLAT:??__EG³os@@YAXXZ	; G³os$initializer$
CRT$XCU	ENDS
;	COMDAT __real@4042800000000000
CONST	SEGMENT
__real@4042800000000000 DQ 04042800000000000r	; 37
CONST	ENDS
;	COMDAT __real@4040000000000000
CONST	SEGMENT
__real@4040000000000000 DQ 04040000000000000r	; 32
	ORG $+2
?G³os@@3V?$basic_string@DU?$char_traits@D@std@@V?$allocator@D@2@@std@@A DB 00H ; G³os
	DB	19 DUP(00H)
	DD	0fH
_DATA	ENDS
;	COMDAT xdata$x
xdata$x	SEGMENT
__ehfuncinfo$??1locale@std@@QAE@XZ DQ 00000000019930522r ; 2.11987e-315
	DQ	00000000000000000r		; 0
	DQ	00000000000000000r		; 0
	DQ	00000000000000000r		; 0
	DD	05H
xdata$x	ENDS
;	COMDAT xdata$x
xdata$x	SEGMENT
__ehfuncinfo$_main DD 019930522H
	DD	06H
	DD	FLAT:__unwindtable$_main
	DD	2 DUP(00H)
	DD	2 DUP(00H)
	DD	00H
	DD	01H
__unwindtable$_main DD 0ffffffffH
	DD	FLAT:__unwindfunclet$_main$0
	DD	00H
	DD	FLAT:__unwindfunclet$_main$5
	DD	01H
	DD	FLAT:__unwindfunclet$_main$6
	DD	02H
	DD	FLAT:__unwindfunclet$_main$8
	DD	00H
	DD	FLAT:__unwindfunclet$_main$1
	DD	04H
	DD	FLAT:__unwindfunclet$_main$2
xdata$x	ENDS
;	COMDAT xdata$x
xdata$x	SEGMENT
__ehfuncinfo$?Obstaw@@YA?AV?$basic_string@DU?$char_traits@D@std@@V?$allocator@D@2@@std@@XZ DQ 00000000119930522r ; 2.33398e-314
	DD	FLAT:__unwindtable$?Obstaw@@YA?AV?$basic_string@DU?$char_traits@D@std@@V?$allocator@D@2@@std@@XZ
	DQ	00000000000000000r		; 0
	DQ	00000000000000000r		; 0
	DQ	00000000100000000r		; 2.122e-314
__unwindtable$?Obstaw@@YA?AV?$basic_string@DU?$char_traits@D@std@@V?$allocator@D@2@@std@@XZ DD 0ffffffffH
	DD	FLAT:__unwindfunclet$?Obstaw@@YA?AV?$basic_string@DU?$char_traits@D@std@@V?$allocator@D@2@@std@@XZ$0
xdata$x	ENDS
;	COMDAT xdata$x
xdata$x	SEGMENT
__ehfuncinfo$?Wczytaj_Kwotê_Zak³adu@@YAXAAHABH@Z DQ 00000000119930522r ; 2.33398e-314
	DD	FLAT:__unwindtable$?Wczytaj_Kwotê_Zak³adu@@YAXAAHABH@Z
	DQ	00000000000000000r		; 0
	DQ	00000000000000000r		; 0
	DQ	00000000100000000r		; 2.122e-314
__unwindtable$?Wczytaj_Kwotê_Zak³adu@@YAXAAHABH@Z DD 0ffffffffH
	DD	FLAT:__unwindfunclet$?Wczytaj_Kwotê_Zak³adu@@YAXAAHABH@Z$0
xdata$x	ENDS
;	COMDAT xdata$x
xdata$x	SEGMENT
__ehfuncinfo$?Zakrêæ_Ruletk¹@@YAHXZ DQ 00000000119930522r ; 2.33398e-314
	DD	FLAT:__unwindtable$?Zakrêæ_Ruletk¹@@YAHXZ
	DQ	00000000000000000r		; 0
	DQ	00000000000000000r		; 0
	DQ	00000000100000000r		; 2.122e-314
__unwindtable$?Zakrêæ_Ruletk¹@@YAHXZ DD 0ffffffffH
	DD	FLAT:__unwindfunclet$?Zakrêæ_Ruletk¹@@YAHXZ$0
xdata$x	ENDS
;	COMDAT xdata$x
xdata$x	SEGMENT
__ehfuncinfo$?SprawdŸ_Zak³ad@@YAHABHV?$basic_string@DU?$char_traits@D@std@@V?$allocator@D@2@@std@@0@Z DQ 00000000119930522r ; 2.33398e-314
	DD	FLAT:__unwindtable$?SprawdŸ_Zak³ad@@YAHABHV?$basic_string@DU?$char_traits@D@std@@V?$allocator@D@2@@std@@0@Z
	DQ	00000000000000000r		; 0
	DQ	00000000000000000r		; 0
	DQ	00000000100000000r		; 2.122e-314
__unwindtable$?SprawdŸ_Zak³ad@@YAHABHV?$basic_string@DU?$char_traits@D@std@@V?$allocator@D@2@@std@@0@Z DD 0ffffffffH
	DD	FLAT:__unwindfunclet$?SprawdŸ_Zak³ad@@YAHABHV?$basic_string@DU?$char_traits@D@std@@V?$allocator@D@2@@std@@0@Z$0
xdata$x	ENDS
;	COMDAT xdata$x
xdata$x	SEGMENT
__ehfuncinfo$?Czy_Kontynuowaæ@@YA_NABH@Z DQ 00000000119930522r ; 2.33398e-314
	DD	FLAT:__unwindtable$?Czy_Kontynuowaæ@@YA_NABH@Z
	DQ	00000000000000000r		; 0
	DQ	00000000000000000r		; 0
	DQ	00000000100000000r		; 2.122e-314
__unwindtable$?Czy_Kontynuowaæ@@YA_NABH@Z DD 0ffffffffH
	DD	FLAT:__unwindfunclet$?Czy_Kontynuowaæ@@YA_NABH@Z$0
xdata$x	ENDS
;	COMDAT xdata$x
xdata$x	SEGMENT
__ehfuncinfo$?Wylosuj@@YAHABH0@Z DD 019930522H
	DD	01H
	DD	FLAT:__unwindtable$?Wylosuj@@YAHABH0@Z
	DD	2 DUP(00H)
	DD	2 DUP(00H)
	DD	00H
	DD	01H
__unwindtable$?Wylosuj@@YAHABH0@Z DD 0ffffffffH
	DD	FLAT:__unwindfunclet$?Wylosuj@@YAHABH0@Z$0
xdata$x	ENDS
;	COMDAT xdata$x
xdata$x	SEGMENT
__ehfuncinfo$?Odczytaj_liczbê@@YAXABHABV?$basic_string@DU?$char_traits@D@std@@V?$allocator@D@2@@std@@@Z DD 019930522H
	DD	0fH
	DD	FLAT:__unwindtable$?Odczytaj_liczbê@@YAXABHABV?$basic_string@DU?$char_traits@D@std@@V?$allocator@D@2@@std@@@Z
	DD	2 DUP(00H)
	DD	2 DUP(00H)
	DD	00H
	DD	01H
	ORG $+4
__unwindtable$?Odczytaj_liczbê@@YAXABHABV?$basic_string@DU?$char_traits@D@std@@V?$allocator@D@2@@std@@@Z DD 0ffffffffH
	DD	FLAT:__unwindfunclet$?Odczytaj_liczbê@@YAXABHABV?$basic_string@DU?$char_traits@D@std@@V?$allocator@D@2@@std@@@Z$19
	DD	00H
	DD	FLAT:__unwindfunclet$?Odczytaj_liczbê@@YAXABHABV?$basic_string@DU?$char_traits@D@std@@V?$allocator@D@2@@std@@@Z$20
	DD	01H
	DD	FLAT:__unwindfunclet$?Odczytaj_liczbê@@YAXABHABV?$basic_string@DU?$char_traits@D@std@@V?$allocator@D@2@@std@@@Z$22
	DD	0ffffffffH
	DD	FLAT:__unwindfunclet$?Odczytaj_liczbê@@YAXABHABV?$basic_string@DU?$char_traits@D@std@@V?$allocator@D@2@@std@@@Z$0
	DD	03H
	DD	FLAT:__unwindfunclet$?Odczytaj_liczbê@@YAXABHABV?$basic_string@DU?$char_traits@D@std@@V?$allocator@D@2@@std@@@Z$1
	DD	04H
	DD	FLAT:__unwindfunclet$?Odczytaj_liczbê@@YAXABHABV?$basic_string@DU?$char_traits@D@std@@V?$allocator@D@2@@std@@@Z$2
	DD	03H
	DD	FLAT:__unwindfunclet$?Odczytaj_liczbê@@YAXABHABV?$basic_string@DU?$char_traits@D@std@@V?$allocator@D@2@@std@@@Z$10
	DD	06H
	DD	FLAT:__unwindfunclet$?Odczytaj_liczbê@@YAXABHABV?$basic_string@DU?$char_traits@D@std@@V?$allocator@D@2@@std@@@Z$11
	DD	03H
	DD	FLAT:__unwindfunclet$?Odczytaj_liczbê@@YAXABHABV?$basic_string@DU?$char_traits@D@std@@V?$allocator@D@2@@std@@@Z$167
	DD	08H
	DD	FLAT:__unwindfunclet$?Odczytaj_liczbê@@YAXABHABV?$basic_string@DU?$char_traits@D@std@@V?$allocator@D@2@@std@@@Z$168
	DD	09H
	DD	FLAT:__unwindfunclet$?Odczytaj_liczbê@@YAXABHABV?$basic_string@DU?$char_traits@D@std@@V?$allocator@D@2@@std@@@Z$170
	DD	03H
	DD	FLAT:__unwindfunclet$?Odczytaj_liczbê@@YAXABHABV?$basic_string@DU?$char_traits@D@std@@V?$allocator@D@2@@std@@@Z$13
	DD	0bH
	DD	FLAT:__unwindfunclet$?Odczytaj_liczbê@@YAXABHABV?$basic_string@DU?$char_traits@D@std@@V?$allocator@D@2@@std@@@Z$14
	DD	0cH
	DD	FLAT:__unwindfunclet$?Odczytaj_liczbê@@YAXABHABV?$basic_string@DU?$char_traits@D@std@@V?$allocator@D@2@@std@@@Z$15
	DD	0dH
	DD	FLAT:__unwindfunclet$?Odczytaj_liczbê@@YAXABHABV?$basic_string@DU?$char_traits@D@std@@V?$allocator@D@2@@std@@@Z$16
xdata$x	ENDS
;	COMDAT xdata$x
xdata$x	SEGMENT
__ehfuncinfo$?Wczytaj_z_pliku@@YAXAAV?$basic_ofstream@DU?$char_traits@D@std@@@std@@AAV?$basic_fstream@DU?$char_traits@D@std@@@2@AADAAH33AAV?$basic_string@DU?$char_traits@D@std@@V?$allocator@D@2@@2@@Z DQ 00000000619930522r ; 1.2944e-313
	DD	FLAT:__unwindtable$?Wczytaj_z_pliku@@YAXAAV?$basic_ofstream@DU?$char_traits@D@std@@@std@@AAV?$basic_fstream@DU?$char_traits@D@std@@@2@AADAAH33AAV?$basic_string@DU?$char_traits@D@std@@V?$allocator@D@2@@2@@Z
	DQ	00000000000000000r		; 0
	DQ	00000000000000000r		; 0
	DQ	00000000100000000r		; 2.122e-314
__unwindtable$?Wczytaj_z_pliku@@YAXAAV?$basic_ofstream@DU?$char_traits@D@std@@@std@@AAV?$basic_fstream@DU?$char_traits@D@std@@@2@AADAAH33AAV?$basic_string@DU?$char_traits@D@std@@V?$allocator@D@2@@2@@Z DD 0ffffffffH
	DD	FLAT:__unwindfunclet$?Wczytaj_z_pliku@@YAXAAV?$basic_ofstream@DU?$char_traits@D@std@@@std@@AAV?$basic_fstream@DU?$char_traits@D@std@@@2@AADAAH33AAV?$basic_string@DU?$char_traits@D@std@@V?$allocator@D@2@@2@@Z$0
	DD	00H
	DD	FLAT:__unwindfunclet$?Wczytaj_z_pliku@@YAXAAV?$basic_ofstream@DU?$char_traits@D@std@@@std@@AAV?$basic_fstream@DU?$char_traits@D@std@@@2@AADAAH33AAV?$basic_string@DU?$char_traits@D@std@@V?$allocator@D@2@@2@@Z$1
	DD	01H
	DD	FLAT:__unwindfunclet$?Wczytaj_z_pliku@@YAXAAV?$basic_ofstream@DU?$char_traits@D@std@@@std@@AAV?$basic_fstream@DU?$char_traits@D@std@@@2@AADAAH33AAV?$basic_string@DU?$char_traits@D@std@@V?$allocator@D@2@@2@@Z$2
	DD	01H
	DD	FLAT:__unwindfunclet$?Wczytaj_z_pliku@@YAXAAV?$basic_ofstream@DU?$char_traits@D@std@@@std@@AAV?$basic_fstream@DU?$char_traits@D@std@@@2@AADAAH33AAV?$basic_string@DU?$char_traits@D@std@@V?$allocator@D@2@@2@@Z$3
	DD	01H
	DD	FLAT:__unwindfunclet$?Wczytaj_z_pliku@@YAXAAV?$basic_ofstream@DU?$char_traits@D@std@@@std@@AAV?$basic_fstream@DU?$char_traits@D@std@@@2@AADAAH33AAV?$basic_string@DU?$char_traits@D@std@@V?$allocator@D@2@@2@@Z$4
	DD	01H
	DD	FLAT:__unwindfunclet$?Wczytaj_z_pliku@@YAXAAV?$basic_ofstream@DU?$char_traits@D@std@@@std@@AAV?$basic_fstream@DU?$char_traits@D@std@@@2@AADAAH33AAV?$basic_string@DU?$char_traits@D@std@@V?$allocator@D@2@@2@@Z$5
xdata$x	ENDS
;	COMDAT xdata$x
xdata$x	SEGMENT
__ehfuncinfo$?SprawdŸ_Pliki@@YAXXZ DD 019930522H
	DD	03fH
	DD	FLAT:__unwindtable$?SprawdŸ_Pliki@@YAXXZ
	DD	2 DUP(00H)
	DD	2 DUP(00H)
	DD	00H
	DD	01H
	ORG $+4
__unwindtable$?SprawdŸ_Pliki@@YAXXZ DD 0ffffffffH
	DD	FLAT:__unwindfunclet$?SprawdŸ_Pliki@@YAXXZ$0
	DD	00H
	DD	FLAT:__unwindfunclet$?SprawdŸ_Pliki@@YAXXZ$1
	DD	01H
	DD	FLAT:__unwindfunclet$?SprawdŸ_Pliki@@YAXXZ$2
	DD	02H
	DD	FLAT:__unwindfunclet$?SprawdŸ_Pliki@@YAXXZ$6
	DD	03H
	DD	FLAT:__unwindfunclet$?SprawdŸ_Pliki@@YAXXZ$7
	DD	04H
	DD	FLAT:__unwindfunclet$?SprawdŸ_Pliki@@YAXXZ$8
	DD	02H
	DD	FLAT:__unwindfunclet$?SprawdŸ_Pliki@@YAXXZ$11
	DD	06H
	DD	FLAT:__unwindfunclet$?SprawdŸ_Pliki@@YAXXZ$12
	DD	07H
	DD	FLAT:__unwindfunclet$?SprawdŸ_Pliki@@YAXXZ$13
	DD	02H
	DD	FLAT:__unwindfunclet$?SprawdŸ_Pliki@@YAXXZ$16
	DD	09H
	DD	FLAT:__unwindfunclet$?SprawdŸ_Pliki@@YAXXZ$17
	DD	0aH
	DD	FLAT:__unwindfunclet$?SprawdŸ_Pliki@@YAXXZ$18
	DD	02H
	DD	FLAT:__unwindfunclet$?SprawdŸ_Pliki@@YAXXZ$21
	DD	0cH
	DD	FLAT:__unwindfunclet$?SprawdŸ_Pliki@@YAXXZ$22
	DD	0dH
	DD	FLAT:__unwindfunclet$?SprawdŸ_Pliki@@YAXXZ$23
	DD	02H
	DD	FLAT:__unwindfunclet$?SprawdŸ_Pliki@@YAXXZ$26
	DD	0fH
	DD	FLAT:__unwindfunclet$?SprawdŸ_Pliki@@YAXXZ$27
	DD	010H
	DD	FLAT:__unwindfunclet$?SprawdŸ_Pliki@@YAXXZ$28
	DD	02H
	DD	FLAT:__unwindfunclet$?SprawdŸ_Pliki@@YAXXZ$31
	DD	012H
	DD	FLAT:__unwindfunclet$?SprawdŸ_Pliki@@YAXXZ$32
	DD	013H
	DD	FLAT:__unwindfunclet$?SprawdŸ_Pliki@@YAXXZ$33
	DD	02H
	DD	FLAT:__unwindfunclet$?SprawdŸ_Pliki@@YAXXZ$168
	DD	015H
	DD	FLAT:__unwindfunclet$?SprawdŸ_Pliki@@YAXXZ$169
	DD	016H
	DD	FLAT:__unwindfunclet$?SprawdŸ_Pliki@@YAXXZ$171
	DD	02H
	DD	FLAT:__unwindfunclet$?SprawdŸ_Pliki@@YAXXZ$35
	DD	018H
	DD	FLAT:__unwindfunclet$?SprawdŸ_Pliki@@YAXXZ$36
	DD	019H
	DD	FLAT:__unwindfunclet$?SprawdŸ_Pliki@@YAXXZ$37
	DD	01aH
	DD	FLAT:__unwindfunclet$?SprawdŸ_Pliki@@YAXXZ$38
	DD	018H
	DD	FLAT:__unwindfunclet$?SprawdŸ_Pliki@@YAXXZ$40
	DD	01cH
	DD	FLAT:__unwindfunclet$?SprawdŸ_Pliki@@YAXXZ$41
	DD	01dH
	DD	FLAT:__unwindfunclet$?SprawdŸ_Pliki@@YAXXZ$42
	DD	01eH
	DD	FLAT:__unwindfunclet$?SprawdŸ_Pliki@@YAXXZ$43
	DD	01fH
	DD	FLAT:__unwindfunclet$?SprawdŸ_Pliki@@YAXXZ$44
	DD	020H
	DD	FLAT:__unwindfunclet$?SprawdŸ_Pliki@@YAXXZ$45
	DD	021H
	DD	FLAT:__unwindfunclet$?SprawdŸ_Pliki@@YAXXZ$46
	DD	022H
	DD	FLAT:__unwindfunclet$?SprawdŸ_Pliki@@YAXXZ$47
	DD	023H
	DD	FLAT:__unwindfunclet$?SprawdŸ_Pliki@@YAXXZ$48
	DD	02H
	DD	FLAT:__unwindfunclet$?SprawdŸ_Pliki@@YAXXZ$405
	DD	025H
	DD	FLAT:__unwindfunclet$?SprawdŸ_Pliki@@YAXXZ$406
	DD	026H
	DD	FLAT:__unwindfunclet$?SprawdŸ_Pliki@@YAXXZ$408
	DD	02H
	DD	FLAT:__unwindfunclet$?SprawdŸ_Pliki@@YAXXZ$50
	DD	028H
	DD	FLAT:__unwindfunclet$?SprawdŸ_Pliki@@YAXXZ$51
	DD	029H
	DD	FLAT:__unwindfunclet$?SprawdŸ_Pliki@@YAXXZ$52
	DD	02aH
	DD	FLAT:__unwindfunclet$?SprawdŸ_Pliki@@YAXXZ$53
	DD	028H
	DD	FLAT:__unwindfunclet$?SprawdŸ_Pliki@@YAXXZ$55
	DD	02cH
	DD	FLAT:__unwindfunclet$?SprawdŸ_Pliki@@YAXXZ$56
	DD	02dH
	DD	FLAT:__unwindfunclet$?SprawdŸ_Pliki@@YAXXZ$57
	DD	02eH
	DD	FLAT:__unwindfunclet$?SprawdŸ_Pliki@@YAXXZ$58
	DD	02fH
	DD	FLAT:__unwindfunclet$?SprawdŸ_Pliki@@YAXXZ$59
	DD	030H
	DD	FLAT:__unwindfunclet$?SprawdŸ_Pliki@@YAXXZ$60
	DD	031H
	DD	FLAT:__unwindfunclet$?SprawdŸ_Pliki@@YAXXZ$61
	DD	032H
	DD	FLAT:__unwindfunclet$?SprawdŸ_Pliki@@YAXXZ$62
	DD	033H
	DD	FLAT:__unwindfunclet$?SprawdŸ_Pliki@@YAXXZ$63
	DD	02H
	DD	FLAT:__unwindfunclet$?SprawdŸ_Pliki@@YAXXZ$65
	DD	035H
	DD	FLAT:__unwindfunclet$?SprawdŸ_Pliki@@YAXXZ$66
	DD	036H
	DD	FLAT:__unwindfunclet$?SprawdŸ_Pliki@@YAXXZ$67
	DD	035H
	DD	FLAT:__unwindfunclet$?SprawdŸ_Pliki@@YAXXZ$69
	DD	038H
	DD	FLAT:__unwindfunclet$?SprawdŸ_Pliki@@YAXXZ$70
	DD	039H
	DD	FLAT:__unwindfunclet$?SprawdŸ_Pliki@@YAXXZ$71
	DD	03aH
	DD	FLAT:__unwindfunclet$?SprawdŸ_Pliki@@YAXXZ$72
	DD	03bH
	DD	FLAT:__unwindfunclet$?SprawdŸ_Pliki@@YAXXZ$73
	DD	03cH
	DD	FLAT:__unwindfunclet$?SprawdŸ_Pliki@@YAXXZ$74
	DD	03dH
	DD	FLAT:__unwindfunclet$?SprawdŸ_Pliki@@YAXXZ$75
xdata$x	ENDS
;	COMDAT xdata$x
xdata$x	SEGMENT
__ehfuncinfo$?SprawdŸ_ustawienia@@YAXXZ DD 019930522H
	DD	06H
	DD	FLAT:__unwindtable$?SprawdŸ_ustawienia@@YAXXZ
	DD	2 DUP(00H)
	DD	2 DUP(00H)
	DD	00H
	DD	01H
__unwindtable$?SprawdŸ_ustawienia@@YAXXZ DD 0ffffffffH
	DD	FLAT:__unwindfunclet$?SprawdŸ_ustawienia@@YAXXZ$4
	DD	00H
	DD	FLAT:__unwindfunclet$?SprawdŸ_ustawienia@@YAXXZ$5
	DD	01H
	DD	FLAT:__unwindfunclet$?SprawdŸ_ustawienia@@YAXXZ$7
	DD	0ffffffffH
	DD	FLAT:__unwindfunclet$?SprawdŸ_ustawienia@@YAXXZ$0
	DD	03H
	DD	FLAT:__unwindfunclet$?SprawdŸ_ustawienia@@YAXXZ$1
	DD	0ffffffffH
	DD	FLAT:__unwindfunclet$?SprawdŸ_ustawienia@@YAXXZ$2
xdata$x	ENDS
;	COMDAT xdata$x
xdata$x	SEGMENT
__ehfuncinfo$??0?$basic_fstream@DU?$char_traits@D@std@@@std@@QAE@XZ DQ 00000000319930522r ; 6.57797e-314
	DD	FLAT:__unwindtable$??0?$basic_fstream@DU?$char_traits@D@std@@@std@@QAE@XZ
	DQ	00000000000000000r		; 0
	DQ	00000000000000000r		; 0
	DQ	00000000100000000r		; 2.122e-314
__unwindtable$??0?$basic_fstream@DU?$char_traits@D@std@@@std@@QAE@XZ DD 0ffffffffH
	DD	FLAT:__unwindfunclet$??0?$basic_fstream@DU?$char_traits@D@std@@@std@@QAE@XZ$0
	DD	00H
	DD	FLAT:__unwindfunclet$??0?$basic_fstream@DU?$char_traits@D@std@@@std@@QAE@XZ$1
	DD	01H
	DD	FLAT:__unwindfunclet$??0?$basic_fstream@DU?$char_traits@D@std@@@std@@QAE@XZ$3
xdata$x	ENDS
;	COMDAT xdata$x
xdata$x	SEGMENT
__ehfuncinfo$??0?$basic_ofstream@DU?$char_traits@D@std@@@std@@QAE@XZ DQ 00000000319930522r ; 6.57797e-314
	DD	FLAT:__unwindtable$??0?$basic_ofstream@DU?$char_traits@D@std@@@std@@QAE@XZ
	DQ	00000000000000000r		; 0
	DQ	00000000000000000r		; 0
	DQ	00000000100000000r		; 2.122e-314
__unwindtable$??0?$basic_ofstream@DU?$char_traits@D@std@@@std@@QAE@XZ DD 0ffffffffH
	DD	FLAT:__unwindfunclet$??0?$basic_ofstream@DU?$char_traits@D@std@@@std@@QAE@XZ$0
	DD	00H
	DD	FLAT:__unwindfunclet$??0?$basic_ofstream@DU?$char_traits@D@std@@@std@@QAE@XZ$1
	DD	01H
	DD	FLAT:__unwindfunclet$??0?$basic_ofstream@DU?$char_traits@D@std@@@std@@QAE@XZ$3
xdata$x	ENDS
;	COMDAT xdata$x
xdata$x	SEGMENT
__ehfuncinfo$??0?$basic_ifstream@DU?$char_traits@D@std@@@std@@QAE@XZ DQ 00000000319930522r ; 6.57797e-314
	DD	FLAT:__unwindtable$??0?$basic_ifstream@DU?$char_traits@D@std@@@std@@QAE@XZ
	DQ	00000000000000000r		; 0
	DQ	00000000000000000r		; 0
	DQ	00000000100000000r		; 2.122e-314
__unwindtable$??0?$basic_ifstream@DU?$char_traits@D@std@@@std@@QAE@XZ DD 0ffffffffH
	DD	FLAT:__unwindfunclet$??0?$basic_ifstream@DU?$char_traits@D@std@@@std@@QAE@XZ$0
	DD	00H
	DD	FLAT:__unwindfunclet$??0?$basic_ifstream@DU?$char_traits@D@std@@@std@@QAE@XZ$1
	DD	01H
	DD	FLAT:__unwindfunclet$??0?$basic_ifstream@DU?$char_traits@D@std@@@std@@QAE@XZ$3
xdata$x	ENDS
;	COMDAT xdata$x
xdata$x	SEGMENT
__ehfuncinfo$?uflow@?$basic_filebuf@DU?$char_traits@D@std@@@std@@MAEHXZ DQ 00000000119930522r ; 2.33398e-314
	DD	FLAT:__unwindtable$?uflow@?$basic_filebuf@DU?$char_traits@D@std@@@std@@MAEHXZ
	DQ	00000000000000000r		; 0
	DQ	00000000000000000r		; 0
	DQ	00000000100000000r		; 2.122e-314
__unwindtable$?uflow@?$basic_filebuf@DU?$char_traits@D@std@@@std@@MAEHXZ DD 0ffffffffH
	DD	FLAT:__unwindfunclet$?uflow@?$basic_filebuf@DU?$char_traits@D@std@@@std@@MAEHXZ$0
xdata$x	ENDS
;	COMDAT xdata$x
xdata$x	SEGMENT
__ehfuncinfo$?overflow@?$basic_filebuf@DU?$char_traits@D@std@@@std@@MAEHH@Z DQ 00000000119930522r ; 2.33398e-314
	DD	FLAT:__unwindtable$?overflow@?$basic_filebuf@DU?$char_traits@D@std@@@std@@MAEHH@Z
	DQ	00000000000000000r		; 0
	DQ	00000000000000000r		; 0
	DQ	00000000100000000r		; 2.122e-314
__unwindtable$?overflow@?$basic_filebuf@DU?$char_traits@D@std@@@std@@MAEHH@Z DD 0ffffffffH
	DD	FLAT:__unwindfunclet$?overflow@?$basic_filebuf@DU?$char_traits@D@std@@@std@@MAEHH@Z$0
xdata$x	ENDS
;	COMDAT xdata$x
xdata$x	SEGMENT
__ehfuncinfo$??1?$basic_filebuf@DU?$char_traits@D@std@@@std@@UAE@XZ DQ 00000000019930522r ; 2.11987e-315
	DQ	00000000000000000r		; 0
	DQ	00000000000000000r		; 0
	DQ	00000000000000000r		; 0
	DD	05H
xdata$x	ENDS
;	COMDAT xdata$x
xdata$x	SEGMENT
__ehfuncinfo$??0?$basic_stringstream@DU?$char_traits@D@std@@V?$allocator@D@2@@std@@QAE@H@Z DQ 00000000319930522r ; 6.57797e-314
	DD	FLAT:__unwindtable$??0?$basic_stringstream@DU?$char_traits@D@std@@V?$allocator@D@2@@std@@QAE@H@Z
	DQ	00000000000000000r		; 0
	DQ	00000000000000000r		; 0
	DQ	00000000100000000r		; 2.122e-314
__unwindtable$??0?$basic_stringstream@DU?$char_traits@D@std@@V?$allocator@D@2@@std@@QAE@H@Z DD 0ffffffffH
	DD	FLAT:__unwindfunclet$??0?$basic_stringstream@DU?$char_traits@D@std@@V?$allocator@D@2@@std@@QAE@H@Z$0
	DD	00H
	DD	FLAT:__unwindfunclet$??0?$basic_stringstream@DU?$char_traits@D@std@@V?$allocator@D@2@@std@@QAE@H@Z$1
	DD	01H
	DD	FLAT:__unwindfunclet$??0?$basic_stringstream@DU?$char_traits@D@std@@V?$allocator@D@2@@std@@QAE@H@Z$3
xdata$x	ENDS
;	COMDAT xdata$x
xdata$x	SEGMENT
__ehfuncinfo$??1sentry@?$basic_ostream@DU?$char_traits@D@std@@@std@@QAE@XZ DQ 00000000119930522r ; 2.33398e-314
	DD	FLAT:__unwindtable$??1sentry@?$basic_ostream@DU?$char_traits@D@std@@@std@@QAE@XZ
	DQ	00000000000000000r		; 0
	DQ	00000000000000000r		; 0
	DQ	00000000500000000r		; 1.061e-313
__unwindtable$??1sentry@?$basic_ostream@DU?$char_traits@D@std@@@std@@QAE@XZ DD 0ffffffffH
	DD	FLAT:___std_terminate
xdata$x	ENDS
;	COMDAT xdata$x
xdata$x	SEGMENT
__ehfuncinfo$??0sentry@?$basic_ostream@DU?$char_traits@D@std@@@std@@QAE@AAV12@@Z DQ 00000000119930522r ; 2.33398e-314
	DD	FLAT:__unwindtable$??0sentry@?$basic_ostream@DU?$char_traits@D@std@@@std@@QAE@AAV12@@Z
	DQ	00000000000000000r		; 0
	DQ	00000000000000000r		; 0
	DQ	00000000100000000r		; 2.122e-314
__unwindtable$??0sentry@?$basic_ostream@DU?$char_traits@D@std@@@std@@QAE@AAV12@@Z DD 0ffffffffH
	DD	FLAT:__unwindfunclet$??0sentry@?$basic_ostream@DU?$char_traits@D@std@@@std@@QAE@AAV12@@Z$0
xdata$x	ENDS
;	COMDAT xdata$x
xdata$x	SEGMENT
__ehfuncinfo$?_Endwrite@?$basic_filebuf@DU?$char_traits@D@std@@@std@@IAE_NXZ DQ 00000000119930522r ; 2.33398e-314
	DD	FLAT:__unwindtable$?_Endwrite@?$basic_filebuf@DU?$char_traits@D@std@@@std@@IAE_NXZ
	DQ	00000000000000000r		; 0
	DQ	00000000000000000r		; 0
	DQ	00000000100000000r		; 2.122e-314
__unwindtable$?_Endwrite@?$basic_filebuf@DU?$char_traits@D@std@@@std@@IAE_NXZ DD 0ffffffffH
	DD	FLAT:__unwindfunclet$?_Endwrite@?$basic_filebuf@DU?$char_traits@D@std@@@std@@IAE_NXZ$0
xdata$x	ENDS
;	COMDAT xdata$x
xdata$x	SEGMENT
__ehfuncinfo$?open@?$basic_filebuf@DU?$char_traits@D@std@@@std@@QAEPAV12@PBDHH@Z DQ 00000000219930522r ; 4.45598e-314
	DD	FLAT:__unwindtable$?open@?$basic_filebuf@DU?$char_traits@D@std@@@std@@QAEPAV12@PBDHH@Z
	DQ	00000000000000000r		; 0
	DQ	00000000000000000r		; 0
	DQ	00000000100000000r		; 2.122e-314
__unwindtable$?open@?$basic_filebuf@DU?$char_traits@D@std@@@std@@QAEPAV12@PBDHH@Z DD 0ffffffffH
	DD	FLAT:__unwindfunclet$?open@?$basic_filebuf@DU?$char_traits@D@std@@@std@@QAEPAV12@PBDHH@Z$0
	DD	0ffffffffH
	DD	FLAT:___std_terminate
xdata$x	ENDS
;	COMDAT xdata$x
xdata$x	SEGMENT
__ehfuncinfo$??0?$basic_filebuf@DU?$char_traits@D@std@@@std@@QAE@PAU_iobuf@@@Z DQ 00000000119930522r ; 2.33398e-314
	DD	FLAT:__unwindtable$??0?$basic_filebuf@DU?$char_traits@D@std@@@std@@QAE@PAU_iobuf@@@Z
	DQ	00000000000000000r		; 0
	DQ	00000000000000000r		; 0
	DQ	00000000100000000r		; 2.122e-314
__unwindtable$??0?$basic_filebuf@DU?$char_traits@D@std@@@std@@QAE@PAU_iobuf@@@Z DD 0ffffffffH
	DD	FLAT:__unwindfunclet$??0?$basic_filebuf@DU?$char_traits@D@std@@@std@@QAE@PAU_iobuf@@@Z$0
xdata$x	ENDS
;	COMDAT xdata$x
xdata$x	SEGMENT
__ehfuncinfo$??0?$basic_stringbuf@DU?$char_traits@D@std@@V?$allocator@D@2@@std@@QAE@H@Z DQ 00000000119930522r ; 2.33398e-314
	DD	FLAT:__unwindtable$??0?$basic_stringbuf@DU?$char_traits@D@std@@V?$allocator@D@2@@std@@QAE@H@Z
	DQ	00000000000000000r		; 0
	DQ	00000000000000000r		; 0
	DQ	00000000100000000r		; 2.122e-314
__unwindtable$??0?$basic_stringbuf@DU?$char_traits@D@std@@V?$allocator@D@2@@std@@QAE@H@Z DD 0ffffffffH
	DD	FLAT:__unwindfunclet$??0?$basic_stringbuf@DU?$char_traits@D@std@@V?$allocator@D@2@@std@@QAE@H@Z$0
xdata$x	ENDS
;	COMDAT xdata$x
xdata$x	SEGMENT
__ehfuncinfo$??1_Sentry_base@?$basic_ostream@DU?$char_traits@D@std@@@std@@QAE@XZ DQ 00000000019930522r ; 2.11987e-315
	DQ	00000000000000000r		; 0
	DQ	00000000000000000r		; 0
	DQ	00000000000000000r		; 0
	DD	05H
xdata$x	ENDS
;	COMDAT xdata$x
xdata$x	SEGMENT
__ehfuncinfo$??$use_facet@V?$ctype@D@std@@@std@@YAABV?$ctype@D@0@ABVlocale@0@@Z DQ 00000000119930522r ; 2.33398e-314
	DD	FLAT:__unwindtable$??$use_facet@V?$ctype@D@std@@@std@@YAABV?$ctype@D@0@ABVlocale@0@@Z
	DQ	00000000000000000r		; 0
	DQ	00000000000000000r		; 0
	DQ	00000000100000000r		; 2.122e-314
__unwindtable$??$use_facet@V?$ctype@D@std@@@std@@YAABV?$ctype@D@0@ABVlocale@0@@Z DD 0ffffffffH
	DD	FLAT:__unwindfunclet$??$use_facet@V?$ctype@D@std@@@std@@YAABV?$ctype@D@0@ABVlocale@0@@Z$0
xdata$x	ENDS
;	COMDAT xdata$x
xdata$x	SEGMENT
__ehfuncinfo$??$?6U?$char_traits@D@std@@@std@@YAAAV?$basic_ostream@DU?$char_traits@D@std@@@0@AAV10@PBD@Z DQ 00000000619930522r ; 1.2944e-313
	DD	FLAT:__unwindtable$??$?6U?$char_traits@D@std@@@std@@YAAAV?$basic_ostream@DU?$char_traits@D@std@@@0@AAV10@PBD@Z
	DD	01H
	DD	FLAT:__tryblocktable$??$?6U?$char_traits@D@std@@@std@@YAAAV?$basic_ostream@DU?$char_traits@D@std@@@0@AAV10@PBD@Z
	DQ	00000000000000000r		; 0
	DQ	00000000100000000r		; 2.122e-314
__unwindtable$??$?6U?$char_traits@D@std@@@std@@YAAAV?$basic_ostream@DU?$char_traits@D@std@@@0@AAV10@PBD@Z DD 0ffffffffH
	DD	FLAT:__unwindfunclet$??$?6U?$char_traits@D@std@@@std@@YAAAV?$basic_ostream@DU?$char_traits@D@std@@@0@AAV10@PBD@Z$4
	DD	0ffffffffH
	DD	FLAT:__unwindfunclet$??$?6U?$char_traits@D@std@@@std@@YAAAV?$basic_ostream@DU?$char_traits@D@std@@@0@AAV10@PBD@Z$2
	DQ	00000000000000001r		; 4.94066e-324
	DQ	00000000000000001r		; 4.94066e-324
	DD	0ffffffffH
	DD	FLAT:___std_terminate
	DD	04H
	DD	FLAT:___std_terminate
__tryblocktable$??$?6U?$char_traits@D@std@@@std@@YAAAV?$basic_ostream@DU?$char_traits@D@std@@@0@AAV10@PBD@Z DQ 00000000200000002r ; 4.24399e-314
	DQ	00000000100000003r		; 2.122e-314
	DD	FLAT:__catchsym$??$?6U?$char_traits@D@std@@@std@@YAAAV?$basic_ostream@DU?$char_traits@D@std@@@0@AAV10@PBD@Z$11
__catchsym$??$?6U?$char_traits@D@std@@@std@@YAAAV?$basic_ostream@DU?$char_traits@D@std@@@0@AAV10@PBD@Z$11 DQ 00000000000000040r ; 3.16202e-322
	DD	00H
	DD	FLAT:__catch$??$?6U?$char_traits@D@std@@@std@@YAAAV?$basic_ostream@DU?$char_traits@D@std@@@0@AAV10@PBD@Z$0
xdata$x	ENDS
;	COMDAT xdata$x
xdata$x	SEGMENT
__ehfuncinfo$??$?HDU?$char_traits@D@std@@V?$allocator@D@1@@std@@YA?AV?$basic_string@DU?$char_traits@D@std@@V?$allocator@D@2@@0@ABV10@0@Z DD 019930522H
	DD	01H
	DD	FLAT:__unwindtable$??$?HDU?$char_traits@D@std@@V?$allocator@D@1@@std@@YA?AV?$basic_string@DU?$char_traits@D@std@@V?$allocator@D@2@@0@ABV10@0@Z
	DD	2 DUP(00H)
	DD	2 DUP(00H)
	DD	00H
	DD	01H
__unwindtable$??$?HDU?$char_traits@D@std@@V?$allocator@D@1@@std@@YA?AV?$basic_string@DU?$char_traits@D@std@@V?$allocator@D@2@@0@ABV10@0@Z DD 0ffffffffH
	DD	FLAT:__unwindfunclet$??$?HDU?$char_traits@D@std@@V?$allocator@D@1@@std@@YA?AV?$basic_string@DU?$char_traits@D@std@@V?$allocator@D@2@@0@ABV10@0@Z$0
xdata$x	ENDS
;	COMDAT xdata$x
xdata$x	SEGMENT
__ehfuncinfo$??$?HDU?$char_traits@D@std@@V?$allocator@D@1@@std@@YA?AV?$basic_string@DU?$char_traits@D@std@@V?$allocator@D@2@@0@ABV10@QBD@Z DD 019930522H
	DD	01H
	DD	FLAT:__unwindtable$??$?HDU?$char_traits@D@std@@V?$allocator@D@1@@std@@YA?AV?$basic_string@DU?$char_traits@D@std@@V?$allocator@D@2@@0@ABV10@QBD@Z
	DD	2 DUP(00H)
	DD	2 DUP(00H)
	DD	00H
	DD	01H
__unwindtable$??$?HDU?$char_traits@D@std@@V?$allocator@D@1@@std@@YA?AV?$basic_string@DU?$char_traits@D@std@@V?$allocator@D@2@@0@ABV10@QBD@Z DD 0ffffffffH
	DD	FLAT:__unwindfunclet$??$?HDU?$char_traits@D@std@@V?$allocator@D@1@@std@@YA?AV?$basic_string@DU?$char_traits@D@std@@V?$allocator@D@2@@0@ABV10@QBD@Z$0
xdata$x	ENDS
;	COMDAT xdata$x
xdata$x	SEGMENT
__ehfuncinfo$??$?HDU?$char_traits@D@std@@V?$allocator@D@1@@std@@YA?AV?$basic_string@DU?$char_traits@D@std@@V?$allocator@D@2@@0@QBDABV10@@Z DD 019930522H
	DD	01H
	DD	FLAT:__unwindtable$??$?HDU?$char_traits@D@std@@V?$allocator@D@1@@std@@YA?AV?$basic_string@DU?$char_traits@D@std@@V?$allocator@D@2@@0@QBDABV10@@Z
	DD	2 DUP(00H)
	DD	2 DUP(00H)
	DD	00H
	DD	01H
__unwindtable$??$?HDU?$char_traits@D@std@@V?$allocator@D@1@@std@@YA?AV?$basic_string@DU?$char_traits@D@std@@V?$allocator@D@2@@0@QBDABV10@@Z DD 0ffffffffH
	DD	FLAT:__unwindfunclet$??$?HDU?$char_traits@D@std@@V?$allocator@D@1@@std@@YA?AV?$basic_string@DU?$char_traits@D@std@@V?$allocator@D@2@@0@QBDABV10@@Z$0
xdata$x	ENDS
;	COMDAT xdata$x
xdata$x	SEGMENT
__ehfuncinfo$??$use_facet@V?$codecvt@DDU_Mbstatet@@@std@@@std@@YAABV?$codecvt@DDU_Mbstatet@@@0@ABVlocale@0@@Z DQ 00000000119930522r ; 2.33398e-314
	DD	FLAT:__unwindtable$??$use_facet@V?$codecvt@DDU_Mbstatet@@@std@@@std@@YAABV?$codecvt@DDU_Mbstatet@@@0@ABVlocale@0@@Z
	DQ	00000000000000000r		; 0
	DQ	00000000000000000r		; 0
	DQ	00000000100000000r		; 2.122e-314
__unwindtable$??$use_facet@V?$codecvt@DDU_Mbstatet@@@std@@@std@@YAABV?$codecvt@DDU_Mbstatet@@@0@ABVlocale@0@@Z DD 0ffffffffH
	DD	FLAT:__unwindfunclet$??$use_facet@V?$codecvt@DDU_Mbstatet@@@std@@@std@@YAABV?$codecvt@DDU_Mbstatet@@@0@ABVlocale@0@@Z$0
xdata$x	ENDS
;	COMDAT xdata$x
xdata$x	SEGMENT
__ehfuncinfo$??$?5DU?$char_traits@D@std@@V?$allocator@D@1@@std@@YAAAV?$basic_istream@DU?$char_traits@D@std@@@0@$$QAV10@AAV?$basic_string@DU?$char_traits@D@std@@V?$allocator@D@2@@0@@Z DQ 00000000719930522r ; 1.5066e-313
	DD	FLAT:__unwindtable$??$?5DU?$char_traits@D@std@@V?$allocator@D@1@@std@@YAAAV?$basic_istream@DU?$char_traits@D@std@@@0@$$QAV10@AAV?$basic_string@DU?$char_traits@D@std@@V?$allocator@D@2@@0@@Z
	DD	01H
	DD	FLAT:__tryblocktable$??$?5DU?$char_traits@D@std@@V?$allocator@D@1@@std@@YAAAV?$basic_istream@DU?$char_traits@D@std@@@0@$$QAV10@AAV?$basic_string@DU?$char_traits@D@std@@V?$allocator@D@2@@0@@Z
	DQ	00000000000000000r		; 0
	DQ	00000000100000000r		; 2.122e-314
__unwindtable$??$?5DU?$char_traits@D@std@@V?$allocator@D@1@@std@@YAAAV?$basic_istream@DU?$char_traits@D@std@@@0@$$QAV10@AAV?$basic_string@DU?$char_traits@D@std@@V?$allocator@D@2@@0@@Z DD 0ffffffffH
	DD	FLAT:__unwindfunclet$??$?5DU?$char_traits@D@std@@V?$allocator@D@1@@std@@YAAAV?$basic_istream@DU?$char_traits@D@std@@@0@$$QAV10@AAV?$basic_string@DU?$char_traits@D@std@@V?$allocator@D@2@@0@@Z$4
	DD	0ffffffffH
	DD	FLAT:__unwindfunclet$??$?5DU?$char_traits@D@std@@V?$allocator@D@1@@std@@YAAAV?$basic_istream@DU?$char_traits@D@std@@@0@$$QAV10@AAV?$basic_string@DU?$char_traits@D@std@@V?$allocator@D@2@@0@@Z$2
	DD	01H
	DD	FLAT:__unwindfunclet$??$?5DU?$char_traits@D@std@@V?$allocator@D@1@@std@@YAAAV?$basic_istream@DU?$char_traits@D@std@@@0@$$QAV10@AAV?$basic_string@DU?$char_traits@D@std@@V?$allocator@D@2@@0@@Z$3
	DD	01H
	DD	FLAT:___std_terminate
	DQ	00000000000000001r		; 4.94066e-324
	DQ	00000000000000001r		; 4.94066e-324
	DD	0ffffffffH
	DD	FLAT:___std_terminate
__tryblocktable$??$?5DU?$char_traits@D@std@@V?$allocator@D@1@@std@@YAAAV?$basic_istream@DU?$char_traits@D@std@@@0@$$QAV10@AAV?$basic_string@DU?$char_traits@D@std@@V?$allocator@D@2@@0@@Z DQ 00000000400000004r ; 8.48798e-314
	DQ	00000000100000005r		; 2.122e-314
	DD	FLAT:__catchsym$??$?5DU?$char_traits@D@std@@V?$allocator@D@1@@std@@YAAAV?$basic_istream@DU?$char_traits@D@std@@@0@$$QAV10@AAV?$basic_string@DU?$char_traits@D@std@@V?$allocator@D@2@@0@@Z$35
__catchsym$??$?5DU?$char_traits@D@std@@V?$allocator@D@1@@std@@YAAAV?$basic_istream@DU?$char_traits@D@std@@@0@$$QAV10@AAV?$basic_string@DU?$char_traits@D@std@@V?$allocator@D@2@@0@@Z$35 DQ 00000000000000040r ; 3.16202e-322
	DD	00H
	DD	FLAT:__catch$??$?5DU?$char_traits@D@std@@V?$allocator@D@1@@std@@YAAAV?$basic_istream@DU?$char_traits@D@std@@@0@$$QAV10@AAV?$basic_string@DU?$char_traits@D@std@@V?$allocator@D@2@@0@@Z$0
xdata$x	ENDS
;	COMDAT xdata$x
xdata$x	SEGMENT
__ehfuncinfo$??$getline@DU?$char_traits@D@std@@V?$allocator@D@2@@std@@YAAAV?$basic_istream@DU?$char_traits@D@std@@@0@$$QAV10@AAV?$basic_string@DU?$char_traits@D@std@@V?$allocator@D@2@@0@D@Z DQ 00000000519930522r ; 1.0822e-313
	DD	FLAT:__unwindtable$??$getline@DU?$char_traits@D@std@@V?$allocator@D@2@@std@@YAAAV?$basic_istream@DU?$char_traits@D@std@@@0@$$QAV10@AAV?$basic_string@DU?$char_traits@D@std@@V?$allocator@D@2@@0@D@Z
	DD	01H
	DD	FLAT:__tryblocktable$??$getline@DU?$char_traits@D@std@@V?$allocator@D@2@@std@@YAAAV?$basic_istream@DU?$char_traits@D@std@@@0@$$QAV10@AAV?$basic_string@DU?$char_traits@D@std@@V?$allocator@D@2@@0@D@Z
	DQ	00000000000000000r		; 0
	DQ	00000000100000000r		; 2.122e-314
__unwindtable$??$getline@DU?$char_traits@D@std@@V?$allocator@D@2@@std@@YAAAV?$basic_istream@DU?$char_traits@D@std@@@0@$$QAV10@AAV?$basic_string@DU?$char_traits@D@std@@V?$allocator@D@2@@0@D@Z DD 0ffffffffH
	DD	FLAT:__unwindfunclet$??$getline@DU?$char_traits@D@std@@V?$allocator@D@2@@std@@YAAAV?$basic_istream@DU?$char_traits@D@std@@@0@$$QAV10@AAV?$basic_string@DU?$char_traits@D@std@@V?$allocator@D@2@@0@D@Z$3
	DD	0ffffffffH
	DD	FLAT:__unwindfunclet$??$getline@DU?$char_traits@D@std@@V?$allocator@D@2@@std@@YAAAV?$basic_istream@DU?$char_traits@D@std@@@0@$$QAV10@AAV?$basic_string@DU?$char_traits@D@std@@V?$allocator@D@2@@0@D@Z$2
	DQ	00000000000000001r		; 4.94066e-324
	DQ	00000000000000001r		; 4.94066e-324
	DD	0ffffffffH
	DD	FLAT:___std_terminate
__tryblocktable$??$getline@DU?$char_traits@D@std@@V?$allocator@D@2@@std@@YAAAV?$basic_istream@DU?$char_traits@D@std@@@0@$$QAV10@AAV?$basic_string@DU?$char_traits@D@std@@V?$allocator@D@2@@0@D@Z DQ 00000000200000002r ; 4.24399e-314
	DQ	00000000100000003r		; 2.122e-314
	DD	FLAT:__catchsym$??$getline@DU?$char_traits@D@std@@V?$allocator@D@2@@std@@YAAAV?$basic_istream@DU?$char_traits@D@std@@@0@$$QAV10@AAV?$basic_string@DU?$char_traits@D@std@@V?$allocator@D@2@@0@D@Z$30
__catchsym$??$getline@DU?$char_traits@D@std@@V?$allocator@D@2@@std@@YAAAV?$basic_istream@DU?$char_traits@D@std@@@0@$$QAV10@AAV?$basic_string@DU?$char_traits@D@std@@V?$allocator@D@2@@0@D@Z$30 DQ 00000000000000040r ; 3.16202e-322
	DD	00H
	DD	FLAT:__catch$??$getline@DU?$char_traits@D@std@@V?$allocator@D@2@@std@@YAAAV?$basic_istream@DU?$char_traits@D@std@@@0@$$QAV10@AAV?$basic_string@DU?$char_traits@D@std@@V?$allocator@D@2@@0@D@Z$0
xdata$x	ENDS
;	COMDAT xdata$x
xdata$x	SEGMENT
__ehfuncinfo$??$_Insert_string@DU?$char_traits@D@std@@I@std@@YAAAV?$basic_ostream@DU?$char_traits@D@std@@@0@AAV10@QBDI@Z DQ 00000000619930522r ; 1.2944e-313
	DD	FLAT:__unwindtable$??$_Insert_string@DU?$char_traits@D@std@@I@std@@YAAAV?$basic_ostream@DU?$char_traits@D@std@@@0@AAV10@QBDI@Z
	DD	01H
	DD	FLAT:__tryblocktable$??$_Insert_string@DU?$char_traits@D@std@@I@std@@YAAAV?$basic_ostream@DU?$char_traits@D@std@@@0@AAV10@QBDI@Z
	DQ	00000000000000000r		; 0
	DQ	00000000100000000r		; 2.122e-314
__unwindtable$??$_Insert_string@DU?$char_traits@D@std@@I@std@@YAAAV?$basic_ostream@DU?$char_traits@D@std@@@0@AAV10@QBDI@Z DD 0ffffffffH
	DD	FLAT:__unwindfunclet$??$_Insert_string@DU?$char_traits@D@std@@I@std@@YAAAV?$basic_ostream@DU?$char_traits@D@std@@@0@AAV10@QBDI@Z$3
	DD	0ffffffffH
	DD	FLAT:__unwindfunclet$??$_Insert_string@DU?$char_traits@D@std@@I@std@@YAAAV?$basic_ostream@DU?$char_traits@D@std@@@0@AAV10@QBDI@Z$2
	DQ	00000000000000001r		; 4.94066e-324
	DQ	00000000000000001r		; 4.94066e-324
	DD	0ffffffffH
	DD	FLAT:___std_terminate
	DD	04H
	DD	FLAT:___std_terminate
__tryblocktable$??$_Insert_string@DU?$char_traits@D@std@@I@std@@YAAAV?$basic_ostream@DU?$char_traits@D@std@@@0@AAV10@QBDI@Z DQ 00000000200000002r ; 4.24399e-314
	DQ	00000000100000003r		; 2.122e-314
	DD	FLAT:__catchsym$??$_Insert_string@DU?$char_traits@D@std@@I@std@@YAAAV?$basic_ostream@DU?$char_traits@D@std@@@0@AAV10@QBDI@Z$10
__catchsym$??$_Insert_string@DU?$char_traits@D@std@@I@std@@YAAAV?$basic_ostream@DU?$char_traits@D@std@@@0@AAV10@QBDI@Z$10 DQ 00000000000000040r ; 3.16202e-322
	DD	00H
	DD	FLAT:__catch$??$_Insert_string@DU?$char_traits@D@std@@I@std@@YAAAV?$basic_ostream@DU?$char_traits@D@std@@@0@AAV10@QBDI@Z$0
xdata$x	ENDS
;	COMDAT xdata$x
xdata$x	SEGMENT
__ehfuncinfo$??1sentry@?$basic_istream@DU?$char_traits@D@std@@@std@@QAE@XZ DQ 00000000119930522r ; 2.33398e-314
	DD	FLAT:__unwindtable$??1sentry@?$basic_istream@DU?$char_traits@D@std@@@std@@QAE@XZ
	DQ	00000000000000000r		; 0
	DQ	00000000000000000r		; 0
	DQ	00000000500000000r		; 1.061e-313
__unwindtable$??1sentry@?$basic_istream@DU?$char_traits@D@std@@@std@@QAE@XZ DD 0ffffffffH
	DD	FLAT:___std_terminate
xdata$x	ENDS
;	COMDAT xdata$x
xdata$x	SEGMENT
__ehfuncinfo$??0sentry@?$basic_istream@DU?$char_traits@D@std@@@std@@QAE@AAV12@_N@Z DQ 00000000119930522r ; 2.33398e-314
	DD	FLAT:__unwindtable$??0sentry@?$basic_istream@DU?$char_traits@D@std@@@std@@QAE@AAV12@_N@Z
	DQ	00000000000000000r		; 0
	DQ	00000000000000000r		; 0
	DQ	00000000100000000r		; 2.122e-314
__unwindtable$??0sentry@?$basic_istream@DU?$char_traits@D@std@@@std@@QAE@AAV12@_N@Z DD 0ffffffffH
	DD	FLAT:__unwindfunclet$??0sentry@?$basic_istream@DU?$char_traits@D@std@@@std@@QAE@AAV12@_N@Z$0
xdata$x	ENDS
;	COMDAT xdata$x
xdata$x	SEGMENT
__ehfuncinfo$??1_Sentry_base@?$basic_istream@DU?$char_traits@D@std@@@std@@QAE@XZ DQ 00000000019930522r ; 2.11987e-315
	DQ	00000000000000000r		; 0
	DQ	00000000000000000r		; 0
	DQ	00000000000000000r		; 0
	DD	05H
xdata$x	ENDS
; Function compile flags: /Ogtp
; File f:\users\krzysztof\documents\szko³a\2017-2018\informatyka\labolatorium\ruletka\ruletka\main.cpp
;	COMDAT ??__EG³os@@YAXXZ
text$di	SEGMENT
??__EG³os@@YAXXZ PROC					; `dynamic initializer for 'G³os'', COMDAT

; 69   : string G³os;

  00000	68 00 00 00 00	 push	 OFFSET ??__FG³os@@YAXXZ	; `dynamic atexit destructor for 'G³os''
  00005	e8 00 00 00 00	 call	 _atexit
  0000a	59		 pop	 ecx
  0000b	c3		 ret	 0
??__EG³os@@YAXXZ ENDP					; `dynamic initializer for 'G³os''
text$di	ENDS
; Function compile flags: /Ogtp
; File f:\program files (x86)\microsoft visual studio\2017\enterprise\vc\tools\msvc\14.11.25503\include\xstring
; File f:\program files (x86)\microsoft visual studio\2017\enterprise\vc\tools\msvc\14.11.25503\include\xmemory0
; File f:\program files (x86)\microsoft visual studio\2017\enterprise\vc\tools\msvc\14.11.25503\include\xstring
; File f:\program files (x86)\microsoft visual studio\2017\enterprise\vc\tools\msvc\14.11.25503\include\xmemory0
; File f:\program files (x86)\microsoft visual studio\2017\enterprise\vc\tools\msvc\14.11.25503\include\xstring
; File f:\program files (x86)\microsoft visual studio\2017\enterprise\vc\tools\msvc\14.11.25503\include\iosfwd
; File f:\program files (x86)\microsoft visual studio\2017\enterprise\vc\tools\msvc\14.11.25503\include\xstring
; File f:\program files (x86)\microsoft visual studio\2017\enterprise\vc\tools\msvc\14.11.25503\include\xmemory0
;	COMDAT ??__FG³os@@YAXXZ
text$yd	SEGMENT
??__FG³os@@YAXXZ PROC					; `dynamic atexit destructor for 'G³os'', COMDAT
; File f:\program files (x86)\microsoft visual studio\2017\enterprise\vc\tools\msvc\14.11.25503\include\xstring

; 3707 : 		this->_Orphan_all();

  00000	e8 00 00 00 00	 call	 ?_Orphan_all@?$_String_alloc@U?$_String_base_types@DV?$allocator@D@std@@@std@@@std@@QAEXXZ ; std::_String_alloc<std::_String_base_types<char,std::allocator<char> > >::_Orphan_all

; 1617 : 		return (_BUF_SIZE <= _Myres);

  00005	a1 14 00 00 00	 mov	 eax, DWORD PTR ?G³os@@3V?$basic_string@DU?$char_traits@D@std@@V?$allocator@D@2@@std@@A+20
  0000a	83 f8 10	 cmp	 eax, 16			; 00000010H

; 3709 : 		if (_My_data._Large_string_engaged())

  0000d	72 31		 jb	 SHORT $LN30@dynamic
; File f:\program files (x86)\microsoft visual studio\2017\enterprise\vc\tools\msvc\14.11.25503\include\xmemory0

; 941  : 		_Deallocate(_Ptr, _Count, sizeof(_Ty));

  0000f	8b 0d 00 00 00
	00		 mov	 ecx, DWORD PTR ?G³os@@3V?$basic_string@DU?$char_traits@D@std@@V?$allocator@D@2@@std@@A
; File f:\program files (x86)\microsoft visual studio\2017\enterprise\vc\tools\msvc\14.11.25503\include\xstring

; 3714 : 			_Al.deallocate(_Ptr, _My_data._Myres + 1);

  00015	40		 inc	 eax
; File f:\program files (x86)\microsoft visual studio\2017\enterprise\vc\tools\msvc\14.11.25503\include\xmemory0

; 107  : 	if (_BIG_ALLOCATION_THRESHOLD <= _Count * _Sz)

  00016	3d 00 10 00 00	 cmp	 eax, 4096		; 00001000H
  0001b	72 1a		 jb	 SHORT $LN33@dynamic

; 108  : 		{	// deallocate large block
; 109  : 		const uintptr_t _Ptr_user = reinterpret_cast<uintptr_t>(_Ptr);
; 110  : 		if ((_Ptr_user & (_BIG_ALLOCATION_ALIGNMENT - 1)) != 0)

  0001d	f6 c1 1f	 test	 cl, 31			; 0000001fH
  00020	75 3e		 jne	 SHORT $_Invalid_parameter$52

; 111  : 			{
; 112  : 			goto _Invalid_parameter;
; 113  : 			}
; 114  : 
; 115  : 		const uintptr_t _Ptr_ptr = _Ptr_user - sizeof(void *);
; 116  : 		const uintptr_t _Ptr_container =
; 117  : 			*reinterpret_cast<uintptr_t *>(_Ptr_ptr);

  00022	8b 41 fc	 mov	 eax, DWORD PTR [ecx-4]

; 118  : 
; 119  :  #ifdef _DEBUG
; 120  : 		// If the following asserts, it likely means that we are performing
; 121  : 		// an aligned delete on memory coming from an unaligned allocation.
; 122  : 		if (reinterpret_cast<uintptr_t *>(_Ptr_ptr)[-1] != _BIG_ALLOCATION_SENTINEL)
; 123  : 			{
; 124  : 			goto _Invalid_parameter;
; 125  : 			}
; 126  :  #endif /* _DEBUG */
; 127  : 
; 128  : 		// Extra paranoia on aligned allocation/deallocation
; 129  : 		if (_Ptr_container >= _Ptr_user)

  00025	3b c1		 cmp	 eax, ecx
  00027	73 37		 jae	 SHORT $_Invalid_parameter$52

; 130  : 			{
; 131  : 			goto _Invalid_parameter;
; 132  : 			}
; 133  : 
; 134  :  #ifdef _DEBUG
; 135  : 		if (2 * sizeof(void *) > _Ptr_user - _Ptr_container)
; 136  :  #else /* _DEBUG */
; 137  : 		if (sizeof(void *) > _Ptr_user - _Ptr_container)

  00029	2b c8		 sub	 ecx, eax
  0002b	83 f9 04	 cmp	 ecx, 4
  0002e	72 30		 jb	 SHORT $_Invalid_parameter$52

; 138  :  #endif /* _DEBUG */
; 139  : 			{
; 140  : 			goto _Invalid_parameter;
; 141  : 			}
; 142  : 
; 143  : 		if (_Ptr_user - _Ptr_container > _NON_USER_SIZE)

  00030	83 f9 23	 cmp	 ecx, 35			; 00000023H
  00033	77 2b		 ja	 SHORT $_Invalid_parameter$52

; 144  : 			{
; 145  : 			goto _Invalid_parameter;
; 146  : 			}
; 147  : 
; 148  : 		_Ptr = reinterpret_cast<void *>(_Ptr_container);

  00035	8b c8		 mov	 ecx, eax
$LN33@dynamic:

; 149  : 		}
; 150  : 
; 151  : 	::operator delete(_Ptr);

  00037	51		 push	 ecx
  00038	e8 00 00 00 00	 call	 ??3@YAXPAX@Z		; operator delete
  0003d	83 c4 04	 add	 esp, 4
$LN30@dynamic:
; File f:\program files (x86)\microsoft visual studio\2017\enterprise\vc\tools\msvc\14.11.25503\include\xstring

; 3717 : 		_My_data._Mysize = 0;

  00040	c7 05 10 00 00
	00 00 00 00 00	 mov	 DWORD PTR ?G³os@@3V?$basic_string@DU?$char_traits@D@std@@V?$allocator@D@2@@std@@A+16, 0

; 3718 : 		_My_data._Myres = this->_BUF_SIZE - 1;

  0004a	c7 05 14 00 00
	00 0f 00 00 00	 mov	 DWORD PTR ?G³os@@3V?$basic_string@DU?$char_traits@D@std@@V?$allocator@D@2@@std@@A+20, 15 ; 0000000fH
; File f:\program files (x86)\microsoft visual studio\2017\enterprise\vc\tools\msvc\14.11.25503\include\iosfwd

; 517  : 		_Left = _Right;

  00054	c6 05 00 00 00
	00 00		 mov	 BYTE PTR ?G³os@@3V?$basic_string@DU?$char_traits@D@std@@V?$allocator@D@2@@std@@A, 0
; File f:\program files (x86)\microsoft visual studio\2017\enterprise\vc\tools\msvc\14.11.25503\include\xstring

; 2247 : 		}

  0005b	e9 00 00 00 00	 jmp	 ??1?$_String_alloc@U?$_String_base_types@DV?$allocator@D@std@@@std@@@std@@QAE@XZ
$_Invalid_parameter$52:
; File f:\program files (x86)\microsoft visual studio\2017\enterprise\vc\tools\msvc\14.11.25503\include\xmemory0

; 155  : 	_SCL_SECURE_INVALID_ARGUMENT_NO_ASSERT;

  00060	ff 25 00 00 00
	00		 jmp	 DWORD PTR __imp___invalid_parameter_noinfo_noreturn
??__FG³os@@YAXXZ ENDP					; `dynamic atexit destructor for 'G³os''
text$yd	ENDS
; Function compile flags: /Ogtp
; File f:\users\krzysztof\documents\szko³a\2017-2018\informatyka\labolatorium\ruletka\ruletka\main.cpp
; File c:\program files (x86)\windows kits\10\include\10.0.16299.0\ucrt\time.h
; File f:\users\krzysztof\documents\szko³a\2017-2018\informatyka\labolatorium\ruletka\ruletka\main.cpp
; File f:\program files (x86)\microsoft visual studio\2017\enterprise\vc\tools\msvc\14.11.25503\include\fstream
; File f:\users\krzysztof\documents\szko³a\2017-2018\informatyka\labolatorium\ruletka\ruletka\main.cpp
; File f:\program files (x86)\microsoft visual studio\2017\enterprise\vc\tools\msvc\14.11.25503\include\fstream
; File f:\users\krzysztof\documents\szko³a\2017-2018\informatyka\labolatorium\ruletka\ruletka\main.cpp
; File f:\program files (x86)\microsoft visual studio\2017\enterprise\vc\tools\msvc\14.11.25503\include\xstring
; File f:\program files (x86)\microsoft visual studio\2017\enterprise\vc\tools\msvc\14.11.25503\include\iosfwd
; File f:\users\krzysztof\documents\szko³a\2017-2018\informatyka\labolatorium\ruletka\ruletka\main.cpp
; File f:\program files (x86)\microsoft visual studio\2017\enterprise\vc\tools\msvc\14.11.25503\include\xstring
; File f:\users\krzysztof\documents\szko³a\2017-2018\informatyka\labolatorium\ruletka\ruletka\main.cpp
; File f:\program files (x86)\microsoft visual studio\2017\enterprise\vc\tools\msvc\14.11.25503\include\xstring
; File f:\program files (x86)\microsoft visual studio\2017\enterprise\vc\tools\msvc\14.11.25503\include\xmemory0
; File f:\program files (x86)\microsoft visual studio\2017\enterprise\vc\tools\msvc\14.11.25503\include\xstring
; File f:\program files (x86)\microsoft visual studio\2017\enterprise\vc\tools\msvc\14.11.25503\include\xmemory0
; File f:\program files (x86)\microsoft visual studio\2017\enterprise\vc\tools\msvc\14.11.25503\include\fstream
; File f:\program files (x86)\microsoft visual studio\2017\enterprise\vc\tools\msvc\14.11.25503\include\xstring
; File f:\program files (x86)\microsoft visual studio\2017\enterprise\vc\tools\msvc\14.11.25503\include\iosfwd
; File f:\program files (x86)\microsoft visual studio\2017\enterprise\vc\tools\msvc\14.11.25503\include\fstream
; File f:\users\krzysztof\documents\szko³a\2017-2018\informatyka\labolatorium\ruletka\ruletka\main.cpp
; File f:\program files (x86)\microsoft visual studio\2017\enterprise\vc\tools\msvc\14.11.25503\include\xmemory0
; File f:\users\krzysztof\documents\szko³a\2017-2018\informatyka\labolatorium\ruletka\ruletka\main.cpp
;	COMDAT _main
_TEXT	SEGMENT
_wylosowana_liczba$ = -432				; size = 4
_this$ = -428						; size = 4
_kwota_zak³adu$ = -428					; size = 4
$T1 = -424						; size = 4
_iloœæ_pieniêdzy$ = -424				; size = 4
_co_kontynuowaæ$ = -417					; size = 1
_log_ogólny$ = -416					; size = 176
_log$ = -240						; size = 192
_typ_zak³adu$ = -48					; size = 24
_hCCI$10 = -24						; size = 8
_wygrana$ = -20						; size = 4
__$ArrayPad$ = -16					; size = 4
__$EHRec$ = -12						; size = 12
_main	PROC						; COMDAT

; 73   : {

  00000	55		 push	 ebp
  00001	8b ec		 mov	 ebp, esp
  00003	6a ff		 push	 -1
  00005	68 00 00 00 00	 push	 __ehhandler$_main
  0000a	64 a1 00 00 00
	00		 mov	 eax, DWORD PTR fs:0
  00010	50		 push	 eax
  00011	81 ec a4 01 00
	00		 sub	 esp, 420		; 000001a4H
  00017	a1 00 00 00 00	 mov	 eax, DWORD PTR ___security_cookie
  0001c	33 c5		 xor	 eax, ebp
  0001e	89 45 f0	 mov	 DWORD PTR __$ArrayPad$[ebp], eax
  00021	56		 push	 esi
  00022	50		 push	 eax
  00023	8d 45 f4	 lea	 eax, DWORD PTR __$EHRec$[ebp]
  00026	64 a3 00 00 00
	00		 mov	 DWORD PTR fs:0, eax

; 74   : 	//Inicjowanie funkcji
; 75   : 	setlocale(LC_ALL, "polish"); // W celu polskich liter w konsoli

  0002c	68 00 00 00 00	 push	 OFFSET ??_C@_06JGCGFIEG@polish?$AA@
  00031	6a 00		 push	 0
  00033	c7 85 58 fe ff
	ff 00 00 00 00	 mov	 DWORD PTR $T1[ebp], 0
  0003d	ff 15 00 00 00
	00		 call	 DWORD PTR __imp__setlocale
; File c:\program files (x86)\windows kits\10\include\10.0.16299.0\ucrt\time.h

; 535  :             return _time64(_Time);

  00043	6a 00		 push	 0
  00045	ff 15 00 00 00
	00		 call	 DWORD PTR __imp___time64
; File f:\users\krzysztof\documents\szko³a\2017-2018\informatyka\labolatorium\ruletka\ruletka\main.cpp

; 76   : 	srand((unsigned int)time(nullptr)); //Zainicjowanie generatorza LCG (Liniowy Generator Kongruentny) dla ma³o wa¿nych liczb

  0004b	50		 push	 eax
  0004c	ff 15 00 00 00
	00		 call	 DWORD PTR __imp__srand
  00052	83 c4 10	 add	 esp, 16			; 00000010H

; 377  : 	HANDLE hConsoleOut = GetStdHandle(STD_OUTPUT_HANDLE); //Stworzenie zmiennej typu uchwyt i przypisanie do standardowego wyjœcia

  00055	6a f5		 push	 -11			; fffffff5H
  00057	ff 15 00 00 00
	00		 call	 DWORD PTR __imp__GetStdHandle@4
  0005d	8b f0		 mov	 esi, eax

; 378  : 	CONSOLE_CURSOR_INFO hCCI; //Stworzenie zmiennej typu informacji o kursorze tekstowym w konsoli
; 379  : 	GetConsoleCursorInfo(hConsoleOut, &hCCI); //Przypisanie do zmiennej informacji o kursorze tekstowym w konsoli

  0005f	8d 45 e8	 lea	 eax, DWORD PTR _hCCI$10[ebp]
  00062	50		 push	 eax
  00063	56		 push	 esi
  00064	ff 15 00 00 00
	00		 call	 DWORD PTR __imp__GetConsoleCursorInfo@8

; 380  : 	if (hCCI.bVisible != TRUE) //Sprawdzenie czy wartoœæ widocznoœci kursorsora tekstego w konsoli jest ró¿na od prawdy

  0006a	83 7d ec 01	 cmp	 DWORD PTR _hCCI$10[ebp+4], 1
  0006e	74 12		 je	 SHORT $LN12@main

; 381  : 	{
; 382  : 		hCCI.bVisible = TRUE;//Je¿eli tak, to zmiena widocznoœci kursora na widoczny
; 383  : 		SetConsoleCursorInfo(hConsoleOut, &hCCI); //I ustawienie widocznoœci kursora zgodnie z poprzedni¹ zmienn¹

  00070	8d 45 e8	 lea	 eax, DWORD PTR _hCCI$10[ebp]
  00073	c7 45 ec 01 00
	00 00		 mov	 DWORD PTR _hCCI$10[ebp+4], 1
  0007a	50		 push	 eax
  0007b	56		 push	 esi
  0007c	ff 15 00 00 00
	00		 call	 DWORD PTR __imp__SetConsoleCursorInfo@8
$LN12@main:

; 77   : 	Show_Cursor(); //Pokazanie kursora tekstowego w konsoli
; 78   : 
; 79   : //	string link = "https://github.com/talez2709/Ruletka/raw/master/Ruletka/G%C5%82os/Agata%20_1/0.wav";
; 80   : //	string save = "a/bankrut.wav";
; 81   : 
; 82   : 	//if (URLDownloadToFileA(nullptr, link.c_str(), save.c_str(), 0, nullptr) == S_OK) {
; 83   : 	//}
; 84   : 	//else {
; 85   : 	//	cout << "B³¹d pobierania" << endl;
; 86   : 	//}
; 87   : 
; 88   : 	SprawdŸ_ustawienia();

  00082	e8 00 00 00 00	 call	 ?SprawdŸ_ustawienia@@YAXXZ ; SprawdŸ_ustawienia

; 89   : 	SprawdŸ_Pliki();

  00087	e8 00 00 00 00	 call	 ?SprawdŸ_Pliki@@YAXXZ	; SprawdŸ_Pliki
  0008c	68 b0 00 00 00	 push	 176			; 000000b0H
  00091	8d 85 60 fe ff
	ff		 lea	 eax, DWORD PTR _log_ogólny$[ebp]
  00097	6a 00		 push	 0
  00099	50		 push	 eax
  0009a	e8 00 00 00 00	 call	 _memset

; 109  : 	ofstream log_ogólny; //Utworzenie typu do celu zapisu do pliku

  0009f	83 c4 08	 add	 esp, 8
  000a2	8d 8d 60 fe ff
	ff		 lea	 ecx, DWORD PTR _log_ogólny$[ebp]
  000a8	e8 00 00 00 00	 call	 ??0?$basic_ofstream@DU?$char_traits@D@std@@@std@@QAE@XZ ; std::basic_ofstream<char,std::char_traits<char> >::basic_ofstream<char,std::char_traits<char> >
; File f:\program files (x86)\microsoft visual studio\2017\enterprise\vc\tools\msvc\14.11.25503\include\fstream

; 1138 : 		if (_Filebuffer.open(_Filename, _Mode | ios_base::out, _Prot) == 0)

  000ad	51		 push	 ecx
  000ae	6a 0a		 push	 10			; 0000000aH
  000b0	68 00 00 00 00	 push	 OFFSET ??_C@_0P@GMFAENOC@log_og?slny?4txt?$AA@
  000b5	8d 8d 64 fe ff
	ff		 lea	 ecx, DWORD PTR _log_ogólny$[ebp+4]
; File f:\users\krzysztof\documents\szko³a\2017-2018\informatyka\labolatorium\ruletka\ruletka\main.cpp

; 109  : 	ofstream log_ogólny; //Utworzenie typu do celu zapisu do pliku

  000bb	c7 45 fc 00 00
	00 00		 mov	 DWORD PTR __$EHRec$[ebp+8], 0
; File f:\program files (x86)\microsoft visual studio\2017\enterprise\vc\tools\msvc\14.11.25503\include\fstream

; 1138 : 		if (_Filebuffer.open(_Filename, _Mode | ios_base::out, _Prot) == 0)

  000c2	e8 00 00 00 00	 call	 ?open@?$basic_filebuf@DU?$char_traits@D@std@@@std@@QAEPAV12@PBDHH@Z ; std::basic_filebuf<char,std::char_traits<char> >::open
  000c7	85 c0		 test	 eax, eax

; 1139 : 			_Myios::setstate(ios_base::failbit);

  000c9	8d 8d 60 fe ff
	ff		 lea	 ecx, DWORD PTR _log_ogólny$[ebp]
  000cf	8b 85 60 fe ff
	ff		 mov	 eax, DWORD PTR _log_ogólny$[ebp]
  000d5	6a 00		 push	 0
  000d7	8b 40 04	 mov	 eax, DWORD PTR [eax+4]
  000da	75 0c		 jne	 SHORT $LN18@main
  000dc	6a 02		 push	 2
  000de	03 c8		 add	 ecx, eax
  000e0	ff 15 00 00 00
	00		 call	 DWORD PTR __imp_?setstate@?$basic_ios@DU?$char_traits@D@std@@@std@@QAEXH_N@Z

; 1140 : 		else

  000e6	eb 0a		 jmp	 SHORT $LN19@main
$LN18@main:

; 1141 : 			_Myios::clear();	// added with C++11

  000e8	6a 00		 push	 0
  000ea	03 c8		 add	 ecx, eax
  000ec	ff 15 00 00 00
	00		 call	 DWORD PTR __imp_?clear@?$basic_ios@DU?$char_traits@D@std@@@std@@QAEXH_N@Z
$LN19@main:
  000f2	68 c0 00 00 00	 push	 192			; 000000c0H
  000f7	8d 85 10 ff ff
	ff		 lea	 eax, DWORD PTR _log$[ebp]
  000fd	6a 00		 push	 0
  000ff	50		 push	 eax
  00100	e8 00 00 00 00	 call	 _memset
  00105	83 c4 0c	 add	 esp, 12			; 0000000cH

; 1196 : 		{	// construct unopened

  00108	c7 85 10 ff ff
	ff 00 00 00 00	 mov	 DWORD PTR _log$[ebp], OFFSET ??_8?$basic_fstream@DU?$char_traits@D@std@@@std@@7B?$basic_istream@DU?$char_traits@D@std@@@1@@
  00112	8d 4d 88	 lea	 ecx, DWORD PTR _log$[ebp+120]
  00115	c7 85 20 ff ff
	ff 00 00 00 00	 mov	 DWORD PTR _log$[ebp+16], OFFSET ??_8?$basic_fstream@DU?$char_traits@D@std@@@std@@7B?$basic_ostream@DU?$char_traits@D@std@@@1@@
  0011f	ff 15 00 00 00
	00		 call	 DWORD PTR __imp_??0?$basic_ios@DU?$char_traits@D@std@@@std@@IAE@XZ
  00125	6a 00		 push	 0
  00127	8d 85 28 ff ff
	ff		 lea	 eax, DWORD PTR _log$[ebp+24]
  0012d	c6 45 fc 01	 mov	 BYTE PTR __$EHRec$[ebp+8], 1
  00131	50		 push	 eax
  00132	8d 8d 10 ff ff
	ff		 lea	 ecx, DWORD PTR _log$[ebp]
  00138	c7 85 58 fe ff
	ff 01 00 00 00	 mov	 DWORD PTR $T1[ebp], 1

; 1142 : 		}
; 1143 : 
; 1144 : 	void open(const string& _Str,
; 1145 : 		ios_base::openmode _Mode = ios_base::out,
; 1146 : 		int _Prot = (int)ios_base::_Openprot)
; 1147 : 		{	// open a C stream with specified mode
; 1148 : 		open(_Str.c_str(), _Mode, _Prot);
; 1149 : 		}
; 1150 : 
; 1151 :  #if _HAS_OLD_IOSTREAMS_MEMBERS
; 1152 : 	void open(const char *_Filename, ios_base::open_mode _Mode)
; 1153 : 		{	// open a C stream with specified mode (old style)
; 1154 : 		open(_Filename, (ios_base::openmode)_Mode);
; 1155 : 		}
; 1156 :  #endif /* _HAS_OLD_IOSTREAMS_MEMBERS */
; 1157 : 
; 1158 : 	void close()
; 1159 : 		{	// close the C stream
; 1160 : 		if (_Filebuffer.close() == 0)
; 1161 : 			_Myios::setstate(ios_base::failbit);
; 1162 : 		}
; 1163 : 
; 1164 : private:
; 1165 : 	_Myfb _Filebuffer;	// the file buffer
; 1166 : 	};
; 1167 : 
; 1168 : 	// basic_ofstream TEMPLATE OPERATORS
; 1169 : template<class _Elem,
; 1170 : 	class _Traits> inline
; 1171 : 	void swap(basic_ofstream<_Elem, _Traits>& _Left,
; 1172 : 		basic_ofstream<_Elem, _Traits>& _Right)
; 1173 : 	{	// swap _Left and _Right basic_ofstreams
; 1174 : 	_Left.swap(_Right);
; 1175 : 	}
; 1176 : 
; 1177 : 		// TEMPLATE CLASS basic_fstream
; 1178 : template<class _Elem,
; 1179 : 	class _Traits>
; 1180 : 	class basic_fstream
; 1181 : 		: public basic_iostream<_Elem, _Traits>
; 1182 : 	{	// input/output stream associated with a C stream
; 1183 : public:
; 1184 : 	typedef basic_fstream<_Elem, _Traits> _Myt;
; 1185 : 	typedef basic_iostream<_Elem, _Traits> _Mybase;
; 1186 : 	typedef basic_filebuf<_Elem, _Traits> _Myfb;
; 1187 : 	typedef basic_ios<_Elem, _Traits> _Myios;
; 1188 : 	typedef _Elem char_type;
; 1189 : 	typedef _Traits traits_type;
; 1190 : 	typedef typename _Traits::int_type int_type;
; 1191 : 	typedef typename _Traits::pos_type pos_type;
; 1192 : 	typedef typename _Traits::off_type off_type;
; 1193 : 
; 1194 : 	basic_fstream()
; 1195 : 		: _Mybase(&_Filebuffer)

  00142	ff 15 00 00 00
	00		 call	 DWORD PTR __imp_??0?$basic_iostream@DU?$char_traits@D@std@@@std@@QAE@PAV?$basic_streambuf@DU?$char_traits@D@std@@@1@@Z
  00148	c7 45 fc 02 00
	00 00		 mov	 DWORD PTR __$EHRec$[ebp+8], 2

; 1196 : 		{	// construct unopened

  0014f	8b 85 10 ff ff
	ff		 mov	 eax, DWORD PTR _log$[ebp]
  00155	8b 40 04	 mov	 eax, DWORD PTR [eax+4]
  00158	c7 84 05 10 ff
	ff ff 00 00 00
	00		 mov	 DWORD PTR _log$[ebp+eax], OFFSET ??_7?$basic_fstream@DU?$char_traits@D@std@@@std@@6B@
  00163	8b 85 10 ff ff
	ff		 mov	 eax, DWORD PTR _log$[ebp]
  00169	8b 48 04	 mov	 ecx, DWORD PTR [eax+4]
  0016c	8d 41 88	 lea	 eax, DWORD PTR [ecx-120]
  0016f	89 84 0d 0c ff
	ff ff		 mov	 DWORD PTR _log$[ebp+ecx-4], eax
  00176	8d 85 28 ff ff
	ff		 lea	 eax, DWORD PTR _log$[ebp+24]

; 155  : 		: _Mysb()

  0017c	8b c8		 mov	 ecx, eax

; 1196 : 		{	// construct unopened

  0017e	89 85 54 fe ff
	ff		 mov	 DWORD PTR _this$[ebp], eax

; 155  : 		: _Mysb()

  00184	ff 15 00 00 00
	00		 call	 DWORD PTR __imp_??0?$basic_streambuf@DU?$char_traits@D@std@@@std@@IAE@XZ
  0018a	c6 45 fc 03	 mov	 BYTE PTR __$EHRec$[ebp+8], 3

; 628  : 		_Mysb::_Init();	// initialize stream buffer base object

  0018e	8d 8d 28 ff ff
	ff		 lea	 ecx, DWORD PTR _log$[ebp+24]

; 156  : 		{	// construct from pointer to C stream

  00194	c7 85 28 ff ff
	ff 00 00 00 00	 mov	 DWORD PTR _log$[ebp+24], OFFSET ??_7?$basic_filebuf@DU?$char_traits@D@std@@@std@@6B@

; 625  : 		_Closef = _Which == _Openfl;

  0019e	c6 85 70 ff ff
	ff 00		 mov	 BYTE PTR _log$[ebp+96], 0

; 626  : 		_Wrotesome = false;

  001a5	c6 85 65 ff ff
	ff 00		 mov	 BYTE PTR _log$[ebp+85], 0

; 627  : 
; 628  : 		_Mysb::_Init();	// initialize stream buffer base object

  001ac	ff 15 00 00 00
	00		 call	 DWORD PTR __imp_?_Init@?$basic_streambuf@DU?$char_traits@D@std@@@std@@IAEXXZ

; 629  : 
; 630  :  #ifndef _IORCNT
; 631  :   #define _IORCNT	_IOCNT	/* read and write counts are the same */
; 632  :   #define _IOWCNT _IOCNT
; 633  :  #endif /* _IORCNT */
; 634  : 
; 635  : 		if (_File != 0 && sizeof (_Elem) == 1)
; 636  : 			{	// point inside C stream with [first, first + count) buffer
; 637  : 			_Elem **_Pb = 0;
; 638  : 			_Elem **_Pn = 0;
; 639  : 			int *_Nr = 0;
; 640  : 
; 641  : 			::_get_stream_buffer_pointers(
; 642  : 				_File,
; 643  : 				reinterpret_cast<char***>(&_Pb),
; 644  : 				reinterpret_cast<char***>(&_Pn),
; 645  : 				&_Nr);
; 646  : 			int *_Nw = _Nr;
; 647  : 
; 648  : 			_Mysb::_Init(_Pb, _Pn, _Nr, _Pb, _Pn, _Nw);
; 649  : 			}
; 650  : 
; 651  : 		_Myfile = _File;
; 652  : 		_State = _Stinit;

  001b2	a1 00 00 00 00	 mov	 eax, DWORD PTR ?_Stinit@?1??_Init@?$basic_filebuf@DU?$char_traits@D@std@@@std@@IAEXPAU_iobuf@@W4_Initfl@23@@Z@4U_Mbstatet@@A
  001b7	89 85 68 ff ff
	ff		 mov	 DWORD PTR _log$[ebp+88], eax
  001bd	a1 04 00 00 00	 mov	 eax, DWORD PTR ?_Stinit@?1??_Init@?$basic_filebuf@DU?$char_traits@D@std@@@std@@IAEXPAU_iobuf@@W4_Initfl@23@@Z@4U_Mbstatet@@A+4
  001c2	c7 85 74 ff ff
	ff 00 00 00 00	 mov	 DWORD PTR _log$[ebp+100], 0
  001cc	89 85 6c ff ff
	ff		 mov	 DWORD PTR _log$[ebp+92], eax

; 653  : 		_Pcvt = 0;	// pointer to codecvt facet

  001d2	c7 85 60 ff ff
	ff 00 00 00 00	 mov	 DWORD PTR _log$[ebp+80], 0
; File f:\users\krzysztof\documents\szko³a\2017-2018\informatyka\labolatorium\ruletka\ruletka\main.cpp

; 112  : 	int iloœæ_pieniêdzy = kwota_pocz¹tkowa, kwota_zak³adu, wylosowana_liczba, wygrana; //Zmienne do których wczytuje siê wartoœci liczbowe pobrane od u¿ytkownika takie jak kwota zak³adu a przechowuje iloœæ posiadanych pieniêdzy a tak¿e przechowuje wyniki funkcji losowania liczby z ruletki i kwote wygran¹ z zak³adu

  001dc	a1 00 00 00 00	 mov	 eax, DWORD PTR ?kwota_pocz¹tkowa@@3HA ; kwota_pocz¹tkowa
  001e1	89 85 58 fe ff
	ff		 mov	 DWORD PTR _iloœæ_pieniêdzy$[ebp], eax
; File f:\program files (x86)\microsoft visual studio\2017\enterprise\vc\tools\msvc\14.11.25503\include\xstring

; 3698 : 		_My_data._Mysize = 0;

  001e7	c7 45 e0 00 00
	00 00		 mov	 DWORD PTR _typ_zak³adu$[ebp+16], 0

; 3699 : 		_My_data._Myres = this->_BUF_SIZE - 1;

  001ee	c7 45 e4 0f 00
	00 00		 mov	 DWORD PTR _typ_zak³adu$[ebp+20], 15 ; 0000000fH
; File f:\program files (x86)\microsoft visual studio\2017\enterprise\vc\tools\msvc\14.11.25503\include\iosfwd

; 517  : 		_Left = _Right;

  001f5	c6 45 d0 00	 mov	 BYTE PTR _typ_zak³adu$[ebp], 0
; File f:\users\krzysztof\documents\szko³a\2017-2018\informatyka\labolatorium\ruletka\ruletka\main.cpp

; 116  : 	Wczytaj_z_pliku(log_ogólny, log, co_kontynuowaæ, iloœæ_pieniêdzy, kwota_zak³adu, wylosowana_liczba, typ_zak³adu);

  001f9	8d 45 d0	 lea	 eax, DWORD PTR _typ_zak³adu$[ebp]
  001fc	c6 45 fc 05	 mov	 BYTE PTR __$EHRec$[ebp+8], 5
  00200	50		 push	 eax
  00201	8d 85 50 fe ff
	ff		 lea	 eax, DWORD PTR _wylosowana_liczba$[ebp]
  00207	50		 push	 eax
  00208	8d 85 54 fe ff
	ff		 lea	 eax, DWORD PTR _kwota_zak³adu$[ebp]
  0020e	50		 push	 eax
  0020f	8d 85 58 fe ff
	ff		 lea	 eax, DWORD PTR _iloœæ_pieniêdzy$[ebp]
  00215	50		 push	 eax
  00216	8d 85 5f fe ff
	ff		 lea	 eax, DWORD PTR _co_kontynuowaæ$[ebp]
  0021c	50		 push	 eax
  0021d	8d 95 10 ff ff
	ff		 lea	 edx, DWORD PTR _log$[ebp]
  00223	8d 8d 60 fe ff
	ff		 lea	 ecx, DWORD PTR _log_ogólny$[ebp]
  00229	e8 00 00 00 00	 call	 ?Wczytaj_z_pliku@@YAXAAV?$basic_ofstream@DU?$char_traits@D@std@@@std@@AAV?$basic_fstream@DU?$char_traits@D@std@@@2@AADAAH33AAV?$basic_string@DU?$char_traits@D@std@@V?$allocator@D@2@@2@@Z ; Wczytaj_z_pliku
  0022e	83 c4 14	 add	 esp, 20			; 00000014H
$LL4@main:

; 117  : 
; 118  : 	do
; 119  : 	{
; 120  : 		Pêtla_g³ówna(wygrana, kwota_zak³adu, iloœæ_pieniêdzy, log_ogólny, log, co_kontynuowaæ, typ_zak³adu, wylosowana_liczba);

  00231	8d 85 50 fe ff
	ff		 lea	 eax, DWORD PTR _wylosowana_liczba$[ebp]
  00237	50		 push	 eax
  00238	8d 45 d0	 lea	 eax, DWORD PTR _typ_zak³adu$[ebp]
  0023b	50		 push	 eax
  0023c	8d 85 5f fe ff
	ff		 lea	 eax, DWORD PTR _co_kontynuowaæ$[ebp]
  00242	50		 push	 eax
  00243	8d 85 10 ff ff
	ff		 lea	 eax, DWORD PTR _log$[ebp]
  00249	50		 push	 eax
  0024a	8d 85 60 fe ff
	ff		 lea	 eax, DWORD PTR _log_ogólny$[ebp]
  00250	50		 push	 eax
  00251	8d 85 58 fe ff
	ff		 lea	 eax, DWORD PTR _iloœæ_pieniêdzy$[ebp]
  00257	50		 push	 eax
  00258	8d 95 54 fe ff
	ff		 lea	 edx, DWORD PTR _kwota_zak³adu$[ebp]
  0025e	8d 4d ec	 lea	 ecx, DWORD PTR _wygrana$[ebp]
  00261	e8 00 00 00 00	 call	 ?Pêtla_g³ówna@@YAXAAH00AAV?$basic_ofstream@DU?$char_traits@D@std@@@std@@AAV?$basic_fstream@DU?$char_traits@D@std@@@2@AADAAV?$basic_string@DU?$char_traits@D@std@@V?$allocator@D@2@@2@0@Z ; Pêtla_g³ówna
  00266	83 c4 18	 add	 esp, 24			; 00000018H

; 121  : 		co_kontynuowaæ = 'n'; //Przypisanie znaku rozpoczêcia rundy od pocz¹tku

  00269	c6 85 5f fe ff
	ff 6e		 mov	 BYTE PTR _co_kontynuowaæ$[ebp], 110 ; 0000006eH

; 122  : 	} while (Czy_Kontynuowaæ(iloœæ_pieniêdzy)); //Pêtla dza³aj¹ca do czasu wartoœci fa³sz zwróconej przez funkcjê Czy_kontynuowaæ

  00270	8d 8d 58 fe ff
	ff		 lea	 ecx, DWORD PTR _iloœæ_pieniêdzy$[ebp]
  00276	e8 00 00 00 00	 call	 ?Czy_Kontynuowaæ@@YA_NABH@Z ; Czy_Kontynuowaæ
  0027b	84 c0		 test	 al, al
  0027d	75 b2		 jne	 SHORT $LL4@main

; 123  : 
; 124  : 	Koniec_gry(log_ogólny, log, iloœæ_pieniêdzy);

  0027f	8d 85 58 fe ff
	ff		 lea	 eax, DWORD PTR _iloœæ_pieniêdzy$[ebp]
  00285	50		 push	 eax
  00286	8d 95 10 ff ff
	ff		 lea	 edx, DWORD PTR _log$[ebp]
  0028c	8d 8d 60 fe ff
	ff		 lea	 ecx, DWORD PTR _log_ogólny$[ebp]
  00292	e8 00 00 00 00	 call	 ?Koniec_gry@@YAXAAV?$basic_ofstream@DU?$char_traits@D@std@@@std@@AAV?$basic_fstream@DU?$char_traits@D@std@@@2@AAH@Z ; Koniec_gry

; 126  : 	system("pause"); //Wywo³anie funkcji wymagaj¹cej do zamkniêcia naciœniêcie dowolnego klawisza

  00297	68 00 00 00 00	 push	 OFFSET ??_C@_05PDJBBECF@pause?$AA@
  0029c	ff 15 00 00 00
	00		 call	 DWORD PTR __imp__system
; File f:\program files (x86)\microsoft visual studio\2017\enterprise\vc\tools\msvc\14.11.25503\include\xstring

; 1617 : 		return (_BUF_SIZE <= _Myres);

  002a2	8b 45 e4	 mov	 eax, DWORD PTR _typ_zak³adu$[ebp+20]
; File f:\users\krzysztof\documents\szko³a\2017-2018\informatyka\labolatorium\ruletka\ruletka\main.cpp

; 126  : 	system("pause"); //Wywo³anie funkcji wymagaj¹cej do zamkniêcia naciœniêcie dowolnego klawisza

  002a5	83 c4 08	 add	 esp, 8
; File f:\program files (x86)\microsoft visual studio\2017\enterprise\vc\tools\msvc\14.11.25503\include\xstring

; 1617 : 		return (_BUF_SIZE <= _Myres);

  002a8	83 f8 10	 cmp	 eax, 16			; 00000010H

; 3709 : 		if (_My_data._Large_string_engaged())

  002ab	72 3e		 jb	 SHORT $LN87@main
; File f:\program files (x86)\microsoft visual studio\2017\enterprise\vc\tools\msvc\14.11.25503\include\xmemory0

; 941  : 		_Deallocate(_Ptr, _Count, sizeof(_Ty));

  002ad	8b 4d d0	 mov	 ecx, DWORD PTR _typ_zak³adu$[ebp]
; File f:\program files (x86)\microsoft visual studio\2017\enterprise\vc\tools\msvc\14.11.25503\include\xstring

; 3714 : 			_Al.deallocate(_Ptr, _My_data._Myres + 1);

  002b0	40		 inc	 eax
; File f:\program files (x86)\microsoft visual studio\2017\enterprise\vc\tools\msvc\14.11.25503\include\xmemory0

; 107  : 	if (_BIG_ALLOCATION_THRESHOLD <= _Count * _Sz)

  002b1	3d 00 10 00 00	 cmp	 eax, 4096		; 00001000H
  002b6	72 2a		 jb	 SHORT $LN90@main

; 108  : 		{	// deallocate large block
; 109  : 		const uintptr_t _Ptr_user = reinterpret_cast<uintptr_t>(_Ptr);
; 110  : 		if ((_Ptr_user & (_BIG_ALLOCATION_ALIGNMENT - 1)) != 0)

  002b8	f6 c1 1f	 test	 cl, 31			; 0000001fH
  002bb	0f 85 e9 00 00
	00		 jne	 $_Invalid_parameter$125

; 111  : 			{
; 112  : 			goto _Invalid_parameter;
; 113  : 			}
; 114  : 
; 115  : 		const uintptr_t _Ptr_ptr = _Ptr_user - sizeof(void *);
; 116  : 		const uintptr_t _Ptr_container =
; 117  : 			*reinterpret_cast<uintptr_t *>(_Ptr_ptr);

  002c1	8b 41 fc	 mov	 eax, DWORD PTR [ecx-4]

; 118  : 
; 119  :  #ifdef _DEBUG
; 120  : 		// If the following asserts, it likely means that we are performing
; 121  : 		// an aligned delete on memory coming from an unaligned allocation.
; 122  : 		if (reinterpret_cast<uintptr_t *>(_Ptr_ptr)[-1] != _BIG_ALLOCATION_SENTINEL)
; 123  : 			{
; 124  : 			goto _Invalid_parameter;
; 125  : 			}
; 126  :  #endif /* _DEBUG */
; 127  : 
; 128  : 		// Extra paranoia on aligned allocation/deallocation
; 129  : 		if (_Ptr_container >= _Ptr_user)

  002c4	3b c1		 cmp	 eax, ecx
  002c6	0f 83 de 00 00
	00		 jae	 $_Invalid_parameter$125

; 130  : 			{
; 131  : 			goto _Invalid_parameter;
; 132  : 			}
; 133  : 
; 134  :  #ifdef _DEBUG
; 135  : 		if (2 * sizeof(void *) > _Ptr_user - _Ptr_container)
; 136  :  #else /* _DEBUG */
; 137  : 		if (sizeof(void *) > _Ptr_user - _Ptr_container)

  002cc	2b c8		 sub	 ecx, eax
  002ce	83 f9 04	 cmp	 ecx, 4
  002d1	0f 82 d3 00 00
	00		 jb	 $_Invalid_parameter$125

; 138  :  #endif /* _DEBUG */
; 139  : 			{
; 140  : 			goto _Invalid_parameter;
; 141  : 			}
; 142  : 
; 143  : 		if (_Ptr_user - _Ptr_container > _NON_USER_SIZE)

  002d7	83 f9 23	 cmp	 ecx, 35			; 00000023H
  002da	0f 87 ca 00 00
	00		 ja	 $_Invalid_parameter$125

; 144  : 			{
; 145  : 			goto _Invalid_parameter;
; 146  : 			}
; 147  : 
; 148  : 		_Ptr = reinterpret_cast<void *>(_Ptr_container);

  002e0	8b c8		 mov	 ecx, eax
$LN90@main:

; 149  : 		}
; 150  : 
; 151  : 	::operator delete(_Ptr);

  002e2	51		 push	 ecx
  002e3	e8 00 00 00 00	 call	 ??3@YAXPAX@Z		; operator delete
  002e8	83 c4 04	 add	 esp, 4
$LN87@main:
; File f:\program files (x86)\microsoft visual studio\2017\enterprise\vc\tools\msvc\14.11.25503\include\fstream

; 1342 : 		{	// destroy the object

  002eb	8b 85 10 ff ff
	ff		 mov	 eax, DWORD PTR _log$[ebp]
; File f:\program files (x86)\microsoft visual studio\2017\enterprise\vc\tools\msvc\14.11.25503\include\xstring

; 3717 : 		_My_data._Mysize = 0;

  002f1	c7 45 e0 00 00
	00 00		 mov	 DWORD PTR _typ_zak³adu$[ebp+16], 0

; 3718 : 		_My_data._Myres = this->_BUF_SIZE - 1;

  002f8	c7 45 e4 0f 00
	00 00		 mov	 DWORD PTR _typ_zak³adu$[ebp+20], 15 ; 0000000fH
; File f:\program files (x86)\microsoft visual studio\2017\enterprise\vc\tools\msvc\14.11.25503\include\iosfwd

; 517  : 		_Left = _Right;

  002ff	c6 45 d0 00	 mov	 BYTE PTR _typ_zak³adu$[ebp], 0
; File f:\program files (x86)\microsoft visual studio\2017\enterprise\vc\tools\msvc\14.11.25503\include\fstream

; 1342 : 		{	// destroy the object

  00303	8b 40 04	 mov	 eax, DWORD PTR [eax+4]
  00306	c7 84 05 10 ff
	ff ff 00 00 00
	00		 mov	 DWORD PTR _log$[ebp+eax], OFFSET ??_7?$basic_fstream@DU?$char_traits@D@std@@@std@@6B@
  00311	8b 85 10 ff ff
	ff		 mov	 eax, DWORD PTR _log$[ebp]
  00317	8b 48 04	 mov	 ecx, DWORD PTR [eax+4]
  0031a	8d 41 88	 lea	 eax, DWORD PTR [ecx-120]
  0031d	89 84 0d 0c ff
	ff ff		 mov	 DWORD PTR _log$[ebp+ecx-4], eax

; 1343 : 		}

  00324	8d 8d 28 ff ff
	ff		 lea	 ecx, DWORD PTR _log$[ebp+24]
  0032a	e8 00 00 00 00	 call	 ??1?$basic_filebuf@DU?$char_traits@D@std@@@std@@UAE@XZ ; std::basic_filebuf<char,std::char_traits<char> >::~basic_filebuf<char,std::char_traits<char> >
  0032f	8d 8d 30 ff ff
	ff		 lea	 ecx, DWORD PTR _log$[ebp+32]
  00335	ff 15 00 00 00
	00		 call	 DWORD PTR __imp_??1?$basic_iostream@DU?$char_traits@D@std@@@std@@UAE@XZ
  0033b	8d 4d 88	 lea	 ecx, DWORD PTR _log$[ebp+120]
  0033e	ff 15 00 00 00
	00		 call	 DWORD PTR __imp_??1?$basic_ios@DU?$char_traits@D@std@@@std@@UAE@XZ

; 1121 : 		{	// destroy the object

  00344	8b 85 60 fe ff
	ff		 mov	 eax, DWORD PTR _log_ogólny$[ebp]
  0034a	8b 40 04	 mov	 eax, DWORD PTR [eax+4]
  0034d	c7 84 05 60 fe
	ff ff 00 00 00
	00		 mov	 DWORD PTR _log_ogólny$[ebp+eax], OFFSET ??_7?$basic_ofstream@DU?$char_traits@D@std@@@std@@6B@
  00358	8b 85 60 fe ff
	ff		 mov	 eax, DWORD PTR _log_ogólny$[ebp]
  0035e	8b 48 04	 mov	 ecx, DWORD PTR [eax+4]
  00361	8d 41 98	 lea	 eax, DWORD PTR [ecx-104]
  00364	89 84 0d 5c fe
	ff ff		 mov	 DWORD PTR _log_ogólny$[ebp+ecx-4], eax

; 1122 : 		}

  0036b	8d 8d 64 fe ff
	ff		 lea	 ecx, DWORD PTR _log_ogólny$[ebp+4]
  00371	e8 00 00 00 00	 call	 ??1?$basic_filebuf@DU?$char_traits@D@std@@@std@@UAE@XZ ; std::basic_filebuf<char,std::char_traits<char> >::~basic_filebuf<char,std::char_traits<char> >
  00376	8d 8d 68 fe ff
	ff		 lea	 ecx, DWORD PTR _log_ogólny$[ebp+8]
  0037c	ff 15 00 00 00
	00		 call	 DWORD PTR __imp_??1?$basic_ostream@DU?$char_traits@D@std@@@std@@UAE@XZ
  00382	8d 8d c8 fe ff
	ff		 lea	 ecx, DWORD PTR _log_ogólny$[ebp+104]
  00388	ff 15 00 00 00
	00		 call	 DWORD PTR __imp_??1?$basic_ios@DU?$char_traits@D@std@@@std@@UAE@XZ
; File f:\users\krzysztof\documents\szko³a\2017-2018\informatyka\labolatorium\ruletka\ruletka\main.cpp

; 128  : 	return 0; //Zwrócenie wartoœæ 0, czyli porogram zakoñczy³ siê bez b³êdu

  0038e	33 c0		 xor	 eax, eax

; 129  : }

  00390	8b 4d f4	 mov	 ecx, DWORD PTR __$EHRec$[ebp]
  00393	64 89 0d 00 00
	00 00		 mov	 DWORD PTR fs:0, ecx
  0039a	59		 pop	 ecx
  0039b	5e		 pop	 esi
  0039c	8b 4d f0	 mov	 ecx, DWORD PTR __$ArrayPad$[ebp]
  0039f	33 cd		 xor	 ecx, ebp
  003a1	e8 00 00 00 00	 call	 @__security_check_cookie@4
  003a6	8b e5		 mov	 esp, ebp
  003a8	5d		 pop	 ebp
  003a9	c3		 ret	 0
$_Invalid_parameter$125:
; File f:\program files (x86)\microsoft visual studio\2017\enterprise\vc\tools\msvc\14.11.25503\include\xmemory0

; 155  : 	_SCL_SECURE_INVALID_ARGUMENT_NO_ASSERT;

  003aa	ff 15 00 00 00
	00		 call	 DWORD PTR __imp___invalid_parameter_noinfo_noreturn
$LN124@main:
$LN123@main:
  003b0	cc		 int	 3
_TEXT	ENDS
;	COMDAT text$x
text$x	SEGMENT
__unwindfunclet$_main$0:
  00000	8d 8d 60 fe ff
	ff		 lea	 ecx, DWORD PTR _log_ogólny$[ebp]
  00006	e9 00 00 00 00	 jmp	 ??_D?$basic_ofstream@DU?$char_traits@D@std@@@std@@QAEXXZ
__unwindfunclet$_main$5:
  0000b	8b 85 58 fe ff
	ff		 mov	 eax, DWORD PTR $T1[ebp]
  00011	83 e0 01	 and	 eax, 1
  00014	0f 84 10 00 00
	00		 je	 $LN28@main
  0001a	83 a5 58 fe ff
	ff fe		 and	 DWORD PTR $T1[ebp], -2	; fffffffeH
  00021	8d 4d 88	 lea	 ecx, DWORD PTR _log$[ebp+120]
  00024	ff 25 00 00 00
	00		 jmp	 DWORD PTR __imp_??1?$basic_ios@DU?$char_traits@D@std@@@std@@UAE@XZ
$LN28@main:
  0002a	c3		 ret	 0
__unwindfunclet$_main$6:
  0002b	8d 8d 30 ff ff
	ff		 lea	 ecx, DWORD PTR _log$[ebp+32]
  00031	ff 25 00 00 00
	00		 jmp	 DWORD PTR __imp_??1?$basic_iostream@DU?$char_traits@D@std@@@std@@UAE@XZ
__unwindfunclet$_main$8:
  00037	8b 8d 54 fe ff
	ff		 mov	 ecx, DWORD PTR _this$[ebp]
  0003d	ff 25 00 00 00
	00		 jmp	 DWORD PTR __imp_??1?$basic_streambuf@DU?$char_traits@D@std@@@std@@UAE@XZ
__unwindfunclet$_main$1:
  00043	8d 8d 10 ff ff
	ff		 lea	 ecx, DWORD PTR _log$[ebp]
  00049	e9 00 00 00 00	 jmp	 ??_D?$basic_fstream@DU?$char_traits@D@std@@@std@@QAEXXZ
__unwindfunclet$_main$2:
  0004e	8d 4d d0	 lea	 ecx, DWORD PTR _typ_zak³adu$[ebp]
  00051	e9 00 00 00 00	 jmp	 ??1?$basic_string@DU?$char_traits@D@std@@V?$allocator@D@2@@std@@QAE@XZ ; std::basic_string<char,std::char_traits<char>,std::allocator<char> >::~basic_string<char,std::char_traits<char>,std::allocator<char> >
__ehhandler$_main:
  00056	8b 54 24 08	 mov	 edx, DWORD PTR [esp+8]
  0005a	8d 42 0c	 lea	 eax, DWORD PTR [edx+12]
  0005d	8b 8a 54 fe ff
	ff		 mov	 ecx, DWORD PTR [edx-428]
  00063	33 c8		 xor	 ecx, eax
  00065	e8 00 00 00 00	 call	 @__security_check_cookie@4
  0006a	8b 4a fc	 mov	 ecx, DWORD PTR [edx-4]
  0006d	33 c8		 xor	 ecx, eax
  0006f	e8 00 00 00 00	 call	 @__security_check_cookie@4
  00074	b8 00 00 00 00	 mov	 eax, OFFSET __ehfuncinfo$_main
  00079	e9 00 00 00 00	 jmp	 ___CxxFrameHandler3
text$x	ENDS
_main	ENDP
; Function compile flags: /Ogtp
; File f:\users\krzysztof\documents\szko³a\2017-2018\informatyka\labolatorium\ruletka\ruletka\main.cpp
; File f:\program files (x86)\microsoft visual studio\2017\enterprise\vc\tools\msvc\14.11.25503\include\xstring
; File f:\program files (x86)\microsoft visual studio\2017\enterprise\vc\tools\msvc\14.11.25503\include\iosfwd
; File f:\program files (x86)\microsoft visual studio\2017\enterprise\vc\tools\msvc\14.11.25503\include\xstring
; File f:\users\krzysztof\documents\szko³a\2017-2018\informatyka\labolatorium\ruletka\ruletka\main.cpp
; File f:\program files (x86)\microsoft visual studio\2017\enterprise\vc\tools\msvc\14.11.25503\include\random
; File f:\users\krzysztof\documents\szko³a\2017-2018\informatyka\labolatorium\ruletka\ruletka\main.cpp
; File f:\program files (x86)\microsoft visual studio\2017\enterprise\vc\tools\msvc\14.11.25503\include\xstring
; File f:\program files (x86)\microsoft visual studio\2017\enterprise\vc\tools\msvc\14.11.25503\include\xmemory0
; File f:\program files (x86)\microsoft visual studio\2017\enterprise\vc\tools\msvc\14.11.25503\include\xstring
; File f:\program files (x86)\microsoft visual studio\2017\enterprise\vc\tools\msvc\14.11.25503\include\xmemory0
; File f:\program files (x86)\microsoft visual studio\2017\enterprise\vc\tools\msvc\14.11.25503\include\random
; File f:\program files (x86)\microsoft visual studio\2017\enterprise\vc\tools\msvc\14.11.25503\include\xutility
; File f:\program files (x86)\microsoft visual studio\2017\enterprise\vc\tools\msvc\14.11.25503\include\random
; File f:\program files (x86)\microsoft visual studio\2017\enterprise\vc\tools\msvc\14.11.25503\include\xmemory0
; File f:\program files (x86)\microsoft visual studio\2017\enterprise\vc\tools\msvc\14.11.25503\include\random
; File f:\program files (x86)\microsoft visual studio\2017\enterprise\vc\tools\msvc\14.11.25503\include\xutility
; File f:\program files (x86)\microsoft visual studio\2017\enterprise\vc\tools\msvc\14.11.25503\include\random
; File f:\program files (x86)\microsoft visual studio\2017\enterprise\vc\tools\msvc\14.11.25503\include\xutility
; File f:\users\krzysztof\documents\szko³a\2017-2018\informatyka\labolatorium\ruletka\ruletka\main.cpp
;	COMDAT ?Wylosuj@@YAHABH0@Z
_TEXT	SEGMENT
$T1 = -48						; size = 24
__Umin$1$ = -24						; size = 4
tv686 = -20						; size = 4
__Index$1$ = -16					; size = 4
__$EHRec$ = -12						; size = 12
?Wylosuj@@YAHABH0@Z PROC				; Wylosuj, COMDAT
; _od_liczby$ = ecx
; _do_liczby$ = edx

; 388  : {

  00000	55		 push	 ebp
  00001	8b ec		 mov	 ebp, esp
  00003	6a ff		 push	 -1
  00005	68 00 00 00 00	 push	 __ehhandler$?Wylosuj@@YAHABH0@Z
  0000a	64 a1 00 00 00
	00		 mov	 eax, DWORD PTR fs:0
  00010	50		 push	 eax
  00011	83 ec 24	 sub	 esp, 36			; 00000024H
  00014	53		 push	 ebx
  00015	56		 push	 esi
  00016	57		 push	 edi
  00017	a1 00 00 00 00	 mov	 eax, DWORD PTR ___security_cookie
  0001c	33 c5		 xor	 eax, ebp
  0001e	50		 push	 eax
  0001f	8d 45 f4	 lea	 eax, DWORD PTR __$EHRec$[ebp]
  00022	64 a3 00 00 00
	00		 mov	 DWORD PTR fs:0, eax
  00028	8b f2		 mov	 esi, edx
  0002a	8b d9		 mov	 ebx, ecx
; File f:\program files (x86)\microsoft visual studio\2017\enterprise\vc\tools\msvc\14.11.25503\include\xstring

; 2452 : 		return (assign(_Ptr, _Convert_size<size_type>(_Traits::length(_Ptr))));

  0002c	6a 00		 push	 0
  0002e	68 00 00 00 00	 push	 OFFSET ??_C@_00CNPNBAHC@?$AA@
  00033	8d 4d d0	 lea	 ecx, DWORD PTR $T1[ebp]

; 3698 : 		_My_data._Mysize = 0;

  00036	c7 45 e0 00 00
	00 00		 mov	 DWORD PTR $T1[ebp+16], 0

; 3699 : 		_My_data._Myres = this->_BUF_SIZE - 1;

  0003d	c7 45 e4 0f 00
	00 00		 mov	 DWORD PTR $T1[ebp+20], 15 ; 0000000fH
; File f:\program files (x86)\microsoft visual studio\2017\enterprise\vc\tools\msvc\14.11.25503\include\iosfwd

; 517  : 		_Left = _Right;

  00044	c6 45 d0 00	 mov	 BYTE PTR $T1[ebp], 0
; File f:\program files (x86)\microsoft visual studio\2017\enterprise\vc\tools\msvc\14.11.25503\include\xstring

; 2452 : 		return (assign(_Ptr, _Convert_size<size_type>(_Traits::length(_Ptr))));

  00048	e8 00 00 00 00	 call	 ?assign@?$basic_string@DU?$char_traits@D@std@@V?$allocator@D@2@@std@@QAEAAV12@QBDI@Z ; std::basic_string<char,std::char_traits<char>,std::allocator<char> >::assign
; File f:\users\krzysztof\documents\szko³a\2017-2018\informatyka\labolatorium\ruletka\ruletka\main.cpp

; 389  : 	random_device generator; //Generator liczb losowych, który generuje niedeterministyczne liczby losowe, jeœli s¹ obs³ugiwane.

  0004d	c7 45 fc 00 00
	00 00		 mov	 DWORD PTR __$EHRec$[ebp+8], 0
; File f:\program files (x86)\microsoft visual studio\2017\enterprise\vc\tools\msvc\14.11.25503\include\random

; 6442 : 		return (_Random_device());

  00054	8b 3d 00 00 00
	00		 mov	 edi, DWORD PTR __imp_?_Random_device@std@@YAIXZ
  0005a	ff d7		 call	 edi
; File f:\users\krzysztof\documents\szko³a\2017-2018\informatyka\labolatorium\ruletka\ruletka\main.cpp

; 389  : 	random_device generator; //Generator liczb losowych, który generuje niedeterministyczne liczby losowe, jeœli s¹ obs³ugiwane.

  0005c	c7 45 fc ff ff
	ff ff		 mov	 DWORD PTR __$EHRec$[ebp+8], -1
; File f:\program files (x86)\microsoft visual studio\2017\enterprise\vc\tools\msvc\14.11.25503\include\xstring

; 1617 : 		return (_BUF_SIZE <= _Myres);

  00063	8b 45 e4	 mov	 eax, DWORD PTR $T1[ebp+20]
  00066	83 f8 10	 cmp	 eax, 16			; 00000010H

; 3709 : 		if (_My_data._Large_string_engaged())

  00069	72 2e		 jb	 SHORT $LN65@Wylosuj
; File f:\program files (x86)\microsoft visual studio\2017\enterprise\vc\tools\msvc\14.11.25503\include\xmemory0

; 941  : 		_Deallocate(_Ptr, _Count, sizeof(_Ty));

  0006b	8b 4d d0	 mov	 ecx, DWORD PTR $T1[ebp]
; File f:\program files (x86)\microsoft visual studio\2017\enterprise\vc\tools\msvc\14.11.25503\include\xstring

; 3714 : 			_Al.deallocate(_Ptr, _My_data._Myres + 1);

  0006e	40		 inc	 eax
; File f:\program files (x86)\microsoft visual studio\2017\enterprise\vc\tools\msvc\14.11.25503\include\xmemory0

; 107  : 	if (_BIG_ALLOCATION_THRESHOLD <= _Count * _Sz)

  0006f	3d 00 10 00 00	 cmp	 eax, 4096		; 00001000H
  00074	72 1a		 jb	 SHORT $LN68@Wylosuj

; 108  : 		{	// deallocate large block
; 109  : 		const uintptr_t _Ptr_user = reinterpret_cast<uintptr_t>(_Ptr);
; 110  : 		if ((_Ptr_user & (_BIG_ALLOCATION_ALIGNMENT - 1)) != 0)

  00076	f6 c1 1f	 test	 cl, 31			; 0000001fH
  00079	75 44		 jne	 SHORT $_Invalid_parameter$206

; 111  : 			{
; 112  : 			goto _Invalid_parameter;
; 113  : 			}
; 114  : 
; 115  : 		const uintptr_t _Ptr_ptr = _Ptr_user - sizeof(void *);
; 116  : 		const uintptr_t _Ptr_container =
; 117  : 			*reinterpret_cast<uintptr_t *>(_Ptr_ptr);

  0007b	8b 41 fc	 mov	 eax, DWORD PTR [ecx-4]

; 118  : 
; 119  :  #ifdef _DEBUG
; 120  : 		// If the following asserts, it likely means that we are performing
; 121  : 		// an aligned delete on memory coming from an unaligned allocation.
; 122  : 		if (reinterpret_cast<uintptr_t *>(_Ptr_ptr)[-1] != _BIG_ALLOCATION_SENTINEL)
; 123  : 			{
; 124  : 			goto _Invalid_parameter;
; 125  : 			}
; 126  :  #endif /* _DEBUG */
; 127  : 
; 128  : 		// Extra paranoia on aligned allocation/deallocation
; 129  : 		if (_Ptr_container >= _Ptr_user)

  0007e	3b c1		 cmp	 eax, ecx
  00080	73 3d		 jae	 SHORT $_Invalid_parameter$206

; 130  : 			{
; 131  : 			goto _Invalid_parameter;
; 132  : 			}
; 133  : 
; 134  :  #ifdef _DEBUG
; 135  : 		if (2 * sizeof(void *) > _Ptr_user - _Ptr_container)
; 136  :  #else /* _DEBUG */
; 137  : 		if (sizeof(void *) > _Ptr_user - _Ptr_container)

  00082	2b c8		 sub	 ecx, eax
  00084	83 f9 04	 cmp	 ecx, 4
  00087	72 36		 jb	 SHORT $_Invalid_parameter$206

; 138  :  #endif /* _DEBUG */
; 139  : 			{
; 140  : 			goto _Invalid_parameter;
; 141  : 			}
; 142  : 
; 143  : 		if (_Ptr_user - _Ptr_container > _NON_USER_SIZE)

  00089	83 f9 23	 cmp	 ecx, 35			; 00000023H
  0008c	77 31		 ja	 SHORT $_Invalid_parameter$206

; 144  : 			{
; 145  : 			goto _Invalid_parameter;
; 146  : 			}
; 147  : 
; 148  : 		_Ptr = reinterpret_cast<void *>(_Ptr_container);

  0008e	8b c8		 mov	 ecx, eax
$LN68@Wylosuj:

; 149  : 		}
; 150  : 
; 151  : 	::operator delete(_Ptr);

  00090	51		 push	 ecx
  00091	e8 00 00 00 00	 call	 ??3@YAXPAX@Z		; operator delete
  00096	83 c4 04	 add	 esp, 4
$LN65@Wylosuj:
; File f:\program files (x86)\microsoft visual studio\2017\enterprise\vc\tools\msvc\14.11.25503\include\random

; 2256 : 			_Min = _Min0;

  00099	8b 03		 mov	 eax, DWORD PTR [ebx]

; 2312 : 		return (_Eval(_Eng, _Par._Min, _Par._Max));

  0009b	8b 0e		 mov	 ecx, DWORD PTR [esi]

; 2355 : 		const _Uty _Umin = _Adjust(_Uty(_Min));

  0009d	05 00 00 00 80	 add	 eax, -2147483648	; 80000000H

; 2356 : 		const _Uty _Umax = _Adjust(_Uty(_Max));
; 2357 : 
; 2358 : 		_Uty _Uret = 0;
; 2359 : 
; 2360 : 		if (_Umax - _Umin == _Uty(-1))

  000a2	2b c8		 sub	 ecx, eax
  000a4	89 45 e8	 mov	 DWORD PTR __Umin$1$[ebp], eax
  000a7	81 c1 00 00 00
	80		 add	 ecx, -2147483648	; 80000000H
  000ad	89 4d ec	 mov	 DWORD PTR tv686[ebp], ecx
  000b0	83 f9 ff	 cmp	 ecx, -1
  000b3	75 10		 jne	 SHORT $LN110@Wylosuj
$LL140@Wylosuj:

; 6442 : 		return (_Random_device());

  000b5	ff d7		 call	 edi
; File f:\program files (x86)\microsoft visual studio\2017\enterprise\vc\tools\msvc\14.11.25503\include\xutility

; 3530 : 			_Udiff _Val = _Ref() - (_Urng::min)();

  000b7	8b d0		 mov	 edx, eax

; 3531 : 
; 3532 : 			if (_Val <= _Bmask)

  000b9	32 c0		 xor	 al, al
  000bb	75 f8		 jne	 SHORT $LL140@Wylosuj
; File f:\program files (x86)\microsoft visual studio\2017\enterprise\vc\tools\msvc\14.11.25503\include\random

; 2362 : 		else

  000bd	eb 51		 jmp	 SHORT $LN151@Wylosuj
$_Invalid_parameter$206:
; File f:\program files (x86)\microsoft visual studio\2017\enterprise\vc\tools\msvc\14.11.25503\include\xmemory0

; 155  : 	_SCL_SECURE_INVALID_ARGUMENT_NO_ASSERT;

  000bf	ff 15 00 00 00
	00		 call	 DWORD PTR __imp___invalid_parameter_noinfo_noreturn
$LN205@Wylosuj:
$LN110@Wylosuj:
; File f:\program files (x86)\microsoft visual studio\2017\enterprise\vc\tools\msvc\14.11.25503\include\random

; 2363 : 			_Uret = static_cast<_Uty>(_Rng(_Umax - _Umin + 1));

  000c5	8d 59 01	 lea	 ebx, DWORD PTR [ecx+1]
  000c8	89 5d f0	 mov	 DWORD PTR __Index$1$[ebp], ebx
; File f:\program files (x86)\microsoft visual studio\2017\enterprise\vc\tools\msvc\14.11.25503\include\xutility

; 3502 : 				|| _Mask % _Index == _Udiff(_Index - 1))

  000cb	eb 06		 jmp	 SHORT $LN150@Wylosuj
  000cd	0f 1f 00	 npad	 3
$LL202@Wylosuj:
  000d0	8d 59 01	 lea	 ebx, DWORD PTR [ecx+1]
$LN150@Wylosuj:

; 3487 : 			_Udiff _Ret = 0;	// random bits

  000d3	33 f6		 xor	 esi, esi

; 3488 : 			_Udiff _Mask = 0;	// 2^N - 1, _Ret is within [0, _Mask]

  000d5	33 c0		 xor	 eax, eax

; 3489 : 
; 3490 : 			while (_Mask < _Udiff(_Index - 1))

  000d7	85 c9		 test	 ecx, ecx
  000d9	74 14		 je	 SHORT $LN154@Wylosuj
  000db	0f 1f 44 00 00	 npad	 5
$LL159@Wylosuj:
; File f:\program files (x86)\microsoft visual studio\2017\enterprise\vc\tools\msvc\14.11.25503\include\random

; 6442 : 		return (_Random_device());

  000e0	ff d7		 call	 edi
; File f:\program files (x86)\microsoft visual studio\2017\enterprise\vc\tools\msvc\14.11.25503\include\xutility

; 3530 : 			_Udiff _Val = _Ref() - (_Urng::min)();

  000e2	8b f0		 mov	 esi, eax

; 3531 : 
; 3532 : 			if (_Val <= _Bmask)

  000e4	32 c0		 xor	 al, al
  000e6	75 f8		 jne	 SHORT $LL159@Wylosuj

; 3490 : 			while (_Mask < _Udiff(_Index - 1))

  000e8	83 c8 ff	 or	 eax, -1
  000eb	32 c9		 xor	 cl, cl
  000ed	75 f1		 jne	 SHORT $LL159@Wylosuj
$LN154@Wylosuj:

; 3502 : 				|| _Mask % _Index == _Udiff(_Index - 1))

  000ef	33 d2		 xor	 edx, edx
  000f1	f7 f3		 div	 ebx
  000f3	8b c8		 mov	 ecx, eax
  000f5	8b da		 mov	 ebx, edx
  000f7	33 d2		 xor	 edx, edx
  000f9	8b c6		 mov	 eax, esi
  000fb	f7 75 f0	 div	 DWORD PTR __Index$1$[ebp]
  000fe	3b c1		 cmp	 eax, ecx
  00100	72 07		 jb	 SHORT $LN185@Wylosuj
  00102	8b 4d ec	 mov	 ecx, DWORD PTR tv686[ebp]
  00105	3b d9		 cmp	 ebx, ecx
  00107	75 c7		 jne	 SHORT $LL202@Wylosuj
$LN185@Wylosuj:

; 3503 : 				return (_Ret % _Index);

  00109	8b c6		 mov	 eax, esi
  0010b	33 d2		 xor	 edx, edx
  0010d	f7 75 f0	 div	 DWORD PTR __Index$1$[ebp]
$LN151@Wylosuj:
; File f:\users\krzysztof\documents\szko³a\2017-2018\informatyka\labolatorium\ruletka\ruletka\main.cpp

; 399  : 	return distribution(generator); //Zwraca wygenerowan¹ liczbê

  00110	8b 45 e8	 mov	 eax, DWORD PTR __Umin$1$[ebp]
  00113	05 00 00 00 80	 add	 eax, -2147483648	; 80000000H
  00118	03 c2		 add	 eax, edx

; 400  : }

  0011a	8b 4d f4	 mov	 ecx, DWORD PTR __$EHRec$[ebp]
  0011d	64 89 0d 00 00
	00 00		 mov	 DWORD PTR fs:0, ecx
  00124	59		 pop	 ecx
  00125	5f		 pop	 edi
  00126	5e		 pop	 esi
  00127	5b		 pop	 ebx
  00128	8b e5		 mov	 esp, ebp
  0012a	5d		 pop	 ebp
  0012b	c3		 ret	 0
$LN204@Wylosuj:
_TEXT	ENDS
;	COMDAT text$x
text$x	SEGMENT
__unwindfunclet$?Wylosuj@@YAHABH0@Z$0:
  00000	8d 4d d0	 lea	 ecx, DWORD PTR $T1[ebp]
  00003	e9 00 00 00 00	 jmp	 ??1?$basic_string@DU?$char_traits@D@std@@V?$allocator@D@2@@std@@QAE@XZ ; std::basic_string<char,std::char_traits<char>,std::allocator<char> >::~basic_string<char,std::char_traits<char>,std::allocator<char> >
__ehhandler$?Wylosuj@@YAHABH0@Z:
  00008	8b 54 24 08	 mov	 edx, DWORD PTR [esp+8]
  0000c	8d 42 0c	 lea	 eax, DWORD PTR [edx+12]
  0000f	8b 4a cc	 mov	 ecx, DWORD PTR [edx-52]
  00012	33 c8		 xor	 ecx, eax
  00014	e8 00 00 00 00	 call	 @__security_check_cookie@4
  00019	b8 00 00 00 00	 mov	 eax, OFFSET __ehfuncinfo$?Wylosuj@@YAHABH0@Z
  0001e	e9 00 00 00 00	 jmp	 ___CxxFrameHandler3
text$x	ENDS
?Wylosuj@@YAHABH0@Z ENDP				; Wylosuj
; Function compile flags: /Ogtp
; File f:\users\krzysztof\documents\szko³a\2017-2018\informatyka\labolatorium\ruletka\ruletka\main.cpp
; File f:\program files (x86)\microsoft visual studio\2017\enterprise\vc\tools\msvc\14.11.25503\include\sstream
; File f:\users\krzysztof\documents\szko³a\2017-2018\informatyka\labolatorium\ruletka\ruletka\main.cpp
; File f:\program files (x86)\microsoft visual studio\2017\enterprise\vc\tools\msvc\14.11.25503\include\sstream
; File f:\program files (x86)\microsoft visual studio\2017\enterprise\vc\tools\msvc\14.11.25503\include\xstring
; File f:\users\krzysztof\documents\szko³a\2017-2018\informatyka\labolatorium\ruletka\ruletka\main.cpp
; File f:\program files (x86)\microsoft visual studio\2017\enterprise\vc\tools\msvc\14.11.25503\include\xstring
; File f:\program files (x86)\microsoft visual studio\2017\enterprise\vc\tools\msvc\14.11.25503\include\iosfwd
; File f:\users\krzysztof\documents\szko³a\2017-2018\informatyka\labolatorium\ruletka\ruletka\main.cpp
; File f:\program files (x86)\microsoft visual studio\2017\enterprise\vc\tools\msvc\14.11.25503\include\xstring
; File f:\program files (x86)\microsoft visual studio\2017\enterprise\vc\tools\msvc\14.11.25503\include\xstddef
; File f:\users\krzysztof\documents\szko³a\2017-2018\informatyka\labolatorium\ruletka\ruletka\main.cpp
; File f:\program files (x86)\microsoft visual studio\2017\enterprise\vc\tools\msvc\14.11.25503\include\xstring
; File f:\program files (x86)\microsoft visual studio\2017\enterprise\vc\tools\msvc\14.11.25503\include\xstddef
; File f:\users\krzysztof\documents\szko³a\2017-2018\informatyka\labolatorium\ruletka\ruletka\main.cpp
; File f:\program files (x86)\microsoft visual studio\2017\enterprise\vc\tools\msvc\14.11.25503\include\xstring
; File f:\users\krzysztof\documents\szko³a\2017-2018\informatyka\labolatorium\ruletka\ruletka\main.cpp
; File f:\program files (x86)\microsoft visual studio\2017\enterprise\vc\tools\msvc\14.11.25503\include\xstring
; File f:\program files (x86)\microsoft visual studio\2017\enterprise\vc\tools\msvc\14.11.25503\include\xstddef
; File f:\program files (x86)\microsoft visual studio\2017\enterprise\vc\tools\msvc\14.11.25503\include\iosfwd
; File f:\program files (x86)\microsoft visual studio\2017\enterprise\vc\tools\msvc\14.11.25503\include\xstring
; File f:\program files (x86)\microsoft visual studio\2017\enterprise\vc\tools\msvc\14.11.25503\include\iosfwd
; File f:\users\krzysztof\documents\szko³a\2017-2018\informatyka\labolatorium\ruletka\ruletka\main.cpp
; File f:\program files (x86)\microsoft visual studio\2017\enterprise\vc\tools\msvc\14.11.25503\include\xstring
; File f:\program files (x86)\microsoft visual studio\2017\enterprise\vc\tools\msvc\14.11.25503\include\xstddef
; File f:\users\krzysztof\documents\szko³a\2017-2018\informatyka\labolatorium\ruletka\ruletka\main.cpp
; File f:\program files (x86)\microsoft visual studio\2017\enterprise\vc\tools\msvc\14.11.25503\include\xstring
; File f:\program files (x86)\microsoft visual studio\2017\enterprise\vc\tools\msvc\14.11.25503\include\xstddef
; File f:\users\krzysztof\documents\szko³a\2017-2018\informatyka\labolatorium\ruletka\ruletka\main.cpp
; File f:\program files (x86)\microsoft visual studio\2017\enterprise\vc\tools\msvc\14.11.25503\include\sstream
; File f:\users\krzysztof\documents\szko³a\2017-2018\informatyka\labolatorium\ruletka\ruletka\main.cpp
; File f:\program files (x86)\microsoft visual studio\2017\enterprise\vc\tools\msvc\14.11.25503\include\sstream
; File f:\users\krzysztof\documents\szko³a\2017-2018\informatyka\labolatorium\ruletka\ruletka\main.cpp
; File f:\program files (x86)\microsoft visual studio\2017\enterprise\vc\tools\msvc\14.11.25503\include\xstring
; File f:\program files (x86)\microsoft visual studio\2017\enterprise\vc\tools\msvc\14.11.25503\include\xstddef
; File f:\users\krzysztof\documents\szko³a\2017-2018\informatyka\labolatorium\ruletka\ruletka\main.cpp
; File f:\program files (x86)\microsoft visual studio\2017\enterprise\vc\tools\msvc\14.11.25503\include\xstring
; File f:\program files (x86)\microsoft visual studio\2017\enterprise\vc\tools\msvc\14.11.25503\include\xstddef
; File f:\users\krzysztof\documents\szko³a\2017-2018\informatyka\labolatorium\ruletka\ruletka\main.cpp
; File f:\program files (x86)\microsoft visual studio\2017\enterprise\vc\tools\msvc\14.11.25503\include\sstream
; File f:\users\krzysztof\documents\szko³a\2017-2018\informatyka\labolatorium\ruletka\ruletka\main.cpp
;	COMDAT ?Odczytaj_liczbê@@YAXABHABV?$basic_string@DU?$char_traits@D@std@@V?$allocator@D@2@@std@@@Z
_TEXT	SEGMENT
$T84 = -480						; size = 24
$T73 = -480						; size = 24
$T19 = -480						; size = 24
$T81 = -456						; size = 24
$T55 = -456						; size = 24
$T4 = -456						; size = 24
_this$ = -432						; size = 4
_this$ = -432						; size = 4
$T82 = -428						; size = 24
$T44 = -428						; size = 24
$T34 = -428						; size = 24
$T29 = -428						; size = 24
$T24 = -428						; size = 24
$T83 = -404						; size = 24
$T65 = -404						; size = 24
$T11 = -404						; size = 24
_wylosowana_liczba$GSCopy$1$ = -380			; size = 4
$T59 = -380						; size = 1
_numers$90 = -376					; size = 176
_numers$ = -200						; size = 176
__Ch$ = -24						; size = 1
$T1 = -24						; size = 4
__$ArrayPad$ = -20					; size = 4
__$EHRec$ = -12						; size = 12
?Odczytaj_liczbê@@YAXABHABV?$basic_string@DU?$char_traits@D@std@@V?$allocator@D@2@@std@@@Z PROC ; Odczytaj_liczbê, COMDAT
; _wylosowana_liczba$ = ecx
; _typ_zak³adu$ = edx

; 402  : void Odczytaj_liczbê(const int & wylosowana_liczba, const string & typ_zak³adu) {

  00000	53		 push	 ebx
  00001	8b dc		 mov	 ebx, esp
  00003	83 ec 08	 sub	 esp, 8
  00006	83 e4 f8	 and	 esp, -8			; fffffff8H
  00009	83 c4 04	 add	 esp, 4
  0000c	55		 push	 ebp
  0000d	8b 6b 04	 mov	 ebp, DWORD PTR [ebx+4]
  00010	89 6c 24 04	 mov	 DWORD PTR [esp+4], ebp
  00014	8b ec		 mov	 ebp, esp
  00016	6a ff		 push	 -1
  00018	68 00 00 00 00	 push	 __ehhandler$?Odczytaj_liczbê@@YAXABHABV?$basic_string@DU?$char_traits@D@std@@V?$allocator@D@2@@std@@@Z
  0001d	64 a1 00 00 00
	00		 mov	 eax, DWORD PTR fs:0
  00023	50		 push	 eax
  00024	53		 push	 ebx
  00025	81 ec d0 01 00
	00		 sub	 esp, 464		; 000001d0H
  0002b	a1 00 00 00 00	 mov	 eax, DWORD PTR ___security_cookie
  00030	33 c5		 xor	 eax, ebp
  00032	89 45 ec	 mov	 DWORD PTR __$ArrayPad$[ebp], eax
  00035	56		 push	 esi
  00036	57		 push	 edi
  00037	50		 push	 eax
  00038	8d 45 f4	 lea	 eax, DWORD PTR __$EHRec$[ebp]
  0003b	64 a3 00 00 00
	00		 mov	 DWORD PTR fs:0, eax
  00041	8b f2		 mov	 esi, edx
  00043	8b f9		 mov	 edi, ecx
  00045	89 bd 84 fe ff
	ff		 mov	 DWORD PTR _wylosowana_liczba$GSCopy$1$[ebp], edi
  0004b	c7 45 e8 00 00
	00 00		 mov	 DWORD PTR $T1[ebp], 0

; 403  : 	if ((g³os_odczytu_numeru == 0) || (!G³osyKompletne)) return;

  00052	66 83 3d 00 00
	00 00 00	 cmp	 WORD PTR ?g³os_odczytu_numeru@@3FA, 0 ; g³os_odczytu_numeru
  0005a	0f 84 6d 05 00
	00		 je	 $LN3@Odczytaj_l
  00060	80 3d 00 00 00
	00 00		 cmp	 BYTE PTR ?G³osyKompletne@@3_NA, 0 ; G³osyKompletne
  00067	0f 84 60 05 00
	00		 je	 $LN3@Odczytaj_l
  0006d	68 b0 00 00 00	 push	 176			; 000000b0H
  00072	8d 85 38 ff ff
	ff		 lea	 eax, DWORD PTR _numers$[ebp]
  00078	6a 00		 push	 0
  0007a	50		 push	 eax
  0007b	e8 00 00 00 00	 call	 _memset
  00080	83 c4 0c	 add	 esp, 12			; 0000000cH
; File f:\program files (x86)\microsoft visual studio\2017\enterprise\vc\tools\msvc\14.11.25503\include\sstream

; 593  : 		{	// construct empty character buffer

  00083	c7 85 38 ff ff
	ff 00 00 00 00	 mov	 DWORD PTR _numers$[ebp], OFFSET ??_8?$basic_stringstream@DU?$char_traits@D@std@@V?$allocator@D@2@@std@@7B?$basic_istream@DU?$char_traits@D@std@@@1@@
  0008d	8d 4d a0	 lea	 ecx, DWORD PTR _numers$[ebp+104]
  00090	c7 85 48 ff ff
	ff 00 00 00 00	 mov	 DWORD PTR _numers$[ebp+16], OFFSET ??_8?$basic_stringstream@DU?$char_traits@D@std@@V?$allocator@D@2@@std@@7B?$basic_ostream@DU?$char_traits@D@std@@@1@@
  0009a	ff 15 00 00 00
	00		 call	 DWORD PTR __imp_??0?$basic_ios@DU?$char_traits@D@std@@@std@@IAE@XZ
  000a0	6a 00		 push	 0
  000a2	8d 85 50 ff ff
	ff		 lea	 eax, DWORD PTR _numers$[ebp+24]
  000a8	c7 45 fc 00 00
	00 00		 mov	 DWORD PTR __$EHRec$[ebp+8], 0
  000af	50		 push	 eax
  000b0	8d 8d 38 ff ff
	ff		 lea	 ecx, DWORD PTR _numers$[ebp]
  000b6	c7 45 e8 01 00
	00 00		 mov	 DWORD PTR $T1[ebp], 1

; 313  : 
; 314  : 		if (_Count != 0
; 315  : 			&& (_Mystate & (_Noread | _Constant)) != (_Noread | _Constant))
; 316  : 			{	// finite buffer that can be read or written, set it up
; 317  : 			_Elem *_Pnew = _Unfancy(_Al.allocate(_Count));
; 318  : 			_Traits::copy(_Pnew, _Ptr, _Count);
; 319  : 			_Seekhigh = _Pnew + _Count;
; 320  : 
; 321  : 			if (!(_Mystate & _Noread))
; 322  : 				_Mysb::setg(_Pnew, _Pnew,
; 323  : 					_Pnew + _Count);	// setup read buffer
; 324  : 			if (!(_Mystate & _Constant))
; 325  : 				{	// setup write buffer, and maybe read buffer
; 326  : 				_Mysb::setp(_Pnew,
; 327  : 					(_Mystate & (_Atend | _Append)) ? _Pnew + _Count : _Pnew,
; 328  : 					_Pnew + _Count);
; 329  : 				if (_Mysb::gptr() == 0)
; 330  : 					_Mysb::setg(_Pnew, 0, _Pnew);
; 331  : 				}
; 332  : 			_Mystate |= _Allocated;
; 333  : 			}
; 334  : 		}
; 335  : 
; 336  : 	void _Tidy()
; 337  : 		{	// discard any allocated buffer and clear pointers
; 338  : 		if (_Mystate & _Allocated)
; 339  : 			_Al.deallocate(pointer_traits<_Ptrty>::pointer_to(*_Mysb::eback()),
; 340  : 				(_Mysb::pptr() != 0 ? _Mysb::epptr()
; 341  : 					: _Mysb::egptr()) - _Mysb::eback());
; 342  : 		_Mysb::setg(0, 0, 0);
; 343  : 		_Mysb::setp(0, 0);
; 344  : 		_Seekhigh = 0;
; 345  : 		_Mystate &= ~_Allocated;
; 346  : 		}
; 347  : 
; 348  : private:
; 349  : 	typedef typename allocator_traits<allocator_type>::pointer _Ptrty;
; 350  : 
; 351  : 	enum
; 352  : 		{	// constant for minimum buffer size
; 353  : 		_MINSIZE = 32};
; 354  : 
; 355  : 	_Strstate _Getstate(ios_base::openmode _Mode)
; 356  : 		{	// convert open mode to stream state bits
; 357  : 		_Strstate _State = (_Strstate)0;
; 358  : 		if (!(_Mode & ios_base::in))
; 359  : 			_State |= _Noread;
; 360  : 		if (!(_Mode & ios_base::out))
; 361  : 			_State |= _Constant;
; 362  : 		if (_Mode & ios_base::app)
; 363  : 			_State |= _Append;
; 364  : 		if (_Mode & ios_base::ate)
; 365  : 			_State |= _Atend;
; 366  : 		return (_State);
; 367  : 		}
; 368  : 
; 369  : 	_Elem *_Seekhigh;	// the high-water pointer in character array
; 370  : 	_Strstate _Mystate;	// the stream state
; 371  : 	allocator_type _Al;	// the allocator object
; 372  : 	};
; 373  : 
; 374  : 	// basic_stringbuf TEMPLATE OPERATORS
; 375  : template<class _Elem,
; 376  : 	class _Traits,
; 377  : 	class _Alloc> inline
; 378  : 	void swap(basic_stringbuf<_Elem, _Traits, _Alloc>& _Left,
; 379  : 		basic_stringbuf<_Elem, _Traits, _Alloc>& _Right)
; 380  : 	{	// swap _Left and _Right basic_stringbufs
; 381  : 	_Left.swap(_Right);
; 382  : 	}
; 383  : 
; 384  : 		// TEMPLATE CLASS basic_istringstream
; 385  : template<class _Elem,
; 386  : 	class _Traits,
; 387  : 	class _Alloc>
; 388  : 	class basic_istringstream
; 389  : 		: public basic_istream<_Elem, _Traits>
; 390  : 	{	// input stream associated with a character array
; 391  : public:
; 392  : 	typedef basic_istringstream<_Elem, _Traits, _Alloc> _Myt;
; 393  : 	typedef basic_istream<_Elem, _Traits> _Mybase;
; 394  : 	typedef _Alloc allocator_type;
; 395  : 	typedef basic_stringbuf<_Elem, _Traits, _Alloc> _Mysb;
; 396  : 	typedef basic_string<_Elem, _Traits, _Alloc> _Mystr;
; 397  : 
; 398  : 	explicit basic_istringstream(ios_base::openmode _Mode = ios_base::in)
; 399  : 		: _Mybase(&_Stringbuffer),
; 400  : 			_Stringbuffer(_Mode | ios_base::in)
; 401  : 		{	// construct empty readable character buffer
; 402  : 		}
; 403  : 
; 404  : 	explicit basic_istringstream(const _Mystr& _Str,
; 405  : 		ios_base::openmode _Mode = ios_base::in)
; 406  : 		: _Mybase(&_Stringbuffer),
; 407  : 			_Stringbuffer(_Str, _Mode | ios_base::in)
; 408  : 		{	// construct readable character buffer from NTCS
; 409  : 		}
; 410  : 
; 411  : 	basic_istringstream(_Myt&& _Right)
; 412  : 		: _Mybase(&_Stringbuffer)
; 413  : 		{	// construct by moving _Right
; 414  : 		_Assign_rv(_STD move(_Right));
; 415  : 		}
; 416  : 
; 417  : 	_Myt& operator=(_Myt&& _Right)
; 418  : 		{	// move from _Right
; 419  : 		_Assign_rv(_STD move(_Right));
; 420  : 		return (*this);
; 421  : 		}
; 422  : 
; 423  : 	void _Assign_rv(_Myt&& _Right)
; 424  : 		{	// assign by moving _Right
; 425  : 		if (this != _STD addressof(_Right))
; 426  : 			{	// different, worth moving
; 427  : 			_Stringbuffer.str(_Mystr());
; 428  : 			this->swap(_Right);
; 429  : 			}
; 430  : 		}
; 431  : 
; 432  : 	void swap(_Myt& _Right)
; 433  : 		{	// swap with _Right
; 434  : 		if (this != _STD addressof(_Right))
; 435  : 			{	// different, swap base and buffer
; 436  : 			_Mybase::swap(_Right);
; 437  : 			_Stringbuffer.swap(_Right._Stringbuffer);
; 438  : 			}
; 439  : 		}
; 440  : 
; 441  : 	basic_istringstream(const _Myt&) = delete;
; 442  : 	_Myt& operator=(const _Myt&) = delete;
; 443  : 
; 444  : 	virtual ~basic_istringstream() _NOEXCEPT
; 445  : 		{	// destroy the object
; 446  : 		}
; 447  : 
; 448  : 	_Mysb *rdbuf() const
; 449  : 		{	// return pointer to file buffer
; 450  : 		return ((_Mysb *)&_Stringbuffer);
; 451  : 		}
; 452  : 
; 453  : 	_Mystr str() const
; 454  : 		{	// return string copy of character array
; 455  : 		return (_Stringbuffer.str());
; 456  : 		}
; 457  : 
; 458  : 	void str(const _Mystr& _Newstr)
; 459  : 		{	// replace character array from string
; 460  : 		_Stringbuffer.str(_Newstr);
; 461  : 		}
; 462  : 
; 463  : private:
; 464  : 	_Mysb _Stringbuffer;	// the string buffer
; 465  : 	};
; 466  : 
; 467  : 	// basic_istringstream TEMPLATE OPERATORS
; 468  : template<class _Elem,
; 469  : 	class _Traits,
; 470  : 	class _Alloc> inline
; 471  : 	void swap(basic_istringstream<_Elem, _Traits, _Alloc>& _Left,
; 472  : 		basic_istringstream<_Elem, _Traits, _Alloc>& _Right)
; 473  : 	{	// swap _Left and _Right basic_istringstreams
; 474  : 	_Left.swap(_Right);
; 475  : 	}
; 476  : 
; 477  : 		// TEMPLATE CLASS basic_ostringstream
; 478  : template<class _Elem,
; 479  : 	class _Traits,
; 480  : 	class _Alloc>
; 481  : 	class basic_ostringstream
; 482  : 		: public basic_ostream<_Elem, _Traits>
; 483  : 	{	// output stream associated with a character array
; 484  : public:
; 485  : 	typedef basic_ostringstream<_Elem, _Traits, _Alloc> _Myt;
; 486  : 	typedef basic_ostream<_Elem, _Traits> _Mybase;
; 487  : 	typedef _Alloc allocator_type;
; 488  : 	typedef basic_stringbuf<_Elem, _Traits, _Alloc> _Mysb;
; 489  : 	typedef basic_string<_Elem, _Traits, _Alloc> _Mystr;
; 490  : 
; 491  : 	explicit basic_ostringstream(ios_base::openmode _Mode = ios_base::out)
; 492  : 		: _Mybase(&_Stringbuffer),
; 493  : 			_Stringbuffer(_Mode | ios_base::out)
; 494  : 		{	// construct empty writable character buffer
; 495  : 		}
; 496  : 
; 497  : 	explicit basic_ostringstream(const _Mystr& _Str,
; 498  : 		ios_base::openmode _Mode = ios_base::out)
; 499  : 		: _Mybase(&_Stringbuffer),
; 500  : 			_Stringbuffer(_Str, _Mode | ios_base::out)
; 501  : 		{	// construct writable character buffer from NTCS
; 502  : 		}
; 503  : 
; 504  : 	basic_ostringstream(_Myt&& _Right)
; 505  : 		: _Mybase(&_Stringbuffer)
; 506  : 		{	// construct by moving _Right
; 507  : 		_Assign_rv(_STD move(_Right));
; 508  : 		}
; 509  : 
; 510  : 	_Myt& operator=(_Myt&& _Right)
; 511  : 		{	// move from _Right
; 512  : 		_Assign_rv(_STD move(_Right));
; 513  : 		return (*this);
; 514  : 		}
; 515  : 
; 516  : 	void _Assign_rv(_Myt&& _Right)
; 517  : 		{	// assign by moving _Right
; 518  : 		if (this != _STD addressof(_Right))
; 519  : 			{	// different, worth moving
; 520  : 			_Stringbuffer.str(_Mystr());
; 521  : 			this->swap(_Right);
; 522  : 			}
; 523  : 		}
; 524  : 
; 525  : 	void swap(_Myt& _Right)
; 526  : 		{	// swap with _Right
; 527  : 		if (this != _STD addressof(_Right))
; 528  : 			{	// different, swap base and buffer
; 529  : 			_Mybase::swap(_Right);
; 530  : 			_Stringbuffer.swap(_Right._Stringbuffer);
; 531  : 			}
; 532  : 		}
; 533  : 
; 534  : 	basic_ostringstream(const _Myt&) = delete;
; 535  : 	_Myt& operator=(const _Myt&) = delete;
; 536  : 
; 537  : 	virtual ~basic_ostringstream() _NOEXCEPT
; 538  : 		{	// destroy the object
; 539  : 		}
; 540  : 
; 541  : 	_Mysb *rdbuf() const
; 542  : 		{	// return pointer to buffer
; 543  : 		return ((_Mysb *)&_Stringbuffer);
; 544  : 		}
; 545  : 
; 546  : 	_Mystr str() const
; 547  : 		{	// return string copy of character array
; 548  : 		return (_Stringbuffer.str());
; 549  : 		}
; 550  : 
; 551  : 	void str(const _Mystr& _Newstr)
; 552  : 		{	// replace character array from string
; 553  : 		_Stringbuffer.str(_Newstr);
; 554  : 		}
; 555  : 
; 556  : private:
; 557  : 	_Mysb _Stringbuffer;	// the string buffer
; 558  : 	};
; 559  : 
; 560  : 	// basic_ostringstream TEMPLATE OPERATORS
; 561  : template<class _Elem,
; 562  : 	class _Traits,
; 563  : 	class _Alloc> inline
; 564  : 	void swap(basic_ostringstream<_Elem, _Traits, _Alloc>& _Left,
; 565  : 		basic_ostringstream<_Elem, _Traits, _Alloc>& _Right)
; 566  : 	{	// swap _Left and _Right basic_ostringstreams
; 567  : 	_Left.swap(_Right);
; 568  : 	}
; 569  : 
; 570  : 		// TEMPLATE CLASS basic_stringstream
; 571  : template<class _Elem,
; 572  : 	class _Traits,
; 573  : 	class _Alloc>
; 574  : 	class basic_stringstream
; 575  : 		: public basic_iostream<_Elem, _Traits>
; 576  : 	{	// input/output stream associated with a character array
; 577  : public:
; 578  : 	typedef basic_stringstream<_Elem, _Traits, _Alloc> _Myt;
; 579  : 	typedef basic_iostream<_Elem, _Traits> _Mybase;
; 580  : 	typedef _Elem char_type;
; 581  : 	typedef _Traits traits_type;
; 582  : 	typedef _Alloc allocator_type;
; 583  : 	typedef typename _Traits::int_type int_type;
; 584  : 	typedef typename _Traits::pos_type pos_type;
; 585  : 	typedef typename _Traits::off_type off_type;
; 586  : 	typedef basic_stringbuf<_Elem, _Traits, _Alloc> _Mysb;
; 587  : 	typedef basic_string<_Elem, _Traits, _Alloc> _Mystr;
; 588  : 
; 589  : 	explicit basic_stringstream(ios_base::openmode _Mode =
; 590  : 		ios_base::in | ios_base::out)
; 591  : 		: _Mybase(&_Stringbuffer),

  000bd	ff 15 00 00 00
	00		 call	 DWORD PTR __imp_??0?$basic_iostream@DU?$char_traits@D@std@@@std@@QAE@PAV?$basic_streambuf@DU?$char_traits@D@std@@@1@@Z
  000c3	c7 45 fc 01 00
	00 00		 mov	 DWORD PTR __$EHRec$[ebp+8], 1

; 593  : 		{	// construct empty character buffer

  000ca	8b 85 38 ff ff
	ff		 mov	 eax, DWORD PTR _numers$[ebp]
  000d0	8b 40 04	 mov	 eax, DWORD PTR [eax+4]
  000d3	c7 84 05 38 ff
	ff ff 00 00 00
	00		 mov	 DWORD PTR _numers$[ebp+eax], OFFSET ??_7?$basic_stringstream@DU?$char_traits@D@std@@V?$allocator@D@2@@std@@6B@
  000de	8b 85 38 ff ff
	ff		 mov	 eax, DWORD PTR _numers$[ebp]
  000e4	8b 48 04	 mov	 ecx, DWORD PTR [eax+4]
  000e7	8d 41 98	 lea	 eax, DWORD PTR [ecx-104]
  000ea	89 84 0d 34 ff
	ff ff		 mov	 DWORD PTR _numers$[ebp+ecx-4], eax
  000f1	8d 85 50 ff ff
	ff		 lea	 eax, DWORD PTR _numers$[ebp+24]

; 30   : 		{	// construct empty character buffer from mode

  000f7	8b c8		 mov	 ecx, eax

; 592  : 			_Stringbuffer(_Mode)

  000f9	89 85 50 fe ff
	ff		 mov	 DWORD PTR _this$[ebp], eax

; 30   : 		{	// construct empty character buffer from mode

  000ff	ff 15 00 00 00
	00		 call	 DWORD PTR __imp_??0?$basic_streambuf@DU?$char_traits@D@std@@@std@@IAE@XZ
  00105	c7 85 50 ff ff
	ff 00 00 00 00	 mov	 DWORD PTR _numers$[ebp+24], OFFSET ??_7?$basic_stringbuf@DU?$char_traits@D@std@@V?$allocator@D@2@@std@@6B@

; 311  : 		_Seekhigh = 0;

  0010f	c7 45 88 00 00
	00 00		 mov	 DWORD PTR _numers$[ebp+80], 0

; 312  : 		_Mystate = _State;

  00116	c7 45 8c 00 00
	00 00		 mov	 DWORD PTR _numers$[ebp+84], 0
; File f:\users\krzysztof\documents\szko³a\2017-2018\informatyka\labolatorium\ruletka\ruletka\main.cpp

; 405  : 	stringstream numers;

  0011d	c7 45 fc 03 00
	00 00		 mov	 DWORD PTR __$EHRec$[ebp+8], 3

; 406  : 	numers << wylosowana_liczba;

  00124	8d 8d 48 ff ff
	ff		 lea	 ecx, DWORD PTR _numers$[ebp+16]
  0012a	ff 37		 push	 DWORD PTR [edi]
  0012c	ff 15 00 00 00
	00		 call	 DWORD PTR __imp_??6?$basic_ostream@DU?$char_traits@D@std@@@std@@QAEAAV01@H@Z
; File f:\program files (x86)\microsoft visual studio\2017\enterprise\vc\tools\msvc\14.11.25503\include\sstream

; 647  : 		return (_Stringbuffer.str());

  00132	8d 85 38 fe ff
	ff		 lea	 eax, DWORD PTR $T4[ebp]
  00138	50		 push	 eax
  00139	8d 8d 50 ff ff
	ff		 lea	 ecx, DWORD PTR _numers$[ebp+24]
  0013f	e8 00 00 00 00	 call	 ?str@?$basic_stringbuf@DU?$char_traits@D@std@@V?$allocator@D@2@@std@@QBE?AV?$basic_string@DU?$char_traits@D@std@@V?$allocator@D@2@@2@XZ ; std::basic_stringbuf<char,std::char_traits<char>,std::allocator<char> >::str
; File f:\program files (x86)\microsoft visual studio\2017\enterprise\vc\tools\msvc\14.11.25503\include\xstring

; 3830 : 	return (_STD move(_Right.insert(0, _Left)));

  00144	68 00 00 00 00	 push	 OFFSET ?G³os@@3V?$basic_string@DU?$char_traits@D@std@@V?$allocator@D@2@@std@@A ; G³os
  00149	51		 push	 ecx
  0014a	8d 8d 38 fe ff
	ff		 lea	 ecx, DWORD PTR $T4[ebp]
; File f:\users\krzysztof\documents\szko³a\2017-2018\informatyka\labolatorium\ruletka\ruletka\main.cpp

; 407  : 	PlaySound((G³os + numers.str() + ".wav").c_str(), nullptr, SND_SYNC);

  00150	c6 45 fc 04	 mov	 BYTE PTR __$EHRec$[ebp+8], 4
; File f:\program files (x86)\microsoft visual studio\2017\enterprise\vc\tools\msvc\14.11.25503\include\xstring

; 3830 : 	return (_STD move(_Right.insert(0, _Left)));

  00154	e8 00 00 00 00	 call	 ?insert@?$basic_string@DU?$char_traits@D@std@@V?$allocator@D@2@@std@@QAEAAV12@IABV12@@Z ; std::basic_string<char,std::char_traits<char>,std::allocator<char> >::insert

; 1576 : 		_Mysize(0),

  00159	c7 85 7c fe ff
	ff 00 00 00 00	 mov	 DWORD PTR $T11[ebp+16], 0

; 1577 : 		_Myres(0)

  00163	c7 85 80 fe ff
	ff 00 00 00 00	 mov	 DWORD PTR $T11[ebp+20], 0

; 2152 : 		_CSTD memcpy(_My_data_mem, _Right_data_mem, _Memcpy_move_size);

  0016d	0f 10 00	 movups	 xmm0, XMMWORD PTR [eax]
  00170	0f 11 85 6c fe
	ff ff		 movups	 XMMWORD PTR $T11[ebp], xmm0
  00177	f3 0f 7e 40 10	 movq	 xmm0, QWORD PTR [eax+16]
  0017c	66 0f d6 85 7c
	fe ff ff	 movq	 QWORD PTR $T11[ebp+16], xmm0

; 3698 : 		_My_data._Mysize = 0;

  00184	c7 40 10 00 00
	00 00		 mov	 DWORD PTR [eax+16], 0

; 3699 : 		_My_data._Myres = this->_BUF_SIZE - 1;

  0018b	c7 40 14 0f 00
	00 00		 mov	 DWORD PTR [eax+20], 15	; 0000000fH
; File f:\program files (x86)\microsoft visual studio\2017\enterprise\vc\tools\msvc\14.11.25503\include\iosfwd

; 517  : 		_Left = _Right;

  00192	c6 00 00	 mov	 BYTE PTR [eax], 0
; File f:\users\krzysztof\documents\szko³a\2017-2018\informatyka\labolatorium\ruletka\ruletka\main.cpp

; 407  : 	PlaySound((G³os + numers.str() + ".wav").c_str(), nullptr, SND_SYNC);

  00195	68 00 00 00 00	 push	 OFFSET ??_C@_04IBLEHOMF@?4wav?$AA@
  0019a	8d 95 6c fe ff
	ff		 lea	 edx, DWORD PTR $T11[ebp]
  001a0	c6 45 fc 05	 mov	 BYTE PTR __$EHRec$[ebp+8], 5
  001a4	8d 8d 20 fe ff
	ff		 lea	 ecx, DWORD PTR $T19[ebp]
  001aa	e8 00 00 00 00	 call	 ??$?HDU?$char_traits@D@std@@V?$allocator@D@1@@std@@YA?AV?$basic_string@DU?$char_traits@D@std@@V?$allocator@D@2@@0@$$QAV10@QBD@Z ; std::operator+<char,std::char_traits<char>,std::allocator<char> >
  001af	83 c4 04	 add	 esp, 4
; File f:\program files (x86)\microsoft visual studio\2017\enterprise\vc\tools\msvc\14.11.25503\include\xstring

; 1617 : 		return (_BUF_SIZE <= _Myres);

  001b2	83 78 14 10	 cmp	 DWORD PTR [eax+20], 16	; 00000010H

; 1607 : 		if (_Large_string_engaged())

  001b6	72 02		 jb	 SHORT $LN482@Odczytaj_l
; File f:\program files (x86)\microsoft visual studio\2017\enterprise\vc\tools\msvc\14.11.25503\include\xstddef

; 265  : 	return (_Ptr);

  001b8	8b 00		 mov	 eax, DWORD PTR [eax]
$LN482@Odczytaj_l:
; File f:\users\krzysztof\documents\szko³a\2017-2018\informatyka\labolatorium\ruletka\ruletka\main.cpp

; 407  : 	PlaySound((G³os + numers.str() + ".wav").c_str(), nullptr, SND_SYNC);

  001ba	8b 3d 00 00 00
	00		 mov	 edi, DWORD PTR __imp__PlaySoundA@12
  001c0	6a 00		 push	 0
  001c2	6a 00		 push	 0
  001c4	50		 push	 eax
  001c5	ff d7		 call	 edi
  001c7	8d 8d 20 fe ff
	ff		 lea	 ecx, DWORD PTR $T19[ebp]
  001cd	e8 00 00 00 00	 call	 ??1?$basic_string@DU?$char_traits@D@std@@V?$allocator@D@2@@std@@QAE@XZ ; std::basic_string<char,std::char_traits<char>,std::allocator<char> >::~basic_string<char,std::char_traits<char>,std::allocator<char> >
  001d2	8d 8d 6c fe ff
	ff		 lea	 ecx, DWORD PTR $T11[ebp]
  001d8	e8 00 00 00 00	 call	 ??1?$basic_string@DU?$char_traits@D@std@@V?$allocator@D@2@@std@@QAE@XZ ; std::basic_string<char,std::char_traits<char>,std::allocator<char> >::~basic_string<char,std::char_traits<char>,std::allocator<char> >
  001dd	8d 8d 38 fe ff
	ff		 lea	 ecx, DWORD PTR $T4[ebp]
  001e3	c6 45 fc 03	 mov	 BYTE PTR __$EHRec$[ebp+8], 3
  001e7	e8 00 00 00 00	 call	 ??1?$basic_string@DU?$char_traits@D@std@@V?$allocator@D@2@@std@@QAE@XZ ; std::basic_string<char,std::char_traits<char>,std::allocator<char> >::~basic_string<char,std::char_traits<char>,std::allocator<char> >

; 408  : 	if (typ_zak³adu == "p" || typ_zak³adu == "n")

  001ec	ba 00 00 00 00	 mov	 edx, OFFSET ??_C@_01JBBJJEPG@p?$AA@
  001f1	8b ce		 mov	 ecx, esi
  001f3	e8 00 00 00 00	 call	 ??$?8DU?$char_traits@D@std@@V?$allocator@D@1@@std@@YA_NABV?$basic_string@DU?$char_traits@D@std@@V?$allocator@D@2@@0@QBD@Z ; std::operator==<char,std::char_traits<char>,std::allocator<char> >
  001f8	84 c0		 test	 al, al
  001fa	0f 85 47 03 00
	00		 jne	 $LN6@Odczytaj_l
  00200	ba 00 00 00 00	 mov	 edx, OFFSET ??_C@_01EFFIKLCJ@n?$AA@
  00205	8b ce		 mov	 ecx, esi
  00207	e8 00 00 00 00	 call	 ??$?8DU?$char_traits@D@std@@V?$allocator@D@1@@std@@YA_NABV?$basic_string@DU?$char_traits@D@std@@V?$allocator@D@2@@0@QBD@Z ; std::operator==<char,std::char_traits<char>,std::allocator<char> >
  0020c	84 c0		 test	 al, al
  0020e	0f 85 33 03 00
	00		 jne	 $LN6@Odczytaj_l

; 413  : 	else if (typ_zak³adu == "r" || typ_zak³adu == "b")

  00214	ba 00 00 00 00	 mov	 edx, OFFSET ??_C@_01KDCPPGHE@r?$AA@
  00219	8b ce		 mov	 ecx, esi
  0021b	e8 00 00 00 00	 call	 ??$?8DU?$char_traits@D@std@@V?$allocator@D@1@@std@@YA_NABV?$basic_string@DU?$char_traits@D@std@@V?$allocator@D@2@@0@QBD@Z ; std::operator==<char,std::char_traits<char>,std::allocator<char> >
  00220	84 c0		 test	 al, al
  00222	0f 85 fa 02 00
	00		 jne	 $LN11@Odczytaj_l
  00228	ba 00 00 00 00	 mov	 edx, OFFSET ??_C@_01OJONOECF@b?$AA@
  0022d	8b ce		 mov	 ecx, esi
  0022f	e8 00 00 00 00	 call	 ??$?8DU?$char_traits@D@std@@V?$allocator@D@1@@std@@YA_NABV?$basic_string@DU?$char_traits@D@std@@V?$allocator@D@2@@0@QBD@Z ; std::operator==<char,std::char_traits<char>,std::allocator<char> >
  00234	84 c0		 test	 al, al
  00236	0f 85 e6 02 00
	00		 jne	 $LN11@Odczytaj_l

; 418  : 	else if (typ_zak³adu == "g" || typ_zak³adu == "d")

  0023c	ba 00 00 00 00	 mov	 edx, OFFSET ??_C@_01JEJKBAGA@g?$AA@
  00241	8b ce		 mov	 ecx, esi
  00243	e8 00 00 00 00	 call	 ??$?8DU?$char_traits@D@std@@V?$allocator@D@1@@std@@YA_NABV?$basic_string@DU?$char_traits@D@std@@V?$allocator@D@2@@0@QBD@Z ; std::operator==<char,std::char_traits<char>,std::allocator<char> >
  00248	84 c0		 test	 al, al
  0024a	0f 85 b3 02 00
	00		 jne	 $LN16@Odczytaj_l
  00250	ba 00 00 00 00	 mov	 edx, OFFSET ??_C@_01LPLHEDKD@d?$AA@
  00255	8b ce		 mov	 ecx, esi
  00257	e8 00 00 00 00	 call	 ??$?8DU?$char_traits@D@std@@V?$allocator@D@1@@std@@YA_NABV?$basic_string@DU?$char_traits@D@std@@V?$allocator@D@2@@0@QBD@Z ; std::operator==<char,std::char_traits<char>,std::allocator<char> >
  0025c	84 c0		 test	 al, al
  0025e	0f 85 9f 02 00
	00		 jne	 $LN16@Odczytaj_l
; File f:\program files (x86)\microsoft visual studio\2017\enterprise\vc\tools\msvc\14.11.25503\include\xstring

; 1617 : 		return (_BUF_SIZE <= _Myres);

  00264	8b 4e 14	 mov	 ecx, DWORD PTR [esi+20]

; 1606 : 		const value_type * _Result = _Bx._Buf;

  00267	8b c6		 mov	 eax, esi

; 1617 : 		return (_BUF_SIZE <= _Myres);

  00269	83 f9 10	 cmp	 ecx, 16			; 00000010H

; 1607 : 		if (_Large_string_engaged())

  0026c	72 02		 jb	 SHORT $LN593@Odczytaj_l
; File f:\program files (x86)\microsoft visual studio\2017\enterprise\vc\tools\msvc\14.11.25503\include\xstddef

; 265  : 	return (_Ptr);

  0026e	8b 06		 mov	 eax, DWORD PTR [esi]
$LN593@Odczytaj_l:
; File f:\users\krzysztof\documents\szko³a\2017-2018\informatyka\labolatorium\ruletka\ruletka\main.cpp

; 423  : 	else if (typ_zak³adu[0] == 'k')

  00270	80 38 6b	 cmp	 BYTE PTR [eax], 107	; 0000006bH
  00273	0f 85 f3 00 00
	00		 jne	 $LN19@Odczytaj_l

; 424  : 		PlaySound((G³os + "k" + (char)(((wylosowana_liczba - 1) % 3) + 49) + ".wav").c_str(), nullptr, SND_SYNC);

  00279	68 00 00 00 00	 push	 OFFSET ??_C@_01DICPFPGM@k?$AA@
  0027e	8d 8d 38 fe ff
	ff		 lea	 ecx, DWORD PTR $T55[ebp]
  00284	e8 00 00 00 00	 call	 ??$?HDU?$char_traits@D@std@@V?$allocator@D@1@@std@@YA?AV?$basic_string@DU?$char_traits@D@std@@V?$allocator@D@2@@0@ABV10@QBD@Z ; std::operator+<char,std::char_traits<char>,std::allocator<char> >
  00289	83 c4 04	 add	 esp, 4
  0028c	8b f0		 mov	 esi, eax
  0028e	c6 45 fc 06	 mov	 BYTE PTR __$EHRec$[ebp+8], 6
  00292	b9 03 00 00 00	 mov	 ecx, 3
  00297	8b 85 84 fe ff
	ff		 mov	 eax, DWORD PTR _wylosowana_liczba$GSCopy$1$[ebp]
  0029d	8b 00		 mov	 eax, DWORD PTR [eax]
  0029f	48		 dec	 eax
  002a0	99		 cdq
  002a1	f7 f9		 idiv	 ecx
; File f:\program files (x86)\microsoft visual studio\2017\enterprise\vc\tools\msvc\14.11.25503\include\xstring

; 2991 : 		const size_type _Old_size = _My_data._Mysize;

  002a3	8b 4e 10	 mov	 ecx, DWORD PTR [esi+16]
; File f:\users\krzysztof\documents\szko³a\2017-2018\informatyka\labolatorium\ruletka\ruletka\main.cpp

; 424  : 		PlaySound((G³os + "k" + (char)(((wylosowana_liczba - 1) % 3) + 49) + ".wav").c_str(), nullptr, SND_SYNC);

  002a6	80 c2 31	 add	 dl, 49			; 00000031H
; File f:\program files (x86)\microsoft visual studio\2017\enterprise\vc\tools\msvc\14.11.25503\include\xstring

; 3895 : 	_Left.push_back(_Right);

  002a9	88 55 e8	 mov	 BYTE PTR __Ch$[ebp], dl

; 2992 : 		if (_Old_size < _My_data._Myres)

  002ac	3b 4e 14	 cmp	 ecx, DWORD PTR [esi+20]
  002af	73 1a		 jae	 SHORT $LN604@Odczytaj_l

; 1617 : 		return (_BUF_SIZE <= _Myres);

  002b1	83 7e 14 10	 cmp	 DWORD PTR [esi+20], 16	; 00000010H

; 2994 : 			_My_data._Mysize = _Old_size + 1;

  002b5	8d 41 01	 lea	 eax, DWORD PTR [ecx+1]
  002b8	89 46 10	 mov	 DWORD PTR [esi+16], eax

; 1595 : 		value_type * _Result = _Bx._Buf;

  002bb	8b c6		 mov	 eax, esi

; 1596 : 		if (_Large_string_engaged())

  002bd	72 02		 jb	 SHORT $LN613@Odczytaj_l
; File f:\program files (x86)\microsoft visual studio\2017\enterprise\vc\tools\msvc\14.11.25503\include\xstddef

; 265  : 	return (_Ptr);

  002bf	8b 06		 mov	 eax, DWORD PTR [esi]
$LN613@Odczytaj_l:
; File f:\program files (x86)\microsoft visual studio\2017\enterprise\vc\tools\msvc\14.11.25503\include\iosfwd

; 517  : 		_Left = _Right;

  002c1	88 14 08	 mov	 BYTE PTR [eax+ecx], dl
  002c4	c6 44 08 01 00	 mov	 BYTE PTR [eax+ecx+1], 0
; File f:\program files (x86)\microsoft visual studio\2017\enterprise\vc\tools\msvc\14.11.25503\include\xstring

; 2998 : 			return;

  002c9	eb 18		 jmp	 SHORT $LN603@Odczytaj_l
$LN604@Odczytaj_l:

; 2999 : 			}
; 3000 : 
; 3001 : 		_Reallocate_grow_by(1,

  002cb	ff 75 e8	 push	 DWORD PTR __Ch$[ebp]
  002ce	c6 85 84 fe ff
	ff 00		 mov	 BYTE PTR $T59[ebp], 0
  002d5	ff b5 84 fe ff
	ff		 push	 DWORD PTR $T59[ebp]
  002db	51		 push	 ecx
  002dc	8b ce		 mov	 ecx, esi
  002de	e8 00 00 00 00	 call	 ??$_Reallocate_grow_by@V<lambda_15711c68e099a15a58f4d77303cb286d>@@D@?$basic_string@DU?$char_traits@D@std@@V?$allocator@D@2@@std@@QAEAAV01@IV<lambda_15711c68e099a15a58f4d77303cb286d>@@D@Z ; std::basic_string<char,std::char_traits<char>,std::allocator<char> >::_Reallocate_grow_by<<lambda_15711c68e099a15a58f4d77303cb286d>,char>
$LN603@Odczytaj_l:

; 1576 : 		_Mysize(0),

  002e3	c7 85 7c fe ff
	ff 00 00 00 00	 mov	 DWORD PTR $T65[ebp+16], 0

; 1577 : 		_Myres(0)

  002ed	c7 85 80 fe ff
	ff 00 00 00 00	 mov	 DWORD PTR $T65[ebp+20], 0

; 2152 : 		_CSTD memcpy(_My_data_mem, _Right_data_mem, _Memcpy_move_size);

  002f7	0f 10 06	 movups	 xmm0, XMMWORD PTR [esi]
  002fa	0f 11 85 6c fe
	ff ff		 movups	 XMMWORD PTR $T65[ebp], xmm0
  00301	f3 0f 7e 46 10	 movq	 xmm0, QWORD PTR [esi+16]
  00306	66 0f d6 85 7c
	fe ff ff	 movq	 QWORD PTR $T65[ebp+16], xmm0

; 3698 : 		_My_data._Mysize = 0;

  0030e	c7 46 10 00 00
	00 00		 mov	 DWORD PTR [esi+16], 0

; 3699 : 		_My_data._Myres = this->_BUF_SIZE - 1;

  00315	c7 46 14 0f 00
	00 00		 mov	 DWORD PTR [esi+20], 15	; 0000000fH
; File f:\program files (x86)\microsoft visual studio\2017\enterprise\vc\tools\msvc\14.11.25503\include\iosfwd

; 517  : 		_Left = _Right;

  0031c	c6 06 00	 mov	 BYTE PTR [esi], 0
; File f:\users\krzysztof\documents\szko³a\2017-2018\informatyka\labolatorium\ruletka\ruletka\main.cpp

; 424  : 		PlaySound((G³os + "k" + (char)(((wylosowana_liczba - 1) % 3) + 49) + ".wav").c_str(), nullptr, SND_SYNC);

  0031f	68 00 00 00 00	 push	 OFFSET ??_C@_04IBLEHOMF@?4wav?$AA@
  00324	8d 95 6c fe ff
	ff		 lea	 edx, DWORD PTR $T65[ebp]
  0032a	c6 45 fc 07	 mov	 BYTE PTR __$EHRec$[ebp+8], 7
  0032e	8d 8d 20 fe ff
	ff		 lea	 ecx, DWORD PTR $T73[ebp]
  00334	e8 00 00 00 00	 call	 ??$?HDU?$char_traits@D@std@@V?$allocator@D@1@@std@@YA?AV?$basic_string@DU?$char_traits@D@std@@V?$allocator@D@2@@0@$$QAV10@QBD@Z ; std::operator+<char,std::char_traits<char>,std::allocator<char> >
  00339	83 c4 04	 add	 esp, 4
; File f:\program files (x86)\microsoft visual studio\2017\enterprise\vc\tools\msvc\14.11.25503\include\xstring

; 1617 : 		return (_BUF_SIZE <= _Myres);

  0033c	83 78 14 10	 cmp	 DWORD PTR [eax+20], 16	; 00000010H

; 1607 : 		if (_Large_string_engaged())

  00340	72 02		 jb	 SHORT $LN696@Odczytaj_l
; File f:\program files (x86)\microsoft visual studio\2017\enterprise\vc\tools\msvc\14.11.25503\include\xstddef

; 265  : 	return (_Ptr);

  00342	8b 00		 mov	 eax, DWORD PTR [eax]
$LN696@Odczytaj_l:
; File f:\users\krzysztof\documents\szko³a\2017-2018\informatyka\labolatorium\ruletka\ruletka\main.cpp

; 424  : 		PlaySound((G³os + "k" + (char)(((wylosowana_liczba - 1) % 3) + 49) + ".wav").c_str(), nullptr, SND_SYNC);

  00344	6a 00		 push	 0
  00346	6a 00		 push	 0
  00348	50		 push	 eax
  00349	ff d7		 call	 edi
  0034b	8d 8d 20 fe ff
	ff		 lea	 ecx, DWORD PTR $T73[ebp]
  00351	e8 00 00 00 00	 call	 ??1?$basic_string@DU?$char_traits@D@std@@V?$allocator@D@2@@std@@QAE@XZ ; std::basic_string<char,std::char_traits<char>,std::allocator<char> >::~basic_string<char,std::char_traits<char>,std::allocator<char> >
  00356	8d 8d 6c fe ff
	ff		 lea	 ecx, DWORD PTR $T65[ebp]
  0035c	e8 00 00 00 00	 call	 ??1?$basic_string@DU?$char_traits@D@std@@V?$allocator@D@2@@std@@QAE@XZ ; std::basic_string<char,std::char_traits<char>,std::allocator<char> >::~basic_string<char,std::char_traits<char>,std::allocator<char> >
  00361	8d 8d 38 fe ff
	ff		 lea	 ecx, DWORD PTR $T55[ebp]

; 425  : 	else if (typ_zak³adu[0] == 'w')

  00367	e9 15 02 00 00	 jmp	 $LN1106@Odczytaj_l
$LN19@Odczytaj_l:
; File f:\program files (x86)\microsoft visual studio\2017\enterprise\vc\tools\msvc\14.11.25503\include\xstring

; 1617 : 		return (_BUF_SIZE <= _Myres);

  0036c	83 f9 10	 cmp	 ecx, 16			; 00000010H

; 1607 : 		if (_Large_string_engaged())

  0036f	72 02		 jb	 SHORT $LN711@Odczytaj_l
; File f:\program files (x86)\microsoft visual studio\2017\enterprise\vc\tools\msvc\14.11.25503\include\xstddef

; 265  : 	return (_Ptr);

  00371	8b 36		 mov	 esi, DWORD PTR [esi]
$LN711@Odczytaj_l:
; File f:\users\krzysztof\documents\szko³a\2017-2018\informatyka\labolatorium\ruletka\ruletka\main.cpp

; 425  : 	else if (typ_zak³adu[0] == 'w')

  00373	80 3e 77	 cmp	 BYTE PTR [esi], 119	; 00000077H
  00376	0f 85 0a 02 00
	00		 jne	 $LN8@Odczytaj_l
  0037c	68 b0 00 00 00	 push	 176			; 000000b0H
  00381	8d 85 88 fe ff
	ff		 lea	 eax, DWORD PTR _numers$90[ebp]
  00387	6a 00		 push	 0
  00389	50		 push	 eax
  0038a	e8 00 00 00 00	 call	 _memset
  0038f	83 c4 0c	 add	 esp, 12			; 0000000cH
; File f:\program files (x86)\microsoft visual studio\2017\enterprise\vc\tools\msvc\14.11.25503\include\sstream

; 593  : 		{	// construct empty character buffer

  00392	c7 85 88 fe ff
	ff 00 00 00 00	 mov	 DWORD PTR _numers$90[ebp], OFFSET ??_8?$basic_stringstream@DU?$char_traits@D@std@@V?$allocator@D@2@@std@@7B?$basic_istream@DU?$char_traits@D@std@@@1@@
  0039c	8d 8d f0 fe ff
	ff		 lea	 ecx, DWORD PTR _numers$90[ebp+104]
  003a2	c7 85 98 fe ff
	ff 00 00 00 00	 mov	 DWORD PTR _numers$90[ebp+16], OFFSET ??_8?$basic_stringstream@DU?$char_traits@D@std@@V?$allocator@D@2@@std@@7B?$basic_ostream@DU?$char_traits@D@std@@@1@@
  003ac	ff 15 00 00 00
	00		 call	 DWORD PTR __imp_??0?$basic_ios@DU?$char_traits@D@std@@@std@@IAE@XZ
  003b2	6a 00		 push	 0
  003b4	8d 85 a0 fe ff
	ff		 lea	 eax, DWORD PTR _numers$90[ebp+24]
  003ba	c6 45 fc 08	 mov	 BYTE PTR __$EHRec$[ebp+8], 8
  003be	50		 push	 eax
  003bf	8d 8d 88 fe ff
	ff		 lea	 ecx, DWORD PTR _numers$90[ebp]
  003c5	c7 45 e8 2b 00
	00 00		 mov	 DWORD PTR $T1[ebp], 43	; 0000002bH

; 313  : 
; 314  : 		if (_Count != 0
; 315  : 			&& (_Mystate & (_Noread | _Constant)) != (_Noread | _Constant))
; 316  : 			{	// finite buffer that can be read or written, set it up
; 317  : 			_Elem *_Pnew = _Unfancy(_Al.allocate(_Count));
; 318  : 			_Traits::copy(_Pnew, _Ptr, _Count);
; 319  : 			_Seekhigh = _Pnew + _Count;
; 320  : 
; 321  : 			if (!(_Mystate & _Noread))
; 322  : 				_Mysb::setg(_Pnew, _Pnew,
; 323  : 					_Pnew + _Count);	// setup read buffer
; 324  : 			if (!(_Mystate & _Constant))
; 325  : 				{	// setup write buffer, and maybe read buffer
; 326  : 				_Mysb::setp(_Pnew,
; 327  : 					(_Mystate & (_Atend | _Append)) ? _Pnew + _Count : _Pnew,
; 328  : 					_Pnew + _Count);
; 329  : 				if (_Mysb::gptr() == 0)
; 330  : 					_Mysb::setg(_Pnew, 0, _Pnew);
; 331  : 				}
; 332  : 			_Mystate |= _Allocated;
; 333  : 			}
; 334  : 		}
; 335  : 
; 336  : 	void _Tidy()
; 337  : 		{	// discard any allocated buffer and clear pointers
; 338  : 		if (_Mystate & _Allocated)
; 339  : 			_Al.deallocate(pointer_traits<_Ptrty>::pointer_to(*_Mysb::eback()),
; 340  : 				(_Mysb::pptr() != 0 ? _Mysb::epptr()
; 341  : 					: _Mysb::egptr()) - _Mysb::eback());
; 342  : 		_Mysb::setg(0, 0, 0);
; 343  : 		_Mysb::setp(0, 0);
; 344  : 		_Seekhigh = 0;
; 345  : 		_Mystate &= ~_Allocated;
; 346  : 		}
; 347  : 
; 348  : private:
; 349  : 	typedef typename allocator_traits<allocator_type>::pointer _Ptrty;
; 350  : 
; 351  : 	enum
; 352  : 		{	// constant for minimum buffer size
; 353  : 		_MINSIZE = 32};
; 354  : 
; 355  : 	_Strstate _Getstate(ios_base::openmode _Mode)
; 356  : 		{	// convert open mode to stream state bits
; 357  : 		_Strstate _State = (_Strstate)0;
; 358  : 		if (!(_Mode & ios_base::in))
; 359  : 			_State |= _Noread;
; 360  : 		if (!(_Mode & ios_base::out))
; 361  : 			_State |= _Constant;
; 362  : 		if (_Mode & ios_base::app)
; 363  : 			_State |= _Append;
; 364  : 		if (_Mode & ios_base::ate)
; 365  : 			_State |= _Atend;
; 366  : 		return (_State);
; 367  : 		}
; 368  : 
; 369  : 	_Elem *_Seekhigh;	// the high-water pointer in character array
; 370  : 	_Strstate _Mystate;	// the stream state
; 371  : 	allocator_type _Al;	// the allocator object
; 372  : 	};
; 373  : 
; 374  : 	// basic_stringbuf TEMPLATE OPERATORS
; 375  : template<class _Elem,
; 376  : 	class _Traits,
; 377  : 	class _Alloc> inline
; 378  : 	void swap(basic_stringbuf<_Elem, _Traits, _Alloc>& _Left,
; 379  : 		basic_stringbuf<_Elem, _Traits, _Alloc>& _Right)
; 380  : 	{	// swap _Left and _Right basic_stringbufs
; 381  : 	_Left.swap(_Right);
; 382  : 	}
; 383  : 
; 384  : 		// TEMPLATE CLASS basic_istringstream
; 385  : template<class _Elem,
; 386  : 	class _Traits,
; 387  : 	class _Alloc>
; 388  : 	class basic_istringstream
; 389  : 		: public basic_istream<_Elem, _Traits>
; 390  : 	{	// input stream associated with a character array
; 391  : public:
; 392  : 	typedef basic_istringstream<_Elem, _Traits, _Alloc> _Myt;
; 393  : 	typedef basic_istream<_Elem, _Traits> _Mybase;
; 394  : 	typedef _Alloc allocator_type;
; 395  : 	typedef basic_stringbuf<_Elem, _Traits, _Alloc> _Mysb;
; 396  : 	typedef basic_string<_Elem, _Traits, _Alloc> _Mystr;
; 397  : 
; 398  : 	explicit basic_istringstream(ios_base::openmode _Mode = ios_base::in)
; 399  : 		: _Mybase(&_Stringbuffer),
; 400  : 			_Stringbuffer(_Mode | ios_base::in)
; 401  : 		{	// construct empty readable character buffer
; 402  : 		}
; 403  : 
; 404  : 	explicit basic_istringstream(const _Mystr& _Str,
; 405  : 		ios_base::openmode _Mode = ios_base::in)
; 406  : 		: _Mybase(&_Stringbuffer),
; 407  : 			_Stringbuffer(_Str, _Mode | ios_base::in)
; 408  : 		{	// construct readable character buffer from NTCS
; 409  : 		}
; 410  : 
; 411  : 	basic_istringstream(_Myt&& _Right)
; 412  : 		: _Mybase(&_Stringbuffer)
; 413  : 		{	// construct by moving _Right
; 414  : 		_Assign_rv(_STD move(_Right));
; 415  : 		}
; 416  : 
; 417  : 	_Myt& operator=(_Myt&& _Right)
; 418  : 		{	// move from _Right
; 419  : 		_Assign_rv(_STD move(_Right));
; 420  : 		return (*this);
; 421  : 		}
; 422  : 
; 423  : 	void _Assign_rv(_Myt&& _Right)
; 424  : 		{	// assign by moving _Right
; 425  : 		if (this != _STD addressof(_Right))
; 426  : 			{	// different, worth moving
; 427  : 			_Stringbuffer.str(_Mystr());
; 428  : 			this->swap(_Right);
; 429  : 			}
; 430  : 		}
; 431  : 
; 432  : 	void swap(_Myt& _Right)
; 433  : 		{	// swap with _Right
; 434  : 		if (this != _STD addressof(_Right))
; 435  : 			{	// different, swap base and buffer
; 436  : 			_Mybase::swap(_Right);
; 437  : 			_Stringbuffer.swap(_Right._Stringbuffer);
; 438  : 			}
; 439  : 		}
; 440  : 
; 441  : 	basic_istringstream(const _Myt&) = delete;
; 442  : 	_Myt& operator=(const _Myt&) = delete;
; 443  : 
; 444  : 	virtual ~basic_istringstream() _NOEXCEPT
; 445  : 		{	// destroy the object
; 446  : 		}
; 447  : 
; 448  : 	_Mysb *rdbuf() const
; 449  : 		{	// return pointer to file buffer
; 450  : 		return ((_Mysb *)&_Stringbuffer);
; 451  : 		}
; 452  : 
; 453  : 	_Mystr str() const
; 454  : 		{	// return string copy of character array
; 455  : 		return (_Stringbuffer.str());
; 456  : 		}
; 457  : 
; 458  : 	void str(const _Mystr& _Newstr)
; 459  : 		{	// replace character array from string
; 460  : 		_Stringbuffer.str(_Newstr);
; 461  : 		}
; 462  : 
; 463  : private:
; 464  : 	_Mysb _Stringbuffer;	// the string buffer
; 465  : 	};
; 466  : 
; 467  : 	// basic_istringstream TEMPLATE OPERATORS
; 468  : template<class _Elem,
; 469  : 	class _Traits,
; 470  : 	class _Alloc> inline
; 471  : 	void swap(basic_istringstream<_Elem, _Traits, _Alloc>& _Left,
; 472  : 		basic_istringstream<_Elem, _Traits, _Alloc>& _Right)
; 473  : 	{	// swap _Left and _Right basic_istringstreams
; 474  : 	_Left.swap(_Right);
; 475  : 	}
; 476  : 
; 477  : 		// TEMPLATE CLASS basic_ostringstream
; 478  : template<class _Elem,
; 479  : 	class _Traits,
; 480  : 	class _Alloc>
; 481  : 	class basic_ostringstream
; 482  : 		: public basic_ostream<_Elem, _Traits>
; 483  : 	{	// output stream associated with a character array
; 484  : public:
; 485  : 	typedef basic_ostringstream<_Elem, _Traits, _Alloc> _Myt;
; 486  : 	typedef basic_ostream<_Elem, _Traits> _Mybase;
; 487  : 	typedef _Alloc allocator_type;
; 488  : 	typedef basic_stringbuf<_Elem, _Traits, _Alloc> _Mysb;
; 489  : 	typedef basic_string<_Elem, _Traits, _Alloc> _Mystr;
; 490  : 
; 491  : 	explicit basic_ostringstream(ios_base::openmode _Mode = ios_base::out)
; 492  : 		: _Mybase(&_Stringbuffer),
; 493  : 			_Stringbuffer(_Mode | ios_base::out)
; 494  : 		{	// construct empty writable character buffer
; 495  : 		}
; 496  : 
; 497  : 	explicit basic_ostringstream(const _Mystr& _Str,
; 498  : 		ios_base::openmode _Mode = ios_base::out)
; 499  : 		: _Mybase(&_Stringbuffer),
; 500  : 			_Stringbuffer(_Str, _Mode | ios_base::out)
; 501  : 		{	// construct writable character buffer from NTCS
; 502  : 		}
; 503  : 
; 504  : 	basic_ostringstream(_Myt&& _Right)
; 505  : 		: _Mybase(&_Stringbuffer)
; 506  : 		{	// construct by moving _Right
; 507  : 		_Assign_rv(_STD move(_Right));
; 508  : 		}
; 509  : 
; 510  : 	_Myt& operator=(_Myt&& _Right)
; 511  : 		{	// move from _Right
; 512  : 		_Assign_rv(_STD move(_Right));
; 513  : 		return (*this);
; 514  : 		}
; 515  : 
; 516  : 	void _Assign_rv(_Myt&& _Right)
; 517  : 		{	// assign by moving _Right
; 518  : 		if (this != _STD addressof(_Right))
; 519  : 			{	// different, worth moving
; 520  : 			_Stringbuffer.str(_Mystr());
; 521  : 			this->swap(_Right);
; 522  : 			}
; 523  : 		}
; 524  : 
; 525  : 	void swap(_Myt& _Right)
; 526  : 		{	// swap with _Right
; 527  : 		if (this != _STD addressof(_Right))
; 528  : 			{	// different, swap base and buffer
; 529  : 			_Mybase::swap(_Right);
; 530  : 			_Stringbuffer.swap(_Right._Stringbuffer);
; 531  : 			}
; 532  : 		}
; 533  : 
; 534  : 	basic_ostringstream(const _Myt&) = delete;
; 535  : 	_Myt& operator=(const _Myt&) = delete;
; 536  : 
; 537  : 	virtual ~basic_ostringstream() _NOEXCEPT
; 538  : 		{	// destroy the object
; 539  : 		}
; 540  : 
; 541  : 	_Mysb *rdbuf() const
; 542  : 		{	// return pointer to buffer
; 543  : 		return ((_Mysb *)&_Stringbuffer);
; 544  : 		}
; 545  : 
; 546  : 	_Mystr str() const
; 547  : 		{	// return string copy of character array
; 548  : 		return (_Stringbuffer.str());
; 549  : 		}
; 550  : 
; 551  : 	void str(const _Mystr& _Newstr)
; 552  : 		{	// replace character array from string
; 553  : 		_Stringbuffer.str(_Newstr);
; 554  : 		}
; 555  : 
; 556  : private:
; 557  : 	_Mysb _Stringbuffer;	// the string buffer
; 558  : 	};
; 559  : 
; 560  : 	// basic_ostringstream TEMPLATE OPERATORS
; 561  : template<class _Elem,
; 562  : 	class _Traits,
; 563  : 	class _Alloc> inline
; 564  : 	void swap(basic_ostringstream<_Elem, _Traits, _Alloc>& _Left,
; 565  : 		basic_ostringstream<_Elem, _Traits, _Alloc>& _Right)
; 566  : 	{	// swap _Left and _Right basic_ostringstreams
; 567  : 	_Left.swap(_Right);
; 568  : 	}
; 569  : 
; 570  : 		// TEMPLATE CLASS basic_stringstream
; 571  : template<class _Elem,
; 572  : 	class _Traits,
; 573  : 	class _Alloc>
; 574  : 	class basic_stringstream
; 575  : 		: public basic_iostream<_Elem, _Traits>
; 576  : 	{	// input/output stream associated with a character array
; 577  : public:
; 578  : 	typedef basic_stringstream<_Elem, _Traits, _Alloc> _Myt;
; 579  : 	typedef basic_iostream<_Elem, _Traits> _Mybase;
; 580  : 	typedef _Elem char_type;
; 581  : 	typedef _Traits traits_type;
; 582  : 	typedef _Alloc allocator_type;
; 583  : 	typedef typename _Traits::int_type int_type;
; 584  : 	typedef typename _Traits::pos_type pos_type;
; 585  : 	typedef typename _Traits::off_type off_type;
; 586  : 	typedef basic_stringbuf<_Elem, _Traits, _Alloc> _Mysb;
; 587  : 	typedef basic_string<_Elem, _Traits, _Alloc> _Mystr;
; 588  : 
; 589  : 	explicit basic_stringstream(ios_base::openmode _Mode =
; 590  : 		ios_base::in | ios_base::out)
; 591  : 		: _Mybase(&_Stringbuffer),

  003cc	ff 15 00 00 00
	00		 call	 DWORD PTR __imp_??0?$basic_iostream@DU?$char_traits@D@std@@@std@@QAE@PAV?$basic_streambuf@DU?$char_traits@D@std@@@1@@Z
  003d2	c7 45 fc 09 00
	00 00		 mov	 DWORD PTR __$EHRec$[ebp+8], 9

; 593  : 		{	// construct empty character buffer

  003d9	8b 85 88 fe ff
	ff		 mov	 eax, DWORD PTR _numers$90[ebp]
  003df	8b 40 04	 mov	 eax, DWORD PTR [eax+4]
  003e2	c7 84 05 88 fe
	ff ff 00 00 00
	00		 mov	 DWORD PTR _numers$90[ebp+eax], OFFSET ??_7?$basic_stringstream@DU?$char_traits@D@std@@V?$allocator@D@2@@std@@6B@
  003ed	8b 85 88 fe ff
	ff		 mov	 eax, DWORD PTR _numers$90[ebp]
  003f3	8b 48 04	 mov	 ecx, DWORD PTR [eax+4]
  003f6	8d 41 98	 lea	 eax, DWORD PTR [ecx-104]
  003f9	89 84 0d 84 fe
	ff ff		 mov	 DWORD PTR _numers$90[ebp+ecx-4], eax
  00400	8d 85 a0 fe ff
	ff		 lea	 eax, DWORD PTR _numers$90[ebp+24]

; 30   : 		{	// construct empty character buffer from mode

  00406	8b c8		 mov	 ecx, eax

; 592  : 			_Stringbuffer(_Mode)

  00408	89 85 50 fe ff
	ff		 mov	 DWORD PTR _this$[ebp], eax

; 30   : 		{	// construct empty character buffer from mode

  0040e	ff 15 00 00 00
	00		 call	 DWORD PTR __imp_??0?$basic_streambuf@DU?$char_traits@D@std@@@std@@IAE@XZ
  00414	c7 85 a0 fe ff
	ff 00 00 00 00	 mov	 DWORD PTR _numers$90[ebp+24], OFFSET ??_7?$basic_stringbuf@DU?$char_traits@D@std@@V?$allocator@D@2@@std@@6B@

; 311  : 		_Seekhigh = 0;

  0041e	c7 85 d8 fe ff
	ff 00 00 00 00	 mov	 DWORD PTR _numers$90[ebp+80], 0

; 312  : 		_Mystate = _State;

  00428	c7 85 dc fe ff
	ff 00 00 00 00	 mov	 DWORD PTR _numers$90[ebp+84], 0
; File f:\users\krzysztof\documents\szko³a\2017-2018\informatyka\labolatorium\ruletka\ruletka\main.cpp

; 427  : 		stringstream numers;

  00432	c6 45 fc 0b	 mov	 BYTE PTR __$EHRec$[ebp+8], 11 ; 0000000bH

; 428  : 		numers << ((wylosowana_liczba - 1) / 3 + 1);

  00436	8b 85 84 fe ff
	ff		 mov	 eax, DWORD PTR _wylosowana_liczba$GSCopy$1$[ebp]
  0043c	8b 08		 mov	 ecx, DWORD PTR [eax]
  0043e	b8 56 55 55 55	 mov	 eax, 1431655766		; 55555556H
  00443	49		 dec	 ecx
  00444	f7 e9		 imul	 ecx
  00446	8d 8d 98 fe ff
	ff		 lea	 ecx, DWORD PTR _numers$90[ebp+16]
  0044c	8b c2		 mov	 eax, edx
  0044e	42		 inc	 edx
  0044f	c1 e8 1f	 shr	 eax, 31			; 0000001fH
  00452	03 c2		 add	 eax, edx
  00454	50		 push	 eax
  00455	ff 15 00 00 00
	00		 call	 DWORD PTR __imp_??6?$basic_ostream@DU?$char_traits@D@std@@@std@@QAEAAV01@H@Z
; File f:\program files (x86)\microsoft visual studio\2017\enterprise\vc\tools\msvc\14.11.25503\include\sstream

; 647  : 		return (_Stringbuffer.str());

  0045b	8d 85 38 fe ff
	ff		 lea	 eax, DWORD PTR $T81[ebp]
  00461	50		 push	 eax
  00462	8d 8d a0 fe ff
	ff		 lea	 ecx, DWORD PTR _numers$90[ebp+24]
  00468	e8 00 00 00 00	 call	 ?str@?$basic_stringbuf@DU?$char_traits@D@std@@V?$allocator@D@2@@std@@QBE?AV?$basic_string@DU?$char_traits@D@std@@V?$allocator@D@2@@2@XZ ; std::basic_stringbuf<char,std::char_traits<char>,std::allocator<char> >::str
; File f:\users\krzysztof\documents\szko³a\2017-2018\informatyka\labolatorium\ruletka\ruletka\main.cpp

; 429  : 		PlaySound((G³os + "w" + numers.str() + ".wav").c_str(), nullptr, SND_SYNC);

  0046d	68 00 00 00 00	 push	 OFFSET ??_C@_01NOFIACDB@w?$AA@
  00472	8d 8d 54 fe ff
	ff		 lea	 ecx, DWORD PTR $T82[ebp]
  00478	c6 45 fc 0c	 mov	 BYTE PTR __$EHRec$[ebp+8], 12 ; 0000000cH
  0047c	e8 00 00 00 00	 call	 ??$?HDU?$char_traits@D@std@@V?$allocator@D@1@@std@@YA?AV?$basic_string@DU?$char_traits@D@std@@V?$allocator@D@2@@0@ABV10@QBD@Z ; std::operator+<char,std::char_traits<char>,std::allocator<char> >
  00481	83 c4 04	 add	 esp, 4
  00484	8d 8d 38 fe ff
	ff		 lea	 ecx, DWORD PTR $T81[ebp]
  0048a	c6 45 fc 0d	 mov	 BYTE PTR __$EHRec$[ebp+8], 13 ; 0000000dH
  0048e	51		 push	 ecx
  0048f	8b d0		 mov	 edx, eax
  00491	8d 8d 6c fe ff
	ff		 lea	 ecx, DWORD PTR $T83[ebp]
  00497	e8 00 00 00 00	 call	 ??$?HDU?$char_traits@D@std@@V?$allocator@D@1@@std@@YA?AV?$basic_string@DU?$char_traits@D@std@@V?$allocator@D@2@@0@$$QAV10@0@Z ; std::operator+<char,std::char_traits<char>,std::allocator<char> >
  0049c	83 c4 04	 add	 esp, 4
  0049f	68 00 00 00 00	 push	 OFFSET ??_C@_04IBLEHOMF@?4wav?$AA@
  004a4	8b d0		 mov	 edx, eax
  004a6	c6 45 fc 0e	 mov	 BYTE PTR __$EHRec$[ebp+8], 14 ; 0000000eH
  004aa	8d 8d 20 fe ff
	ff		 lea	 ecx, DWORD PTR $T84[ebp]
  004b0	e8 00 00 00 00	 call	 ??$?HDU?$char_traits@D@std@@V?$allocator@D@1@@std@@YA?AV?$basic_string@DU?$char_traits@D@std@@V?$allocator@D@2@@0@$$QAV10@QBD@Z ; std::operator+<char,std::char_traits<char>,std::allocator<char> >
  004b5	83 c4 04	 add	 esp, 4
; File f:\program files (x86)\microsoft visual studio\2017\enterprise\vc\tools\msvc\14.11.25503\include\xstring

; 1617 : 		return (_BUF_SIZE <= _Myres);

  004b8	83 78 14 10	 cmp	 DWORD PTR [eax+20], 16	; 00000010H

; 1607 : 		if (_Large_string_engaged())

  004bc	72 02		 jb	 SHORT $LN1093@Odczytaj_l
; File f:\program files (x86)\microsoft visual studio\2017\enterprise\vc\tools\msvc\14.11.25503\include\xstddef

; 265  : 	return (_Ptr);

  004be	8b 00		 mov	 eax, DWORD PTR [eax]
$LN1093@Odczytaj_l:
; File f:\users\krzysztof\documents\szko³a\2017-2018\informatyka\labolatorium\ruletka\ruletka\main.cpp

; 429  : 		PlaySound((G³os + "w" + numers.str() + ".wav").c_str(), nullptr, SND_SYNC);

  004c0	6a 00		 push	 0
  004c2	6a 00		 push	 0
  004c4	50		 push	 eax
  004c5	ff d7		 call	 edi
  004c7	8d 8d 20 fe ff
	ff		 lea	 ecx, DWORD PTR $T84[ebp]
  004cd	e8 00 00 00 00	 call	 ??1?$basic_string@DU?$char_traits@D@std@@V?$allocator@D@2@@std@@QAE@XZ ; std::basic_string<char,std::char_traits<char>,std::allocator<char> >::~basic_string<char,std::char_traits<char>,std::allocator<char> >
  004d2	8d 8d 6c fe ff
	ff		 lea	 ecx, DWORD PTR $T83[ebp]
  004d8	e8 00 00 00 00	 call	 ??1?$basic_string@DU?$char_traits@D@std@@V?$allocator@D@2@@std@@QAE@XZ ; std::basic_string<char,std::char_traits<char>,std::allocator<char> >::~basic_string<char,std::char_traits<char>,std::allocator<char> >
  004dd	8d 8d 54 fe ff
	ff		 lea	 ecx, DWORD PTR $T82[ebp]
  004e3	e8 00 00 00 00	 call	 ??1?$basic_string@DU?$char_traits@D@std@@V?$allocator@D@2@@std@@QAE@XZ ; std::basic_string<char,std::char_traits<char>,std::allocator<char> >::~basic_string<char,std::char_traits<char>,std::allocator<char> >
  004e8	8d 8d 38 fe ff
	ff		 lea	 ecx, DWORD PTR $T81[ebp]
  004ee	e8 00 00 00 00	 call	 ??1?$basic_string@DU?$char_traits@D@std@@V?$allocator@D@2@@std@@QAE@XZ ; std::basic_string<char,std::char_traits<char>,std::allocator<char> >::~basic_string<char,std::char_traits<char>,std::allocator<char> >

; 430  : 	}

  004f3	8d 8d 88 fe ff
	ff		 lea	 ecx, DWORD PTR _numers$90[ebp]
  004f9	e8 00 00 00 00	 call	 ??_D?$basic_stringstream@DU?$char_traits@D@std@@V?$allocator@D@2@@std@@QAEXXZ
  004fe	e9 83 00 00 00	 jmp	 $LN8@Odczytaj_l
$LN16@Odczytaj_l:

; 419  : 		if (wylosowana_liczba < 19)

  00503	8b 85 84 fe ff
	ff		 mov	 eax, DWORD PTR _wylosowana_liczba$GSCopy$1$[ebp]

; 420  : 			PlaySound((G³os + "g.wav").c_str(), nullptr, SND_SYNC);

  00509	8d 8d 54 fe ff
	ff		 lea	 ecx, DWORD PTR $T44[ebp]
  0050f	83 38 13	 cmp	 DWORD PTR [eax], 19	; 00000013H
  00512	7d 07		 jge	 SHORT $LN17@Odczytaj_l
  00514	68 00 00 00 00	 push	 OFFSET ??_C@_05ODKFBHJJ@g?4wav?$AA@

; 421  : 		else

  00519	eb 49		 jmp	 SHORT $LN1109@Odczytaj_l
$LN17@Odczytaj_l:

; 422  : 			PlaySound((G³os + "d.wav").c_str(), nullptr, SND_SYNC);

  0051b	68 00 00 00 00	 push	 OFFSET ??_C@_05GFDBGFDH@d?4wav?$AA@

; 423  : 	else if (typ_zak³adu[0] == 'k')

  00520	eb 42		 jmp	 SHORT $LN1109@Odczytaj_l
$LN11@Odczytaj_l:

; 414  : 		if (Ruletka_plansza_kolor[wylosowana_liczba] == 'r')

  00522	8b 85 84 fe ff
	ff		 mov	 eax, DWORD PTR _wylosowana_liczba$GSCopy$1$[ebp]

; 415  : 			PlaySound((G³os + "r.wav").c_str(), nullptr, SND_SYNC);

  00528	8d 8d 54 fe ff
	ff		 lea	 ecx, DWORD PTR $T34[ebp]
  0052e	8b 00		 mov	 eax, DWORD PTR [eax]
  00530	80 b8 00 00 00
	00 72		 cmp	 BYTE PTR ?Ruletka_plansza_kolor@@3QBDB[eax], 114 ; 00000072H
  00537	75 07		 jne	 SHORT $LN12@Odczytaj_l
  00539	68 00 00 00 00	 push	 OFFSET ??_C@_05LALOIELB@r?4wav?$AA@

; 416  : 		else

  0053e	eb 24		 jmp	 SHORT $LN1109@Odczytaj_l
$LN12@Odczytaj_l:

; 417  : 			PlaySound((G³os + "b.wav").c_str(), nullptr, SND_SYNC);

  00540	68 00 00 00 00	 push	 OFFSET ??_C@_05LDGIIGCK@b?4wav?$AA@
  00545	eb 1d		 jmp	 SHORT $LN1109@Odczytaj_l
$LN6@Odczytaj_l:

; 409  : 		if (wylosowana_liczba % 2 == 0)

  00547	8b 85 84 fe ff
	ff		 mov	 eax, DWORD PTR _wylosowana_liczba$GSCopy$1$[ebp]

; 410  : 			PlaySound((G³os + "p.wav").c_str(), nullptr, SND_SYNC);

  0054d	8d 8d 54 fe ff
	ff		 lea	 ecx, DWORD PTR $T24[ebp]
  00553	f6 00 01	 test	 BYTE PTR [eax], 1
  00556	75 07		 jne	 SHORT $LN7@Odczytaj_l
  00558	68 00 00 00 00	 push	 OFFSET ??_C@_05PNHGCFLK@p?4wav?$AA@

; 411  : 		else

  0055d	eb 05		 jmp	 SHORT $LN1109@Odczytaj_l
$LN7@Odczytaj_l:

; 412  : 			PlaySound((G³os + "n.wav").c_str(), nullptr, SND_SYNC);

  0055f	68 00 00 00 00	 push	 OFFSET ??_C@_05MEKKEGFB@n?4wav?$AA@
$LN1109@Odczytaj_l:
  00564	e8 00 00 00 00	 call	 ??$?HDU?$char_traits@D@std@@V?$allocator@D@1@@std@@YA?AV?$basic_string@DU?$char_traits@D@std@@V?$allocator@D@2@@0@ABV10@QBD@Z ; std::operator+<char,std::char_traits<char>,std::allocator<char> >
  00569	83 c4 04	 add	 esp, 4
; File f:\program files (x86)\microsoft visual studio\2017\enterprise\vc\tools\msvc\14.11.25503\include\xstring

; 1617 : 		return (_BUF_SIZE <= _Myres);

  0056c	83 78 14 10	 cmp	 DWORD PTR [eax+20], 16	; 00000010H

; 1607 : 		if (_Large_string_engaged())

  00570	72 02		 jb	 SHORT $LN514@Odczytaj_l
; File f:\program files (x86)\microsoft visual studio\2017\enterprise\vc\tools\msvc\14.11.25503\include\xstddef

; 265  : 	return (_Ptr);

  00572	8b 00		 mov	 eax, DWORD PTR [eax]
$LN514@Odczytaj_l:
; File f:\users\krzysztof\documents\szko³a\2017-2018\informatyka\labolatorium\ruletka\ruletka\main.cpp

; 412  : 			PlaySound((G³os + "n.wav").c_str(), nullptr, SND_SYNC);

  00574	6a 00		 push	 0
  00576	6a 00		 push	 0
  00578	50		 push	 eax
  00579	ff d7		 call	 edi
  0057b	8d 8d 54 fe ff
	ff		 lea	 ecx, DWORD PTR $T29[ebp]
$LN1106@Odczytaj_l:
  00581	e8 00 00 00 00	 call	 ??1?$basic_string@DU?$char_traits@D@std@@V?$allocator@D@2@@std@@QAE@XZ ; std::basic_string<char,std::char_traits<char>,std::allocator<char> >::~basic_string<char,std::char_traits<char>,std::allocator<char> >
$LN8@Odczytaj_l:
; File f:\program files (x86)\microsoft visual studio\2017\enterprise\vc\tools\msvc\14.11.25503\include\sstream

; 637  : 		{	// destroy the object

  00586	8b 85 38 ff ff
	ff		 mov	 eax, DWORD PTR _numers$[ebp]
  0058c	8b 40 04	 mov	 eax, DWORD PTR [eax+4]
  0058f	c7 84 05 38 ff
	ff ff 00 00 00
	00		 mov	 DWORD PTR _numers$[ebp+eax], OFFSET ??_7?$basic_stringstream@DU?$char_traits@D@std@@V?$allocator@D@2@@std@@6B@
  0059a	8b 85 38 ff ff
	ff		 mov	 eax, DWORD PTR _numers$[ebp]
  005a0	8b 48 04	 mov	 ecx, DWORD PTR [eax+4]
  005a3	8d 41 98	 lea	 eax, DWORD PTR [ecx-104]
  005a6	89 84 0d 34 ff
	ff ff		 mov	 DWORD PTR _numers$[ebp+ecx-4], eax

; 638  : 		}

  005ad	8d 8d 50 ff ff
	ff		 lea	 ecx, DWORD PTR _numers$[ebp+24]
  005b3	e8 00 00 00 00	 call	 ??1?$basic_stringbuf@DU?$char_traits@D@std@@V?$allocator@D@2@@std@@UAE@XZ ; std::basic_stringbuf<char,std::char_traits<char>,std::allocator<char> >::~basic_stringbuf<char,std::char_traits<char>,std::allocator<char> >
  005b8	8d 8d 58 ff ff
	ff		 lea	 ecx, DWORD PTR _numers$[ebp+32]
  005be	ff 15 00 00 00
	00		 call	 DWORD PTR __imp_??1?$basic_iostream@DU?$char_traits@D@std@@@std@@UAE@XZ
  005c4	8d 4d a0	 lea	 ecx, DWORD PTR _numers$[ebp+104]
  005c7	ff 15 00 00 00
	00		 call	 DWORD PTR __imp_??1?$basic_ios@DU?$char_traits@D@std@@@std@@UAE@XZ
$LN3@Odczytaj_l:
; File f:\users\krzysztof\documents\szko³a\2017-2018\informatyka\labolatorium\ruletka\ruletka\main.cpp

; 431  : }

  005cd	8b 4d f4	 mov	 ecx, DWORD PTR __$EHRec$[ebp]
  005d0	64 89 0d 00 00
	00 00		 mov	 DWORD PTR fs:0, ecx
  005d7	59		 pop	 ecx
  005d8	5f		 pop	 edi
  005d9	5e		 pop	 esi
  005da	8b 4d ec	 mov	 ecx, DWORD PTR __$ArrayPad$[ebp]
  005dd	33 cd		 xor	 ecx, ebp
  005df	e8 00 00 00 00	 call	 @__security_check_cookie@4
  005e4	8b e5		 mov	 esp, ebp
  005e6	5d		 pop	 ebp
  005e7	8b e3		 mov	 esp, ebx
  005e9	5b		 pop	 ebx
  005ea	c3		 ret	 0
_TEXT	ENDS
;	COMDAT text$x
text$x	SEGMENT
__unwindfunclet$?Odczytaj_liczbê@@YAXABHABV?$basic_string@DU?$char_traits@D@std@@V?$allocator@D@2@@std@@@Z$19:
  00000	8b 45 e8	 mov	 eax, DWORD PTR $T1[ebp]
  00003	83 e0 01	 and	 eax, 1
  00006	0f 84 0d 00 00
	00		 je	 $LN48@Odczytaj_l
  0000c	83 65 e8 fe	 and	 DWORD PTR $T1[ebp], -2	; fffffffeH
  00010	8d 4d a0	 lea	 ecx, DWORD PTR _numers$[ebp+104]
  00013	ff 25 00 00 00
	00		 jmp	 DWORD PTR __imp_??1?$basic_ios@DU?$char_traits@D@std@@@std@@UAE@XZ
$LN48@Odczytaj_l:
  00019	c3		 ret	 0
__unwindfunclet$?Odczytaj_liczbê@@YAXABHABV?$basic_string@DU?$char_traits@D@std@@V?$allocator@D@2@@std@@@Z$20:
  0001a	8d 8d 58 ff ff
	ff		 lea	 ecx, DWORD PTR _numers$[ebp+32]
  00020	ff 25 00 00 00
	00		 jmp	 DWORD PTR __imp_??1?$basic_iostream@DU?$char_traits@D@std@@@std@@UAE@XZ
__unwindfunclet$?Odczytaj_liczbê@@YAXABHABV?$basic_string@DU?$char_traits@D@std@@V?$allocator@D@2@@std@@@Z$22:
  00026	8b 8d 50 fe ff
	ff		 mov	 ecx, DWORD PTR _this$[ebp]
  0002c	ff 25 00 00 00
	00		 jmp	 DWORD PTR __imp_??1?$basic_streambuf@DU?$char_traits@D@std@@@std@@UAE@XZ
__unwindfunclet$?Odczytaj_liczbê@@YAXABHABV?$basic_string@DU?$char_traits@D@std@@V?$allocator@D@2@@std@@@Z$0:
  00032	8d 8d 38 ff ff
	ff		 lea	 ecx, DWORD PTR _numers$[ebp]
  00038	e9 00 00 00 00	 jmp	 ??_D?$basic_stringstream@DU?$char_traits@D@std@@V?$allocator@D@2@@std@@QAEXXZ
__unwindfunclet$?Odczytaj_liczbê@@YAXABHABV?$basic_string@DU?$char_traits@D@std@@V?$allocator@D@2@@std@@@Z$1:
  0003d	8d 8d 38 fe ff
	ff		 lea	 ecx, DWORD PTR $T4[ebp]
  00043	e9 00 00 00 00	 jmp	 ??1?$basic_string@DU?$char_traits@D@std@@V?$allocator@D@2@@std@@QAE@XZ ; std::basic_string<char,std::char_traits<char>,std::allocator<char> >::~basic_string<char,std::char_traits<char>,std::allocator<char> >
__unwindfunclet$?Odczytaj_liczbê@@YAXABHABV?$basic_string@DU?$char_traits@D@std@@V?$allocator@D@2@@std@@@Z$2:
  00048	8d 8d 6c fe ff
	ff		 lea	 ecx, DWORD PTR $T11[ebp]
  0004e	e9 00 00 00 00	 jmp	 ??1?$basic_string@DU?$char_traits@D@std@@V?$allocator@D@2@@std@@QAE@XZ ; std::basic_string<char,std::char_traits<char>,std::allocator<char> >::~basic_string<char,std::char_traits<char>,std::allocator<char> >
__unwindfunclet$?Odczytaj_liczbê@@YAXABHABV?$basic_string@DU?$char_traits@D@std@@V?$allocator@D@2@@std@@@Z$10:
  00053	8d 8d 38 fe ff
	ff		 lea	 ecx, DWORD PTR $T55[ebp]
  00059	e9 00 00 00 00	 jmp	 ??1?$basic_string@DU?$char_traits@D@std@@V?$allocator@D@2@@std@@QAE@XZ ; std::basic_string<char,std::char_traits<char>,std::allocator<char> >::~basic_string<char,std::char_traits<char>,std::allocator<char> >
__unwindfunclet$?Odczytaj_liczbê@@YAXABHABV?$basic_string@DU?$char_traits@D@std@@V?$allocator@D@2@@std@@@Z$11:
  0005e	8d 8d 6c fe ff
	ff		 lea	 ecx, DWORD PTR $T65[ebp]
  00064	e9 00 00 00 00	 jmp	 ??1?$basic_string@DU?$char_traits@D@std@@V?$allocator@D@2@@std@@QAE@XZ ; std::basic_string<char,std::char_traits<char>,std::allocator<char> >::~basic_string<char,std::char_traits<char>,std::allocator<char> >
__unwindfunclet$?Odczytaj_liczbê@@YAXABHABV?$basic_string@DU?$char_traits@D@std@@V?$allocator@D@2@@std@@@Z$167:
  00069	8b 45 e8	 mov	 eax, DWORD PTR $T1[ebp]
  0006c	83 e0 20	 and	 eax, 32			; 00000020H
  0006f	0f 84 10 00 00
	00		 je	 $LN724@Odczytaj_l
  00075	83 65 e8 df	 and	 DWORD PTR $T1[ebp], -33	; ffffffdfH
  00079	8d 8d f0 fe ff
	ff		 lea	 ecx, DWORD PTR _numers$90[ebp+104]
  0007f	ff 25 00 00 00
	00		 jmp	 DWORD PTR __imp_??1?$basic_ios@DU?$char_traits@D@std@@@std@@UAE@XZ
$LN724@Odczytaj_l:
  00085	c3		 ret	 0
__unwindfunclet$?Odczytaj_liczbê@@YAXABHABV?$basic_string@DU?$char_traits@D@std@@V?$allocator@D@2@@std@@@Z$168:
  00086	8d 8d a8 fe ff
	ff		 lea	 ecx, DWORD PTR _numers$90[ebp+32]
  0008c	ff 25 00 00 00
	00		 jmp	 DWORD PTR __imp_??1?$basic_iostream@DU?$char_traits@D@std@@@std@@UAE@XZ
__unwindfunclet$?Odczytaj_liczbê@@YAXABHABV?$basic_string@DU?$char_traits@D@std@@V?$allocator@D@2@@std@@@Z$170:
  00092	8b 8d 50 fe ff
	ff		 mov	 ecx, DWORD PTR _this$[ebp]
  00098	ff 25 00 00 00
	00		 jmp	 DWORD PTR __imp_??1?$basic_streambuf@DU?$char_traits@D@std@@@std@@UAE@XZ
__unwindfunclet$?Odczytaj_liczbê@@YAXABHABV?$basic_string@DU?$char_traits@D@std@@V?$allocator@D@2@@std@@@Z$13:
  0009e	8d 8d 88 fe ff
	ff		 lea	 ecx, DWORD PTR _numers$90[ebp]
  000a4	e9 00 00 00 00	 jmp	 ??_D?$basic_stringstream@DU?$char_traits@D@std@@V?$allocator@D@2@@std@@QAEXXZ
__unwindfunclet$?Odczytaj_liczbê@@YAXABHABV?$basic_string@DU?$char_traits@D@std@@V?$allocator@D@2@@std@@@Z$14:
  000a9	8d 8d 38 fe ff
	ff		 lea	 ecx, DWORD PTR $T81[ebp]
  000af	e9 00 00 00 00	 jmp	 ??1?$basic_string@DU?$char_traits@D@std@@V?$allocator@D@2@@std@@QAE@XZ ; std::basic_string<char,std::char_traits<char>,std::allocator<char> >::~basic_string<char,std::char_traits<char>,std::allocator<char> >
__unwindfunclet$?Odczytaj_liczbê@@YAXABHABV?$basic_string@DU?$char_traits@D@std@@V?$allocator@D@2@@std@@@Z$15:
  000b4	8d 8d 54 fe ff
	ff		 lea	 ecx, DWORD PTR $T82[ebp]
  000ba	e9 00 00 00 00	 jmp	 ??1?$basic_string@DU?$char_traits@D@std@@V?$allocator@D@2@@std@@QAE@XZ ; std::basic_string<char,std::char_traits<char>,std::allocator<char> >::~basic_string<char,std::char_traits<char>,std::allocator<char> >
__unwindfunclet$?Odczytaj_liczbê@@YAXABHABV?$basic_string@DU?$char_traits@D@std@@V?$allocator@D@2@@std@@@Z$16:
  000bf	8d 8d 6c fe ff
	ff		 lea	 ecx, DWORD PTR $T83[ebp]
  000c5	e9 00 00 00 00	 jmp	 ??1?$basic_string@DU?$char_traits@D@std@@V?$allocator@D@2@@std@@QAE@XZ ; std::basic_string<char,std::char_traits<char>,std::allocator<char> >::~basic_string<char,std::char_traits<char>,std::allocator<char> >
__ehhandler$?Odczytaj_liczbê@@YAXABHABV?$basic_string@DU?$char_traits@D@std@@V?$allocator@D@2@@std@@@Z:
  000ca	8b 54 24 08	 mov	 edx, DWORD PTR [esp+8]
  000ce	8d 42 0c	 lea	 eax, DWORD PTR [edx+12]
  000d1	8b 8a 20 fe ff
	ff		 mov	 ecx, DWORD PTR [edx-480]
  000d7	33 c8		 xor	 ecx, eax
  000d9	e8 00 00 00 00	 call	 @__security_check_cookie@4
  000de	8b 4a f8	 mov	 ecx, DWORD PTR [edx-8]
  000e1	33 c8		 xor	 ecx, eax
  000e3	e8 00 00 00 00	 call	 @__security_check_cookie@4
  000e8	b8 00 00 00 00	 mov	 eax, OFFSET __ehfuncinfo$?Odczytaj_liczbê@@YAXABHABV?$basic_string@DU?$char_traits@D@std@@V?$allocator@D@2@@std@@@Z
  000ed	e9 00 00 00 00	 jmp	 ___CxxFrameHandler3
text$x	ENDS
?Odczytaj_liczbê@@YAXABHABV?$basic_string@DU?$char_traits@D@std@@V?$allocator@D@2@@std@@@Z ENDP ; Odczytaj_liczbê
; Function compile flags: /Ogtp
; File f:\users\krzysztof\documents\szko³a\2017-2018\informatyka\labolatorium\ruletka\ruletka\main.cpp
; File f:\program files (x86)\microsoft visual studio\2017\enterprise\vc\tools\msvc\14.11.25503\include\xstring
; File f:\program files (x86)\microsoft visual studio\2017\enterprise\vc\tools\msvc\14.11.25503\include\iosfwd
; File f:\program files (x86)\microsoft visual studio\2017\enterprise\vc\tools\msvc\14.11.25503\include\xstring
; File f:\users\krzysztof\documents\szko³a\2017-2018\informatyka\labolatorium\ruletka\ruletka\main.cpp
; File f:\program files (x86)\microsoft visual studio\2017\enterprise\vc\tools\msvc\14.11.25503\include\xstring
; File f:\users\krzysztof\documents\szko³a\2017-2018\informatyka\labolatorium\ruletka\ruletka\main.cpp
; File f:\program files (x86)\microsoft visual studio\2017\enterprise\vc\tools\msvc\14.11.25503\include\xstring
; File f:\program files (x86)\microsoft visual studio\2017\enterprise\vc\tools\msvc\14.11.25503\include\iosfwd
; File f:\program files (x86)\microsoft visual studio\2017\enterprise\vc\tools\msvc\14.11.25503\include\xstring
; File f:\program files (x86)\microsoft visual studio\2017\enterprise\vc\tools\msvc\14.11.25503\include\iosfwd
; File f:\program files (x86)\microsoft visual studio\2017\enterprise\vc\tools\msvc\14.11.25503\include\xstring
; File f:\users\krzysztof\documents\szko³a\2017-2018\informatyka\labolatorium\ruletka\ruletka\main.cpp
; File f:\program files (x86)\microsoft visual studio\2017\enterprise\vc\tools\msvc\14.11.25503\include\xstring
; File f:\users\krzysztof\documents\szko³a\2017-2018\informatyka\labolatorium\ruletka\ruletka\main.cpp
; File f:\program files (x86)\microsoft visual studio\2017\enterprise\vc\tools\msvc\14.11.25503\include\xstring
; File f:\program files (x86)\microsoft visual studio\2017\enterprise\vc\tools\msvc\14.11.25503\include\iosfwd
; File f:\program files (x86)\microsoft visual studio\2017\enterprise\vc\tools\msvc\14.11.25503\include\xstring
; File f:\program files (x86)\microsoft visual studio\2017\enterprise\vc\tools\msvc\14.11.25503\include\iosfwd
; File f:\program files (x86)\microsoft visual studio\2017\enterprise\vc\tools\msvc\14.11.25503\include\xstring
; File f:\program files (x86)\microsoft visual studio\2017\enterprise\vc\tools\msvc\14.11.25503\include\iosfwd
; File f:\program files (x86)\microsoft visual studio\2017\enterprise\vc\tools\msvc\14.11.25503\include\xstring
; File f:\program files (x86)\microsoft visual studio\2017\enterprise\vc\tools\msvc\14.11.25503\include\iosfwd
; File f:\program files (x86)\microsoft visual studio\2017\enterprise\vc\tools\msvc\14.11.25503\include\xstring
; File f:\users\krzysztof\documents\szko³a\2017-2018\informatyka\labolatorium\ruletka\ruletka\main.cpp
; File f:\program files (x86)\microsoft visual studio\2017\enterprise\vc\tools\msvc\14.11.25503\include\xstring
; File f:\program files (x86)\microsoft visual studio\2017\enterprise\vc\tools\msvc\14.11.25503\include\iosfwd
; File f:\program files (x86)\microsoft visual studio\2017\enterprise\vc\tools\msvc\14.11.25503\include\xstring
; File f:\program files (x86)\microsoft visual studio\2017\enterprise\vc\tools\msvc\14.11.25503\include\iosfwd
; File f:\users\krzysztof\documents\szko³a\2017-2018\informatyka\labolatorium\ruletka\ruletka\main.cpp
; File f:\program files (x86)\microsoft visual studio\2017\enterprise\vc\tools\msvc\14.11.25503\include\xstring
; File f:\program files (x86)\microsoft visual studio\2017\enterprise\vc\tools\msvc\14.11.25503\include\xstddef
; File f:\users\krzysztof\documents\szko³a\2017-2018\informatyka\labolatorium\ruletka\ruletka\main.cpp
; File f:\program files (x86)\microsoft visual studio\2017\enterprise\vc\tools\msvc\14.11.25503\include\xstring
; File f:\program files (x86)\microsoft visual studio\2017\enterprise\vc\tools\msvc\14.11.25503\include\xstddef
; File f:\users\krzysztof\documents\szko³a\2017-2018\informatyka\labolatorium\ruletka\ruletka\main.cpp
; File f:\program files (x86)\microsoft visual studio\2017\enterprise\vc\tools\msvc\14.11.25503\include\xstring
; File f:\program files (x86)\microsoft visual studio\2017\enterprise\vc\tools\msvc\14.11.25503\include\xstddef
; File f:\users\krzysztof\documents\szko³a\2017-2018\informatyka\labolatorium\ruletka\ruletka\main.cpp
; File f:\program files (x86)\microsoft visual studio\2017\enterprise\vc\tools\msvc\14.11.25503\include\xstring
; File f:\program files (x86)\microsoft visual studio\2017\enterprise\vc\tools\msvc\14.11.25503\include\xstddef
; File f:\program files (x86)\microsoft visual studio\2017\enterprise\vc\tools\msvc\14.11.25503\include\xstring
; File f:\program files (x86)\microsoft visual studio\2017\enterprise\vc\tools\msvc\14.11.25503\include\xstddef
; File f:\users\krzysztof\documents\szko³a\2017-2018\informatyka\labolatorium\ruletka\ruletka\main.cpp
; File f:\program files (x86)\microsoft visual studio\2017\enterprise\vc\tools\msvc\14.11.25503\include\xstring
; File f:\program files (x86)\microsoft visual studio\2017\enterprise\vc\tools\msvc\14.11.25503\include\xstddef
; File f:\users\krzysztof\documents\szko³a\2017-2018\informatyka\labolatorium\ruletka\ruletka\main.cpp
; File f:\program files (x86)\microsoft visual studio\2017\enterprise\vc\tools\msvc\14.11.25503\include\xstring
; File f:\program files (x86)\microsoft visual studio\2017\enterprise\vc\tools\msvc\14.11.25503\include\xstddef
; File f:\program files (x86)\microsoft visual studio\2017\enterprise\vc\tools\msvc\14.11.25503\include\xstring
; File f:\program files (x86)\microsoft visual studio\2017\enterprise\vc\tools\msvc\14.11.25503\include\xstddef
; File f:\users\krzysztof\documents\szko³a\2017-2018\informatyka\labolatorium\ruletka\ruletka\main.cpp
; File f:\program files (x86)\microsoft visual studio\2017\enterprise\vc\tools\msvc\14.11.25503\include\xstring
; File f:\program files (x86)\microsoft visual studio\2017\enterprise\vc\tools\msvc\14.11.25503\include\xstddef
; File f:\users\krzysztof\documents\szko³a\2017-2018\informatyka\labolatorium\ruletka\ruletka\main.cpp
; File f:\program files (x86)\microsoft visual studio\2017\enterprise\vc\tools\msvc\14.11.25503\include\xstring
; File f:\program files (x86)\microsoft visual studio\2017\enterprise\vc\tools\msvc\14.11.25503\include\xstddef
; File f:\program files (x86)\microsoft visual studio\2017\enterprise\vc\tools\msvc\14.11.25503\include\xstring
; File f:\program files (x86)\microsoft visual studio\2017\enterprise\vc\tools\msvc\14.11.25503\include\xstddef
; File f:\users\krzysztof\documents\szko³a\2017-2018\informatyka\labolatorium\ruletka\ruletka\main.cpp
; File f:\program files (x86)\microsoft visual studio\2017\enterprise\vc\tools\msvc\14.11.25503\include\xstring
; File f:\program files (x86)\microsoft visual studio\2017\enterprise\vc\tools\msvc\14.11.25503\include\xstddef
; File f:\users\krzysztof\documents\szko³a\2017-2018\informatyka\labolatorium\ruletka\ruletka\main.cpp
; File f:\program files (x86)\microsoft visual studio\2017\enterprise\vc\tools\msvc\14.11.25503\include\xstring
; File f:\program files (x86)\microsoft visual studio\2017\enterprise\vc\tools\msvc\14.11.25503\include\xstddef
; File f:\program files (x86)\microsoft visual studio\2017\enterprise\vc\tools\msvc\14.11.25503\include\xstring
; File f:\program files (x86)\microsoft visual studio\2017\enterprise\vc\tools\msvc\14.11.25503\include\xstddef
; File f:\users\krzysztof\documents\szko³a\2017-2018\informatyka\labolatorium\ruletka\ruletka\main.cpp
; File f:\program files (x86)\microsoft visual studio\2017\enterprise\vc\tools\msvc\14.11.25503\include\xstring
; File f:\program files (x86)\microsoft visual studio\2017\enterprise\vc\tools\msvc\14.11.25503\include\xstddef
; File f:\users\krzysztof\documents\szko³a\2017-2018\informatyka\labolatorium\ruletka\ruletka\main.cpp
; File f:\program files (x86)\microsoft visual studio\2017\enterprise\vc\tools\msvc\14.11.25503\include\xstring
; File f:\program files (x86)\microsoft visual studio\2017\enterprise\vc\tools\msvc\14.11.25503\include\xstddef
; File f:\program files (x86)\microsoft visual studio\2017\enterprise\vc\tools\msvc\14.11.25503\include\xstring
; File f:\program files (x86)\microsoft visual studio\2017\enterprise\vc\tools\msvc\14.11.25503\include\xstddef
; File f:\users\krzysztof\documents\szko³a\2017-2018\informatyka\labolatorium\ruletka\ruletka\main.cpp
; File f:\program files (x86)\microsoft visual studio\2017\enterprise\vc\tools\msvc\14.11.25503\include\xstring
; File f:\program files (x86)\microsoft visual studio\2017\enterprise\vc\tools\msvc\14.11.25503\include\xstddef
; File f:\users\krzysztof\documents\szko³a\2017-2018\informatyka\labolatorium\ruletka\ruletka\main.cpp
; File f:\program files (x86)\microsoft visual studio\2017\enterprise\vc\tools\msvc\14.11.25503\include\xstring
; File f:\program files (x86)\microsoft visual studio\2017\enterprise\vc\tools\msvc\14.11.25503\include\xstddef
; File f:\program files (x86)\microsoft visual studio\2017\enterprise\vc\tools\msvc\14.11.25503\include\xstring
; File f:\program files (x86)\microsoft visual studio\2017\enterprise\vc\tools\msvc\14.11.25503\include\xstddef
; File f:\users\krzysztof\documents\szko³a\2017-2018\informatyka\labolatorium\ruletka\ruletka\main.cpp
; File f:\program files (x86)\microsoft visual studio\2017\enterprise\vc\tools\msvc\14.11.25503\include\sstream
; File f:\users\krzysztof\documents\szko³a\2017-2018\informatyka\labolatorium\ruletka\ruletka\main.cpp
; File f:\program files (x86)\microsoft visual studio\2017\enterprise\vc\tools\msvc\14.11.25503\include\sstream
; File f:\users\krzysztof\documents\szko³a\2017-2018\informatyka\labolatorium\ruletka\ruletka\main.cpp
; File f:\program files (x86)\microsoft visual studio\2017\enterprise\vc\tools\msvc\14.11.25503\include\xstring
; File f:\program files (x86)\microsoft visual studio\2017\enterprise\vc\tools\msvc\14.11.25503\include\xstddef
; File f:\users\krzysztof\documents\szko³a\2017-2018\informatyka\labolatorium\ruletka\ruletka\main.cpp
; File f:\program files (x86)\microsoft visual studio\2017\enterprise\vc\tools\msvc\14.11.25503\include\sstream
; File f:\users\krzysztof\documents\szko³a\2017-2018\informatyka\labolatorium\ruletka\ruletka\main.cpp
; File f:\program files (x86)\microsoft visual studio\2017\enterprise\vc\tools\msvc\14.11.25503\include\sstream
; File f:\users\krzysztof\documents\szko³a\2017-2018\informatyka\labolatorium\ruletka\ruletka\main.cpp
; File f:\program files (x86)\microsoft visual studio\2017\enterprise\vc\tools\msvc\14.11.25503\include\sstream
; File f:\users\krzysztof\documents\szko³a\2017-2018\informatyka\labolatorium\ruletka\ruletka\main.cpp
; File f:\program files (x86)\microsoft visual studio\2017\enterprise\vc\tools\msvc\14.11.25503\include\sstream
; File f:\users\krzysztof\documents\szko³a\2017-2018\informatyka\labolatorium\ruletka\ruletka\main.cpp
; File f:\program files (x86)\microsoft visual studio\2017\enterprise\vc\tools\msvc\14.11.25503\include\xstring
; File f:\program files (x86)\microsoft visual studio\2017\enterprise\vc\tools\msvc\14.11.25503\include\xstddef
; File f:\program files (x86)\microsoft visual studio\2017\enterprise\vc\tools\msvc\14.11.25503\include\xstring
; File f:\program files (x86)\microsoft visual studio\2017\enterprise\vc\tools\msvc\14.11.25503\include\xstddef
; File f:\users\krzysztof\documents\szko³a\2017-2018\informatyka\labolatorium\ruletka\ruletka\main.cpp
; File f:\program files (x86)\microsoft visual studio\2017\enterprise\vc\tools\msvc\14.11.25503\include\sstream
; File f:\users\krzysztof\documents\szko³a\2017-2018\informatyka\labolatorium\ruletka\ruletka\main.cpp
; File f:\program files (x86)\microsoft visual studio\2017\enterprise\vc\tools\msvc\14.11.25503\include\sstream
; File f:\users\krzysztof\documents\szko³a\2017-2018\informatyka\labolatorium\ruletka\ruletka\main.cpp
; File f:\program files (x86)\microsoft visual studio\2017\enterprise\vc\tools\msvc\14.11.25503\include\sstream
; File f:\users\krzysztof\documents\szko³a\2017-2018\informatyka\labolatorium\ruletka\ruletka\main.cpp
; File f:\program files (x86)\microsoft visual studio\2017\enterprise\vc\tools\msvc\14.11.25503\include\xstring
; File f:\program files (x86)\microsoft visual studio\2017\enterprise\vc\tools\msvc\14.11.25503\include\xstddef
; File f:\program files (x86)\microsoft visual studio\2017\enterprise\vc\tools\msvc\14.11.25503\include\iosfwd
; File f:\program files (x86)\microsoft visual studio\2017\enterprise\vc\tools\msvc\14.11.25503\include\xstring
; File f:\program files (x86)\microsoft visual studio\2017\enterprise\vc\tools\msvc\14.11.25503\include\iosfwd
; File f:\program files (x86)\microsoft visual studio\2017\enterprise\vc\tools\msvc\14.11.25503\include\xstring
; File f:\users\krzysztof\documents\szko³a\2017-2018\informatyka\labolatorium\ruletka\ruletka\main.cpp
; File f:\program files (x86)\microsoft visual studio\2017\enterprise\vc\tools\msvc\14.11.25503\include\xstring
; File f:\program files (x86)\microsoft visual studio\2017\enterprise\vc\tools\msvc\14.11.25503\include\iosfwd
; File f:\program files (x86)\microsoft visual studio\2017\enterprise\vc\tools\msvc\14.11.25503\include\xstring
; File f:\program files (x86)\microsoft visual studio\2017\enterprise\vc\tools\msvc\14.11.25503\include\iosfwd
; File f:\program files (x86)\microsoft visual studio\2017\enterprise\vc\tools\msvc\14.11.25503\include\xstring
; File f:\users\krzysztof\documents\szko³a\2017-2018\informatyka\labolatorium\ruletka\ruletka\main.cpp
; File f:\program files (x86)\microsoft visual studio\2017\enterprise\vc\tools\msvc\14.11.25503\include\xstring
; File f:\users\krzysztof\documents\szko³a\2017-2018\informatyka\labolatorium\ruletka\ruletka\main.cpp
; File f:\program files (x86)\microsoft visual studio\2017\enterprise\vc\tools\msvc\14.11.25503\include\xstring
; File f:\program files (x86)\microsoft visual studio\2017\enterprise\vc\tools\msvc\14.11.25503\include\xmemory0
; File f:\program files (x86)\microsoft visual studio\2017\enterprise\vc\tools\msvc\14.11.25503\include\xstring
; File f:\program files (x86)\microsoft visual studio\2017\enterprise\vc\tools\msvc\14.11.25503\include\xmemory0
; File f:\users\krzysztof\documents\szko³a\2017-2018\informatyka\labolatorium\ruletka\ruletka\main.cpp
; File f:\program files (x86)\microsoft visual studio\2017\enterprise\vc\tools\msvc\14.11.25503\include\xstring
; File f:\program files (x86)\microsoft visual studio\2017\enterprise\vc\tools\msvc\14.11.25503\include\iosfwd
; File f:\program files (x86)\microsoft visual studio\2017\enterprise\vc\tools\msvc\14.11.25503\include\xstring
; File f:\program files (x86)\microsoft visual studio\2017\enterprise\vc\tools\msvc\14.11.25503\include\xmemory0
; File f:\program files (x86)\microsoft visual studio\2017\enterprise\vc\tools\msvc\14.11.25503\include\xstring
; File f:\program files (x86)\microsoft visual studio\2017\enterprise\vc\tools\msvc\14.11.25503\include\xmemory0
; File f:\users\krzysztof\documents\szko³a\2017-2018\informatyka\labolatorium\ruletka\ruletka\main.cpp
; File f:\program files (x86)\microsoft visual studio\2017\enterprise\vc\tools\msvc\14.11.25503\include\xstring
; File f:\program files (x86)\microsoft visual studio\2017\enterprise\vc\tools\msvc\14.11.25503\include\iosfwd
; File f:\program files (x86)\microsoft visual studio\2017\enterprise\vc\tools\msvc\14.11.25503\include\xstring
; File f:\program files (x86)\microsoft visual studio\2017\enterprise\vc\tools\msvc\14.11.25503\include\xmemory0
; File f:\program files (x86)\microsoft visual studio\2017\enterprise\vc\tools\msvc\14.11.25503\include\xstring
; File f:\program files (x86)\microsoft visual studio\2017\enterprise\vc\tools\msvc\14.11.25503\include\xmemory0
; File f:\users\krzysztof\documents\szko³a\2017-2018\informatyka\labolatorium\ruletka\ruletka\main.cpp
; File f:\program files (x86)\microsoft visual studio\2017\enterprise\vc\tools\msvc\14.11.25503\include\xstring
; File f:\program files (x86)\microsoft visual studio\2017\enterprise\vc\tools\msvc\14.11.25503\include\iosfwd
; File f:\program files (x86)\microsoft visual studio\2017\enterprise\vc\tools\msvc\14.11.25503\include\xstring
; File f:\program files (x86)\microsoft visual studio\2017\enterprise\vc\tools\msvc\14.11.25503\include\xmemory0
; File f:\program files (x86)\microsoft visual studio\2017\enterprise\vc\tools\msvc\14.11.25503\include\xstring
; File f:\program files (x86)\microsoft visual studio\2017\enterprise\vc\tools\msvc\14.11.25503\include\xmemory0
; File f:\users\krzysztof\documents\szko³a\2017-2018\informatyka\labolatorium\ruletka\ruletka\main.cpp
; File f:\program files (x86)\microsoft visual studio\2017\enterprise\vc\tools\msvc\14.11.25503\include\sstream
; File f:\users\krzysztof\documents\szko³a\2017-2018\informatyka\labolatorium\ruletka\ruletka\main.cpp
; File f:\program files (x86)\microsoft visual studio\2017\enterprise\vc\tools\msvc\14.11.25503\include\sstream
; File f:\users\krzysztof\documents\szko³a\2017-2018\informatyka\labolatorium\ruletka\ruletka\main.cpp
; File f:\program files (x86)\microsoft visual studio\2017\enterprise\vc\tools\msvc\14.11.25503\include\xstring
; File f:\program files (x86)\microsoft visual studio\2017\enterprise\vc\tools\msvc\14.11.25503\include\xstddef
; File f:\program files (x86)\microsoft visual studio\2017\enterprise\vc\tools\msvc\14.11.25503\include\iosfwd
; File f:\program files (x86)\microsoft visual studio\2017\enterprise\vc\tools\msvc\14.11.25503\include\xstring
; File f:\program files (x86)\microsoft visual studio\2017\enterprise\vc\tools\msvc\14.11.25503\include\iosfwd
; File f:\program files (x86)\microsoft visual studio\2017\enterprise\vc\tools\msvc\14.11.25503\include\xstring
; File f:\program files (x86)\microsoft visual studio\2017\enterprise\vc\tools\msvc\14.11.25503\include\iosfwd
; File f:\users\krzysztof\documents\szko³a\2017-2018\informatyka\labolatorium\ruletka\ruletka\main.cpp
; File f:\program files (x86)\microsoft visual studio\2017\enterprise\vc\tools\msvc\14.11.25503\include\xstring
; File f:\program files (x86)\microsoft visual studio\2017\enterprise\vc\tools\msvc\14.11.25503\include\xstddef
; File f:\program files (x86)\microsoft visual studio\2017\enterprise\vc\tools\msvc\14.11.25503\include\iosfwd
; File f:\program files (x86)\microsoft visual studio\2017\enterprise\vc\tools\msvc\14.11.25503\include\xstring
; File f:\program files (x86)\microsoft visual studio\2017\enterprise\vc\tools\msvc\14.11.25503\include\iosfwd
; File f:\program files (x86)\microsoft visual studio\2017\enterprise\vc\tools\msvc\14.11.25503\include\xstring
; File f:\program files (x86)\microsoft visual studio\2017\enterprise\vc\tools\msvc\14.11.25503\include\iosfwd
; File f:\program files (x86)\microsoft visual studio\2017\enterprise\vc\tools\msvc\14.11.25503\include\sstream
; File f:\users\krzysztof\documents\szko³a\2017-2018\informatyka\labolatorium\ruletka\ruletka\main.cpp
; File f:\program files (x86)\microsoft visual studio\2017\enterprise\vc\tools\msvc\14.11.25503\include\sstream
; File f:\users\krzysztof\documents\szko³a\2017-2018\informatyka\labolatorium\ruletka\ruletka\main.cpp
; File f:\program files (x86)\microsoft visual studio\2017\enterprise\vc\tools\msvc\14.11.25503\include\xstring
; File f:\users\krzysztof\documents\szko³a\2017-2018\informatyka\labolatorium\ruletka\ruletka\main.cpp
; File f:\program files (x86)\microsoft visual studio\2017\enterprise\vc\tools\msvc\14.11.25503\include\xmemory0
; File f:\users\krzysztof\documents\szko³a\2017-2018\informatyka\labolatorium\ruletka\ruletka\main.cpp
;	COMDAT ?SprawdŸ_Pliki@@YAXXZ
_TEXT	SEGMENT
$T274 = -536						; size = 24
$T259 = -536						; size = 24
$T159 = -536						; size = 24
$T273 = -512						; size = 24
$T237 = -512						; size = 24
$T162 = -512						; size = 24
$T272 = -488						; size = 24
$T217 = -488						; size = 24
$T163 = -488						; size = 24
$T277 = -464						; size = 24
$T268 = -464						; size = 24
$T262 = -464						; size = 24
$T156 = -464						; size = 24
$T276 = -440						; size = 24
$T267 = -440						; size = 24
$T261 = -440						; size = 24
$T157 = -440						; size = 24
$T275 = -416						; size = 24
$T266 = -416						; size = 24
$T260 = -416						; size = 24
$T158 = -416						; size = 24
$T243 = -392						; size = 1
$T223 = -388						; size = 1
$T181 = -384						; size = 1
$T279 = -380						; size = 4
_this$ = -380						; size = 4
_this$ = -380						; size = 4
tv7198 = -376						; size = 4
$T280 = -376						; size = 4
$T216 = -372						; size = 24
$T175 = -372						; size = 24
$T165 = -372						; size = 24
$T148 = -372						; size = 24
$T133 = -372						; size = 24
$T115 = -372						; size = 24
$T97 = -372						; size = 24
$T79 = -372						; size = 24
$T61 = -372						; size = 24
$T43 = -372						; size = 24
$T270 = -348						; size = 24
$T229 = -348						; size = 24
$T174 = -348						; size = 24
$T155 = -348						; size = 24
$T149 = -348						; size = 24
$T135 = -348						; size = 24
$T117 = -348						; size = 24
$T99 = -348						; size = 24
$T81 = -348						; size = 24
$T63 = -348						; size = 24
$T45 = -348						; size = 24
$T249 = -324						; size = 24
$T187 = -324						; size = 24
$T164 = -324						; size = 24
$T147 = -324						; size = 24
$T132 = -324						; size = 24
$T114 = -324						; size = 24
$T96 = -324						; size = 24
$T78 = -324						; size = 24
$T60 = -324						; size = 24
$T42 = -324						; size = 24
$T271 = -300						; size = 24
$T258 = -300						; size = 24
$T173 = -300						; size = 24
$T161 = -300						; size = 24
$T146 = -300						; size = 24
$T136 = -300						; size = 24
$T126 = -300						; size = 24
$T118 = -300						; size = 24
$T108 = -300						; size = 24
$T100 = -300						; size = 24
$T90 = -300						; size = 24
$T82 = -300						; size = 24
$T72 = -300						; size = 24
$T64 = -300						; size = 24
$T54 = -300						; size = 24
$T46 = -300						; size = 24
$T36 = -300						; size = 24
$T31 = -300						; size = 24
$T25 = -300						; size = 24
_i$1$ = -276						; size = 4
_i$1$ = -276						; size = 4
$T12 = -276						; size = 1
_czy_pobierano$1$ = -269				; size = 1
_czy_pobierano$1$ = -269				; size = 1
_buf$281 = -268						; size = 24
_numers$282 = -244					; size = 176
_numers$283 = -244					; size = 176
_numers$284 = -244					; size = 176
_link$285 = -68						; size = 24
_g³os2$286 = -44					; size = 24
_i$1$ = -20						; size = 4
__Result$1$ = -20					; size = 4
$T9 = -20						; size = 1
__Ch$ = -20						; size = 1
$T17 = -20						; size = 1
$T1 = -20						; size = 4
__$ArrayPad$ = -16					; size = 4
__$EHRec$ = -12						; size = 12
?SprawdŸ_Pliki@@YAXXZ PROC				; SprawdŸ_Pliki, COMDAT

; 595  : {

  00000	55		 push	 ebp
  00001	8b ec		 mov	 ebp, esp
  00003	6a ff		 push	 -1
  00005	68 00 00 00 00	 push	 __ehhandler$?SprawdŸ_Pliki@@YAXXZ
  0000a	64 a1 00 00 00
	00		 mov	 eax, DWORD PTR fs:0
  00010	50		 push	 eax
  00011	81 ec 0c 02 00
	00		 sub	 esp, 524		; 0000020cH
  00017	a1 00 00 00 00	 mov	 eax, DWORD PTR ___security_cookie
  0001c	33 c5		 xor	 eax, ebp
  0001e	89 45 f0	 mov	 DWORD PTR __$ArrayPad$[ebp], eax
  00021	56		 push	 esi
  00022	57		 push	 edi
  00023	50		 push	 eax
  00024	8d 45 f4	 lea	 eax, DWORD PTR __$EHRec$[ebp]
  00027	64 a3 00 00 00
	00		 mov	 DWORD PTR fs:0, eax
  0002d	33 ff		 xor	 edi, edi
  0002f	89 7d ec	 mov	 DWORD PTR $T1[ebp], edi

; 596  : 	if (stan_dŸwiêków == 1)

  00032	66 83 3d 00 00
	00 00 01	 cmp	 WORD PTR ?stan_dŸwiêków@@3FA, 1 ; stan_dŸwiêków
  0003a	0f 85 87 17 00
	00		 jne	 $LN31@SprawdŸ_P

; 597  : 		if (efekty_dŸwiêkowe == 1)

  00040	66 83 3d 00 00
	00 00 01	 cmp	 WORD PTR ?efekty_dŸwiêkowe@@3FA, 1 ; efekty_dŸwiêkowe
  00048	8b 35 00 00 00
	00		 mov	 esi, DWORD PTR __imp___access
  0004e	0f 85 d3 01 00
	00		 jne	 $LN3204@SprawdŸ_P

; 598  : 		{
; 599  : 			if ((_access("Efekty_dŸwiêkowe", 0)))

  00054	57		 push	 edi
  00055	68 00 00 00 00	 push	 OFFSET ??_C@_0BB@GJELGIOA@Efekty_d?$JPwi?jkowe?$AA@
  0005a	ff d6		 call	 esi
  0005c	83 c4 08	 add	 esp, 8
  0005f	85 c0		 test	 eax, eax
  00061	74 0c		 je	 SHORT $LN15@SprawdŸ_P

; 600  : 			{
; 601  : 				CreateDirectoryA("Efekty_dŸwiêkowe", nullptr);

  00063	57		 push	 edi
  00064	68 00 00 00 00	 push	 OFFSET ??_C@_0BB@GJELGIOA@Efekty_d?$JPwi?jkowe?$AA@
  00069	ff 15 00 00 00
	00		 call	 DWORD PTR __imp__CreateDirectoryA@8
$LN15@SprawdŸ_P:

; 602  : 			}
; 603  : 
; 604  : 			bool czy_pobierano = false;
; 605  : 			bool czy_pobrano = true;
; 606  : 
; 607  : 			if ((_access("Efekty_dŸwiêkowe/bankrut.wav", 0)))

  0006f	6a 00		 push	 0
  00071	68 00 00 00 00	 push	 OFFSET ??_C@_0BN@JMMCOBLJ@Efekty_d?$JPwi?jkowe?1bankrut?4wav?$AA@
  00076	c6 85 f3 fe ff
	ff 00		 mov	 BYTE PTR _czy_pobierano$1$[ebp], 0
  0007d	ff d6		 call	 esi
  0007f	83 c4 08	 add	 esp, 8
  00082	85 c0		 test	 eax, eax
  00084	74 42		 je	 SHORT $LN18@SprawdŸ_P

; 608  : 			{
; 609  : 				if (!czy_pobierano) cout << "Rozpoczynam pobieranie brakuj¹cych plików efektów" << endl;

  00086	8b 0d 00 00 00
	00		 mov	 ecx, DWORD PTR __imp_?cout@std@@3V?$basic_ostream@DU?$char_traits@D@std@@@1@A
  0008c	ba 00 00 00 00	 mov	 edx, OFFSET ??_C@_0DC@DNDHBNPK@Rozpoczynam?5pobieranie?5brakuj?$LJcy@
  00091	68 00 00 00 00	 push	 OFFSET ??$endl@DU?$char_traits@D@std@@@std@@YAAAV?$basic_ostream@DU?$char_traits@D@std@@@0@AAV10@@Z ; std::endl<char,std::char_traits<char> >
  00096	e8 00 00 00 00	 call	 ??$?6U?$char_traits@D@std@@@std@@YAAAV?$basic_ostream@DU?$char_traits@D@std@@@0@AAV10@PBD@Z ; std::operator<<<std::char_traits<char> >
  0009b	8b c8		 mov	 ecx, eax
  0009d	ff 15 00 00 00
	00		 call	 DWORD PTR __imp_??6?$basic_ostream@DU?$char_traits@D@std@@@std@@QAEAAV01@P6AAAV01@AAV01@@Z@Z

; 610  : 				czy_pobierano = true;
; 611  : 				auto res = URLDownloadToFileA(nullptr, "https://github.com/talez2709/Ruletka/raw/master/Ruletka/Efekty_d%C5%BAwi%C4%99kowe/bankrut.wav", "Efekty_dŸwiêkowe/bankrut.wav", 0, nullptr);

  000a3	6a 00		 push	 0
  000a5	6a 00		 push	 0
  000a7	68 00 00 00 00	 push	 OFFSET ??_C@_0BN@JMMCOBLJ@Efekty_d?$JPwi?jkowe?1bankrut?4wav?$AA@
  000ac	68 00 00 00 00	 push	 OFFSET ??_C@_0FP@HCIMMKGN@https?3?1?1github?4com?1talez2709?1Rul@
  000b1	6a 00		 push	 0
  000b3	c6 85 f3 fe ff
	ff 01		 mov	 BYTE PTR _czy_pobierano$1$[ebp], 1
  000ba	ff 15 00 00 00
	00		 call	 DWORD PTR __imp__URLDownloadToFileA@20

; 612  : 				if (res != S_OK)

  000c0	85 c0		 test	 eax, eax
  000c2	0f 85 02 01 00
	00		 jne	 $LN3215@SprawdŸ_P
$LN18@SprawdŸ_P:

; 613  : 				{
; 614  : 					czy_pobrano = false;
; 615  : 					cout << "Brak plików dla efektów dŸwiêkowych oraz nie mo¿na pobraæ danych, wy³¹czono efekty dŸwiêkowe muzyczne, w³¹czono efekty systemowe" << endl;
; 616  : 					EfektyKompletne = false; //Wpisanie do zmiennej wartoœci false informuj¹cej o niekompletnych plikach audio
; 617  : 					return; //Wyjœcie z funkcji poniewa¿ nie ma sensu sprawdzania dalej
; 618  : 				}
; 619  : 			}
; 620  : 
; 621  : 			if ((_access("Efekty_dŸwiêkowe/wygrana1.wav", 0)))

  000c8	6a 00		 push	 0
  000ca	68 00 00 00 00	 push	 OFFSET ??_C@_0BO@OCGMENDH@Efekty_d?$JPwi?jkowe?1wygrana1?4wav?$AA@
  000cf	ff d6		 call	 esi
  000d1	83 c4 08	 add	 esp, 8
  000d4	85 c0		 test	 eax, eax
  000d6	74 4b		 je	 SHORT $LN21@SprawdŸ_P

; 622  : 			{
; 623  : 				if (!czy_pobierano) cout << "Rozpoczynam pobieranie brakuj¹cych plików efektów" << endl;

  000d8	80 bd f3 fe ff
	ff 00		 cmp	 BYTE PTR _czy_pobierano$1$[ebp], 0
  000df	75 1d		 jne	 SHORT $LN20@SprawdŸ_P
  000e1	8b 0d 00 00 00
	00		 mov	 ecx, DWORD PTR __imp_?cout@std@@3V?$basic_ostream@DU?$char_traits@D@std@@@1@A
  000e7	ba 00 00 00 00	 mov	 edx, OFFSET ??_C@_0DC@DNDHBNPK@Rozpoczynam?5pobieranie?5brakuj?$LJcy@
  000ec	68 00 00 00 00	 push	 OFFSET ??$endl@DU?$char_traits@D@std@@@std@@YAAAV?$basic_ostream@DU?$char_traits@D@std@@@0@AAV10@@Z ; std::endl<char,std::char_traits<char> >
  000f1	e8 00 00 00 00	 call	 ??$?6U?$char_traits@D@std@@@std@@YAAAV?$basic_ostream@DU?$char_traits@D@std@@@0@AAV10@PBD@Z ; std::operator<<<std::char_traits<char> >
  000f6	8b c8		 mov	 ecx, eax
  000f8	ff 15 00 00 00
	00		 call	 DWORD PTR __imp_??6?$basic_ostream@DU?$char_traits@D@std@@@std@@QAEAAV01@P6AAAV01@AAV01@@Z@Z
$LN20@SprawdŸ_P:

; 624  : 				czy_pobierano = true;
; 625  : 				auto res = URLDownloadToFileA(nullptr, "https://github.com/talez2709/Ruletka/raw/master/Ruletka/Efekty_d%C5%BAwi%C4%99kowe/bankrut.wav", "Efekty_dŸwiêkowe/wygrana1.wav", 0, nullptr);

  000fe	6a 00		 push	 0
  00100	6a 00		 push	 0
  00102	68 00 00 00 00	 push	 OFFSET ??_C@_0BO@OCGMENDH@Efekty_d?$JPwi?jkowe?1wygrana1?4wav?$AA@
  00107	68 00 00 00 00	 push	 OFFSET ??_C@_0FP@HCIMMKGN@https?3?1?1github?4com?1talez2709?1Rul@
  0010c	6a 00		 push	 0
  0010e	c6 85 f3 fe ff
	ff 01		 mov	 BYTE PTR _czy_pobierano$1$[ebp], 1
  00115	ff 15 00 00 00
	00		 call	 DWORD PTR __imp__URLDownloadToFileA@20

; 626  : 				if (res != S_OK)

  0011b	85 c0		 test	 eax, eax
  0011d	0f 85 a7 00 00
	00		 jne	 $LN3215@SprawdŸ_P
$LN21@SprawdŸ_P:

; 627  : 				{
; 628  : 					czy_pobrano = false;
; 629  : 					cout << "Brak plików dla efektów dŸwiêkowych oraz nie mo¿na pobraæ danych, wy³¹czono efekty dŸwiêkowe muzyczne, w³¹czono efekty systemowe" << endl;
; 630  : 					EfektyKompletne = false; //Wpisanie do zmiennej wartoœci false informuj¹cej o niekompletnych plikach audio
; 631  : 					return; //Wyjœcie z funkcji poniewa¿ nie ma sensu sprawdzania dalej
; 632  : 				}
; 633  : 			}
; 634  : 
; 635  : 			if ((_access("Efekty_dŸwiêkowe/wygrana2.wav", 0)))

  00123	6a 00		 push	 0
  00125	68 00 00 00 00	 push	 OFFSET ??_C@_0BO@GEPIDPJJ@Efekty_d?$JPwi?jkowe?1wygrana2?4wav?$AA@
  0012a	ff d6		 call	 esi
  0012c	83 c4 08	 add	 esp, 8
  0012f	85 c0		 test	 eax, eax
  00131	74 47		 je	 SHORT $LN24@SprawdŸ_P

; 636  : 			{
; 637  : 				if (!czy_pobierano) cout << "Rozpoczynam pobieranie brakuj¹cych plików efektów" << endl;

  00133	80 bd f3 fe ff
	ff 00		 cmp	 BYTE PTR _czy_pobierano$1$[ebp], 0
  0013a	75 1d		 jne	 SHORT $LN23@SprawdŸ_P
  0013c	8b 0d 00 00 00
	00		 mov	 ecx, DWORD PTR __imp_?cout@std@@3V?$basic_ostream@DU?$char_traits@D@std@@@1@A
  00142	ba 00 00 00 00	 mov	 edx, OFFSET ??_C@_0DC@DNDHBNPK@Rozpoczynam?5pobieranie?5brakuj?$LJcy@
  00147	68 00 00 00 00	 push	 OFFSET ??$endl@DU?$char_traits@D@std@@@std@@YAAAV?$basic_ostream@DU?$char_traits@D@std@@@0@AAV10@@Z ; std::endl<char,std::char_traits<char> >
  0014c	e8 00 00 00 00	 call	 ??$?6U?$char_traits@D@std@@@std@@YAAAV?$basic_ostream@DU?$char_traits@D@std@@@0@AAV10@PBD@Z ; std::operator<<<std::char_traits<char> >
  00151	8b c8		 mov	 ecx, eax
  00153	ff 15 00 00 00
	00		 call	 DWORD PTR __imp_??6?$basic_ostream@DU?$char_traits@D@std@@@std@@QAEAAV01@P6AAAV01@AAV01@@Z@Z
$LN23@SprawdŸ_P:

; 638  : 				czy_pobierano = true;
; 639  : 				auto res = URLDownloadToFileA(nullptr, "https://github.com/talez2709/Ruletka/raw/master/Ruletka/Efekty_d%C5%BAwi%C4%99kowe/wygrana2.wav", "Efekty_dŸwiêkowe/wygrana2.wav", 0, nullptr);

  00159	6a 00		 push	 0
  0015b	6a 00		 push	 0
  0015d	68 00 00 00 00	 push	 OFFSET ??_C@_0BO@GEPIDPJJ@Efekty_d?$JPwi?jkowe?1wygrana2?4wav?$AA@
  00162	68 00 00 00 00	 push	 OFFSET ??_C@_0GA@OFKIGHHP@https?3?1?1github?4com?1talez2709?1Rul@
  00167	6a 00		 push	 0
  00169	c6 85 f3 fe ff
	ff 01		 mov	 BYTE PTR _czy_pobierano$1$[ebp], 1
  00170	ff 15 00 00 00
	00		 call	 DWORD PTR __imp__URLDownloadToFileA@20

; 640  : 				if (res != S_OK)

  00176	85 c0		 test	 eax, eax
  00178	75 50		 jne	 SHORT $LN3215@SprawdŸ_P
$LN24@SprawdŸ_P:

; 641  : 				{
; 642  : 					czy_pobrano = false;
; 643  : 					cout << "Brak plików dla efektów dŸwiêkowych oraz nie mo¿na pobraæ danych, wy³¹czono efekty dŸwiêkowe muzyczne, w³¹czono efekty systemowe" << endl;
; 644  : 					EfektyKompletne = false; //Wpisanie do zmiennej wartoœci false informuj¹cej o niekompletnych plikach audio
; 645  : 					return; //Wyjœcie z funkcji poniewa¿ nie ma sensu sprawdzania dalej
; 646  : 				}
; 647  : 			}
; 648  : 
; 649  : 			if ((_access("Efekty_dŸwiêkowe/zwielokrotnenie.wav", 0)))

  0017a	6a 00		 push	 0
  0017c	68 00 00 00 00	 push	 OFFSET ??_C@_0CF@PNMICDIM@Efekty_d?$JPwi?jkowe?1zwielokrotnenie@
  00181	ff d6		 call	 esi
  00183	83 c4 08	 add	 esp, 8
  00186	85 c0		 test	 eax, eax
  00188	74 69		 je	 SHORT $LN27@SprawdŸ_P

; 650  : 			{
; 651  : 				if (!czy_pobierano) cout << "Rozpoczynam pobieranie brakuj¹cych plików efektów" << endl;

  0018a	80 bd f3 fe ff
	ff 00		 cmp	 BYTE PTR _czy_pobierano$1$[ebp], 0
  00191	75 1d		 jne	 SHORT $LN26@SprawdŸ_P
  00193	8b 0d 00 00 00
	00		 mov	 ecx, DWORD PTR __imp_?cout@std@@3V?$basic_ostream@DU?$char_traits@D@std@@@1@A
  00199	ba 00 00 00 00	 mov	 edx, OFFSET ??_C@_0DC@DNDHBNPK@Rozpoczynam?5pobieranie?5brakuj?$LJcy@
  0019e	68 00 00 00 00	 push	 OFFSET ??$endl@DU?$char_traits@D@std@@@std@@YAAAV?$basic_ostream@DU?$char_traits@D@std@@@0@AAV10@@Z ; std::endl<char,std::char_traits<char> >
  001a3	e8 00 00 00 00	 call	 ??$?6U?$char_traits@D@std@@@std@@YAAAV?$basic_ostream@DU?$char_traits@D@std@@@0@AAV10@PBD@Z ; std::operator<<<std::char_traits<char> >
  001a8	8b c8		 mov	 ecx, eax
  001aa	ff 15 00 00 00
	00		 call	 DWORD PTR __imp_??6?$basic_ostream@DU?$char_traits@D@std@@@std@@QAEAAV01@P6AAAV01@AAV01@@Z@Z
$LN26@SprawdŸ_P:

; 652  : 				czy_pobierano = true;
; 653  : 				auto res = URLDownloadToFileA(nullptr, "https://github.com/talez2709/Ruletka/raw/master/Ruletka/Efekty_d%C5%BAwi%C4%99kowe/zwielokrotnenie.wav", "Efekty_dŸwiêkowe/zwielokrotnenie.wav", 0, nullptr);

  001b0	6a 00		 push	 0
  001b2	6a 00		 push	 0
  001b4	68 00 00 00 00	 push	 OFFSET ??_C@_0CF@PNMICDIM@Efekty_d?$JPwi?jkowe?1zwielokrotnenie@
  001b9	68 00 00 00 00	 push	 OFFSET ??_C@_0GH@BAJDCEKO@https?3?1?1github?4com?1talez2709?1Rul@
  001be	6a 00		 push	 0
  001c0	ff 15 00 00 00
	00		 call	 DWORD PTR __imp__URLDownloadToFileA@20

; 654  : 				if (res != S_OK)

  001c6	85 c0		 test	 eax, eax
  001c8	74 32		 je	 SHORT $LN3206@SprawdŸ_P
$LN3215@SprawdŸ_P:

; 655  : 				{
; 656  : 					czy_pobrano = false;
; 657  : 					cout << "Brak plików dla efektów dŸwiêkowych oraz nie mo¿na pobraæ danych, wy³¹czono efekty dŸwiêkowe muzyczne, w³¹czono efekty systemowe" << endl;

  001ca	8b 0d 00 00 00
	00		 mov	 ecx, DWORD PTR __imp_?cout@std@@3V?$basic_ostream@DU?$char_traits@D@std@@@1@A
  001d0	ba 00 00 00 00	 mov	 edx, OFFSET ??_C@_0IB@GKCCNHLI@Brak?5plik?sw?5dla?5efekt?sw?5d?$JPwi?jkow@
  001d5	68 00 00 00 00	 push	 OFFSET ??$endl@DU?$char_traits@D@std@@@std@@YAAAV?$basic_ostream@DU?$char_traits@D@std@@@0@AAV10@@Z ; std::endl<char,std::char_traits<char> >
  001da	e8 00 00 00 00	 call	 ??$?6U?$char_traits@D@std@@@std@@YAAAV?$basic_ostream@DU?$char_traits@D@std@@@0@AAV10@PBD@Z ; std::operator<<<std::char_traits<char> >
  001df	8b c8		 mov	 ecx, eax
  001e1	ff 15 00 00 00
	00		 call	 DWORD PTR __imp_??6?$basic_ostream@DU?$char_traits@D@std@@@std@@QAEAAV01@P6AAAV01@AAV01@@Z@Z

; 658  : 					EfektyKompletne = false; //Wpisanie do zmiennej wartoœci false informuj¹cej o niekompletnych plikach audio

  001e7	c6 05 00 00 00
	00 00		 mov	 BYTE PTR ?EfektyKompletne@@3_NA, 0 ; EfektyKompletne

; 659  : 					return; //Wyjœcie z funkcji poniewa¿ nie ma sensu sprawdzania dalej

  001ee	e9 d4 15 00 00	 jmp	 $LN31@SprawdŸ_P
$LN27@SprawdŸ_P:

; 660  : 				}
; 661  : 			}
; 662  : 
; 663  : 			if (czy_pobierano) if (czy_pobierano) cout << "Pobrano brakuj¹ce pliki efektów" << endl;

  001f3	80 bd f3 fe ff
	ff 00		 cmp	 BYTE PTR _czy_pobierano$1$[ebp], 0
  001fa	74 1d		 je	 SHORT $LN29@SprawdŸ_P
$LN3206@SprawdŸ_P:
  001fc	8b 0d 00 00 00
	00		 mov	 ecx, DWORD PTR __imp_?cout@std@@3V?$basic_ostream@DU?$char_traits@D@std@@@1@A
  00202	ba 00 00 00 00	 mov	 edx, OFFSET ??_C@_0CA@KILAJOJF@Pobrano?5brakuj?$LJce?5pliki?5efekt?sw?$AA@
  00207	68 00 00 00 00	 push	 OFFSET ??$endl@DU?$char_traits@D@std@@@std@@YAAAV?$basic_ostream@DU?$char_traits@D@std@@@0@AAV10@@Z ; std::endl<char,std::char_traits<char> >
  0020c	e8 00 00 00 00	 call	 ??$?6U?$char_traits@D@std@@@std@@YAAAV?$basic_ostream@DU?$char_traits@D@std@@@0@AAV10@PBD@Z ; std::operator<<<std::char_traits<char> >
  00211	8b c8		 mov	 ecx, eax
  00213	ff 15 00 00 00
	00		 call	 DWORD PTR __imp_??6?$basic_ostream@DU?$char_traits@D@std@@@std@@QAEAAV01@P6AAAV01@AAV01@@Z@Z
$LN29@SprawdŸ_P:

; 664  : 		}
; 665  : 
; 666  : 	if (stan_dŸwiêków == 1)

  00219	66 83 3d 00 00
	00 00 01	 cmp	 WORD PTR ?stan_dŸwiêków@@3FA, 1 ; stan_dŸwiêków
  00221	0f 85 a0 15 00
	00		 jne	 $LN31@SprawdŸ_P
$LN3204@SprawdŸ_P:

; 667  : 		if (g³os_odczytu_numeru > 0)

  00227	66 39 3d 00 00
	00 00		 cmp	 WORD PTR ?g³os_odczytu_numeru@@3FA, di ; g³os_odczytu_numeru
  0022e	0f 8e 93 15 00
	00		 jle	 $LN31@SprawdŸ_P
; File f:\program files (x86)\microsoft visual studio\2017\enterprise\vc\tools\msvc\14.11.25503\include\xstring

; 3698 : 		_My_data._Mysize = 0;

  00234	89 bd 04 ff ff
	ff		 mov	 DWORD PTR _buf$281[ebp+16], edi

; 3699 : 		_My_data._Myres = this->_BUF_SIZE - 1;

  0023a	c7 85 08 ff ff
	ff 0f 00 00 00	 mov	 DWORD PTR _buf$281[ebp+20], 15 ; 0000000fH
; File f:\program files (x86)\microsoft visual studio\2017\enterprise\vc\tools\msvc\14.11.25503\include\iosfwd

; 517  : 		_Left = _Right;

  00244	c6 85 f4 fe ff
	ff 00		 mov	 BYTE PTR _buf$281[ebp], 0
; File f:\program files (x86)\microsoft visual studio\2017\enterprise\vc\tools\msvc\14.11.25503\include\xstring

; 2452 : 		return (assign(_Ptr, _Convert_size<size_type>(_Traits::length(_Ptr))));

  0024b	6a 05		 push	 5
  0024d	68 00 00 00 00	 push	 OFFSET ??_C@_05CMOJBPHN@G?$LDos?1?$AA@
  00252	b9 00 00 00 00	 mov	 ecx, OFFSET ?G³os@@3V?$basic_string@DU?$char_traits@D@std@@V?$allocator@D@2@@std@@A ; G³os
; File f:\users\krzysztof\documents\szko³a\2017-2018\informatyka\labolatorium\ruletka\ruletka\main.cpp

; 669  : 			string buf; //Utworzenie bufora tekstowego do celu sprawdzania plików z g³osem

  00257	c7 45 fc 00 00
	00 00		 mov	 DWORD PTR __$EHRec$[ebp+8], 0
; File f:\program files (x86)\microsoft visual studio\2017\enterprise\vc\tools\msvc\14.11.25503\include\xstring

; 2452 : 		return (assign(_Ptr, _Convert_size<size_type>(_Traits::length(_Ptr))));

  0025e	e8 00 00 00 00	 call	 ?assign@?$basic_string@DU?$char_traits@D@std@@V?$allocator@D@2@@std@@QAEAAV12@QBDI@Z ; std::basic_string<char,std::char_traits<char>,std::allocator<char> >::assign
; File f:\users\krzysztof\documents\szko³a\2017-2018\informatyka\labolatorium\ruletka\ruletka\main.cpp

; 673  : 			switch (g³os_odczytu_numeru) //U¿ycie warunku wielokrotnego wyboru do wpisania odpowiedniej nazwy g³osu do zmiennej g³os_nazwa

  00263	0f bf 05 00 00
	00 00		 movsx	 eax, WORD PTR ?g³os_odczytu_numeru@@3FA ; g³os_odczytu_numeru
  0026a	48		 dec	 eax
  0026b	83 f8 08	 cmp	 eax, 8
  0026e	77 4e		 ja	 SHORT $LN41@SprawdŸ_P
  00270	ff 24 85 00 00
	00 00		 jmp	 DWORD PTR $LN3216@SprawdŸ_P[eax*4]
$LN32@SprawdŸ_P:

; 674  : 			{
; 675  : 			case 1: //Gdy g³os_odczytu_numeru==1
; 676  : 			{
; 677  : 				G³os += "Jacek"; //Dodanie do zmiennej nazwy wybranego g³osu Jacek

  00277	68 00 00 00 00	 push	 OFFSET ??_C@_05KFCKMKOB@Jacek?$AA@

; 678  : 				break; //Wyjœcie z instrukcji case //Wyjœcie z instrukcji case

  0027c	eb 36		 jmp	 SHORT $LN3213@SprawdŸ_P
$LN33@SprawdŸ_P:

; 679  : 			}
; 680  : 			case 2: //Gdy g³os_odczytu_numeru==2
; 681  : 			{
; 682  : 				G³os += "Ewa"; //Dodanie do zmiennej nazwy wybranego g³osu Ewa

  0027e	68 00 00 00 00	 push	 OFFSET ??_C@_03FPCJKMNP@Ewa?$AA@

; 683  : 				break; //Wyjœcie z instrukcji case

  00283	eb 2f		 jmp	 SHORT $LN3213@SprawdŸ_P
$LN34@SprawdŸ_P:

; 684  : 			}
; 685  : 			case 3: //Gdy g³os_odczytu_numeru==3
; 686  : 			{
; 687  : 				G³os += "Maja"; //Dodanie do zmiennej nazwy wybranego g³osu Maja

  00285	68 00 00 00 00	 push	 OFFSET ??_C@_04CDICBAGM@Maja?$AA@

; 688  : 				break; //Wyjœcie z instrukcji case

  0028a	eb 28		 jmp	 SHORT $LN3213@SprawdŸ_P
$LN35@SprawdŸ_P:

; 689  : 			}
; 690  : 			case 4: //Gdy g³os_odczytu_numeru==4
; 691  : 			{
; 692  : 				G³os += "Jan"; //Dodanie do zmiennej nazwy wybranego g³osu Jan

  0028c	68 00 00 00 00	 push	 OFFSET ??_C@_03JIHJHPIE@Jan?$AA@

; 693  : 				break; //Wyjœcie z instrukcji case

  00291	eb 21		 jmp	 SHORT $LN3213@SprawdŸ_P
$LN36@SprawdŸ_P:

; 694  : 			}
; 695  : 			case 5: //Gdy g³os_odczytu_numeru==5
; 696  : 			{
; 697  : 				G³os += "Jacek2"; //Dodanie do zmiennej nazwy wybranego g³osu Jacek 2

  00293	68 00 00 00 00	 push	 OFFSET ??_C@_06DKNIKMFF@Jacek2?$AA@

; 698  : 				break; //Wyjœcie z instrukcji case

  00298	eb 1a		 jmp	 SHORT $LN3213@SprawdŸ_P
$LN37@SprawdŸ_P:

; 699  : 			}
; 700  : 
; 701  : 			case 6: //Gdy g³os_odczytu_numeru==6
; 702  : 			{
; 703  : 				G³os += "Ewa2"; //Dodanie do zmiennej nazwy wybranego g³osu Ewa 2

  0029a	68 00 00 00 00	 push	 OFFSET ??_C@_04PLEDLCJI@Ewa2?$AA@

; 704  : 				break; //Wyjœcie z instrukcji case

  0029f	eb 13		 jmp	 SHORT $LN3213@SprawdŸ_P
$LN38@SprawdŸ_P:

; 705  : 			}
; 706  : 			case 7: //Gdy g³os_odczytu_numeru==7
; 707  : 			{
; 708  : 				G³os += "Maja2"; //Dodanie do zmiennej nazwy wybranego g³osu Maja 2

  002a1	68 00 00 00 00	 push	 OFFSET ??_C@_05KJFHPLBC@Maja2?$AA@

; 709  : 				break; //Wyjœcie z instrukcji case

  002a6	eb 0c		 jmp	 SHORT $LN3213@SprawdŸ_P
$LN39@SprawdŸ_P:

; 710  : 			}
; 711  : 			case 8: //Gdy g³os_odczytu_numeru==8
; 712  : 			{
; 713  : 				G³os += "Jan2"; //Dodanie do zmiennej nazwy wybranego g³osu Jan 2

  002a8	68 00 00 00 00	 push	 OFFSET ??_C@_04HDNGKDH@Jan2?$AA@

; 714  : 				break; //Wyjœcie z instrukcji case

  002ad	eb 05		 jmp	 SHORT $LN3213@SprawdŸ_P
$LN40@SprawdŸ_P:

; 715  : 			}
; 716  : 			case 9: //Gdy g³os_odczytu_numeru==9
; 717  : 			{
; 718  : 				G³os += "Agata"; //Dodanie do zmiennej nazwy wybranego g³osu Agata

  002af	68 00 00 00 00	 push	 OFFSET ??_C@_05NKPCGME@Agata?$AA@
$LN3213@SprawdŸ_P:
  002b4	b9 00 00 00 00	 mov	 ecx, OFFSET ?G³os@@3V?$basic_string@DU?$char_traits@D@std@@V?$allocator@D@2@@std@@A ; G³os
  002b9	e8 00 00 00 00	 call	 ??Y?$basic_string@DU?$char_traits@D@std@@V?$allocator@D@2@@std@@QAEAAV01@QBD@Z ; std::basic_string<char,std::char_traits<char>,std::allocator<char> >::operator+=
$LN41@SprawdŸ_P:
; File f:\program files (x86)\microsoft visual studio\2017\enterprise\vc\tools\msvc\14.11.25503\include\xstring

; 2351 : 		if (_Count <= _My_data._Myres - _Old_size)

  002be	8b 15 14 00 00
	00		 mov	 edx, DWORD PTR ?G³os@@3V?$basic_string@DU?$char_traits@D@std@@V?$allocator@D@2@@std@@A+20
  002c4	8b c2		 mov	 eax, edx
  002c6	8b 0d 10 00 00
	00		 mov	 ecx, DWORD PTR ?G³os@@3V?$basic_string@DU?$char_traits@D@std@@V?$allocator@D@2@@std@@A+16
  002cc	2b c1		 sub	 eax, ecx
; File f:\program files (x86)\microsoft visual studio\2017\enterprise\vc\tools\msvc\14.11.25503\include\iosfwd

; 506  : 		return ((_Elem *)_CSTD memmove(_First1, _First2, _Count));

  002ce	6a 01		 push	 1
  002d0	68 00 00 00 00	 push	 OFFSET ??_C@_01IDAFKMJL@_?$AA@
; File f:\program files (x86)\microsoft visual studio\2017\enterprise\vc\tools\msvc\14.11.25503\include\xstring

; 2351 : 		if (_Count <= _My_data._Myres - _Old_size)

  002d5	83 f8 01	 cmp	 eax, 1
  002d8	72 29		 jb	 SHORT $LN201@SprawdŸ_P

; 1617 : 		return (_BUF_SIZE <= _Myres);

  002da	83 fa 10	 cmp	 edx, 16			; 00000010H

; 2353 : 			_My_data._Mysize = _Old_size + _Count;

  002dd	8d 41 01	 lea	 eax, DWORD PTR [ecx+1]

; 1595 : 		value_type * _Result = _Bx._Buf;

  002e0	be 00 00 00 00	 mov	 esi, OFFSET ?G³os@@3V?$basic_string@DU?$char_traits@D@std@@V?$allocator@D@2@@std@@A ; G³os

; 2353 : 			_My_data._Mysize = _Old_size + _Count;

  002e5	a3 10 00 00 00	 mov	 DWORD PTR ?G³os@@3V?$basic_string@DU?$char_traits@D@std@@V?$allocator@D@2@@std@@A+16, eax

; 1596 : 		if (_Large_string_engaged())

  002ea	0f 43 35 00 00
	00 00		 cmovae	 esi, DWORD PTR ?G³os@@3V?$basic_string@DU?$char_traits@D@std@@V?$allocator@D@2@@std@@A

; 2355 : 			_Traits::move(_Old_ptr + _Old_size, _Ptr, _Count);

  002f1	03 f1		 add	 esi, ecx
; File f:\program files (x86)\microsoft visual studio\2017\enterprise\vc\tools\msvc\14.11.25503\include\iosfwd

; 506  : 		return ((_Elem *)_CSTD memmove(_First1, _First2, _Count));

  002f3	56		 push	 esi
  002f4	ff 15 00 00 00
	00		 call	 DWORD PTR __imp__memmove
  002fa	83 c4 0c	 add	 esp, 12			; 0000000cH

; 517  : 		_Left = _Right;

  002fd	c6 46 01 00	 mov	 BYTE PTR [esi+1], 0
; File f:\program files (x86)\microsoft visual studio\2017\enterprise\vc\tools\msvc\14.11.25503\include\xstring

; 2357 : 			return (*this);

  00301	eb 13		 jmp	 SHORT $LN200@SprawdŸ_P
$LN201@SprawdŸ_P:

; 2358 : 			}
; 2359 : 
; 2360 : 		return (_Reallocate_grow_by(_Count,

  00303	c6 45 ec 00	 mov	 BYTE PTR $T9[ebp], 0
  00307	b9 00 00 00 00	 mov	 ecx, OFFSET ?G³os@@3V?$basic_string@DU?$char_traits@D@std@@V?$allocator@D@2@@std@@A ; G³os
  0030c	ff 75 ec	 push	 DWORD PTR $T9[ebp]
  0030f	6a 01		 push	 1
  00311	e8 00 00 00 00	 call	 ??$_Reallocate_grow_by@V<lambda_ab246b20b9526e2ef7792587e4298a77>@@PBDI@?$basic_string@DU?$char_traits@D@std@@V?$allocator@D@2@@std@@QAEAAV01@IV<lambda_ab246b20b9526e2ef7792587e4298a77>@@PBDI@Z ; std::basic_string<char,std::char_traits<char>,std::allocator<char> >::_Reallocate_grow_by<<lambda_ab246b20b9526e2ef7792587e4298a77>,char const *,unsigned int>
$LN200@SprawdŸ_P:
; File f:\users\krzysztof\documents\szko³a\2017-2018\informatyka\labolatorium\ruletka\ruletka\main.cpp

; 726  : 			G³os += '0' + g³os_szybkoœæ_odczytu_numeru; //Dodanie do zmiennej szybkoœci mowy

  00316	8a 0d 00 00 00
	00		 mov	 cl, BYTE PTR ?g³os_szybkoœæ_odczytu_numeru@@3FA
; File f:\program files (x86)\microsoft visual studio\2017\enterprise\vc\tools\msvc\14.11.25503\include\xstring

; 2991 : 		const size_type _Old_size = _My_data._Mysize;

  0031c	8b 15 10 00 00
	00		 mov	 edx, DWORD PTR ?G³os@@3V?$basic_string@DU?$char_traits@D@std@@V?$allocator@D@2@@std@@A+16
; File f:\users\krzysztof\documents\szko³a\2017-2018\informatyka\labolatorium\ruletka\ruletka\main.cpp

; 726  : 			G³os += '0' + g³os_szybkoœæ_odczytu_numeru; //Dodanie do zmiennej szybkoœci mowy

  00322	80 c1 30	 add	 cl, 48			; 00000030H
; File f:\program files (x86)\microsoft visual studio\2017\enterprise\vc\tools\msvc\14.11.25503\include\xstring

; 2992 : 		if (_Old_size < _My_data._Myres)

  00325	8b 35 14 00 00
	00		 mov	 esi, DWORD PTR ?G³os@@3V?$basic_string@DU?$char_traits@D@std@@V?$allocator@D@2@@std@@A+20

; 2314 : 		push_back(_Ch);

  0032b	88 4d ec	 mov	 BYTE PTR __Ch$[ebp], cl

; 2992 : 		if (_Old_size < _My_data._Myres)

  0032e	3b d6		 cmp	 edx, esi
  00330	73 21		 jae	 SHORT $LN225@SprawdŸ_P

; 2993 : 			{
; 2994 : 			_My_data._Mysize = _Old_size + 1;

  00332	8d 42 01	 lea	 eax, DWORD PTR [edx+1]

; 1617 : 		return (_BUF_SIZE <= _Myres);

  00335	83 fe 10	 cmp	 esi, 16			; 00000010H

; 2994 : 			_My_data._Mysize = _Old_size + 1;

  00338	a3 10 00 00 00	 mov	 DWORD PTR ?G³os@@3V?$basic_string@DU?$char_traits@D@std@@V?$allocator@D@2@@std@@A+16, eax

; 1595 : 		value_type * _Result = _Bx._Buf;

  0033d	b8 00 00 00 00	 mov	 eax, OFFSET ?G³os@@3V?$basic_string@DU?$char_traits@D@std@@V?$allocator@D@2@@std@@A ; G³os

; 1596 : 		if (_Large_string_engaged())

  00342	0f 43 05 00 00
	00 00		 cmovae	 eax, DWORD PTR ?G³os@@3V?$basic_string@DU?$char_traits@D@std@@V?$allocator@D@2@@std@@A
; File f:\program files (x86)\microsoft visual studio\2017\enterprise\vc\tools\msvc\14.11.25503\include\iosfwd

; 517  : 		_Left = _Right;

  00349	88 0c 10	 mov	 BYTE PTR [eax+edx], cl
  0034c	c6 44 10 01 00	 mov	 BYTE PTR [eax+edx+1], 0
; File f:\program files (x86)\microsoft visual studio\2017\enterprise\vc\tools\msvc\14.11.25503\include\xstring

; 2998 : 			return;

  00351	eb 1b		 jmp	 SHORT $LN224@SprawdŸ_P
$LN225@SprawdŸ_P:

; 2999 : 			}
; 3000 : 
; 3001 : 		_Reallocate_grow_by(1,

  00353	ff 75 ec	 push	 DWORD PTR __Ch$[ebp]
  00356	c6 85 ec fe ff
	ff 00		 mov	 BYTE PTR $T12[ebp], 0
  0035d	ff b5 ec fe ff
	ff		 push	 DWORD PTR $T12[ebp]
  00363	51		 push	 ecx
  00364	b9 00 00 00 00	 mov	 ecx, OFFSET ?G³os@@3V?$basic_string@DU?$char_traits@D@std@@V?$allocator@D@2@@std@@A ; G³os
  00369	e8 00 00 00 00	 call	 ??$_Reallocate_grow_by@V<lambda_15711c68e099a15a58f4d77303cb286d>@@D@?$basic_string@DU?$char_traits@D@std@@V?$allocator@D@2@@std@@QAEAAV01@IV<lambda_15711c68e099a15a58f4d77303cb286d>@@D@Z ; std::basic_string<char,std::char_traits<char>,std::allocator<char> >::_Reallocate_grow_by<<lambda_15711c68e099a15a58f4d77303cb286d>,char>
$LN224@SprawdŸ_P:

; 2351 : 		if (_Count <= _My_data._Myres - _Old_size)

  0036e	8b 15 14 00 00
	00		 mov	 edx, DWORD PTR ?G³os@@3V?$basic_string@DU?$char_traits@D@std@@V?$allocator@D@2@@std@@A+20
  00374	8b c2		 mov	 eax, edx
  00376	8b 0d 10 00 00
	00		 mov	 ecx, DWORD PTR ?G³os@@3V?$basic_string@DU?$char_traits@D@std@@V?$allocator@D@2@@std@@A+16
  0037c	2b c1		 sub	 eax, ecx
; File f:\program files (x86)\microsoft visual studio\2017\enterprise\vc\tools\msvc\14.11.25503\include\iosfwd

; 506  : 		return ((_Elem *)_CSTD memmove(_First1, _First2, _Count));

  0037e	6a 01		 push	 1
  00380	68 00 00 00 00	 push	 OFFSET ??_C@_01KMDKNFGN@?1?$AA@
; File f:\program files (x86)\microsoft visual studio\2017\enterprise\vc\tools\msvc\14.11.25503\include\xstring

; 2351 : 		if (_Count <= _My_data._Myres - _Old_size)

  00385	83 f8 01	 cmp	 eax, 1
  00388	72 29		 jb	 SHORT $LN256@SprawdŸ_P

; 1617 : 		return (_BUF_SIZE <= _Myres);

  0038a	83 fa 10	 cmp	 edx, 16			; 00000010H

; 2353 : 			_My_data._Mysize = _Old_size + _Count;

  0038d	8d 41 01	 lea	 eax, DWORD PTR [ecx+1]

; 1595 : 		value_type * _Result = _Bx._Buf;

  00390	be 00 00 00 00	 mov	 esi, OFFSET ?G³os@@3V?$basic_string@DU?$char_traits@D@std@@V?$allocator@D@2@@std@@A ; G³os

; 2353 : 			_My_data._Mysize = _Old_size + _Count;

  00395	a3 10 00 00 00	 mov	 DWORD PTR ?G³os@@3V?$basic_string@DU?$char_traits@D@std@@V?$allocator@D@2@@std@@A+16, eax

; 1596 : 		if (_Large_string_engaged())

  0039a	0f 43 35 00 00
	00 00		 cmovae	 esi, DWORD PTR ?G³os@@3V?$basic_string@DU?$char_traits@D@std@@V?$allocator@D@2@@std@@A

; 2355 : 			_Traits::move(_Old_ptr + _Old_size, _Ptr, _Count);

  003a1	03 f1		 add	 esi, ecx
; File f:\program files (x86)\microsoft visual studio\2017\enterprise\vc\tools\msvc\14.11.25503\include\iosfwd

; 506  : 		return ((_Elem *)_CSTD memmove(_First1, _First2, _Count));

  003a3	56		 push	 esi
  003a4	ff 15 00 00 00
	00		 call	 DWORD PTR __imp__memmove
  003aa	83 c4 0c	 add	 esp, 12			; 0000000cH

; 517  : 		_Left = _Right;

  003ad	c6 46 01 00	 mov	 BYTE PTR [esi+1], 0
; File f:\program files (x86)\microsoft visual studio\2017\enterprise\vc\tools\msvc\14.11.25503\include\xstring

; 2357 : 			return (*this);

  003b1	eb 13		 jmp	 SHORT $LN255@SprawdŸ_P
$LN256@SprawdŸ_P:

; 2358 : 			}
; 2359 : 
; 2360 : 		return (_Reallocate_grow_by(_Count,

  003b3	c6 45 ec 00	 mov	 BYTE PTR $T17[ebp], 0
  003b7	b9 00 00 00 00	 mov	 ecx, OFFSET ?G³os@@3V?$basic_string@DU?$char_traits@D@std@@V?$allocator@D@2@@std@@A ; G³os
  003bc	ff 75 ec	 push	 DWORD PTR $T17[ebp]
  003bf	6a 01		 push	 1
  003c1	e8 00 00 00 00	 call	 ??$_Reallocate_grow_by@V<lambda_ab246b20b9526e2ef7792587e4298a77>@@PBDI@?$basic_string@DU?$char_traits@D@std@@V?$allocator@D@2@@std@@QAEAAV01@IV<lambda_ab246b20b9526e2ef7792587e4298a77>@@PBDI@Z ; std::basic_string<char,std::char_traits<char>,std::allocator<char> >::_Reallocate_grow_by<<lambda_ab246b20b9526e2ef7792587e4298a77>,char const *,unsigned int>
$LN255@SprawdŸ_P:

; 2452 : 		return (assign(_Ptr, _Convert_size<size_type>(_Traits::length(_Ptr))));

  003c6	6a 42		 push	 66			; 00000042H
  003c8	68 00 00 00 00	 push	 OFFSET ??_C@_0ED@KNLDKMLM@https?3?1?1github?4com?1talez2709?1Rul@
  003cd	8d 4d bc	 lea	 ecx, DWORD PTR _link$285[ebp]

; 3698 : 		_My_data._Mysize = 0;

  003d0	c7 45 cc 00 00
	00 00		 mov	 DWORD PTR _link$285[ebp+16], 0

; 3699 : 		_My_data._Myres = this->_BUF_SIZE - 1;

  003d7	c7 45 d0 0f 00
	00 00		 mov	 DWORD PTR _link$285[ebp+20], 15 ; 0000000fH
; File f:\program files (x86)\microsoft visual studio\2017\enterprise\vc\tools\msvc\14.11.25503\include\iosfwd

; 517  : 		_Left = _Right;

  003de	c6 45 bc 00	 mov	 BYTE PTR _link$285[ebp], 0
; File f:\program files (x86)\microsoft visual studio\2017\enterprise\vc\tools\msvc\14.11.25503\include\xstring

; 2452 : 		return (assign(_Ptr, _Convert_size<size_type>(_Traits::length(_Ptr))));

  003e2	e8 00 00 00 00	 call	 ?assign@?$basic_string@DU?$char_traits@D@std@@V?$allocator@D@2@@std@@QAEAAV12@QBDI@Z ; std::basic_string<char,std::char_traits<char>,std::allocator<char> >::assign
; File f:\users\krzysztof\documents\szko³a\2017-2018\informatyka\labolatorium\ruletka\ruletka\main.cpp

; 731  : 			string g³os2 = G³os;

  003e7	68 00 00 00 00	 push	 OFFSET ?G³os@@3V?$basic_string@DU?$char_traits@D@std@@V?$allocator@D@2@@std@@A ; G³os
  003ec	8d 4d d4	 lea	 ecx, DWORD PTR _g³os2$286[ebp]
  003ef	c6 45 fc 01	 mov	 BYTE PTR __$EHRec$[ebp+8], 1
  003f3	e8 00 00 00 00	 call	 ??0?$basic_string@DU?$char_traits@D@std@@V?$allocator@D@2@@std@@QAE@ABV01@@Z ; std::basic_string<char,std::char_traits<char>,std::allocator<char> >::basic_string<char,std::char_traits<char>,std::allocator<char> >
  003f8	c6 45 fc 02	 mov	 BYTE PTR __$EHRec$[ebp+8], 2
; File f:\program files (x86)\microsoft visual studio\2017\enterprise\vc\tools\msvc\14.11.25503\include\xstring

; 1595 : 		value_type * _Result = _Bx._Buf;

  003fc	8d 4d d4	 lea	 ecx, DWORD PTR _g³os2$286[ebp]

; 1643 : 		return (_Min_value(_Size, _Mysize - _Off));

  003ff	8b 45 e4	 mov	 eax, DWORD PTR _g³os2$286[ebp+16]
  00402	ba 05 00 00 00	 mov	 edx, 5
  00407	3b c2		 cmp	 eax, edx
  00409	0f 42 d0	 cmovb	 edx, eax

; 1617 : 		return (_BUF_SIZE <= _Myres);

  0040c	83 7d e8 10	 cmp	 DWORD PTR _g³os2$286[ebp+20], 16 ; 00000010H

; 1596 : 		if (_Large_string_engaged())

  00410	0f 43 4d d4	 cmovae	 ecx, DWORD PTR _g³os2$286[ebp]

; 2621 : 		const size_type _New_size = _Old_size - _Count;

  00414	2b c2		 sub	 eax, edx

; 2622 : 		_My_data._Mysize = _New_size;

  00416	89 45 e4	 mov	 DWORD PTR _g³os2$286[ebp+16], eax

; 2623 : 		_Traits::move(_Erase_at, _Erase_at + _Count, _New_size - _Off + 1); // move suffix + null up

  00419	40		 inc	 eax
; File f:\program files (x86)\microsoft visual studio\2017\enterprise\vc\tools\msvc\14.11.25503\include\iosfwd

; 506  : 		return ((_Elem *)_CSTD memmove(_First1, _First2, _Count));

  0041a	50		 push	 eax
; File f:\program files (x86)\microsoft visual studio\2017\enterprise\vc\tools\msvc\14.11.25503\include\xstring

; 2623 : 		_Traits::move(_Erase_at, _Erase_at + _Count, _New_size - _Off + 1); // move suffix + null up

  0041b	8d 04 11	 lea	 eax, DWORD PTR [ecx+edx]
; File f:\program files (x86)\microsoft visual studio\2017\enterprise\vc\tools\msvc\14.11.25503\include\iosfwd

; 506  : 		return ((_Elem *)_CSTD memmove(_First1, _First2, _Count));

  0041e	50		 push	 eax
  0041f	51		 push	 ecx
  00420	ff 15 00 00 00
	00		 call	 DWORD PTR __imp__memmove
; File f:\users\krzysztof\documents\szko³a\2017-2018\informatyka\labolatorium\ruletka\ruletka\main.cpp

; 734  : 			if ((_access("G³os", 0)))

  00426	8b 35 00 00 00
	00		 mov	 esi, DWORD PTR __imp___access
  0042c	6a 00		 push	 0
  0042e	68 00 00 00 00	 push	 OFFSET ??_C@_04JLFAMLOH@G?$LDos?$AA@
  00433	ff d6		 call	 esi
  00435	83 c4 14	 add	 esp, 20			; 00000014H
  00438	85 c0		 test	 eax, eax
  0043a	74 0d		 je	 SHORT $LN42@SprawdŸ_P

; 735  : 			{
; 736  : 				CreateDirectoryA("G³os", nullptr);

  0043c	6a 00		 push	 0
  0043e	68 00 00 00 00	 push	 OFFSET ??_C@_04JLFAMLOH@G?$LDos?$AA@
  00443	ff 15 00 00 00
	00		 call	 DWORD PTR __imp__CreateDirectoryA@8
$LN42@SprawdŸ_P:

; 738  : 			if ((_access(("G³os/" + g³os2).c_str(), 0)))

  00449	8d 45 d4	 lea	 eax, DWORD PTR _g³os2$286[ebp]
  0044c	50		 push	 eax
  0044d	8d 8d d4 fe ff
	ff		 lea	 ecx, DWORD PTR $T25[ebp]
  00453	e8 00 00 00 00	 call	 ??$?HDU?$char_traits@D@std@@V?$allocator@D@1@@std@@YA?AV?$basic_string@DU?$char_traits@D@std@@V?$allocator@D@2@@0@QBDABV10@@Z ; std::operator+<char,std::char_traits<char>,std::allocator<char> >
  00458	83 c4 04	 add	 esp, 4
; File f:\program files (x86)\microsoft visual studio\2017\enterprise\vc\tools\msvc\14.11.25503\include\xstring

; 1617 : 		return (_BUF_SIZE <= _Myres);

  0045b	83 78 14 10	 cmp	 DWORD PTR [eax+20], 16	; 00000010H

; 1607 : 		if (_Large_string_engaged())

  0045f	72 02		 jb	 SHORT $LN345@SprawdŸ_P
; File f:\program files (x86)\microsoft visual studio\2017\enterprise\vc\tools\msvc\14.11.25503\include\xstddef

; 265  : 	return (_Ptr);

  00461	8b 00		 mov	 eax, DWORD PTR [eax]
$LN345@SprawdŸ_P:
; File f:\users\krzysztof\documents\szko³a\2017-2018\informatyka\labolatorium\ruletka\ruletka\main.cpp

; 738  : 			if ((_access(("G³os/" + g³os2).c_str(), 0)))

  00463	6a 00		 push	 0
  00465	50		 push	 eax
  00466	ff d6		 call	 esi
  00468	83 c4 08	 add	 esp, 8
  0046b	8d 8d d4 fe ff
	ff		 lea	 ecx, DWORD PTR $T25[ebp]
  00471	8b f0		 mov	 esi, eax
  00473	e8 00 00 00 00	 call	 ??1?$basic_string@DU?$char_traits@D@std@@V?$allocator@D@2@@std@@QAE@XZ ; std::basic_string<char,std::char_traits<char>,std::allocator<char> >::~basic_string<char,std::char_traits<char>,std::allocator<char> >
  00478	85 f6		 test	 esi, esi
  0047a	74 2e		 je	 SHORT $LN43@SprawdŸ_P

; 740  : 				CreateDirectoryA(("G³os/" + g³os2).c_str(), nullptr);

  0047c	8d 45 d4	 lea	 eax, DWORD PTR _g³os2$286[ebp]
  0047f	50		 push	 eax
  00480	8d 8d d4 fe ff
	ff		 lea	 ecx, DWORD PTR $T31[ebp]
  00486	e8 00 00 00 00	 call	 ??$?HDU?$char_traits@D@std@@V?$allocator@D@1@@std@@YA?AV?$basic_string@DU?$char_traits@D@std@@V?$allocator@D@2@@0@QBDABV10@@Z ; std::operator+<char,std::char_traits<char>,std::allocator<char> >
  0048b	83 c4 04	 add	 esp, 4
; File f:\program files (x86)\microsoft visual studio\2017\enterprise\vc\tools\msvc\14.11.25503\include\xstring

; 1617 : 		return (_BUF_SIZE <= _Myres);

  0048e	83 78 14 10	 cmp	 DWORD PTR [eax+20], 16	; 00000010H

; 1607 : 		if (_Large_string_engaged())

  00492	72 02		 jb	 SHORT $LN361@SprawdŸ_P
; File f:\program files (x86)\microsoft visual studio\2017\enterprise\vc\tools\msvc\14.11.25503\include\xstddef

; 265  : 	return (_Ptr);

  00494	8b 00		 mov	 eax, DWORD PTR [eax]
$LN361@SprawdŸ_P:
; File f:\users\krzysztof\documents\szko³a\2017-2018\informatyka\labolatorium\ruletka\ruletka\main.cpp

; 740  : 				CreateDirectoryA(("G³os/" + g³os2).c_str(), nullptr);

  00496	6a 00		 push	 0
  00498	50		 push	 eax
  00499	ff 15 00 00 00
	00		 call	 DWORD PTR __imp__CreateDirectoryA@8
  0049f	8d 8d d4 fe ff
	ff		 lea	 ecx, DWORD PTR $T31[ebp]
  004a5	e8 00 00 00 00	 call	 ??1?$basic_string@DU?$char_traits@D@std@@V?$allocator@D@2@@std@@QAE@XZ ; std::basic_string<char,std::char_traits<char>,std::allocator<char> >::~basic_string<char,std::char_traits<char>,std::allocator<char> >
$LN43@SprawdŸ_P:

; 746  : 			if ((_access((G³os + "p.wav").c_str(), 0)))

  004aa	68 00 00 00 00	 push	 OFFSET ??_C@_05PNHGCFLK@p?4wav?$AA@
  004af	8d 8d d4 fe ff
	ff		 lea	 ecx, DWORD PTR $T36[ebp]
  004b5	c6 85 f3 fe ff
	ff 00		 mov	 BYTE PTR _czy_pobierano$1$[ebp], 0
  004bc	e8 00 00 00 00	 call	 ??$?HDU?$char_traits@D@std@@V?$allocator@D@1@@std@@YA?AV?$basic_string@DU?$char_traits@D@std@@V?$allocator@D@2@@0@ABV10@QBD@Z ; std::operator+<char,std::char_traits<char>,std::allocator<char> >
  004c1	83 c4 04	 add	 esp, 4
; File f:\program files (x86)\microsoft visual studio\2017\enterprise\vc\tools\msvc\14.11.25503\include\xstring

; 1617 : 		return (_BUF_SIZE <= _Myres);

  004c4	83 78 14 10	 cmp	 DWORD PTR [eax+20], 16	; 00000010H

; 1607 : 		if (_Large_string_engaged())

  004c8	72 02		 jb	 SHORT $LN377@SprawdŸ_P
; File f:\program files (x86)\microsoft visual studio\2017\enterprise\vc\tools\msvc\14.11.25503\include\xstddef

; 265  : 	return (_Ptr);

  004ca	8b 00		 mov	 eax, DWORD PTR [eax]
$LN377@SprawdŸ_P:
; File f:\users\krzysztof\documents\szko³a\2017-2018\informatyka\labolatorium\ruletka\ruletka\main.cpp

; 746  : 			if ((_access((G³os + "p.wav").c_str(), 0)))

  004cc	6a 00		 push	 0
  004ce	50		 push	 eax
  004cf	ff 15 00 00 00
	00		 call	 DWORD PTR __imp___access
  004d5	83 c4 08	 add	 esp, 8
  004d8	8d 8d d4 fe ff
	ff		 lea	 ecx, DWORD PTR $T36[ebp]
  004de	8b f0		 mov	 esi, eax
  004e0	e8 00 00 00 00	 call	 ??1?$basic_string@DU?$char_traits@D@std@@V?$allocator@D@2@@std@@QAE@XZ ; std::basic_string<char,std::char_traits<char>,std::allocator<char> >::~basic_string<char,std::char_traits<char>,std::allocator<char> >
  004e5	85 f6		 test	 esi, esi
  004e7	0f 84 d2 00 00
	00		 je	 $LN46@SprawdŸ_P

; 747  : 			{
; 748  : 				if (!czy_pobierano) cout << "Rozpoczynam pobieranie brakuj¹cych plików g³osów" << endl;

  004ed	8b 0d 00 00 00
	00		 mov	 ecx, DWORD PTR __imp_?cout@std@@3V?$basic_ostream@DU?$char_traits@D@std@@@1@A
  004f3	ba 00 00 00 00	 mov	 edx, OFFSET ??_C@_0DB@JAANGCNE@Rozpoczynam?5pobieranie?5brakuj?$LJcy@
  004f8	68 00 00 00 00	 push	 OFFSET ??$endl@DU?$char_traits@D@std@@@std@@YAAAV?$basic_ostream@DU?$char_traits@D@std@@@0@AAV10@@Z ; std::endl<char,std::char_traits<char> >
  004fd	e8 00 00 00 00	 call	 ??$?6U?$char_traits@D@std@@@std@@YAAAV?$basic_ostream@DU?$char_traits@D@std@@@0@AAV10@PBD@Z ; std::operator<<<std::char_traits<char> >
  00502	8b c8		 mov	 ecx, eax
  00504	ff 15 00 00 00
	00		 call	 DWORD PTR __imp_??6?$basic_ostream@DU?$char_traits@D@std@@@std@@QAEAAV01@P6AAAV01@AAV01@@Z@Z

; 750  : 				auto res = URLDownloadToFileA(nullptr, (link + g³os2 + "p.wav").c_str(), ("G³os/" + g³os2 + "p.wav").c_str(), 0, nullptr);

  0050a	8d 45 d4	 lea	 eax, DWORD PTR _g³os2$286[ebp]
  0050d	c6 85 f3 fe ff
	ff 01		 mov	 BYTE PTR _czy_pobierano$1$[ebp], 1
  00514	50		 push	 eax
  00515	8d 8d bc fe ff
	ff		 lea	 ecx, DWORD PTR $T42[ebp]
  0051b	e8 00 00 00 00	 call	 ??$?HDU?$char_traits@D@std@@V?$allocator@D@1@@std@@YA?AV?$basic_string@DU?$char_traits@D@std@@V?$allocator@D@2@@0@QBDABV10@@Z ; std::operator+<char,std::char_traits<char>,std::allocator<char> >
  00520	68 00 00 00 00	 push	 OFFSET ??_C@_05PNHGCFLK@p?4wav?$AA@
  00525	8b d0		 mov	 edx, eax
  00527	c6 45 fc 03	 mov	 BYTE PTR __$EHRec$[ebp+8], 3
  0052b	8d 8d 8c fe ff
	ff		 lea	 ecx, DWORD PTR $T43[ebp]
  00531	e8 00 00 00 00	 call	 ??$?HDU?$char_traits@D@std@@V?$allocator@D@1@@std@@YA?AV?$basic_string@DU?$char_traits@D@std@@V?$allocator@D@2@@0@$$QAV10@QBD@Z ; std::operator+<char,std::char_traits<char>,std::allocator<char> >
  00536	8b f0		 mov	 esi, eax
  00538	8d 45 d4	 lea	 eax, DWORD PTR _g³os2$286[ebp]
  0053b	c6 45 fc 04	 mov	 BYTE PTR __$EHRec$[ebp+8], 4
  0053f	50		 push	 eax
  00540	8d 55 bc	 lea	 edx, DWORD PTR _link$285[ebp]
  00543	8d 8d a4 fe ff
	ff		 lea	 ecx, DWORD PTR $T45[ebp]
  00549	e8 00 00 00 00	 call	 ??$?HDU?$char_traits@D@std@@V?$allocator@D@1@@std@@YA?AV?$basic_string@DU?$char_traits@D@std@@V?$allocator@D@2@@0@ABV10@0@Z ; std::operator+<char,std::char_traits<char>,std::allocator<char> >
  0054e	68 00 00 00 00	 push	 OFFSET ??_C@_05PNHGCFLK@p?4wav?$AA@
  00553	8b d0		 mov	 edx, eax
  00555	c6 45 fc 05	 mov	 BYTE PTR __$EHRec$[ebp+8], 5
  00559	8d 8d d4 fe ff
	ff		 lea	 ecx, DWORD PTR $T46[ebp]
  0055f	e8 00 00 00 00	 call	 ??$?HDU?$char_traits@D@std@@V?$allocator@D@1@@std@@YA?AV?$basic_string@DU?$char_traits@D@std@@V?$allocator@D@2@@0@$$QAV10@QBD@Z ; std::operator+<char,std::char_traits<char>,std::allocator<char> >
  00564	83 c4 10	 add	 esp, 16			; 00000010H
; File f:\program files (x86)\microsoft visual studio\2017\enterprise\vc\tools\msvc\14.11.25503\include\xstring

; 1617 : 		return (_BUF_SIZE <= _Myres);

  00567	83 7e 14 10	 cmp	 DWORD PTR [esi+20], 16	; 00000010H

; 1607 : 		if (_Large_string_engaged())

  0056b	72 02		 jb	 SHORT $LN393@SprawdŸ_P
; File f:\program files (x86)\microsoft visual studio\2017\enterprise\vc\tools\msvc\14.11.25503\include\xstddef

; 265  : 	return (_Ptr);

  0056d	8b 36		 mov	 esi, DWORD PTR [esi]
$LN393@SprawdŸ_P:
; File f:\program files (x86)\microsoft visual studio\2017\enterprise\vc\tools\msvc\14.11.25503\include\xstring

; 1617 : 		return (_BUF_SIZE <= _Myres);

  0056f	83 78 14 10	 cmp	 DWORD PTR [eax+20], 16	; 00000010H

; 1607 : 		if (_Large_string_engaged())

  00573	72 02		 jb	 SHORT $LN409@SprawdŸ_P
; File f:\program files (x86)\microsoft visual studio\2017\enterprise\vc\tools\msvc\14.11.25503\include\xstddef

; 265  : 	return (_Ptr);

  00575	8b 00		 mov	 eax, DWORD PTR [eax]
$LN409@SprawdŸ_P:
; File f:\users\krzysztof\documents\szko³a\2017-2018\informatyka\labolatorium\ruletka\ruletka\main.cpp

; 750  : 				auto res = URLDownloadToFileA(nullptr, (link + g³os2 + "p.wav").c_str(), ("G³os/" + g³os2 + "p.wav").c_str(), 0, nullptr);

  00577	6a 00		 push	 0
  00579	6a 00		 push	 0
  0057b	56		 push	 esi
  0057c	50		 push	 eax
  0057d	6a 00		 push	 0
  0057f	ff 15 00 00 00
	00		 call	 DWORD PTR __imp__URLDownloadToFileA@20
  00585	8d 8d d4 fe ff
	ff		 lea	 ecx, DWORD PTR $T46[ebp]
  0058b	8b f0		 mov	 esi, eax
  0058d	e8 00 00 00 00	 call	 ??1?$basic_string@DU?$char_traits@D@std@@V?$allocator@D@2@@std@@QAE@XZ ; std::basic_string<char,std::char_traits<char>,std::allocator<char> >::~basic_string<char,std::char_traits<char>,std::allocator<char> >
  00592	8d 8d a4 fe ff
	ff		 lea	 ecx, DWORD PTR $T45[ebp]
  00598	e8 00 00 00 00	 call	 ??1?$basic_string@DU?$char_traits@D@std@@V?$allocator@D@2@@std@@QAE@XZ ; std::basic_string<char,std::char_traits<char>,std::allocator<char> >::~basic_string<char,std::char_traits<char>,std::allocator<char> >
  0059d	8d 8d 8c fe ff
	ff		 lea	 ecx, DWORD PTR $T43[ebp]
  005a3	e8 00 00 00 00	 call	 ??1?$basic_string@DU?$char_traits@D@std@@V?$allocator@D@2@@std@@QAE@XZ ; std::basic_string<char,std::char_traits<char>,std::allocator<char> >::~basic_string<char,std::char_traits<char>,std::allocator<char> >
  005a8	8d 8d bc fe ff
	ff		 lea	 ecx, DWORD PTR $T42[ebp]
  005ae	c6 45 fc 02	 mov	 BYTE PTR __$EHRec$[ebp+8], 2
  005b2	e8 00 00 00 00	 call	 ??1?$basic_string@DU?$char_traits@D@std@@V?$allocator@D@2@@std@@QAE@XZ ; std::basic_string<char,std::char_traits<char>,std::allocator<char> >::~basic_string<char,std::char_traits<char>,std::allocator<char> >

; 751  : 				if (res != S_OK)

  005b7	85 f6		 test	 esi, esi
  005b9	0f 85 6f 05 00
	00		 jne	 $LN3214@SprawdŸ_P
$LN46@SprawdŸ_P:

; 760  : 			if ((_access((G³os + "n.wav").c_str(), 0)))

  005bf	68 00 00 00 00	 push	 OFFSET ??_C@_05MEKKEGFB@n?4wav?$AA@
  005c4	8d 8d d4 fe ff
	ff		 lea	 ecx, DWORD PTR $T54[ebp]
  005ca	e8 00 00 00 00	 call	 ??$?HDU?$char_traits@D@std@@V?$allocator@D@1@@std@@YA?AV?$basic_string@DU?$char_traits@D@std@@V?$allocator@D@2@@0@ABV10@QBD@Z ; std::operator+<char,std::char_traits<char>,std::allocator<char> >
  005cf	83 c4 04	 add	 esp, 4
; File f:\program files (x86)\microsoft visual studio\2017\enterprise\vc\tools\msvc\14.11.25503\include\xstring

; 1617 : 		return (_BUF_SIZE <= _Myres);

  005d2	83 78 14 10	 cmp	 DWORD PTR [eax+20], 16	; 00000010H

; 1607 : 		if (_Large_string_engaged())

  005d6	72 02		 jb	 SHORT $LN425@SprawdŸ_P
; File f:\program files (x86)\microsoft visual studio\2017\enterprise\vc\tools\msvc\14.11.25503\include\xstddef

; 265  : 	return (_Ptr);

  005d8	8b 00		 mov	 eax, DWORD PTR [eax]
$LN425@SprawdŸ_P:
; File f:\users\krzysztof\documents\szko³a\2017-2018\informatyka\labolatorium\ruletka\ruletka\main.cpp

; 760  : 			if ((_access((G³os + "n.wav").c_str(), 0)))

  005da	6a 00		 push	 0
  005dc	50		 push	 eax
  005dd	ff 15 00 00 00
	00		 call	 DWORD PTR __imp___access
  005e3	83 c4 08	 add	 esp, 8
  005e6	8d 8d d4 fe ff
	ff		 lea	 ecx, DWORD PTR $T54[ebp]
  005ec	8b f0		 mov	 esi, eax
  005ee	e8 00 00 00 00	 call	 ??1?$basic_string@DU?$char_traits@D@std@@V?$allocator@D@2@@std@@QAE@XZ ; std::basic_string<char,std::char_traits<char>,std::allocator<char> >::~basic_string<char,std::char_traits<char>,std::allocator<char> >
  005f3	85 f6		 test	 esi, esi
  005f5	0f 84 db 00 00
	00		 je	 $LN49@SprawdŸ_P

; 761  : 			{
; 762  : 				if (!czy_pobierano) cout << "Rozpoczynam pobieranie brakuj¹cych plików g³osów" << endl;

  005fb	80 bd f3 fe ff
	ff 00		 cmp	 BYTE PTR _czy_pobierano$1$[ebp], 0
  00602	75 1d		 jne	 SHORT $LN48@SprawdŸ_P
  00604	8b 0d 00 00 00
	00		 mov	 ecx, DWORD PTR __imp_?cout@std@@3V?$basic_ostream@DU?$char_traits@D@std@@@1@A
  0060a	ba 00 00 00 00	 mov	 edx, OFFSET ??_C@_0DB@JAANGCNE@Rozpoczynam?5pobieranie?5brakuj?$LJcy@
  0060f	68 00 00 00 00	 push	 OFFSET ??$endl@DU?$char_traits@D@std@@@std@@YAAAV?$basic_ostream@DU?$char_traits@D@std@@@0@AAV10@@Z ; std::endl<char,std::char_traits<char> >
  00614	e8 00 00 00 00	 call	 ??$?6U?$char_traits@D@std@@@std@@YAAAV?$basic_ostream@DU?$char_traits@D@std@@@0@AAV10@PBD@Z ; std::operator<<<std::char_traits<char> >
  00619	8b c8		 mov	 ecx, eax
  0061b	ff 15 00 00 00
	00		 call	 DWORD PTR __imp_??6?$basic_ostream@DU?$char_traits@D@std@@@std@@QAEAAV01@P6AAAV01@AAV01@@Z@Z
$LN48@SprawdŸ_P:

; 764  : 				auto res = URLDownloadToFileA(nullptr, (link + g³os2 + "n.wav").c_str(), ("G³os/" + g³os2 + "n.wav").c_str(), 0, nullptr);

  00621	8d 45 d4	 lea	 eax, DWORD PTR _g³os2$286[ebp]
  00624	c6 85 f3 fe ff
	ff 01		 mov	 BYTE PTR _czy_pobierano$1$[ebp], 1
  0062b	50		 push	 eax
  0062c	8d 8d bc fe ff
	ff		 lea	 ecx, DWORD PTR $T60[ebp]
  00632	e8 00 00 00 00	 call	 ??$?HDU?$char_traits@D@std@@V?$allocator@D@1@@std@@YA?AV?$basic_string@DU?$char_traits@D@std@@V?$allocator@D@2@@0@QBDABV10@@Z ; std::operator+<char,std::char_traits<char>,std::allocator<char> >
  00637	68 00 00 00 00	 push	 OFFSET ??_C@_05MEKKEGFB@n?4wav?$AA@
  0063c	8b d0		 mov	 edx, eax
  0063e	c6 45 fc 06	 mov	 BYTE PTR __$EHRec$[ebp+8], 6
  00642	8d 8d 8c fe ff
	ff		 lea	 ecx, DWORD PTR $T61[ebp]
  00648	e8 00 00 00 00	 call	 ??$?HDU?$char_traits@D@std@@V?$allocator@D@1@@std@@YA?AV?$basic_string@DU?$char_traits@D@std@@V?$allocator@D@2@@0@$$QAV10@QBD@Z ; std::operator+<char,std::char_traits<char>,std::allocator<char> >
  0064d	8b f0		 mov	 esi, eax
  0064f	8d 45 d4	 lea	 eax, DWORD PTR _g³os2$286[ebp]
  00652	c6 45 fc 07	 mov	 BYTE PTR __$EHRec$[ebp+8], 7
  00656	50		 push	 eax
  00657	8d 55 bc	 lea	 edx, DWORD PTR _link$285[ebp]
  0065a	8d 8d a4 fe ff
	ff		 lea	 ecx, DWORD PTR $T63[ebp]
  00660	e8 00 00 00 00	 call	 ??$?HDU?$char_traits@D@std@@V?$allocator@D@1@@std@@YA?AV?$basic_string@DU?$char_traits@D@std@@V?$allocator@D@2@@0@ABV10@0@Z ; std::operator+<char,std::char_traits<char>,std::allocator<char> >
  00665	68 00 00 00 00	 push	 OFFSET ??_C@_05MEKKEGFB@n?4wav?$AA@
  0066a	8b d0		 mov	 edx, eax
  0066c	c6 45 fc 08	 mov	 BYTE PTR __$EHRec$[ebp+8], 8
  00670	8d 8d d4 fe ff
	ff		 lea	 ecx, DWORD PTR $T64[ebp]
  00676	e8 00 00 00 00	 call	 ??$?HDU?$char_traits@D@std@@V?$allocator@D@1@@std@@YA?AV?$basic_string@DU?$char_traits@D@std@@V?$allocator@D@2@@0@$$QAV10@QBD@Z ; std::operator+<char,std::char_traits<char>,std::allocator<char> >
  0067b	83 c4 10	 add	 esp, 16			; 00000010H
; File f:\program files (x86)\microsoft visual studio\2017\enterprise\vc\tools\msvc\14.11.25503\include\xstring

; 1617 : 		return (_BUF_SIZE <= _Myres);

  0067e	83 7e 14 10	 cmp	 DWORD PTR [esi+20], 16	; 00000010H

; 1607 : 		if (_Large_string_engaged())

  00682	72 02		 jb	 SHORT $LN441@SprawdŸ_P
; File f:\program files (x86)\microsoft visual studio\2017\enterprise\vc\tools\msvc\14.11.25503\include\xstddef

; 265  : 	return (_Ptr);

  00684	8b 36		 mov	 esi, DWORD PTR [esi]
$LN441@SprawdŸ_P:
; File f:\program files (x86)\microsoft visual studio\2017\enterprise\vc\tools\msvc\14.11.25503\include\xstring

; 1617 : 		return (_BUF_SIZE <= _Myres);

  00686	83 78 14 10	 cmp	 DWORD PTR [eax+20], 16	; 00000010H

; 1607 : 		if (_Large_string_engaged())

  0068a	72 02		 jb	 SHORT $LN457@SprawdŸ_P
; File f:\program files (x86)\microsoft visual studio\2017\enterprise\vc\tools\msvc\14.11.25503\include\xstddef

; 265  : 	return (_Ptr);

  0068c	8b 00		 mov	 eax, DWORD PTR [eax]
$LN457@SprawdŸ_P:
; File f:\users\krzysztof\documents\szko³a\2017-2018\informatyka\labolatorium\ruletka\ruletka\main.cpp

; 764  : 				auto res = URLDownloadToFileA(nullptr, (link + g³os2 + "n.wav").c_str(), ("G³os/" + g³os2 + "n.wav").c_str(), 0, nullptr);

  0068e	6a 00		 push	 0
  00690	6a 00		 push	 0
  00692	56		 push	 esi
  00693	50		 push	 eax
  00694	6a 00		 push	 0
  00696	ff 15 00 00 00
	00		 call	 DWORD PTR __imp__URLDownloadToFileA@20
  0069c	8d 8d d4 fe ff
	ff		 lea	 ecx, DWORD PTR $T64[ebp]
  006a2	8b f0		 mov	 esi, eax
  006a4	e8 00 00 00 00	 call	 ??1?$basic_string@DU?$char_traits@D@std@@V?$allocator@D@2@@std@@QAE@XZ ; std::basic_string<char,std::char_traits<char>,std::allocator<char> >::~basic_string<char,std::char_traits<char>,std::allocator<char> >
  006a9	8d 8d a4 fe ff
	ff		 lea	 ecx, DWORD PTR $T63[ebp]
  006af	e8 00 00 00 00	 call	 ??1?$basic_string@DU?$char_traits@D@std@@V?$allocator@D@2@@std@@QAE@XZ ; std::basic_string<char,std::char_traits<char>,std::allocator<char> >::~basic_string<char,std::char_traits<char>,std::allocator<char> >
  006b4	8d 8d 8c fe ff
	ff		 lea	 ecx, DWORD PTR $T61[ebp]
  006ba	e8 00 00 00 00	 call	 ??1?$basic_string@DU?$char_traits@D@std@@V?$allocator@D@2@@std@@QAE@XZ ; std::basic_string<char,std::char_traits<char>,std::allocator<char> >::~basic_string<char,std::char_traits<char>,std::allocator<char> >
  006bf	8d 8d bc fe ff
	ff		 lea	 ecx, DWORD PTR $T60[ebp]
  006c5	c6 45 fc 02	 mov	 BYTE PTR __$EHRec$[ebp+8], 2
  006c9	e8 00 00 00 00	 call	 ??1?$basic_string@DU?$char_traits@D@std@@V?$allocator@D@2@@std@@QAE@XZ ; std::basic_string<char,std::char_traits<char>,std::allocator<char> >::~basic_string<char,std::char_traits<char>,std::allocator<char> >

; 765  : 				if (res != S_OK)

  006ce	85 f6		 test	 esi, esi
  006d0	0f 85 58 04 00
	00		 jne	 $LN3214@SprawdŸ_P
$LN49@SprawdŸ_P:

; 774  : 			if ((_access((G³os + "r.wav").c_str(), 0)))

  006d6	68 00 00 00 00	 push	 OFFSET ??_C@_05LALOIELB@r?4wav?$AA@
  006db	8d 8d d4 fe ff
	ff		 lea	 ecx, DWORD PTR $T72[ebp]
  006e1	e8 00 00 00 00	 call	 ??$?HDU?$char_traits@D@std@@V?$allocator@D@1@@std@@YA?AV?$basic_string@DU?$char_traits@D@std@@V?$allocator@D@2@@0@ABV10@QBD@Z ; std::operator+<char,std::char_traits<char>,std::allocator<char> >
  006e6	83 c4 04	 add	 esp, 4
; File f:\program files (x86)\microsoft visual studio\2017\enterprise\vc\tools\msvc\14.11.25503\include\xstring

; 1617 : 		return (_BUF_SIZE <= _Myres);

  006e9	83 78 14 10	 cmp	 DWORD PTR [eax+20], 16	; 00000010H

; 1607 : 		if (_Large_string_engaged())

  006ed	72 02		 jb	 SHORT $LN473@SprawdŸ_P
; File f:\program files (x86)\microsoft visual studio\2017\enterprise\vc\tools\msvc\14.11.25503\include\xstddef

; 265  : 	return (_Ptr);

  006ef	8b 00		 mov	 eax, DWORD PTR [eax]
$LN473@SprawdŸ_P:
; File f:\users\krzysztof\documents\szko³a\2017-2018\informatyka\labolatorium\ruletka\ruletka\main.cpp

; 774  : 			if ((_access((G³os + "r.wav").c_str(), 0)))

  006f1	6a 00		 push	 0
  006f3	50		 push	 eax
  006f4	ff 15 00 00 00
	00		 call	 DWORD PTR __imp___access
  006fa	83 c4 08	 add	 esp, 8
  006fd	8d 8d d4 fe ff
	ff		 lea	 ecx, DWORD PTR $T72[ebp]
  00703	8b f0		 mov	 esi, eax
  00705	e8 00 00 00 00	 call	 ??1?$basic_string@DU?$char_traits@D@std@@V?$allocator@D@2@@std@@QAE@XZ ; std::basic_string<char,std::char_traits<char>,std::allocator<char> >::~basic_string<char,std::char_traits<char>,std::allocator<char> >
  0070a	85 f6		 test	 esi, esi
  0070c	0f 84 db 00 00
	00		 je	 $LN52@SprawdŸ_P

; 775  : 			{
; 776  : 				if (!czy_pobierano) cout << "Rozpoczynam pobieranie brakuj¹cych plików g³osów" << endl;

  00712	80 bd f3 fe ff
	ff 00		 cmp	 BYTE PTR _czy_pobierano$1$[ebp], 0
  00719	75 1d		 jne	 SHORT $LN51@SprawdŸ_P
  0071b	8b 0d 00 00 00
	00		 mov	 ecx, DWORD PTR __imp_?cout@std@@3V?$basic_ostream@DU?$char_traits@D@std@@@1@A
  00721	ba 00 00 00 00	 mov	 edx, OFFSET ??_C@_0DB@JAANGCNE@Rozpoczynam?5pobieranie?5brakuj?$LJcy@
  00726	68 00 00 00 00	 push	 OFFSET ??$endl@DU?$char_traits@D@std@@@std@@YAAAV?$basic_ostream@DU?$char_traits@D@std@@@0@AAV10@@Z ; std::endl<char,std::char_traits<char> >
  0072b	e8 00 00 00 00	 call	 ??$?6U?$char_traits@D@std@@@std@@YAAAV?$basic_ostream@DU?$char_traits@D@std@@@0@AAV10@PBD@Z ; std::operator<<<std::char_traits<char> >
  00730	8b c8		 mov	 ecx, eax
  00732	ff 15 00 00 00
	00		 call	 DWORD PTR __imp_??6?$basic_ostream@DU?$char_traits@D@std@@@std@@QAEAAV01@P6AAAV01@AAV01@@Z@Z
$LN51@SprawdŸ_P:

; 778  : 				auto res = URLDownloadToFileA(nullptr, (link + g³os2 + "r.wav").c_str(), ("G³os/" + g³os2 + "r.wav").c_str(), 0, nullptr);

  00738	8d 45 d4	 lea	 eax, DWORD PTR _g³os2$286[ebp]
  0073b	c6 85 f3 fe ff
	ff 01		 mov	 BYTE PTR _czy_pobierano$1$[ebp], 1
  00742	50		 push	 eax
  00743	8d 8d bc fe ff
	ff		 lea	 ecx, DWORD PTR $T78[ebp]
  00749	e8 00 00 00 00	 call	 ??$?HDU?$char_traits@D@std@@V?$allocator@D@1@@std@@YA?AV?$basic_string@DU?$char_traits@D@std@@V?$allocator@D@2@@0@QBDABV10@@Z ; std::operator+<char,std::char_traits<char>,std::allocator<char> >
  0074e	68 00 00 00 00	 push	 OFFSET ??_C@_05LALOIELB@r?4wav?$AA@
  00753	8b d0		 mov	 edx, eax
  00755	c6 45 fc 09	 mov	 BYTE PTR __$EHRec$[ebp+8], 9
  00759	8d 8d 8c fe ff
	ff		 lea	 ecx, DWORD PTR $T79[ebp]
  0075f	e8 00 00 00 00	 call	 ??$?HDU?$char_traits@D@std@@V?$allocator@D@1@@std@@YA?AV?$basic_string@DU?$char_traits@D@std@@V?$allocator@D@2@@0@$$QAV10@QBD@Z ; std::operator+<char,std::char_traits<char>,std::allocator<char> >
  00764	8b f0		 mov	 esi, eax
  00766	8d 45 d4	 lea	 eax, DWORD PTR _g³os2$286[ebp]
  00769	c6 45 fc 0a	 mov	 BYTE PTR __$EHRec$[ebp+8], 10 ; 0000000aH
  0076d	50		 push	 eax
  0076e	8d 55 bc	 lea	 edx, DWORD PTR _link$285[ebp]
  00771	8d 8d a4 fe ff
	ff		 lea	 ecx, DWORD PTR $T81[ebp]
  00777	e8 00 00 00 00	 call	 ??$?HDU?$char_traits@D@std@@V?$allocator@D@1@@std@@YA?AV?$basic_string@DU?$char_traits@D@std@@V?$allocator@D@2@@0@ABV10@0@Z ; std::operator+<char,std::char_traits<char>,std::allocator<char> >
  0077c	68 00 00 00 00	 push	 OFFSET ??_C@_05LALOIELB@r?4wav?$AA@
  00781	8b d0		 mov	 edx, eax
  00783	c6 45 fc 0b	 mov	 BYTE PTR __$EHRec$[ebp+8], 11 ; 0000000bH
  00787	8d 8d d4 fe ff
	ff		 lea	 ecx, DWORD PTR $T82[ebp]
  0078d	e8 00 00 00 00	 call	 ??$?HDU?$char_traits@D@std@@V?$allocator@D@1@@std@@YA?AV?$basic_string@DU?$char_traits@D@std@@V?$allocator@D@2@@0@$$QAV10@QBD@Z ; std::operator+<char,std::char_traits<char>,std::allocator<char> >
  00792	83 c4 10	 add	 esp, 16			; 00000010H
; File f:\program files (x86)\microsoft visual studio\2017\enterprise\vc\tools\msvc\14.11.25503\include\xstring

; 1617 : 		return (_BUF_SIZE <= _Myres);

  00795	83 7e 14 10	 cmp	 DWORD PTR [esi+20], 16	; 00000010H

; 1607 : 		if (_Large_string_engaged())

  00799	72 02		 jb	 SHORT $LN489@SprawdŸ_P
; File f:\program files (x86)\microsoft visual studio\2017\enterprise\vc\tools\msvc\14.11.25503\include\xstddef

; 265  : 	return (_Ptr);

  0079b	8b 36		 mov	 esi, DWORD PTR [esi]
$LN489@SprawdŸ_P:
; File f:\program files (x86)\microsoft visual studio\2017\enterprise\vc\tools\msvc\14.11.25503\include\xstring

; 1617 : 		return (_BUF_SIZE <= _Myres);

  0079d	83 78 14 10	 cmp	 DWORD PTR [eax+20], 16	; 00000010H

; 1607 : 		if (_Large_string_engaged())

  007a1	72 02		 jb	 SHORT $LN505@SprawdŸ_P
; File f:\program files (x86)\microsoft visual studio\2017\enterprise\vc\tools\msvc\14.11.25503\include\xstddef

; 265  : 	return (_Ptr);

  007a3	8b 00		 mov	 eax, DWORD PTR [eax]
$LN505@SprawdŸ_P:
; File f:\users\krzysztof\documents\szko³a\2017-2018\informatyka\labolatorium\ruletka\ruletka\main.cpp

; 778  : 				auto res = URLDownloadToFileA(nullptr, (link + g³os2 + "r.wav").c_str(), ("G³os/" + g³os2 + "r.wav").c_str(), 0, nullptr);

  007a5	6a 00		 push	 0
  007a7	6a 00		 push	 0
  007a9	56		 push	 esi
  007aa	50		 push	 eax
  007ab	6a 00		 push	 0
  007ad	ff 15 00 00 00
	00		 call	 DWORD PTR __imp__URLDownloadToFileA@20
  007b3	8d 8d d4 fe ff
	ff		 lea	 ecx, DWORD PTR $T82[ebp]
  007b9	8b f0		 mov	 esi, eax
  007bb	e8 00 00 00 00	 call	 ??1?$basic_string@DU?$char_traits@D@std@@V?$allocator@D@2@@std@@QAE@XZ ; std::basic_string<char,std::char_traits<char>,std::allocator<char> >::~basic_string<char,std::char_traits<char>,std::allocator<char> >
  007c0	8d 8d a4 fe ff
	ff		 lea	 ecx, DWORD PTR $T81[ebp]
  007c6	e8 00 00 00 00	 call	 ??1?$basic_string@DU?$char_traits@D@std@@V?$allocator@D@2@@std@@QAE@XZ ; std::basic_string<char,std::char_traits<char>,std::allocator<char> >::~basic_string<char,std::char_traits<char>,std::allocator<char> >
  007cb	8d 8d 8c fe ff
	ff		 lea	 ecx, DWORD PTR $T79[ebp]
  007d1	e8 00 00 00 00	 call	 ??1?$basic_string@DU?$char_traits@D@std@@V?$allocator@D@2@@std@@QAE@XZ ; std::basic_string<char,std::char_traits<char>,std::allocator<char> >::~basic_string<char,std::char_traits<char>,std::allocator<char> >
  007d6	8d 8d bc fe ff
	ff		 lea	 ecx, DWORD PTR $T78[ebp]
  007dc	c6 45 fc 02	 mov	 BYTE PTR __$EHRec$[ebp+8], 2
  007e0	e8 00 00 00 00	 call	 ??1?$basic_string@DU?$char_traits@D@std@@V?$allocator@D@2@@std@@QAE@XZ ; std::basic_string<char,std::char_traits<char>,std::allocator<char> >::~basic_string<char,std::char_traits<char>,std::allocator<char> >

; 779  : 				if (res != S_OK)

  007e5	85 f6		 test	 esi, esi
  007e7	0f 85 41 03 00
	00		 jne	 $LN3214@SprawdŸ_P
$LN52@SprawdŸ_P:

; 788  : 			if ((_access((G³os + "b.wav").c_str(), 0)))

  007ed	68 00 00 00 00	 push	 OFFSET ??_C@_05LDGIIGCK@b?4wav?$AA@
  007f2	8d 8d d4 fe ff
	ff		 lea	 ecx, DWORD PTR $T90[ebp]
  007f8	e8 00 00 00 00	 call	 ??$?HDU?$char_traits@D@std@@V?$allocator@D@1@@std@@YA?AV?$basic_string@DU?$char_traits@D@std@@V?$allocator@D@2@@0@ABV10@QBD@Z ; std::operator+<char,std::char_traits<char>,std::allocator<char> >
  007fd	83 c4 04	 add	 esp, 4
; File f:\program files (x86)\microsoft visual studio\2017\enterprise\vc\tools\msvc\14.11.25503\include\xstring

; 1617 : 		return (_BUF_SIZE <= _Myres);

  00800	83 78 14 10	 cmp	 DWORD PTR [eax+20], 16	; 00000010H

; 1607 : 		if (_Large_string_engaged())

  00804	72 02		 jb	 SHORT $LN521@SprawdŸ_P
; File f:\program files (x86)\microsoft visual studio\2017\enterprise\vc\tools\msvc\14.11.25503\include\xstddef

; 265  : 	return (_Ptr);

  00806	8b 00		 mov	 eax, DWORD PTR [eax]
$LN521@SprawdŸ_P:
; File f:\users\krzysztof\documents\szko³a\2017-2018\informatyka\labolatorium\ruletka\ruletka\main.cpp

; 788  : 			if ((_access((G³os + "b.wav").c_str(), 0)))

  00808	6a 00		 push	 0
  0080a	50		 push	 eax
  0080b	ff 15 00 00 00
	00		 call	 DWORD PTR __imp___access
  00811	83 c4 08	 add	 esp, 8
  00814	8d 8d d4 fe ff
	ff		 lea	 ecx, DWORD PTR $T90[ebp]
  0081a	8b f0		 mov	 esi, eax
  0081c	e8 00 00 00 00	 call	 ??1?$basic_string@DU?$char_traits@D@std@@V?$allocator@D@2@@std@@QAE@XZ ; std::basic_string<char,std::char_traits<char>,std::allocator<char> >::~basic_string<char,std::char_traits<char>,std::allocator<char> >
  00821	85 f6		 test	 esi, esi
  00823	0f 84 db 00 00
	00		 je	 $LN55@SprawdŸ_P

; 789  : 			{
; 790  : 				if (!czy_pobierano) cout << "Rozpoczynam pobieranie brakuj¹cych plików g³osów" << endl;

  00829	80 bd f3 fe ff
	ff 00		 cmp	 BYTE PTR _czy_pobierano$1$[ebp], 0
  00830	75 1d		 jne	 SHORT $LN54@SprawdŸ_P
  00832	8b 0d 00 00 00
	00		 mov	 ecx, DWORD PTR __imp_?cout@std@@3V?$basic_ostream@DU?$char_traits@D@std@@@1@A
  00838	ba 00 00 00 00	 mov	 edx, OFFSET ??_C@_0DB@JAANGCNE@Rozpoczynam?5pobieranie?5brakuj?$LJcy@
  0083d	68 00 00 00 00	 push	 OFFSET ??$endl@DU?$char_traits@D@std@@@std@@YAAAV?$basic_ostream@DU?$char_traits@D@std@@@0@AAV10@@Z ; std::endl<char,std::char_traits<char> >
  00842	e8 00 00 00 00	 call	 ??$?6U?$char_traits@D@std@@@std@@YAAAV?$basic_ostream@DU?$char_traits@D@std@@@0@AAV10@PBD@Z ; std::operator<<<std::char_traits<char> >
  00847	8b c8		 mov	 ecx, eax
  00849	ff 15 00 00 00
	00		 call	 DWORD PTR __imp_??6?$basic_ostream@DU?$char_traits@D@std@@@std@@QAEAAV01@P6AAAV01@AAV01@@Z@Z
$LN54@SprawdŸ_P:

; 792  : 				auto res = URLDownloadToFileA(nullptr, (link + g³os2 + "b.wav").c_str(), ("G³os/" + g³os2 + "b.wav").c_str(), 0, nullptr);

  0084f	8d 45 d4	 lea	 eax, DWORD PTR _g³os2$286[ebp]
  00852	c6 85 f3 fe ff
	ff 01		 mov	 BYTE PTR _czy_pobierano$1$[ebp], 1
  00859	50		 push	 eax
  0085a	8d 8d bc fe ff
	ff		 lea	 ecx, DWORD PTR $T96[ebp]
  00860	e8 00 00 00 00	 call	 ??$?HDU?$char_traits@D@std@@V?$allocator@D@1@@std@@YA?AV?$basic_string@DU?$char_traits@D@std@@V?$allocator@D@2@@0@QBDABV10@@Z ; std::operator+<char,std::char_traits<char>,std::allocator<char> >
  00865	68 00 00 00 00	 push	 OFFSET ??_C@_05LDGIIGCK@b?4wav?$AA@
  0086a	8b d0		 mov	 edx, eax
  0086c	c6 45 fc 0c	 mov	 BYTE PTR __$EHRec$[ebp+8], 12 ; 0000000cH
  00870	8d 8d 8c fe ff
	ff		 lea	 ecx, DWORD PTR $T97[ebp]
  00876	e8 00 00 00 00	 call	 ??$?HDU?$char_traits@D@std@@V?$allocator@D@1@@std@@YA?AV?$basic_string@DU?$char_traits@D@std@@V?$allocator@D@2@@0@$$QAV10@QBD@Z ; std::operator+<char,std::char_traits<char>,std::allocator<char> >
  0087b	8b f0		 mov	 esi, eax
  0087d	8d 45 d4	 lea	 eax, DWORD PTR _g³os2$286[ebp]
  00880	c6 45 fc 0d	 mov	 BYTE PTR __$EHRec$[ebp+8], 13 ; 0000000dH
  00884	50		 push	 eax
  00885	8d 55 bc	 lea	 edx, DWORD PTR _link$285[ebp]
  00888	8d 8d a4 fe ff
	ff		 lea	 ecx, DWORD PTR $T99[ebp]
  0088e	e8 00 00 00 00	 call	 ??$?HDU?$char_traits@D@std@@V?$allocator@D@1@@std@@YA?AV?$basic_string@DU?$char_traits@D@std@@V?$allocator@D@2@@0@ABV10@0@Z ; std::operator+<char,std::char_traits<char>,std::allocator<char> >
  00893	68 00 00 00 00	 push	 OFFSET ??_C@_05LDGIIGCK@b?4wav?$AA@
  00898	8b d0		 mov	 edx, eax
  0089a	c6 45 fc 0e	 mov	 BYTE PTR __$EHRec$[ebp+8], 14 ; 0000000eH
  0089e	8d 8d d4 fe ff
	ff		 lea	 ecx, DWORD PTR $T100[ebp]
  008a4	e8 00 00 00 00	 call	 ??$?HDU?$char_traits@D@std@@V?$allocator@D@1@@std@@YA?AV?$basic_string@DU?$char_traits@D@std@@V?$allocator@D@2@@0@$$QAV10@QBD@Z ; std::operator+<char,std::char_traits<char>,std::allocator<char> >
  008a9	83 c4 10	 add	 esp, 16			; 00000010H
; File f:\program files (x86)\microsoft visual studio\2017\enterprise\vc\tools\msvc\14.11.25503\include\xstring

; 1617 : 		return (_BUF_SIZE <= _Myres);

  008ac	83 7e 14 10	 cmp	 DWORD PTR [esi+20], 16	; 00000010H

; 1607 : 		if (_Large_string_engaged())

  008b0	72 02		 jb	 SHORT $LN537@SprawdŸ_P
; File f:\program files (x86)\microsoft visual studio\2017\enterprise\vc\tools\msvc\14.11.25503\include\xstddef

; 265  : 	return (_Ptr);

  008b2	8b 36		 mov	 esi, DWORD PTR [esi]
$LN537@SprawdŸ_P:
; File f:\program files (x86)\microsoft visual studio\2017\enterprise\vc\tools\msvc\14.11.25503\include\xstring

; 1617 : 		return (_BUF_SIZE <= _Myres);

  008b4	83 78 14 10	 cmp	 DWORD PTR [eax+20], 16	; 00000010H

; 1607 : 		if (_Large_string_engaged())

  008b8	72 02		 jb	 SHORT $LN553@SprawdŸ_P
; File f:\program files (x86)\microsoft visual studio\2017\enterprise\vc\tools\msvc\14.11.25503\include\xstddef

; 265  : 	return (_Ptr);

  008ba	8b 00		 mov	 eax, DWORD PTR [eax]
$LN553@SprawdŸ_P:
; File f:\users\krzysztof\documents\szko³a\2017-2018\informatyka\labolatorium\ruletka\ruletka\main.cpp

; 792  : 				auto res = URLDownloadToFileA(nullptr, (link + g³os2 + "b.wav").c_str(), ("G³os/" + g³os2 + "b.wav").c_str(), 0, nullptr);

  008bc	6a 00		 push	 0
  008be	6a 00		 push	 0
  008c0	56		 push	 esi
  008c1	50		 push	 eax
  008c2	6a 00		 push	 0
  008c4	ff 15 00 00 00
	00		 call	 DWORD PTR __imp__URLDownloadToFileA@20
  008ca	8d 8d d4 fe ff
	ff		 lea	 ecx, DWORD PTR $T100[ebp]
  008d0	8b f0		 mov	 esi, eax
  008d2	e8 00 00 00 00	 call	 ??1?$basic_string@DU?$char_traits@D@std@@V?$allocator@D@2@@std@@QAE@XZ ; std::basic_string<char,std::char_traits<char>,std::allocator<char> >::~basic_string<char,std::char_traits<char>,std::allocator<char> >
  008d7	8d 8d a4 fe ff
	ff		 lea	 ecx, DWORD PTR $T99[ebp]
  008dd	e8 00 00 00 00	 call	 ??1?$basic_string@DU?$char_traits@D@std@@V?$allocator@D@2@@std@@QAE@XZ ; std::basic_string<char,std::char_traits<char>,std::allocator<char> >::~basic_string<char,std::char_traits<char>,std::allocator<char> >
  008e2	8d 8d 8c fe ff
	ff		 lea	 ecx, DWORD PTR $T97[ebp]
  008e8	e8 00 00 00 00	 call	 ??1?$basic_string@DU?$char_traits@D@std@@V?$allocator@D@2@@std@@QAE@XZ ; std::basic_string<char,std::char_traits<char>,std::allocator<char> >::~basic_string<char,std::char_traits<char>,std::allocator<char> >
  008ed	8d 8d bc fe ff
	ff		 lea	 ecx, DWORD PTR $T96[ebp]
  008f3	c6 45 fc 02	 mov	 BYTE PTR __$EHRec$[ebp+8], 2
  008f7	e8 00 00 00 00	 call	 ??1?$basic_string@DU?$char_traits@D@std@@V?$allocator@D@2@@std@@QAE@XZ ; std::basic_string<char,std::char_traits<char>,std::allocator<char> >::~basic_string<char,std::char_traits<char>,std::allocator<char> >

; 793  : 				if (res != S_OK)

  008fc	85 f6		 test	 esi, esi
  008fe	0f 85 2a 02 00
	00		 jne	 $LN3214@SprawdŸ_P
$LN55@SprawdŸ_P:

; 802  : 			if ((_access((G³os + "g.wav").c_str(), 0)))

  00904	68 00 00 00 00	 push	 OFFSET ??_C@_05ODKFBHJJ@g?4wav?$AA@
  00909	8d 8d d4 fe ff
	ff		 lea	 ecx, DWORD PTR $T108[ebp]
  0090f	e8 00 00 00 00	 call	 ??$?HDU?$char_traits@D@std@@V?$allocator@D@1@@std@@YA?AV?$basic_string@DU?$char_traits@D@std@@V?$allocator@D@2@@0@ABV10@QBD@Z ; std::operator+<char,std::char_traits<char>,std::allocator<char> >
  00914	83 c4 04	 add	 esp, 4
; File f:\program files (x86)\microsoft visual studio\2017\enterprise\vc\tools\msvc\14.11.25503\include\xstring

; 1617 : 		return (_BUF_SIZE <= _Myres);

  00917	83 78 14 10	 cmp	 DWORD PTR [eax+20], 16	; 00000010H

; 1607 : 		if (_Large_string_engaged())

  0091b	72 02		 jb	 SHORT $LN569@SprawdŸ_P
; File f:\program files (x86)\microsoft visual studio\2017\enterprise\vc\tools\msvc\14.11.25503\include\xstddef

; 265  : 	return (_Ptr);

  0091d	8b 00		 mov	 eax, DWORD PTR [eax]
$LN569@SprawdŸ_P:
; File f:\users\krzysztof\documents\szko³a\2017-2018\informatyka\labolatorium\ruletka\ruletka\main.cpp

; 802  : 			if ((_access((G³os + "g.wav").c_str(), 0)))

  0091f	6a 00		 push	 0
  00921	50		 push	 eax
  00922	ff 15 00 00 00
	00		 call	 DWORD PTR __imp___access
  00928	83 c4 08	 add	 esp, 8
  0092b	8d 8d d4 fe ff
	ff		 lea	 ecx, DWORD PTR $T108[ebp]
  00931	8b f0		 mov	 esi, eax
  00933	e8 00 00 00 00	 call	 ??1?$basic_string@DU?$char_traits@D@std@@V?$allocator@D@2@@std@@QAE@XZ ; std::basic_string<char,std::char_traits<char>,std::allocator<char> >::~basic_string<char,std::char_traits<char>,std::allocator<char> >
  00938	85 f6		 test	 esi, esi
  0093a	0f 84 db 00 00
	00		 je	 $LN58@SprawdŸ_P

; 803  : 			{
; 804  : 				if (!czy_pobierano) cout << "Rozpoczynam pobieranie brakuj¹cych plików g³osów" << endl;

  00940	80 bd f3 fe ff
	ff 00		 cmp	 BYTE PTR _czy_pobierano$1$[ebp], 0
  00947	75 1d		 jne	 SHORT $LN57@SprawdŸ_P
  00949	8b 0d 00 00 00
	00		 mov	 ecx, DWORD PTR __imp_?cout@std@@3V?$basic_ostream@DU?$char_traits@D@std@@@1@A
  0094f	ba 00 00 00 00	 mov	 edx, OFFSET ??_C@_0DB@JAANGCNE@Rozpoczynam?5pobieranie?5brakuj?$LJcy@
  00954	68 00 00 00 00	 push	 OFFSET ??$endl@DU?$char_traits@D@std@@@std@@YAAAV?$basic_ostream@DU?$char_traits@D@std@@@0@AAV10@@Z ; std::endl<char,std::char_traits<char> >
  00959	e8 00 00 00 00	 call	 ??$?6U?$char_traits@D@std@@@std@@YAAAV?$basic_ostream@DU?$char_traits@D@std@@@0@AAV10@PBD@Z ; std::operator<<<std::char_traits<char> >
  0095e	8b c8		 mov	 ecx, eax
  00960	ff 15 00 00 00
	00		 call	 DWORD PTR __imp_??6?$basic_ostream@DU?$char_traits@D@std@@@std@@QAEAAV01@P6AAAV01@AAV01@@Z@Z
$LN57@SprawdŸ_P:

; 806  : 				auto res = URLDownloadToFileA(nullptr, (link + g³os2 + "g.wav").c_str(), ("G³os/" + g³os2 + "g.wav").c_str(), 0, nullptr);

  00966	8d 45 d4	 lea	 eax, DWORD PTR _g³os2$286[ebp]
  00969	c6 85 f3 fe ff
	ff 01		 mov	 BYTE PTR _czy_pobierano$1$[ebp], 1
  00970	50		 push	 eax
  00971	8d 8d bc fe ff
	ff		 lea	 ecx, DWORD PTR $T114[ebp]
  00977	e8 00 00 00 00	 call	 ??$?HDU?$char_traits@D@std@@V?$allocator@D@1@@std@@YA?AV?$basic_string@DU?$char_traits@D@std@@V?$allocator@D@2@@0@QBDABV10@@Z ; std::operator+<char,std::char_traits<char>,std::allocator<char> >
  0097c	68 00 00 00 00	 push	 OFFSET ??_C@_05ODKFBHJJ@g?4wav?$AA@
  00981	8b d0		 mov	 edx, eax
  00983	c6 45 fc 0f	 mov	 BYTE PTR __$EHRec$[ebp+8], 15 ; 0000000fH
  00987	8d 8d 8c fe ff
	ff		 lea	 ecx, DWORD PTR $T115[ebp]
  0098d	e8 00 00 00 00	 call	 ??$?HDU?$char_traits@D@std@@V?$allocator@D@1@@std@@YA?AV?$basic_string@DU?$char_traits@D@std@@V?$allocator@D@2@@0@$$QAV10@QBD@Z ; std::operator+<char,std::char_traits<char>,std::allocator<char> >
  00992	8b f0		 mov	 esi, eax
  00994	8d 45 d4	 lea	 eax, DWORD PTR _g³os2$286[ebp]
  00997	c6 45 fc 10	 mov	 BYTE PTR __$EHRec$[ebp+8], 16 ; 00000010H
  0099b	50		 push	 eax
  0099c	8d 55 bc	 lea	 edx, DWORD PTR _link$285[ebp]
  0099f	8d 8d a4 fe ff
	ff		 lea	 ecx, DWORD PTR $T117[ebp]
  009a5	e8 00 00 00 00	 call	 ??$?HDU?$char_traits@D@std@@V?$allocator@D@1@@std@@YA?AV?$basic_string@DU?$char_traits@D@std@@V?$allocator@D@2@@0@ABV10@0@Z ; std::operator+<char,std::char_traits<char>,std::allocator<char> >
  009aa	68 00 00 00 00	 push	 OFFSET ??_C@_05ODKFBHJJ@g?4wav?$AA@
  009af	8b d0		 mov	 edx, eax
  009b1	c6 45 fc 11	 mov	 BYTE PTR __$EHRec$[ebp+8], 17 ; 00000011H
  009b5	8d 8d d4 fe ff
	ff		 lea	 ecx, DWORD PTR $T118[ebp]
  009bb	e8 00 00 00 00	 call	 ??$?HDU?$char_traits@D@std@@V?$allocator@D@1@@std@@YA?AV?$basic_string@DU?$char_traits@D@std@@V?$allocator@D@2@@0@$$QAV10@QBD@Z ; std::operator+<char,std::char_traits<char>,std::allocator<char> >
  009c0	83 c4 10	 add	 esp, 16			; 00000010H
; File f:\program files (x86)\microsoft visual studio\2017\enterprise\vc\tools\msvc\14.11.25503\include\xstring

; 1617 : 		return (_BUF_SIZE <= _Myres);

  009c3	83 7e 14 10	 cmp	 DWORD PTR [esi+20], 16	; 00000010H

; 1607 : 		if (_Large_string_engaged())

  009c7	72 02		 jb	 SHORT $LN585@SprawdŸ_P
; File f:\program files (x86)\microsoft visual studio\2017\enterprise\vc\tools\msvc\14.11.25503\include\xstddef

; 265  : 	return (_Ptr);

  009c9	8b 36		 mov	 esi, DWORD PTR [esi]
$LN585@SprawdŸ_P:
; File f:\program files (x86)\microsoft visual studio\2017\enterprise\vc\tools\msvc\14.11.25503\include\xstring

; 1617 : 		return (_BUF_SIZE <= _Myres);

  009cb	83 78 14 10	 cmp	 DWORD PTR [eax+20], 16	; 00000010H

; 1607 : 		if (_Large_string_engaged())

  009cf	72 02		 jb	 SHORT $LN601@SprawdŸ_P
; File f:\program files (x86)\microsoft visual studio\2017\enterprise\vc\tools\msvc\14.11.25503\include\xstddef

; 265  : 	return (_Ptr);

  009d1	8b 00		 mov	 eax, DWORD PTR [eax]
$LN601@SprawdŸ_P:
; File f:\users\krzysztof\documents\szko³a\2017-2018\informatyka\labolatorium\ruletka\ruletka\main.cpp

; 806  : 				auto res = URLDownloadToFileA(nullptr, (link + g³os2 + "g.wav").c_str(), ("G³os/" + g³os2 + "g.wav").c_str(), 0, nullptr);

  009d3	6a 00		 push	 0
  009d5	6a 00		 push	 0
  009d7	56		 push	 esi
  009d8	50		 push	 eax
  009d9	6a 00		 push	 0
  009db	ff 15 00 00 00
	00		 call	 DWORD PTR __imp__URLDownloadToFileA@20
  009e1	8d 8d d4 fe ff
	ff		 lea	 ecx, DWORD PTR $T118[ebp]
  009e7	8b f0		 mov	 esi, eax
  009e9	e8 00 00 00 00	 call	 ??1?$basic_string@DU?$char_traits@D@std@@V?$allocator@D@2@@std@@QAE@XZ ; std::basic_string<char,std::char_traits<char>,std::allocator<char> >::~basic_string<char,std::char_traits<char>,std::allocator<char> >
  009ee	8d 8d a4 fe ff
	ff		 lea	 ecx, DWORD PTR $T117[ebp]
  009f4	e8 00 00 00 00	 call	 ??1?$basic_string@DU?$char_traits@D@std@@V?$allocator@D@2@@std@@QAE@XZ ; std::basic_string<char,std::char_traits<char>,std::allocator<char> >::~basic_string<char,std::char_traits<char>,std::allocator<char> >
  009f9	8d 8d 8c fe ff
	ff		 lea	 ecx, DWORD PTR $T115[ebp]
  009ff	e8 00 00 00 00	 call	 ??1?$basic_string@DU?$char_traits@D@std@@V?$allocator@D@2@@std@@QAE@XZ ; std::basic_string<char,std::char_traits<char>,std::allocator<char> >::~basic_string<char,std::char_traits<char>,std::allocator<char> >
  00a04	8d 8d bc fe ff
	ff		 lea	 ecx, DWORD PTR $T114[ebp]
  00a0a	c6 45 fc 02	 mov	 BYTE PTR __$EHRec$[ebp+8], 2
  00a0e	e8 00 00 00 00	 call	 ??1?$basic_string@DU?$char_traits@D@std@@V?$allocator@D@2@@std@@QAE@XZ ; std::basic_string<char,std::char_traits<char>,std::allocator<char> >::~basic_string<char,std::char_traits<char>,std::allocator<char> >

; 807  : 				if (res != S_OK)

  00a13	85 f6		 test	 esi, esi
  00a15	0f 85 13 01 00
	00		 jne	 $LN3214@SprawdŸ_P
$LN58@SprawdŸ_P:

; 816  : 			if ((_access((G³os + "d.wav").c_str(), 0)))

  00a1b	68 00 00 00 00	 push	 OFFSET ??_C@_05GFDBGFDH@d?4wav?$AA@
  00a20	8d 8d d4 fe ff
	ff		 lea	 ecx, DWORD PTR $T126[ebp]
  00a26	e8 00 00 00 00	 call	 ??$?HDU?$char_traits@D@std@@V?$allocator@D@1@@std@@YA?AV?$basic_string@DU?$char_traits@D@std@@V?$allocator@D@2@@0@ABV10@QBD@Z ; std::operator+<char,std::char_traits<char>,std::allocator<char> >
  00a2b	83 c4 04	 add	 esp, 4
; File f:\program files (x86)\microsoft visual studio\2017\enterprise\vc\tools\msvc\14.11.25503\include\xstring

; 1617 : 		return (_BUF_SIZE <= _Myres);

  00a2e	83 78 14 10	 cmp	 DWORD PTR [eax+20], 16	; 00000010H

; 1607 : 		if (_Large_string_engaged())

  00a32	72 02		 jb	 SHORT $LN617@SprawdŸ_P
; File f:\program files (x86)\microsoft visual studio\2017\enterprise\vc\tools\msvc\14.11.25503\include\xstddef

; 265  : 	return (_Ptr);

  00a34	8b 00		 mov	 eax, DWORD PTR [eax]
$LN617@SprawdŸ_P:
; File f:\users\krzysztof\documents\szko³a\2017-2018\informatyka\labolatorium\ruletka\ruletka\main.cpp

; 816  : 			if ((_access((G³os + "d.wav").c_str(), 0)))

  00a36	6a 00		 push	 0
  00a38	50		 push	 eax
  00a39	ff 15 00 00 00
	00		 call	 DWORD PTR __imp___access
  00a3f	83 c4 08	 add	 esp, 8
  00a42	8d 8d d4 fe ff
	ff		 lea	 ecx, DWORD PTR $T126[ebp]
  00a48	8b f0		 mov	 esi, eax
  00a4a	e8 00 00 00 00	 call	 ??1?$basic_string@DU?$char_traits@D@std@@V?$allocator@D@2@@std@@QAE@XZ ; std::basic_string<char,std::char_traits<char>,std::allocator<char> >::~basic_string<char,std::char_traits<char>,std::allocator<char> >
  00a4f	85 f6		 test	 esi, esi
  00a51	0f 84 00 01 00
	00		 je	 $LN61@SprawdŸ_P

; 817  : 			{
; 818  : 				if (!czy_pobierano) cout << "Rozpoczynam pobieranie brakuj¹cych plików g³osów" << endl;

  00a57	80 bd f3 fe ff
	ff 00		 cmp	 BYTE PTR _czy_pobierano$1$[ebp], 0
  00a5e	75 1d		 jne	 SHORT $LN60@SprawdŸ_P
  00a60	8b 0d 00 00 00
	00		 mov	 ecx, DWORD PTR __imp_?cout@std@@3V?$basic_ostream@DU?$char_traits@D@std@@@1@A
  00a66	ba 00 00 00 00	 mov	 edx, OFFSET ??_C@_0DB@JAANGCNE@Rozpoczynam?5pobieranie?5brakuj?$LJcy@
  00a6b	68 00 00 00 00	 push	 OFFSET ??$endl@DU?$char_traits@D@std@@@std@@YAAAV?$basic_ostream@DU?$char_traits@D@std@@@0@AAV10@@Z ; std::endl<char,std::char_traits<char> >
  00a70	e8 00 00 00 00	 call	 ??$?6U?$char_traits@D@std@@@std@@YAAAV?$basic_ostream@DU?$char_traits@D@std@@@0@AAV10@PBD@Z ; std::operator<<<std::char_traits<char> >
  00a75	8b c8		 mov	 ecx, eax
  00a77	ff 15 00 00 00
	00		 call	 DWORD PTR __imp_??6?$basic_ostream@DU?$char_traits@D@std@@@std@@QAEAAV01@P6AAAV01@AAV01@@Z@Z
$LN60@SprawdŸ_P:

; 820  : 				auto res = URLDownloadToFileA(nullptr, (link + g³os2 + "d.wav").c_str(), ("G³os/" + g³os2 + "d.wav").c_str(), 0, nullptr);

  00a7d	8d 45 d4	 lea	 eax, DWORD PTR _g³os2$286[ebp]
  00a80	c6 85 f3 fe ff
	ff 01		 mov	 BYTE PTR _czy_pobierano$1$[ebp], 1
  00a87	50		 push	 eax
  00a88	8d 8d bc fe ff
	ff		 lea	 ecx, DWORD PTR $T132[ebp]
  00a8e	e8 00 00 00 00	 call	 ??$?HDU?$char_traits@D@std@@V?$allocator@D@1@@std@@YA?AV?$basic_string@DU?$char_traits@D@std@@V?$allocator@D@2@@0@QBDABV10@@Z ; std::operator+<char,std::char_traits<char>,std::allocator<char> >
  00a93	68 00 00 00 00	 push	 OFFSET ??_C@_05GFDBGFDH@d?4wav?$AA@
  00a98	8b d0		 mov	 edx, eax
  00a9a	c6 45 fc 12	 mov	 BYTE PTR __$EHRec$[ebp+8], 18 ; 00000012H
  00a9e	8d 8d 8c fe ff
	ff		 lea	 ecx, DWORD PTR $T133[ebp]
  00aa4	e8 00 00 00 00	 call	 ??$?HDU?$char_traits@D@std@@V?$allocator@D@1@@std@@YA?AV?$basic_string@DU?$char_traits@D@std@@V?$allocator@D@2@@0@$$QAV10@QBD@Z ; std::operator+<char,std::char_traits<char>,std::allocator<char> >
  00aa9	8b f0		 mov	 esi, eax
  00aab	8d 45 d4	 lea	 eax, DWORD PTR _g³os2$286[ebp]
  00aae	c6 45 fc 13	 mov	 BYTE PTR __$EHRec$[ebp+8], 19 ; 00000013H
  00ab2	50		 push	 eax
  00ab3	8d 55 bc	 lea	 edx, DWORD PTR _link$285[ebp]
  00ab6	8d 8d a4 fe ff
	ff		 lea	 ecx, DWORD PTR $T135[ebp]
  00abc	e8 00 00 00 00	 call	 ??$?HDU?$char_traits@D@std@@V?$allocator@D@1@@std@@YA?AV?$basic_string@DU?$char_traits@D@std@@V?$allocator@D@2@@0@ABV10@0@Z ; std::operator+<char,std::char_traits<char>,std::allocator<char> >
  00ac1	68 00 00 00 00	 push	 OFFSET ??_C@_05GFDBGFDH@d?4wav?$AA@
  00ac6	8b d0		 mov	 edx, eax
  00ac8	c6 45 fc 14	 mov	 BYTE PTR __$EHRec$[ebp+8], 20 ; 00000014H
  00acc	8d 8d d4 fe ff
	ff		 lea	 ecx, DWORD PTR $T136[ebp]
  00ad2	e8 00 00 00 00	 call	 ??$?HDU?$char_traits@D@std@@V?$allocator@D@1@@std@@YA?AV?$basic_string@DU?$char_traits@D@std@@V?$allocator@D@2@@0@$$QAV10@QBD@Z ; std::operator+<char,std::char_traits<char>,std::allocator<char> >
  00ad7	83 c4 10	 add	 esp, 16			; 00000010H
; File f:\program files (x86)\microsoft visual studio\2017\enterprise\vc\tools\msvc\14.11.25503\include\xstring

; 1617 : 		return (_BUF_SIZE <= _Myres);

  00ada	83 7e 14 10	 cmp	 DWORD PTR [esi+20], 16	; 00000010H

; 1607 : 		if (_Large_string_engaged())

  00ade	72 02		 jb	 SHORT $LN633@SprawdŸ_P
; File f:\program files (x86)\microsoft visual studio\2017\enterprise\vc\tools\msvc\14.11.25503\include\xstddef

; 265  : 	return (_Ptr);

  00ae0	8b 36		 mov	 esi, DWORD PTR [esi]
$LN633@SprawdŸ_P:
; File f:\program files (x86)\microsoft visual studio\2017\enterprise\vc\tools\msvc\14.11.25503\include\xstring

; 1617 : 		return (_BUF_SIZE <= _Myres);

  00ae2	83 78 14 10	 cmp	 DWORD PTR [eax+20], 16	; 00000010H

; 1607 : 		if (_Large_string_engaged())

  00ae6	72 02		 jb	 SHORT $LN649@SprawdŸ_P
; File f:\program files (x86)\microsoft visual studio\2017\enterprise\vc\tools\msvc\14.11.25503\include\xstddef

; 265  : 	return (_Ptr);

  00ae8	8b 00		 mov	 eax, DWORD PTR [eax]
$LN649@SprawdŸ_P:
; File f:\users\krzysztof\documents\szko³a\2017-2018\informatyka\labolatorium\ruletka\ruletka\main.cpp

; 820  : 				auto res = URLDownloadToFileA(nullptr, (link + g³os2 + "d.wav").c_str(), ("G³os/" + g³os2 + "d.wav").c_str(), 0, nullptr);

  00aea	6a 00		 push	 0
  00aec	6a 00		 push	 0
  00aee	56		 push	 esi
  00aef	50		 push	 eax
  00af0	6a 00		 push	 0
  00af2	ff 15 00 00 00
	00		 call	 DWORD PTR __imp__URLDownloadToFileA@20
  00af8	8d 8d d4 fe ff
	ff		 lea	 ecx, DWORD PTR $T136[ebp]
  00afe	8b f0		 mov	 esi, eax
  00b00	e8 00 00 00 00	 call	 ??1?$basic_string@DU?$char_traits@D@std@@V?$allocator@D@2@@std@@QAE@XZ ; std::basic_string<char,std::char_traits<char>,std::allocator<char> >::~basic_string<char,std::char_traits<char>,std::allocator<char> >
  00b05	8d 8d a4 fe ff
	ff		 lea	 ecx, DWORD PTR $T135[ebp]
  00b0b	e8 00 00 00 00	 call	 ??1?$basic_string@DU?$char_traits@D@std@@V?$allocator@D@2@@std@@QAE@XZ ; std::basic_string<char,std::char_traits<char>,std::allocator<char> >::~basic_string<char,std::char_traits<char>,std::allocator<char> >
  00b10	8d 8d 8c fe ff
	ff		 lea	 ecx, DWORD PTR $T133[ebp]
  00b16	e8 00 00 00 00	 call	 ??1?$basic_string@DU?$char_traits@D@std@@V?$allocator@D@2@@std@@QAE@XZ ; std::basic_string<char,std::char_traits<char>,std::allocator<char> >::~basic_string<char,std::char_traits<char>,std::allocator<char> >
  00b1b	8d 8d bc fe ff
	ff		 lea	 ecx, DWORD PTR $T132[ebp]
  00b21	c6 45 fc 02	 mov	 BYTE PTR __$EHRec$[ebp+8], 2
  00b25	e8 00 00 00 00	 call	 ??1?$basic_string@DU?$char_traits@D@std@@V?$allocator@D@2@@std@@QAE@XZ ; std::basic_string<char,std::char_traits<char>,std::allocator<char> >::~basic_string<char,std::char_traits<char>,std::allocator<char> >

; 821  : 				if (res != S_OK)

  00b2a	85 f6		 test	 esi, esi
  00b2c	74 29		 je	 SHORT $LN61@SprawdŸ_P
$LN3214@SprawdŸ_P:

; 822  : 				{
; 823  : 					czy_pobrano = false;
; 824  : 					cout << "Brak plików dla g³osu oraz nie mo¿na pobraæ danych, wy³¹czono odczytywanie wyniku" << endl;

  00b2e	8b 0d 00 00 00
	00		 mov	 ecx, DWORD PTR __imp_?cout@std@@3V?$basic_ostream@DU?$char_traits@D@std@@@1@A
  00b34	ba 00 00 00 00	 mov	 edx, OFFSET ??_C@_0FC@DPJNGIHL@Brak?5plik?sw?5dla?5g?$LDosu?5oraz?5nie?5m@
  00b39	68 00 00 00 00	 push	 OFFSET ??$endl@DU?$char_traits@D@std@@@std@@YAAAV?$basic_ostream@DU?$char_traits@D@std@@@0@AAV10@@Z ; std::endl<char,std::char_traits<char> >
  00b3e	e8 00 00 00 00	 call	 ??$?6U?$char_traits@D@std@@@std@@YAAAV?$basic_ostream@DU?$char_traits@D@std@@@0@AAV10@PBD@Z ; std::operator<<<std::char_traits<char> >
  00b43	8b c8		 mov	 ecx, eax
  00b45	ff 15 00 00 00
	00		 call	 DWORD PTR __imp_??6?$basic_ostream@DU?$char_traits@D@std@@@std@@QAEAAV01@P6AAAV01@AAV01@@Z@Z

; 825  : 					G³osyKompletne = false; //Wpisanie do zmiennej wartoœci false informuj¹cej o niekompletnych plikach audio

  00b4b	c6 05 00 00 00
	00 00		 mov	 BYTE PTR ?G³osyKompletne@@3_NA, 0 ; G³osyKompletne
  00b52	e9 55 0c 00 00	 jmp	 $LN72@SprawdŸ_P
$LN61@SprawdŸ_P:

; 830  : 			for (unsigned short i = 1; i <= 3; ++i)

  00b57	be 01 00 00 00	 mov	 esi, 1
  00b5c	89 b5 ec fe ff
	ff		 mov	 DWORD PTR _i$1$[ebp], esi
$LL6@SprawdŸ_P:
  00b62	68 b0 00 00 00	 push	 176			; 000000b0H
  00b67	8d 85 0c ff ff
	ff		 lea	 eax, DWORD PTR _numers$284[ebp]
  00b6d	6a 00		 push	 0
  00b6f	50		 push	 eax
  00b70	e8 00 00 00 00	 call	 _memset
  00b75	83 c4 0c	 add	 esp, 12			; 0000000cH
; File f:\program files (x86)\microsoft visual studio\2017\enterprise\vc\tools\msvc\14.11.25503\include\sstream

; 593  : 		{	// construct empty character buffer

  00b78	c7 85 0c ff ff
	ff 00 00 00 00	 mov	 DWORD PTR _numers$284[ebp], OFFSET ??_8?$basic_stringstream@DU?$char_traits@D@std@@V?$allocator@D@2@@std@@7B?$basic_istream@DU?$char_traits@D@std@@@1@@
  00b82	8d 8d 74 ff ff
	ff		 lea	 ecx, DWORD PTR _numers$284[ebp+104]
  00b88	c7 85 1c ff ff
	ff 00 00 00 00	 mov	 DWORD PTR _numers$284[ebp+16], OFFSET ??_8?$basic_stringstream@DU?$char_traits@D@std@@V?$allocator@D@2@@std@@7B?$basic_ostream@DU?$char_traits@D@std@@@1@@
  00b92	ff 15 00 00 00
	00		 call	 DWORD PTR __imp_??0?$basic_ios@DU?$char_traits@D@std@@@std@@IAE@XZ
  00b98	6a 00		 push	 0
  00b9a	8d 85 24 ff ff
	ff		 lea	 eax, DWORD PTR _numers$284[ebp+24]
  00ba0	c6 45 fc 15	 mov	 BYTE PTR __$EHRec$[ebp+8], 21 ; 00000015H
  00ba4	83 cf 01	 or	 edi, 1

; 313  : 
; 314  : 		if (_Count != 0
; 315  : 			&& (_Mystate & (_Noread | _Constant)) != (_Noread | _Constant))
; 316  : 			{	// finite buffer that can be read or written, set it up
; 317  : 			_Elem *_Pnew = _Unfancy(_Al.allocate(_Count));
; 318  : 			_Traits::copy(_Pnew, _Ptr, _Count);
; 319  : 			_Seekhigh = _Pnew + _Count;
; 320  : 
; 321  : 			if (!(_Mystate & _Noread))
; 322  : 				_Mysb::setg(_Pnew, _Pnew,
; 323  : 					_Pnew + _Count);	// setup read buffer
; 324  : 			if (!(_Mystate & _Constant))
; 325  : 				{	// setup write buffer, and maybe read buffer
; 326  : 				_Mysb::setp(_Pnew,
; 327  : 					(_Mystate & (_Atend | _Append)) ? _Pnew + _Count : _Pnew,
; 328  : 					_Pnew + _Count);
; 329  : 				if (_Mysb::gptr() == 0)
; 330  : 					_Mysb::setg(_Pnew, 0, _Pnew);
; 331  : 				}
; 332  : 			_Mystate |= _Allocated;
; 333  : 			}
; 334  : 		}
; 335  : 
; 336  : 	void _Tidy()
; 337  : 		{	// discard any allocated buffer and clear pointers
; 338  : 		if (_Mystate & _Allocated)
; 339  : 			_Al.deallocate(pointer_traits<_Ptrty>::pointer_to(*_Mysb::eback()),
; 340  : 				(_Mysb::pptr() != 0 ? _Mysb::epptr()
; 341  : 					: _Mysb::egptr()) - _Mysb::eback());
; 342  : 		_Mysb::setg(0, 0, 0);
; 343  : 		_Mysb::setp(0, 0);
; 344  : 		_Seekhigh = 0;
; 345  : 		_Mystate &= ~_Allocated;
; 346  : 		}
; 347  : 
; 348  : private:
; 349  : 	typedef typename allocator_traits<allocator_type>::pointer _Ptrty;
; 350  : 
; 351  : 	enum
; 352  : 		{	// constant for minimum buffer size
; 353  : 		_MINSIZE = 32};
; 354  : 
; 355  : 	_Strstate _Getstate(ios_base::openmode _Mode)
; 356  : 		{	// convert open mode to stream state bits
; 357  : 		_Strstate _State = (_Strstate)0;
; 358  : 		if (!(_Mode & ios_base::in))
; 359  : 			_State |= _Noread;
; 360  : 		if (!(_Mode & ios_base::out))
; 361  : 			_State |= _Constant;
; 362  : 		if (_Mode & ios_base::app)
; 363  : 			_State |= _Append;
; 364  : 		if (_Mode & ios_base::ate)
; 365  : 			_State |= _Atend;
; 366  : 		return (_State);
; 367  : 		}
; 368  : 
; 369  : 	_Elem *_Seekhigh;	// the high-water pointer in character array
; 370  : 	_Strstate _Mystate;	// the stream state
; 371  : 	allocator_type _Al;	// the allocator object
; 372  : 	};
; 373  : 
; 374  : 	// basic_stringbuf TEMPLATE OPERATORS
; 375  : template<class _Elem,
; 376  : 	class _Traits,
; 377  : 	class _Alloc> inline
; 378  : 	void swap(basic_stringbuf<_Elem, _Traits, _Alloc>& _Left,
; 379  : 		basic_stringbuf<_Elem, _Traits, _Alloc>& _Right)
; 380  : 	{	// swap _Left and _Right basic_stringbufs
; 381  : 	_Left.swap(_Right);
; 382  : 	}
; 383  : 
; 384  : 		// TEMPLATE CLASS basic_istringstream
; 385  : template<class _Elem,
; 386  : 	class _Traits,
; 387  : 	class _Alloc>
; 388  : 	class basic_istringstream
; 389  : 		: public basic_istream<_Elem, _Traits>
; 390  : 	{	// input stream associated with a character array
; 391  : public:
; 392  : 	typedef basic_istringstream<_Elem, _Traits, _Alloc> _Myt;
; 393  : 	typedef basic_istream<_Elem, _Traits> _Mybase;
; 394  : 	typedef _Alloc allocator_type;
; 395  : 	typedef basic_stringbuf<_Elem, _Traits, _Alloc> _Mysb;
; 396  : 	typedef basic_string<_Elem, _Traits, _Alloc> _Mystr;
; 397  : 
; 398  : 	explicit basic_istringstream(ios_base::openmode _Mode = ios_base::in)
; 399  : 		: _Mybase(&_Stringbuffer),
; 400  : 			_Stringbuffer(_Mode | ios_base::in)
; 401  : 		{	// construct empty readable character buffer
; 402  : 		}
; 403  : 
; 404  : 	explicit basic_istringstream(const _Mystr& _Str,
; 405  : 		ios_base::openmode _Mode = ios_base::in)
; 406  : 		: _Mybase(&_Stringbuffer),
; 407  : 			_Stringbuffer(_Str, _Mode | ios_base::in)
; 408  : 		{	// construct readable character buffer from NTCS
; 409  : 		}
; 410  : 
; 411  : 	basic_istringstream(_Myt&& _Right)
; 412  : 		: _Mybase(&_Stringbuffer)
; 413  : 		{	// construct by moving _Right
; 414  : 		_Assign_rv(_STD move(_Right));
; 415  : 		}
; 416  : 
; 417  : 	_Myt& operator=(_Myt&& _Right)
; 418  : 		{	// move from _Right
; 419  : 		_Assign_rv(_STD move(_Right));
; 420  : 		return (*this);
; 421  : 		}
; 422  : 
; 423  : 	void _Assign_rv(_Myt&& _Right)
; 424  : 		{	// assign by moving _Right
; 425  : 		if (this != _STD addressof(_Right))
; 426  : 			{	// different, worth moving
; 427  : 			_Stringbuffer.str(_Mystr());
; 428  : 			this->swap(_Right);
; 429  : 			}
; 430  : 		}
; 431  : 
; 432  : 	void swap(_Myt& _Right)
; 433  : 		{	// swap with _Right
; 434  : 		if (this != _STD addressof(_Right))
; 435  : 			{	// different, swap base and buffer
; 436  : 			_Mybase::swap(_Right);
; 437  : 			_Stringbuffer.swap(_Right._Stringbuffer);
; 438  : 			}
; 439  : 		}
; 440  : 
; 441  : 	basic_istringstream(const _Myt&) = delete;
; 442  : 	_Myt& operator=(const _Myt&) = delete;
; 443  : 
; 444  : 	virtual ~basic_istringstream() _NOEXCEPT
; 445  : 		{	// destroy the object
; 446  : 		}
; 447  : 
; 448  : 	_Mysb *rdbuf() const
; 449  : 		{	// return pointer to file buffer
; 450  : 		return ((_Mysb *)&_Stringbuffer);
; 451  : 		}
; 452  : 
; 453  : 	_Mystr str() const
; 454  : 		{	// return string copy of character array
; 455  : 		return (_Stringbuffer.str());
; 456  : 		}
; 457  : 
; 458  : 	void str(const _Mystr& _Newstr)
; 459  : 		{	// replace character array from string
; 460  : 		_Stringbuffer.str(_Newstr);
; 461  : 		}
; 462  : 
; 463  : private:
; 464  : 	_Mysb _Stringbuffer;	// the string buffer
; 465  : 	};
; 466  : 
; 467  : 	// basic_istringstream TEMPLATE OPERATORS
; 468  : template<class _Elem,
; 469  : 	class _Traits,
; 470  : 	class _Alloc> inline
; 471  : 	void swap(basic_istringstream<_Elem, _Traits, _Alloc>& _Left,
; 472  : 		basic_istringstream<_Elem, _Traits, _Alloc>& _Right)
; 473  : 	{	// swap _Left and _Right basic_istringstreams
; 474  : 	_Left.swap(_Right);
; 475  : 	}
; 476  : 
; 477  : 		// TEMPLATE CLASS basic_ostringstream
; 478  : template<class _Elem,
; 479  : 	class _Traits,
; 480  : 	class _Alloc>
; 481  : 	class basic_ostringstream
; 482  : 		: public basic_ostream<_Elem, _Traits>
; 483  : 	{	// output stream associated with a character array
; 484  : public:
; 485  : 	typedef basic_ostringstream<_Elem, _Traits, _Alloc> _Myt;
; 486  : 	typedef basic_ostream<_Elem, _Traits> _Mybase;
; 487  : 	typedef _Alloc allocator_type;
; 488  : 	typedef basic_stringbuf<_Elem, _Traits, _Alloc> _Mysb;
; 489  : 	typedef basic_string<_Elem, _Traits, _Alloc> _Mystr;
; 490  : 
; 491  : 	explicit basic_ostringstream(ios_base::openmode _Mode = ios_base::out)
; 492  : 		: _Mybase(&_Stringbuffer),
; 493  : 			_Stringbuffer(_Mode | ios_base::out)
; 494  : 		{	// construct empty writable character buffer
; 495  : 		}
; 496  : 
; 497  : 	explicit basic_ostringstream(const _Mystr& _Str,
; 498  : 		ios_base::openmode _Mode = ios_base::out)
; 499  : 		: _Mybase(&_Stringbuffer),
; 500  : 			_Stringbuffer(_Str, _Mode | ios_base::out)
; 501  : 		{	// construct writable character buffer from NTCS
; 502  : 		}
; 503  : 
; 504  : 	basic_ostringstream(_Myt&& _Right)
; 505  : 		: _Mybase(&_Stringbuffer)
; 506  : 		{	// construct by moving _Right
; 507  : 		_Assign_rv(_STD move(_Right));
; 508  : 		}
; 509  : 
; 510  : 	_Myt& operator=(_Myt&& _Right)
; 511  : 		{	// move from _Right
; 512  : 		_Assign_rv(_STD move(_Right));
; 513  : 		return (*this);
; 514  : 		}
; 515  : 
; 516  : 	void _Assign_rv(_Myt&& _Right)
; 517  : 		{	// assign by moving _Right
; 518  : 		if (this != _STD addressof(_Right))
; 519  : 			{	// different, worth moving
; 520  : 			_Stringbuffer.str(_Mystr());
; 521  : 			this->swap(_Right);
; 522  : 			}
; 523  : 		}
; 524  : 
; 525  : 	void swap(_Myt& _Right)
; 526  : 		{	// swap with _Right
; 527  : 		if (this != _STD addressof(_Right))
; 528  : 			{	// different, swap base and buffer
; 529  : 			_Mybase::swap(_Right);
; 530  : 			_Stringbuffer.swap(_Right._Stringbuffer);
; 531  : 			}
; 532  : 		}
; 533  : 
; 534  : 	basic_ostringstream(const _Myt&) = delete;
; 535  : 	_Myt& operator=(const _Myt&) = delete;
; 536  : 
; 537  : 	virtual ~basic_ostringstream() _NOEXCEPT
; 538  : 		{	// destroy the object
; 539  : 		}
; 540  : 
; 541  : 	_Mysb *rdbuf() const
; 542  : 		{	// return pointer to buffer
; 543  : 		return ((_Mysb *)&_Stringbuffer);
; 544  : 		}
; 545  : 
; 546  : 	_Mystr str() const
; 547  : 		{	// return string copy of character array
; 548  : 		return (_Stringbuffer.str());
; 549  : 		}
; 550  : 
; 551  : 	void str(const _Mystr& _Newstr)
; 552  : 		{	// replace character array from string
; 553  : 		_Stringbuffer.str(_Newstr);
; 554  : 		}
; 555  : 
; 556  : private:
; 557  : 	_Mysb _Stringbuffer;	// the string buffer
; 558  : 	};
; 559  : 
; 560  : 	// basic_ostringstream TEMPLATE OPERATORS
; 561  : template<class _Elem,
; 562  : 	class _Traits,
; 563  : 	class _Alloc> inline
; 564  : 	void swap(basic_ostringstream<_Elem, _Traits, _Alloc>& _Left,
; 565  : 		basic_ostringstream<_Elem, _Traits, _Alloc>& _Right)
; 566  : 	{	// swap _Left and _Right basic_ostringstreams
; 567  : 	_Left.swap(_Right);
; 568  : 	}
; 569  : 
; 570  : 		// TEMPLATE CLASS basic_stringstream
; 571  : template<class _Elem,
; 572  : 	class _Traits,
; 573  : 	class _Alloc>
; 574  : 	class basic_stringstream
; 575  : 		: public basic_iostream<_Elem, _Traits>
; 576  : 	{	// input/output stream associated with a character array
; 577  : public:
; 578  : 	typedef basic_stringstream<_Elem, _Traits, _Alloc> _Myt;
; 579  : 	typedef basic_iostream<_Elem, _Traits> _Mybase;
; 580  : 	typedef _Elem char_type;
; 581  : 	typedef _Traits traits_type;
; 582  : 	typedef _Alloc allocator_type;
; 583  : 	typedef typename _Traits::int_type int_type;
; 584  : 	typedef typename _Traits::pos_type pos_type;
; 585  : 	typedef typename _Traits::off_type off_type;
; 586  : 	typedef basic_stringbuf<_Elem, _Traits, _Alloc> _Mysb;
; 587  : 	typedef basic_string<_Elem, _Traits, _Alloc> _Mystr;
; 588  : 
; 589  : 	explicit basic_stringstream(ios_base::openmode _Mode =
; 590  : 		ios_base::in | ios_base::out)
; 591  : 		: _Mybase(&_Stringbuffer),

  00ba7	8d 8d 0c ff ff
	ff		 lea	 ecx, DWORD PTR _numers$284[ebp]
  00bad	50		 push	 eax
  00bae	89 7d ec	 mov	 DWORD PTR $T1[ebp], edi
  00bb1	ff 15 00 00 00
	00		 call	 DWORD PTR __imp_??0?$basic_iostream@DU?$char_traits@D@std@@@std@@QAE@PAV?$basic_streambuf@DU?$char_traits@D@std@@@1@@Z
  00bb7	c7 45 fc 16 00
	00 00		 mov	 DWORD PTR __$EHRec$[ebp+8], 22 ; 00000016H

; 593  : 		{	// construct empty character buffer

  00bbe	8b 85 0c ff ff
	ff		 mov	 eax, DWORD PTR _numers$284[ebp]
  00bc4	8b 40 04	 mov	 eax, DWORD PTR [eax+4]
  00bc7	c7 84 05 0c ff
	ff ff 00 00 00
	00		 mov	 DWORD PTR _numers$284[ebp+eax], OFFSET ??_7?$basic_stringstream@DU?$char_traits@D@std@@V?$allocator@D@2@@std@@6B@
  00bd2	8b 85 0c ff ff
	ff		 mov	 eax, DWORD PTR _numers$284[ebp]
  00bd8	8b 48 04	 mov	 ecx, DWORD PTR [eax+4]
  00bdb	8d 41 98	 lea	 eax, DWORD PTR [ecx-104]
  00bde	89 84 0d 08 ff
	ff ff		 mov	 DWORD PTR _numers$284[ebp+ecx-4], eax
  00be5	8d 85 24 ff ff
	ff		 lea	 eax, DWORD PTR _numers$284[ebp+24]

; 30   : 		{	// construct empty character buffer from mode

  00beb	8b c8		 mov	 ecx, eax

; 592  : 			_Stringbuffer(_Mode)

  00bed	89 85 84 fe ff
	ff		 mov	 DWORD PTR _this$[ebp], eax

; 30   : 		{	// construct empty character buffer from mode

  00bf3	ff 15 00 00 00
	00		 call	 DWORD PTR __imp_??0?$basic_streambuf@DU?$char_traits@D@std@@@std@@IAE@XZ
  00bf9	c7 85 24 ff ff
	ff 00 00 00 00	 mov	 DWORD PTR _numers$284[ebp+24], OFFSET ??_7?$basic_stringbuf@DU?$char_traits@D@std@@V?$allocator@D@2@@std@@6B@

; 311  : 		_Seekhigh = 0;

  00c03	c7 85 5c ff ff
	ff 00 00 00 00	 mov	 DWORD PTR _numers$284[ebp+80], 0

; 312  : 		_Mystate = _State;

  00c0d	c7 85 60 ff ff
	ff 00 00 00 00	 mov	 DWORD PTR _numers$284[ebp+84], 0
; File f:\users\krzysztof\documents\szko³a\2017-2018\informatyka\labolatorium\ruletka\ruletka\main.cpp

; 833  : 				numers << i;

  00c17	56		 push	 esi
  00c18	8d 8d 1c ff ff
	ff		 lea	 ecx, DWORD PTR _numers$284[ebp+16]
  00c1e	c6 45 fc 18	 mov	 BYTE PTR __$EHRec$[ebp+8], 24 ; 00000018H
  00c22	ff 15 00 00 00
	00		 call	 DWORD PTR __imp_??6?$basic_ostream@DU?$char_traits@D@std@@@std@@QAEAAV01@G@Z
; File f:\program files (x86)\microsoft visual studio\2017\enterprise\vc\tools\msvc\14.11.25503\include\sstream

; 647  : 		return (_Stringbuffer.str());

  00c28	8d 85 d4 fe ff
	ff		 lea	 eax, DWORD PTR $T146[ebp]
  00c2e	50		 push	 eax
  00c2f	8d 8d 24 ff ff
	ff		 lea	 ecx, DWORD PTR _numers$284[ebp+24]
  00c35	e8 00 00 00 00	 call	 ?str@?$basic_stringbuf@DU?$char_traits@D@std@@V?$allocator@D@2@@std@@QBE?AV?$basic_string@DU?$char_traits@D@std@@V?$allocator@D@2@@2@XZ ; std::basic_stringbuf<char,std::char_traits<char>,std::allocator<char> >::str
  00c3a	83 cf 02	 or	 edi, 2
; File f:\users\krzysztof\documents\szko³a\2017-2018\informatyka\labolatorium\ruletka\ruletka\main.cpp

; 834  : 				if ((_access((G³os + "k" + numers.str() + ".wav").c_str(), 0)))

  00c3d	68 00 00 00 00	 push	 OFFSET ??_C@_01DICPFPGM@k?$AA@
  00c42	8d 8d bc fe ff
	ff		 lea	 ecx, DWORD PTR $T147[ebp]
  00c48	c6 45 fc 19	 mov	 BYTE PTR __$EHRec$[ebp+8], 25 ; 00000019H
  00c4c	e8 00 00 00 00	 call	 ??$?HDU?$char_traits@D@std@@V?$allocator@D@1@@std@@YA?AV?$basic_string@DU?$char_traits@D@std@@V?$allocator@D@2@@0@ABV10@QBD@Z ; std::operator+<char,std::char_traits<char>,std::allocator<char> >
  00c51	8d 8d d4 fe ff
	ff		 lea	 ecx, DWORD PTR $T146[ebp]
  00c57	c6 45 fc 1a	 mov	 BYTE PTR __$EHRec$[ebp+8], 26 ; 0000001aH
  00c5b	51		 push	 ecx
  00c5c	8b d0		 mov	 edx, eax
  00c5e	8d 8d 8c fe ff
	ff		 lea	 ecx, DWORD PTR $T148[ebp]
  00c64	e8 00 00 00 00	 call	 ??$?HDU?$char_traits@D@std@@V?$allocator@D@1@@std@@YA?AV?$basic_string@DU?$char_traits@D@std@@V?$allocator@D@2@@0@$$QAV10@0@Z ; std::operator+<char,std::char_traits<char>,std::allocator<char> >
  00c69	68 00 00 00 00	 push	 OFFSET ??_C@_04IBLEHOMF@?4wav?$AA@
  00c6e	8b d0		 mov	 edx, eax
  00c70	c6 45 fc 1b	 mov	 BYTE PTR __$EHRec$[ebp+8], 27 ; 0000001bH
  00c74	8d 8d a4 fe ff
	ff		 lea	 ecx, DWORD PTR $T149[ebp]
  00c7a	e8 00 00 00 00	 call	 ??$?HDU?$char_traits@D@std@@V?$allocator@D@1@@std@@YA?AV?$basic_string@DU?$char_traits@D@std@@V?$allocator@D@2@@0@$$QAV10@QBD@Z ; std::operator+<char,std::char_traits<char>,std::allocator<char> >
  00c7f	83 c4 0c	 add	 esp, 12			; 0000000cH
; File f:\program files (x86)\microsoft visual studio\2017\enterprise\vc\tools\msvc\14.11.25503\include\xstring

; 1617 : 		return (_BUF_SIZE <= _Myres);

  00c82	83 78 14 10	 cmp	 DWORD PTR [eax+20], 16	; 00000010H

; 1607 : 		if (_Large_string_engaged())

  00c86	72 02		 jb	 SHORT $LN1031@SprawdŸ_P
; File f:\program files (x86)\microsoft visual studio\2017\enterprise\vc\tools\msvc\14.11.25503\include\xstddef

; 265  : 	return (_Ptr);

  00c88	8b 00		 mov	 eax, DWORD PTR [eax]
$LN1031@SprawdŸ_P:
; File f:\users\krzysztof\documents\szko³a\2017-2018\informatyka\labolatorium\ruletka\ruletka\main.cpp

; 834  : 				if ((_access((G³os + "k" + numers.str() + ".wav").c_str(), 0)))

  00c8a	6a 00		 push	 0
  00c8c	50		 push	 eax
  00c8d	ff 15 00 00 00
	00		 call	 DWORD PTR __imp___access
  00c93	83 c4 08	 add	 esp, 8
  00c96	8d 8d a4 fe ff
	ff		 lea	 ecx, DWORD PTR $T149[ebp]
  00c9c	8b f0		 mov	 esi, eax
  00c9e	e8 00 00 00 00	 call	 ??1?$basic_string@DU?$char_traits@D@std@@V?$allocator@D@2@@std@@QAE@XZ ; std::basic_string<char,std::char_traits<char>,std::allocator<char> >::~basic_string<char,std::char_traits<char>,std::allocator<char> >
  00ca3	8d 8d 8c fe ff
	ff		 lea	 ecx, DWORD PTR $T148[ebp]
  00ca9	e8 00 00 00 00	 call	 ??1?$basic_string@DU?$char_traits@D@std@@V?$allocator@D@2@@std@@QAE@XZ ; std::basic_string<char,std::char_traits<char>,std::allocator<char> >::~basic_string<char,std::char_traits<char>,std::allocator<char> >
  00cae	8d 8d bc fe ff
	ff		 lea	 ecx, DWORD PTR $T147[ebp]
  00cb4	e8 00 00 00 00	 call	 ??1?$basic_string@DU?$char_traits@D@std@@V?$allocator@D@2@@std@@QAE@XZ ; std::basic_string<char,std::char_traits<char>,std::allocator<char> >::~basic_string<char,std::char_traits<char>,std::allocator<char> >
  00cb9	8d 8d d4 fe ff
	ff		 lea	 ecx, DWORD PTR $T146[ebp]
  00cbf	c6 45 fc 18	 mov	 BYTE PTR __$EHRec$[ebp+8], 24 ; 00000018H
  00cc3	e8 00 00 00 00	 call	 ??1?$basic_string@DU?$char_traits@D@std@@V?$allocator@D@2@@std@@QAE@XZ ; std::basic_string<char,std::char_traits<char>,std::allocator<char> >::~basic_string<char,std::char_traits<char>,std::allocator<char> >
  00cc8	85 f6		 test	 esi, esi
  00cca	0f 84 ab 01 00
	00		 je	 $LN64@SprawdŸ_P

; 835  : 				{
; 836  : 					if (!czy_pobierano) cout << "Rozpoczynam pobieranie brakuj¹cych plików g³osów" << endl;

  00cd0	80 bd f3 fe ff
	ff 00		 cmp	 BYTE PTR _czy_pobierano$1$[ebp], 0
  00cd7	75 1d		 jne	 SHORT $LN63@SprawdŸ_P
  00cd9	8b 0d 00 00 00
	00		 mov	 ecx, DWORD PTR __imp_?cout@std@@3V?$basic_ostream@DU?$char_traits@D@std@@@1@A
  00cdf	ba 00 00 00 00	 mov	 edx, OFFSET ??_C@_0DB@JAANGCNE@Rozpoczynam?5pobieranie?5brakuj?$LJcy@
  00ce4	68 00 00 00 00	 push	 OFFSET ??$endl@DU?$char_traits@D@std@@@std@@YAAAV?$basic_ostream@DU?$char_traits@D@std@@@0@AAV10@@Z ; std::endl<char,std::char_traits<char> >
  00ce9	e8 00 00 00 00	 call	 ??$?6U?$char_traits@D@std@@@std@@YAAAV?$basic_ostream@DU?$char_traits@D@std@@@0@AAV10@PBD@Z ; std::operator<<<std::char_traits<char> >
  00cee	8b c8		 mov	 ecx, eax
  00cf0	ff 15 00 00 00
	00		 call	 DWORD PTR __imp_??6?$basic_ostream@DU?$char_traits@D@std@@@std@@QAEAAV01@P6AAAV01@AAV01@@Z@Z
$LN63@SprawdŸ_P:
; File f:\program files (x86)\microsoft visual studio\2017\enterprise\vc\tools\msvc\14.11.25503\include\sstream

; 647  : 		return (_Stringbuffer.str());

  00cf6	8d 85 a4 fe ff
	ff		 lea	 eax, DWORD PTR $T155[ebp]
; File f:\users\krzysztof\documents\szko³a\2017-2018\informatyka\labolatorium\ruletka\ruletka\main.cpp

; 837  : 					czy_pobierano = true;

  00cfc	c6 85 f3 fe ff
	ff 01		 mov	 BYTE PTR _czy_pobierano$1$[ebp], 1
; File f:\program files (x86)\microsoft visual studio\2017\enterprise\vc\tools\msvc\14.11.25503\include\sstream

; 647  : 		return (_Stringbuffer.str());

  00d03	50		 push	 eax
  00d04	8d 8d 24 ff ff
	ff		 lea	 ecx, DWORD PTR _numers$284[ebp+24]
  00d0a	e8 00 00 00 00	 call	 ?str@?$basic_stringbuf@DU?$char_traits@D@std@@V?$allocator@D@2@@std@@QBE?AV?$basic_string@DU?$char_traits@D@std@@V?$allocator@D@2@@2@XZ ; std::basic_stringbuf<char,std::char_traits<char>,std::allocator<char> >::str
; File f:\users\krzysztof\documents\szko³a\2017-2018\informatyka\labolatorium\ruletka\ruletka\main.cpp

; 838  : 					auto res = URLDownloadToFileA(nullptr, (link + g³os2 + "k" + numers.str() + ".wav").c_str(), ("G³os/" + g³os2 + "k" + numers.str() + ".wav").c_str(), 0, nullptr);

  00d0f	8d 45 d4	 lea	 eax, DWORD PTR _g³os2$286[ebp]
  00d12	c6 45 fc 1c	 mov	 BYTE PTR __$EHRec$[ebp+8], 28 ; 0000001cH
  00d16	50		 push	 eax
  00d17	8d 8d 30 fe ff
	ff		 lea	 ecx, DWORD PTR $T156[ebp]
  00d1d	e8 00 00 00 00	 call	 ??$?HDU?$char_traits@D@std@@V?$allocator@D@1@@std@@YA?AV?$basic_string@DU?$char_traits@D@std@@V?$allocator@D@2@@0@QBDABV10@@Z ; std::operator+<char,std::char_traits<char>,std::allocator<char> >
  00d22	68 00 00 00 00	 push	 OFFSET ??_C@_01DICPFPGM@k?$AA@
  00d27	8b d0		 mov	 edx, eax
  00d29	c6 45 fc 1d	 mov	 BYTE PTR __$EHRec$[ebp+8], 29 ; 0000001dH
  00d2d	8d 8d 48 fe ff
	ff		 lea	 ecx, DWORD PTR $T157[ebp]
  00d33	e8 00 00 00 00	 call	 ??$?HDU?$char_traits@D@std@@V?$allocator@D@1@@std@@YA?AV?$basic_string@DU?$char_traits@D@std@@V?$allocator@D@2@@0@$$QAV10@QBD@Z ; std::operator+<char,std::char_traits<char>,std::allocator<char> >
  00d38	8d 8d a4 fe ff
	ff		 lea	 ecx, DWORD PTR $T155[ebp]
  00d3e	c6 45 fc 1e	 mov	 BYTE PTR __$EHRec$[ebp+8], 30 ; 0000001eH
  00d42	51		 push	 ecx
  00d43	8b d0		 mov	 edx, eax
  00d45	8d 8d 60 fe ff
	ff		 lea	 ecx, DWORD PTR $T158[ebp]
  00d4b	e8 00 00 00 00	 call	 ??$?HDU?$char_traits@D@std@@V?$allocator@D@1@@std@@YA?AV?$basic_string@DU?$char_traits@D@std@@V?$allocator@D@2@@0@$$QAV10@0@Z ; std::operator+<char,std::char_traits<char>,std::allocator<char> >
  00d50	68 00 00 00 00	 push	 OFFSET ??_C@_04IBLEHOMF@?4wav?$AA@
  00d55	8b d0		 mov	 edx, eax
  00d57	c6 45 fc 1f	 mov	 BYTE PTR __$EHRec$[ebp+8], 31 ; 0000001fH
  00d5b	8d 8d e8 fd ff
	ff		 lea	 ecx, DWORD PTR $T159[ebp]
  00d61	e8 00 00 00 00	 call	 ??$?HDU?$char_traits@D@std@@V?$allocator@D@1@@std@@YA?AV?$basic_string@DU?$char_traits@D@std@@V?$allocator@D@2@@0@$$QAV10@QBD@Z ; std::operator+<char,std::char_traits<char>,std::allocator<char> >
  00d66	83 c4 10	 add	 esp, 16			; 00000010H
  00d69	8b f0		 mov	 esi, eax
; File f:\program files (x86)\microsoft visual studio\2017\enterprise\vc\tools\msvc\14.11.25503\include\sstream

; 647  : 		return (_Stringbuffer.str());

  00d6b	8d 85 d4 fe ff
	ff		 lea	 eax, DWORD PTR $T161[ebp]
; File f:\users\krzysztof\documents\szko³a\2017-2018\informatyka\labolatorium\ruletka\ruletka\main.cpp

; 838  : 					auto res = URLDownloadToFileA(nullptr, (link + g³os2 + "k" + numers.str() + ".wav").c_str(), ("G³os/" + g³os2 + "k" + numers.str() + ".wav").c_str(), 0, nullptr);

  00d71	c6 45 fc 20	 mov	 BYTE PTR __$EHRec$[ebp+8], 32 ; 00000020H
; File f:\program files (x86)\microsoft visual studio\2017\enterprise\vc\tools\msvc\14.11.25503\include\sstream

; 647  : 		return (_Stringbuffer.str());

  00d75	50		 push	 eax
  00d76	8d 8d 24 ff ff
	ff		 lea	 ecx, DWORD PTR _numers$284[ebp+24]
  00d7c	e8 00 00 00 00	 call	 ?str@?$basic_stringbuf@DU?$char_traits@D@std@@V?$allocator@D@2@@std@@QBE?AV?$basic_string@DU?$char_traits@D@std@@V?$allocator@D@2@@2@XZ ; std::basic_stringbuf<char,std::char_traits<char>,std::allocator<char> >::str
  00d81	83 cf 28	 or	 edi, 40			; 00000028H
; File f:\users\krzysztof\documents\szko³a\2017-2018\informatyka\labolatorium\ruletka\ruletka\main.cpp

; 838  : 					auto res = URLDownloadToFileA(nullptr, (link + g³os2 + "k" + numers.str() + ".wav").c_str(), ("G³os/" + g³os2 + "k" + numers.str() + ".wav").c_str(), 0, nullptr);

  00d84	8d 45 d4	 lea	 eax, DWORD PTR _g³os2$286[ebp]
  00d87	c6 45 fc 21	 mov	 BYTE PTR __$EHRec$[ebp+8], 33 ; 00000021H
  00d8b	50		 push	 eax
  00d8c	8d 55 bc	 lea	 edx, DWORD PTR _link$285[ebp]
  00d8f	8d 8d 00 fe ff
	ff		 lea	 ecx, DWORD PTR $T162[ebp]
  00d95	e8 00 00 00 00	 call	 ??$?HDU?$char_traits@D@std@@V?$allocator@D@1@@std@@YA?AV?$basic_string@DU?$char_traits@D@std@@V?$allocator@D@2@@0@ABV10@0@Z ; std::operator+<char,std::char_traits<char>,std::allocator<char> >
  00d9a	68 00 00 00 00	 push	 OFFSET ??_C@_01DICPFPGM@k?$AA@
  00d9f	8b d0		 mov	 edx, eax
  00da1	c6 45 fc 22	 mov	 BYTE PTR __$EHRec$[ebp+8], 34 ; 00000022H
  00da5	8d 8d 18 fe ff
	ff		 lea	 ecx, DWORD PTR $T163[ebp]
  00dab	e8 00 00 00 00	 call	 ??$?HDU?$char_traits@D@std@@V?$allocator@D@1@@std@@YA?AV?$basic_string@DU?$char_traits@D@std@@V?$allocator@D@2@@0@$$QAV10@QBD@Z ; std::operator+<char,std::char_traits<char>,std::allocator<char> >
  00db0	8d 8d d4 fe ff
	ff		 lea	 ecx, DWORD PTR $T161[ebp]
  00db6	c6 45 fc 23	 mov	 BYTE PTR __$EHRec$[ebp+8], 35 ; 00000023H
  00dba	51		 push	 ecx
  00dbb	8b d0		 mov	 edx, eax
  00dbd	8d 8d bc fe ff
	ff		 lea	 ecx, DWORD PTR $T164[ebp]
  00dc3	e8 00 00 00 00	 call	 ??$?HDU?$char_traits@D@std@@V?$allocator@D@1@@std@@YA?AV?$basic_string@DU?$char_traits@D@std@@V?$allocator@D@2@@0@$$QAV10@0@Z ; std::operator+<char,std::char_traits<char>,std::allocator<char> >
  00dc8	68 00 00 00 00	 push	 OFFSET ??_C@_04IBLEHOMF@?4wav?$AA@
  00dcd	8b d0		 mov	 edx, eax
  00dcf	c6 45 fc 24	 mov	 BYTE PTR __$EHRec$[ebp+8], 36 ; 00000024H
  00dd3	8d 8d 8c fe ff
	ff		 lea	 ecx, DWORD PTR $T165[ebp]
  00dd9	e8 00 00 00 00	 call	 ??$?HDU?$char_traits@D@std@@V?$allocator@D@1@@std@@YA?AV?$basic_string@DU?$char_traits@D@std@@V?$allocator@D@2@@0@$$QAV10@QBD@Z ; std::operator+<char,std::char_traits<char>,std::allocator<char> >
  00dde	83 c4 10	 add	 esp, 16			; 00000010H
; File f:\program files (x86)\microsoft visual studio\2017\enterprise\vc\tools\msvc\14.11.25503\include\xstring

; 1617 : 		return (_BUF_SIZE <= _Myres);

  00de1	83 7e 14 10	 cmp	 DWORD PTR [esi+20], 16	; 00000010H

; 1607 : 		if (_Large_string_engaged())

  00de5	72 02		 jb	 SHORT $LN1370@SprawdŸ_P
; File f:\program files (x86)\microsoft visual studio\2017\enterprise\vc\tools\msvc\14.11.25503\include\xstddef

; 265  : 	return (_Ptr);

  00de7	8b 36		 mov	 esi, DWORD PTR [esi]
$LN1370@SprawdŸ_P:
; File f:\program files (x86)\microsoft visual studio\2017\enterprise\vc\tools\msvc\14.11.25503\include\xstring

; 1617 : 		return (_BUF_SIZE <= _Myres);

  00de9	83 78 14 10	 cmp	 DWORD PTR [eax+20], 16	; 00000010H

; 1607 : 		if (_Large_string_engaged())

  00ded	72 02		 jb	 SHORT $LN1709@SprawdŸ_P
; File f:\program files (x86)\microsoft visual studio\2017\enterprise\vc\tools\msvc\14.11.25503\include\xstddef

; 265  : 	return (_Ptr);

  00def	8b 00		 mov	 eax, DWORD PTR [eax]
$LN1709@SprawdŸ_P:
; File f:\users\krzysztof\documents\szko³a\2017-2018\informatyka\labolatorium\ruletka\ruletka\main.cpp

; 838  : 					auto res = URLDownloadToFileA(nullptr, (link + g³os2 + "k" + numers.str() + ".wav").c_str(), ("G³os/" + g³os2 + "k" + numers.str() + ".wav").c_str(), 0, nullptr);

  00df1	6a 00		 push	 0
  00df3	6a 00		 push	 0
  00df5	56		 push	 esi
  00df6	50		 push	 eax
  00df7	6a 00		 push	 0
  00df9	ff 15 00 00 00
	00		 call	 DWORD PTR __imp__URLDownloadToFileA@20
  00dff	8d 8d 8c fe ff
	ff		 lea	 ecx, DWORD PTR $T165[ebp]
  00e05	8b f0		 mov	 esi, eax
  00e07	e8 00 00 00 00	 call	 ??1?$basic_string@DU?$char_traits@D@std@@V?$allocator@D@2@@std@@QAE@XZ ; std::basic_string<char,std::char_traits<char>,std::allocator<char> >::~basic_string<char,std::char_traits<char>,std::allocator<char> >
  00e0c	8d 8d bc fe ff
	ff		 lea	 ecx, DWORD PTR $T164[ebp]
  00e12	e8 00 00 00 00	 call	 ??1?$basic_string@DU?$char_traits@D@std@@V?$allocator@D@2@@std@@QAE@XZ ; std::basic_string<char,std::char_traits<char>,std::allocator<char> >::~basic_string<char,std::char_traits<char>,std::allocator<char> >
  00e17	8d 8d 18 fe ff
	ff		 lea	 ecx, DWORD PTR $T163[ebp]
  00e1d	e8 00 00 00 00	 call	 ??1?$basic_string@DU?$char_traits@D@std@@V?$allocator@D@2@@std@@QAE@XZ ; std::basic_string<char,std::char_traits<char>,std::allocator<char> >::~basic_string<char,std::char_traits<char>,std::allocator<char> >
  00e22	8d 8d 00 fe ff
	ff		 lea	 ecx, DWORD PTR $T162[ebp]
  00e28	e8 00 00 00 00	 call	 ??1?$basic_string@DU?$char_traits@D@std@@V?$allocator@D@2@@std@@QAE@XZ ; std::basic_string<char,std::char_traits<char>,std::allocator<char> >::~basic_string<char,std::char_traits<char>,std::allocator<char> >
  00e2d	8d 8d d4 fe ff
	ff		 lea	 ecx, DWORD PTR $T161[ebp]
  00e33	e8 00 00 00 00	 call	 ??1?$basic_string@DU?$char_traits@D@std@@V?$allocator@D@2@@std@@QAE@XZ ; std::basic_string<char,std::char_traits<char>,std::allocator<char> >::~basic_string<char,std::char_traits<char>,std::allocator<char> >
  00e38	8d 8d e8 fd ff
	ff		 lea	 ecx, DWORD PTR $T159[ebp]
  00e3e	e8 00 00 00 00	 call	 ??1?$basic_string@DU?$char_traits@D@std@@V?$allocator@D@2@@std@@QAE@XZ ; std::basic_string<char,std::char_traits<char>,std::allocator<char> >::~basic_string<char,std::char_traits<char>,std::allocator<char> >
  00e43	8d 8d 60 fe ff
	ff		 lea	 ecx, DWORD PTR $T158[ebp]
  00e49	e8 00 00 00 00	 call	 ??1?$basic_string@DU?$char_traits@D@std@@V?$allocator@D@2@@std@@QAE@XZ ; std::basic_string<char,std::char_traits<char>,std::allocator<char> >::~basic_string<char,std::char_traits<char>,std::allocator<char> >
  00e4e	8d 8d 48 fe ff
	ff		 lea	 ecx, DWORD PTR $T157[ebp]
  00e54	e8 00 00 00 00	 call	 ??1?$basic_string@DU?$char_traits@D@std@@V?$allocator@D@2@@std@@QAE@XZ ; std::basic_string<char,std::char_traits<char>,std::allocator<char> >::~basic_string<char,std::char_traits<char>,std::allocator<char> >
  00e59	8d 8d 30 fe ff
	ff		 lea	 ecx, DWORD PTR $T156[ebp]
  00e5f	e8 00 00 00 00	 call	 ??1?$basic_string@DU?$char_traits@D@std@@V?$allocator@D@2@@std@@QAE@XZ ; std::basic_string<char,std::char_traits<char>,std::allocator<char> >::~basic_string<char,std::char_traits<char>,std::allocator<char> >
  00e64	8d 8d a4 fe ff
	ff		 lea	 ecx, DWORD PTR $T155[ebp]
  00e6a	c6 45 fc 18	 mov	 BYTE PTR __$EHRec$[ebp+8], 24 ; 00000018H
  00e6e	e8 00 00 00 00	 call	 ??1?$basic_string@DU?$char_traits@D@std@@V?$allocator@D@2@@std@@QAE@XZ ; std::basic_string<char,std::char_traits<char>,std::allocator<char> >::~basic_string<char,std::char_traits<char>,std::allocator<char> >

; 839  : 					if (res != S_OK)

  00e73	85 f6		 test	 esi, esi
  00e75	0f 85 6d 09 00
	00		 jne	 $LN3194@SprawdŸ_P
$LN64@SprawdŸ_P:

; 840  : 					{
; 841  : 						czy_pobrano = false;
; 842  : 						cout << "Brak plików dla g³osu oraz nie mo¿na pobraæ danych, wy³¹czono odczytywanie wyniku" << endl;
; 843  : 						G³osyKompletne = false; //Wpisanie do zmiennej wartoœci false informuj¹cej o niekompletnych plikach audio
; 844  : 						return; //Wyjœcie z funkcji poniewa¿ nie ma sensu sprawdzania dalej
; 845  : 					}
; 846  : 				}
; 847  : 			}

  00e7b	c6 45 fc 02	 mov	 BYTE PTR __$EHRec$[ebp+8], 2
; File f:\program files (x86)\microsoft visual studio\2017\enterprise\vc\tools\msvc\14.11.25503\include\sstream

; 637  : 		{	// destroy the object

  00e7f	8b 85 0c ff ff
	ff		 mov	 eax, DWORD PTR _numers$284[ebp]
  00e85	8b 40 04	 mov	 eax, DWORD PTR [eax+4]
  00e88	c7 84 05 0c ff
	ff ff 00 00 00
	00		 mov	 DWORD PTR _numers$284[ebp+eax], OFFSET ??_7?$basic_stringstream@DU?$char_traits@D@std@@V?$allocator@D@2@@std@@6B@
  00e93	8b 85 0c ff ff
	ff		 mov	 eax, DWORD PTR _numers$284[ebp]
  00e99	8b 48 04	 mov	 ecx, DWORD PTR [eax+4]
  00e9c	8d 41 98	 lea	 eax, DWORD PTR [ecx-104]
  00e9f	89 84 0d 08 ff
	ff ff		 mov	 DWORD PTR _numers$284[ebp+ecx-4], eax

; 638  : 		}

  00ea6	8d 8d 24 ff ff
	ff		 lea	 ecx, DWORD PTR _numers$284[ebp+24]
  00eac	e8 00 00 00 00	 call	 ??1?$basic_stringbuf@DU?$char_traits@D@std@@V?$allocator@D@2@@std@@UAE@XZ ; std::basic_stringbuf<char,std::char_traits<char>,std::allocator<char> >::~basic_stringbuf<char,std::char_traits<char>,std::allocator<char> >
  00eb1	8d 8d 2c ff ff
	ff		 lea	 ecx, DWORD PTR _numers$284[ebp+32]
  00eb7	ff 15 00 00 00
	00		 call	 DWORD PTR __imp_??1?$basic_iostream@DU?$char_traits@D@std@@@std@@UAE@XZ
  00ebd	8d 8d 74 ff ff
	ff		 lea	 ecx, DWORD PTR _numers$284[ebp+104]
  00ec3	ff 15 00 00 00
	00		 call	 DWORD PTR __imp_??1?$basic_ios@DU?$char_traits@D@std@@@std@@UAE@XZ
; File f:\users\krzysztof\documents\szko³a\2017-2018\informatyka\labolatorium\ruletka\ruletka\main.cpp

; 830  : 			for (unsigned short i = 1; i <= 3; ++i)

  00ec9	8b b5 ec fe ff
	ff		 mov	 esi, DWORD PTR _i$1$[ebp]
  00ecf	46		 inc	 esi
  00ed0	89 b5 ec fe ff
	ff		 mov	 DWORD PTR _i$1$[ebp], esi
  00ed6	66 83 fe 03	 cmp	 si, 3
  00eda	0f 86 82 fc ff
	ff		 jbe	 $LL6@SprawdŸ_P

; 848  : 
; 849  : 			for (unsigned short i = 1; i <= 12; ++i)

  00ee0	be 01 00 00 00	 mov	 esi, 1
  00ee5	89 b5 ec fe ff
	ff		 mov	 DWORD PTR _i$1$[ebp], esi
  00eeb	0f 1f 44 00 00	 npad	 5
$LL9@SprawdŸ_P:
  00ef0	68 b0 00 00 00	 push	 176			; 000000b0H
  00ef5	8d 85 0c ff ff
	ff		 lea	 eax, DWORD PTR _numers$283[ebp]
; File f:\program files (x86)\microsoft visual studio\2017\enterprise\vc\tools\msvc\14.11.25503\include\sstream

; 593  : 		{	// construct empty character buffer

  00efb	89 bd 88 fe ff
	ff		 mov	 DWORD PTR tv7198[ebp], edi
  00f01	6a 00		 push	 0
  00f03	50		 push	 eax
  00f04	e8 00 00 00 00	 call	 _memset
  00f09	83 c4 0c	 add	 esp, 12			; 0000000cH
  00f0c	c7 85 0c ff ff
	ff 00 00 00 00	 mov	 DWORD PTR _numers$283[ebp], OFFSET ??_8?$basic_stringstream@DU?$char_traits@D@std@@V?$allocator@D@2@@std@@7B?$basic_istream@DU?$char_traits@D@std@@@1@@
  00f16	8d 8d 74 ff ff
	ff		 lea	 ecx, DWORD PTR _numers$283[ebp+104]
  00f1c	c7 85 1c ff ff
	ff 00 00 00 00	 mov	 DWORD PTR _numers$283[ebp+16], OFFSET ??_8?$basic_stringstream@DU?$char_traits@D@std@@V?$allocator@D@2@@std@@7B?$basic_ostream@DU?$char_traits@D@std@@@1@@
  00f26	ff 15 00 00 00
	00		 call	 DWORD PTR __imp_??0?$basic_ios@DU?$char_traits@D@std@@@std@@IAE@XZ
  00f2c	6a 00		 push	 0
  00f2e	8d 85 24 ff ff
	ff		 lea	 eax, DWORD PTR _numers$283[ebp+24]
  00f34	c6 45 fc 25	 mov	 BYTE PTR __$EHRec$[ebp+8], 37 ; 00000025H
  00f38	81 cf 80 00 00
	00		 or	 edi, 128		; 00000080H

; 313  : 
; 314  : 		if (_Count != 0
; 315  : 			&& (_Mystate & (_Noread | _Constant)) != (_Noread | _Constant))
; 316  : 			{	// finite buffer that can be read or written, set it up
; 317  : 			_Elem *_Pnew = _Unfancy(_Al.allocate(_Count));
; 318  : 			_Traits::copy(_Pnew, _Ptr, _Count);
; 319  : 			_Seekhigh = _Pnew + _Count;
; 320  : 
; 321  : 			if (!(_Mystate & _Noread))
; 322  : 				_Mysb::setg(_Pnew, _Pnew,
; 323  : 					_Pnew + _Count);	// setup read buffer
; 324  : 			if (!(_Mystate & _Constant))
; 325  : 				{	// setup write buffer, and maybe read buffer
; 326  : 				_Mysb::setp(_Pnew,
; 327  : 					(_Mystate & (_Atend | _Append)) ? _Pnew + _Count : _Pnew,
; 328  : 					_Pnew + _Count);
; 329  : 				if (_Mysb::gptr() == 0)
; 330  : 					_Mysb::setg(_Pnew, 0, _Pnew);
; 331  : 				}
; 332  : 			_Mystate |= _Allocated;
; 333  : 			}
; 334  : 		}
; 335  : 
; 336  : 	void _Tidy()
; 337  : 		{	// discard any allocated buffer and clear pointers
; 338  : 		if (_Mystate & _Allocated)
; 339  : 			_Al.deallocate(pointer_traits<_Ptrty>::pointer_to(*_Mysb::eback()),
; 340  : 				(_Mysb::pptr() != 0 ? _Mysb::epptr()
; 341  : 					: _Mysb::egptr()) - _Mysb::eback());
; 342  : 		_Mysb::setg(0, 0, 0);
; 343  : 		_Mysb::setp(0, 0);
; 344  : 		_Seekhigh = 0;
; 345  : 		_Mystate &= ~_Allocated;
; 346  : 		}
; 347  : 
; 348  : private:
; 349  : 	typedef typename allocator_traits<allocator_type>::pointer _Ptrty;
; 350  : 
; 351  : 	enum
; 352  : 		{	// constant for minimum buffer size
; 353  : 		_MINSIZE = 32};
; 354  : 
; 355  : 	_Strstate _Getstate(ios_base::openmode _Mode)
; 356  : 		{	// convert open mode to stream state bits
; 357  : 		_Strstate _State = (_Strstate)0;
; 358  : 		if (!(_Mode & ios_base::in))
; 359  : 			_State |= _Noread;
; 360  : 		if (!(_Mode & ios_base::out))
; 361  : 			_State |= _Constant;
; 362  : 		if (_Mode & ios_base::app)
; 363  : 			_State |= _Append;
; 364  : 		if (_Mode & ios_base::ate)
; 365  : 			_State |= _Atend;
; 366  : 		return (_State);
; 367  : 		}
; 368  : 
; 369  : 	_Elem *_Seekhigh;	// the high-water pointer in character array
; 370  : 	_Strstate _Mystate;	// the stream state
; 371  : 	allocator_type _Al;	// the allocator object
; 372  : 	};
; 373  : 
; 374  : 	// basic_stringbuf TEMPLATE OPERATORS
; 375  : template<class _Elem,
; 376  : 	class _Traits,
; 377  : 	class _Alloc> inline
; 378  : 	void swap(basic_stringbuf<_Elem, _Traits, _Alloc>& _Left,
; 379  : 		basic_stringbuf<_Elem, _Traits, _Alloc>& _Right)
; 380  : 	{	// swap _Left and _Right basic_stringbufs
; 381  : 	_Left.swap(_Right);
; 382  : 	}
; 383  : 
; 384  : 		// TEMPLATE CLASS basic_istringstream
; 385  : template<class _Elem,
; 386  : 	class _Traits,
; 387  : 	class _Alloc>
; 388  : 	class basic_istringstream
; 389  : 		: public basic_istream<_Elem, _Traits>
; 390  : 	{	// input stream associated with a character array
; 391  : public:
; 392  : 	typedef basic_istringstream<_Elem, _Traits, _Alloc> _Myt;
; 393  : 	typedef basic_istream<_Elem, _Traits> _Mybase;
; 394  : 	typedef _Alloc allocator_type;
; 395  : 	typedef basic_stringbuf<_Elem, _Traits, _Alloc> _Mysb;
; 396  : 	typedef basic_string<_Elem, _Traits, _Alloc> _Mystr;
; 397  : 
; 398  : 	explicit basic_istringstream(ios_base::openmode _Mode = ios_base::in)
; 399  : 		: _Mybase(&_Stringbuffer),
; 400  : 			_Stringbuffer(_Mode | ios_base::in)
; 401  : 		{	// construct empty readable character buffer
; 402  : 		}
; 403  : 
; 404  : 	explicit basic_istringstream(const _Mystr& _Str,
; 405  : 		ios_base::openmode _Mode = ios_base::in)
; 406  : 		: _Mybase(&_Stringbuffer),
; 407  : 			_Stringbuffer(_Str, _Mode | ios_base::in)
; 408  : 		{	// construct readable character buffer from NTCS
; 409  : 		}
; 410  : 
; 411  : 	basic_istringstream(_Myt&& _Right)
; 412  : 		: _Mybase(&_Stringbuffer)
; 413  : 		{	// construct by moving _Right
; 414  : 		_Assign_rv(_STD move(_Right));
; 415  : 		}
; 416  : 
; 417  : 	_Myt& operator=(_Myt&& _Right)
; 418  : 		{	// move from _Right
; 419  : 		_Assign_rv(_STD move(_Right));
; 420  : 		return (*this);
; 421  : 		}
; 422  : 
; 423  : 	void _Assign_rv(_Myt&& _Right)
; 424  : 		{	// assign by moving _Right
; 425  : 		if (this != _STD addressof(_Right))
; 426  : 			{	// different, worth moving
; 427  : 			_Stringbuffer.str(_Mystr());
; 428  : 			this->swap(_Right);
; 429  : 			}
; 430  : 		}
; 431  : 
; 432  : 	void swap(_Myt& _Right)
; 433  : 		{	// swap with _Right
; 434  : 		if (this != _STD addressof(_Right))
; 435  : 			{	// different, swap base and buffer
; 436  : 			_Mybase::swap(_Right);
; 437  : 			_Stringbuffer.swap(_Right._Stringbuffer);
; 438  : 			}
; 439  : 		}
; 440  : 
; 441  : 	basic_istringstream(const _Myt&) = delete;
; 442  : 	_Myt& operator=(const _Myt&) = delete;
; 443  : 
; 444  : 	virtual ~basic_istringstream() _NOEXCEPT
; 445  : 		{	// destroy the object
; 446  : 		}
; 447  : 
; 448  : 	_Mysb *rdbuf() const
; 449  : 		{	// return pointer to file buffer
; 450  : 		return ((_Mysb *)&_Stringbuffer);
; 451  : 		}
; 452  : 
; 453  : 	_Mystr str() const
; 454  : 		{	// return string copy of character array
; 455  : 		return (_Stringbuffer.str());
; 456  : 		}
; 457  : 
; 458  : 	void str(const _Mystr& _Newstr)
; 459  : 		{	// replace character array from string
; 460  : 		_Stringbuffer.str(_Newstr);
; 461  : 		}
; 462  : 
; 463  : private:
; 464  : 	_Mysb _Stringbuffer;	// the string buffer
; 465  : 	};
; 466  : 
; 467  : 	// basic_istringstream TEMPLATE OPERATORS
; 468  : template<class _Elem,
; 469  : 	class _Traits,
; 470  : 	class _Alloc> inline
; 471  : 	void swap(basic_istringstream<_Elem, _Traits, _Alloc>& _Left,
; 472  : 		basic_istringstream<_Elem, _Traits, _Alloc>& _Right)
; 473  : 	{	// swap _Left and _Right basic_istringstreams
; 474  : 	_Left.swap(_Right);
; 475  : 	}
; 476  : 
; 477  : 		// TEMPLATE CLASS basic_ostringstream
; 478  : template<class _Elem,
; 479  : 	class _Traits,
; 480  : 	class _Alloc>
; 481  : 	class basic_ostringstream
; 482  : 		: public basic_ostream<_Elem, _Traits>
; 483  : 	{	// output stream associated with a character array
; 484  : public:
; 485  : 	typedef basic_ostringstream<_Elem, _Traits, _Alloc> _Myt;
; 486  : 	typedef basic_ostream<_Elem, _Traits> _Mybase;
; 487  : 	typedef _Alloc allocator_type;
; 488  : 	typedef basic_stringbuf<_Elem, _Traits, _Alloc> _Mysb;
; 489  : 	typedef basic_string<_Elem, _Traits, _Alloc> _Mystr;
; 490  : 
; 491  : 	explicit basic_ostringstream(ios_base::openmode _Mode = ios_base::out)
; 492  : 		: _Mybase(&_Stringbuffer),
; 493  : 			_Stringbuffer(_Mode | ios_base::out)
; 494  : 		{	// construct empty writable character buffer
; 495  : 		}
; 496  : 
; 497  : 	explicit basic_ostringstream(const _Mystr& _Str,
; 498  : 		ios_base::openmode _Mode = ios_base::out)
; 499  : 		: _Mybase(&_Stringbuffer),
; 500  : 			_Stringbuffer(_Str, _Mode | ios_base::out)
; 501  : 		{	// construct writable character buffer from NTCS
; 502  : 		}
; 503  : 
; 504  : 	basic_ostringstream(_Myt&& _Right)
; 505  : 		: _Mybase(&_Stringbuffer)
; 506  : 		{	// construct by moving _Right
; 507  : 		_Assign_rv(_STD move(_Right));
; 508  : 		}
; 509  : 
; 510  : 	_Myt& operator=(_Myt&& _Right)
; 511  : 		{	// move from _Right
; 512  : 		_Assign_rv(_STD move(_Right));
; 513  : 		return (*this);
; 514  : 		}
; 515  : 
; 516  : 	void _Assign_rv(_Myt&& _Right)
; 517  : 		{	// assign by moving _Right
; 518  : 		if (this != _STD addressof(_Right))
; 519  : 			{	// different, worth moving
; 520  : 			_Stringbuffer.str(_Mystr());
; 521  : 			this->swap(_Right);
; 522  : 			}
; 523  : 		}
; 524  : 
; 525  : 	void swap(_Myt& _Right)
; 526  : 		{	// swap with _Right
; 527  : 		if (this != _STD addressof(_Right))
; 528  : 			{	// different, swap base and buffer
; 529  : 			_Mybase::swap(_Right);
; 530  : 			_Stringbuffer.swap(_Right._Stringbuffer);
; 531  : 			}
; 532  : 		}
; 533  : 
; 534  : 	basic_ostringstream(const _Myt&) = delete;
; 535  : 	_Myt& operator=(const _Myt&) = delete;
; 536  : 
; 537  : 	virtual ~basic_ostringstream() _NOEXCEPT
; 538  : 		{	// destroy the object
; 539  : 		}
; 540  : 
; 541  : 	_Mysb *rdbuf() const
; 542  : 		{	// return pointer to buffer
; 543  : 		return ((_Mysb *)&_Stringbuffer);
; 544  : 		}
; 545  : 
; 546  : 	_Mystr str() const
; 547  : 		{	// return string copy of character array
; 548  : 		return (_Stringbuffer.str());
; 549  : 		}
; 550  : 
; 551  : 	void str(const _Mystr& _Newstr)
; 552  : 		{	// replace character array from string
; 553  : 		_Stringbuffer.str(_Newstr);
; 554  : 		}
; 555  : 
; 556  : private:
; 557  : 	_Mysb _Stringbuffer;	// the string buffer
; 558  : 	};
; 559  : 
; 560  : 	// basic_ostringstream TEMPLATE OPERATORS
; 561  : template<class _Elem,
; 562  : 	class _Traits,
; 563  : 	class _Alloc> inline
; 564  : 	void swap(basic_ostringstream<_Elem, _Traits, _Alloc>& _Left,
; 565  : 		basic_ostringstream<_Elem, _Traits, _Alloc>& _Right)
; 566  : 	{	// swap _Left and _Right basic_ostringstreams
; 567  : 	_Left.swap(_Right);
; 568  : 	}
; 569  : 
; 570  : 		// TEMPLATE CLASS basic_stringstream
; 571  : template<class _Elem,
; 572  : 	class _Traits,
; 573  : 	class _Alloc>
; 574  : 	class basic_stringstream
; 575  : 		: public basic_iostream<_Elem, _Traits>
; 576  : 	{	// input/output stream associated with a character array
; 577  : public:
; 578  : 	typedef basic_stringstream<_Elem, _Traits, _Alloc> _Myt;
; 579  : 	typedef basic_iostream<_Elem, _Traits> _Mybase;
; 580  : 	typedef _Elem char_type;
; 581  : 	typedef _Traits traits_type;
; 582  : 	typedef _Alloc allocator_type;
; 583  : 	typedef typename _Traits::int_type int_type;
; 584  : 	typedef typename _Traits::pos_type pos_type;
; 585  : 	typedef typename _Traits::off_type off_type;
; 586  : 	typedef basic_stringbuf<_Elem, _Traits, _Alloc> _Mysb;
; 587  : 	typedef basic_string<_Elem, _Traits, _Alloc> _Mystr;
; 588  : 
; 589  : 	explicit basic_stringstream(ios_base::openmode _Mode =
; 590  : 		ios_base::in | ios_base::out)
; 591  : 		: _Mybase(&_Stringbuffer),

  00f3e	8d 8d 0c ff ff
	ff		 lea	 ecx, DWORD PTR _numers$283[ebp]
  00f44	50		 push	 eax
  00f45	89 7d ec	 mov	 DWORD PTR $T1[ebp], edi
  00f48	ff 15 00 00 00
	00		 call	 DWORD PTR __imp_??0?$basic_iostream@DU?$char_traits@D@std@@@std@@QAE@PAV?$basic_streambuf@DU?$char_traits@D@std@@@1@@Z
  00f4e	c7 45 fc 26 00
	00 00		 mov	 DWORD PTR __$EHRec$[ebp+8], 38 ; 00000026H

; 593  : 		{	// construct empty character buffer

  00f55	8b 85 0c ff ff
	ff		 mov	 eax, DWORD PTR _numers$283[ebp]
  00f5b	8b 40 04	 mov	 eax, DWORD PTR [eax+4]
  00f5e	c7 84 05 0c ff
	ff ff 00 00 00
	00		 mov	 DWORD PTR _numers$283[ebp+eax], OFFSET ??_7?$basic_stringstream@DU?$char_traits@D@std@@V?$allocator@D@2@@std@@6B@
  00f69	8b 85 0c ff ff
	ff		 mov	 eax, DWORD PTR _numers$283[ebp]
  00f6f	8b 48 04	 mov	 ecx, DWORD PTR [eax+4]
  00f72	8d 41 98	 lea	 eax, DWORD PTR [ecx-104]
  00f75	89 84 0d 08 ff
	ff ff		 mov	 DWORD PTR _numers$283[ebp+ecx-4], eax
  00f7c	8d 85 24 ff ff
	ff		 lea	 eax, DWORD PTR _numers$283[ebp+24]

; 30   : 		{	// construct empty character buffer from mode

  00f82	8b c8		 mov	 ecx, eax

; 592  : 			_Stringbuffer(_Mode)

  00f84	89 85 84 fe ff
	ff		 mov	 DWORD PTR _this$[ebp], eax

; 30   : 		{	// construct empty character buffer from mode

  00f8a	ff 15 00 00 00
	00		 call	 DWORD PTR __imp_??0?$basic_streambuf@DU?$char_traits@D@std@@@std@@IAE@XZ
  00f90	c7 85 24 ff ff
	ff 00 00 00 00	 mov	 DWORD PTR _numers$283[ebp+24], OFFSET ??_7?$basic_stringbuf@DU?$char_traits@D@std@@V?$allocator@D@2@@std@@6B@

; 311  : 		_Seekhigh = 0;

  00f9a	c7 85 5c ff ff
	ff 00 00 00 00	 mov	 DWORD PTR _numers$283[ebp+80], 0

; 312  : 		_Mystate = _State;

  00fa4	c7 85 60 ff ff
	ff 00 00 00 00	 mov	 DWORD PTR _numers$283[ebp+84], 0
; File f:\users\krzysztof\documents\szko³a\2017-2018\informatyka\labolatorium\ruletka\ruletka\main.cpp

; 852  : 				numers << i;

  00fae	56		 push	 esi
  00faf	8d 8d 1c ff ff
	ff		 lea	 ecx, DWORD PTR _numers$283[ebp+16]
  00fb5	c6 45 fc 28	 mov	 BYTE PTR __$EHRec$[ebp+8], 40 ; 00000028H
  00fb9	ff 15 00 00 00
	00		 call	 DWORD PTR __imp_??6?$basic_ostream@DU?$char_traits@D@std@@@std@@QAEAAV01@G@Z
; File f:\program files (x86)\microsoft visual studio\2017\enterprise\vc\tools\msvc\14.11.25503\include\sstream

; 647  : 		return (_Stringbuffer.str());

  00fbf	8d 85 d4 fe ff
	ff		 lea	 eax, DWORD PTR $T173[ebp]
  00fc5	50		 push	 eax
  00fc6	8d 8d 24 ff ff
	ff		 lea	 ecx, DWORD PTR _numers$283[ebp+24]
  00fcc	e8 00 00 00 00	 call	 ?str@?$basic_stringbuf@DU?$char_traits@D@std@@V?$allocator@D@2@@std@@QBE?AV?$basic_string@DU?$char_traits@D@std@@V?$allocator@D@2@@2@XZ ; std::basic_stringbuf<char,std::char_traits<char>,std::allocator<char> >::str
; File f:\users\krzysztof\documents\szko³a\2017-2018\informatyka\labolatorium\ruletka\ruletka\main.cpp

; 853  : 				if ((_access((G³os + "w" + numers.str() + ".wav").c_str(), 0)))

  00fd1	68 00 00 00 00	 push	 OFFSET ??_C@_01NOFIACDB@w?$AA@
  00fd6	8d 8d a4 fe ff
	ff		 lea	 ecx, DWORD PTR $T174[ebp]
  00fdc	c6 45 fc 29	 mov	 BYTE PTR __$EHRec$[ebp+8], 41 ; 00000029H
  00fe0	e8 00 00 00 00	 call	 ??$?HDU?$char_traits@D@std@@V?$allocator@D@1@@std@@YA?AV?$basic_string@DU?$char_traits@D@std@@V?$allocator@D@2@@0@ABV10@QBD@Z ; std::operator+<char,std::char_traits<char>,std::allocator<char> >
  00fe5	8d 8d d4 fe ff
	ff		 lea	 ecx, DWORD PTR $T173[ebp]
  00feb	c6 45 fc 2a	 mov	 BYTE PTR __$EHRec$[ebp+8], 42 ; 0000002aH
  00fef	51		 push	 ecx
  00ff0	8b d0		 mov	 edx, eax
  00ff2	8d 8d 8c fe ff
	ff		 lea	 ecx, DWORD PTR $T175[ebp]
  00ff8	e8 00 00 00 00	 call	 ??$?HDU?$char_traits@D@std@@V?$allocator@D@1@@std@@YA?AV?$basic_string@DU?$char_traits@D@std@@V?$allocator@D@2@@0@$$QAV10@0@Z ; std::operator+<char,std::char_traits<char>,std::allocator<char> >
  00ffd	83 c4 08	 add	 esp, 8
  01000	8b f8		 mov	 edi, eax
  01002	c6 45 fc 2b	 mov	 BYTE PTR __$EHRec$[ebp+8], 43 ; 0000002bH
; File f:\program files (x86)\microsoft visual studio\2017\enterprise\vc\tools\msvc\14.11.25503\include\xstring

; 2351 : 		if (_Count <= _My_data._Myres - _Old_size)

  01006	8b 57 14	 mov	 edx, DWORD PTR [edi+20]
  01009	8b c2		 mov	 eax, edx
  0100b	8b 4f 10	 mov	 ecx, DWORD PTR [edi+16]
  0100e	2b c1		 sub	 eax, ecx
  01010	83 f8 04	 cmp	 eax, 4
  01013	72 2f		 jb	 SHORT $LN2073@SprawdŸ_P

; 2352 : 			{
; 2353 : 			_My_data._Mysize = _Old_size + _Count;

  01015	8d 41 04	 lea	 eax, DWORD PTR [ecx+4]
  01018	89 47 10	 mov	 DWORD PTR [edi+16], eax

; 1595 : 		value_type * _Result = _Bx._Buf;

  0101b	8b c7		 mov	 eax, edi

; 1617 : 		return (_BUF_SIZE <= _Myres);

  0101d	83 fa 10	 cmp	 edx, 16			; 00000010H

; 1596 : 		if (_Large_string_engaged())

  01020	72 02		 jb	 SHORT $LN2082@SprawdŸ_P
; File f:\program files (x86)\microsoft visual studio\2017\enterprise\vc\tools\msvc\14.11.25503\include\xstddef

; 265  : 	return (_Ptr);

  01022	8b 07		 mov	 eax, DWORD PTR [edi]
$LN2082@SprawdŸ_P:
; File f:\program files (x86)\microsoft visual studio\2017\enterprise\vc\tools\msvc\14.11.25503\include\iosfwd

; 506  : 		return ((_Elem *)_CSTD memmove(_First1, _First2, _Count));

  01024	6a 04		 push	 4
; File f:\program files (x86)\microsoft visual studio\2017\enterprise\vc\tools\msvc\14.11.25503\include\xstring

; 2355 : 			_Traits::move(_Old_ptr + _Old_size, _Ptr, _Count);

  01026	8d 34 01	 lea	 esi, DWORD PTR [ecx+eax]
; File f:\program files (x86)\microsoft visual studio\2017\enterprise\vc\tools\msvc\14.11.25503\include\iosfwd

; 506  : 		return ((_Elem *)_CSTD memmove(_First1, _First2, _Count));

  01029	68 00 00 00 00	 push	 OFFSET ??_C@_04IBLEHOMF@?4wav?$AA@
  0102e	56		 push	 esi
  0102f	ff 15 00 00 00
	00		 call	 DWORD PTR __imp__memmove

; 517  : 		_Left = _Right;

  01035	c6 46 04 00	 mov	 BYTE PTR [esi+4], 0

; 506  : 		return ((_Elem *)_CSTD memmove(_First1, _First2, _Count));

  01039	83 c4 0c	 add	 esp, 12			; 0000000cH
; File f:\program files (x86)\microsoft visual studio\2017\enterprise\vc\tools\msvc\14.11.25503\include\xstring

; 2357 : 			return (*this);

  0103c	8b b5 ec fe ff
	ff		 mov	 esi, DWORD PTR _i$1$[ebp]
  01042	eb 1f		 jmp	 SHORT $LN2072@SprawdŸ_P
$LN2073@SprawdŸ_P:

; 2358 : 			}
; 2359 : 
; 2360 : 		return (_Reallocate_grow_by(_Count,

  01044	6a 04		 push	 4
  01046	68 00 00 00 00	 push	 OFFSET ??_C@_04IBLEHOMF@?4wav?$AA@
  0104b	c6 85 80 fe ff
	ff 00		 mov	 BYTE PTR $T181[ebp], 0
  01052	8b cf		 mov	 ecx, edi
  01054	ff b5 80 fe ff
	ff		 push	 DWORD PTR $T181[ebp]
  0105a	6a 04		 push	 4
  0105c	e8 00 00 00 00	 call	 ??$_Reallocate_grow_by@V<lambda_ab246b20b9526e2ef7792587e4298a77>@@PBDI@?$basic_string@DU?$char_traits@D@std@@V?$allocator@D@2@@std@@QAEAAV01@IV<lambda_ab246b20b9526e2ef7792587e4298a77>@@PBDI@Z ; std::basic_string<char,std::char_traits<char>,std::allocator<char> >::_Reallocate_grow_by<<lambda_ab246b20b9526e2ef7792587e4298a77>,char const *,unsigned int>
  01061	8b f8		 mov	 edi, eax
$LN2072@SprawdŸ_P:

; 1576 : 		_Mysize(0),

  01063	c7 85 cc fe ff
	ff 00 00 00 00	 mov	 DWORD PTR $T187[ebp+16], 0

; 1606 : 		const value_type * _Result = _Bx._Buf;

  0106d	8d 85 bc fe ff
	ff		 lea	 eax, DWORD PTR $T187[ebp]

; 1577 : 		_Myres(0)

  01073	c7 85 d0 fe ff
	ff 00 00 00 00	 mov	 DWORD PTR $T187[ebp+20], 0

; 2152 : 		_CSTD memcpy(_My_data_mem, _Right_data_mem, _Memcpy_move_size);

  0107d	0f 10 07	 movups	 xmm0, XMMWORD PTR [edi]
; File f:\users\krzysztof\documents\szko³a\2017-2018\informatyka\labolatorium\ruletka\ruletka\main.cpp

; 853  : 				if ((_access((G³os + "w" + numers.str() + ".wav").c_str(), 0)))

  01080	6a 00		 push	 0
; File f:\program files (x86)\microsoft visual studio\2017\enterprise\vc\tools\msvc\14.11.25503\include\xstring

; 2152 : 		_CSTD memcpy(_My_data_mem, _Right_data_mem, _Memcpy_move_size);

  01082	0f 11 85 bc fe
	ff ff		 movups	 XMMWORD PTR $T187[ebp], xmm0
  01089	f3 0f 7e 47 10	 movq	 xmm0, QWORD PTR [edi+16]
  0108e	66 0f d6 85 cc
	fe ff ff	 movq	 QWORD PTR $T187[ebp+16], xmm0

; 3698 : 		_My_data._Mysize = 0;

  01096	c7 47 10 00 00
	00 00		 mov	 DWORD PTR [edi+16], 0

; 3699 : 		_My_data._Myres = this->_BUF_SIZE - 1;

  0109d	c7 47 14 0f 00
	00 00		 mov	 DWORD PTR [edi+20], 15	; 0000000fH
; File f:\program files (x86)\microsoft visual studio\2017\enterprise\vc\tools\msvc\14.11.25503\include\iosfwd

; 517  : 		_Left = _Right;

  010a4	c6 07 00	 mov	 BYTE PTR [edi], 0
  010a7	8b bd 88 fe ff
	ff		 mov	 edi, DWORD PTR tv7198[ebp]
  010ad	81 cf 80 05 00
	00		 or	 edi, 1408		; 00000580H
; File f:\program files (x86)\microsoft visual studio\2017\enterprise\vc\tools\msvc\14.11.25503\include\xstring

; 1617 : 		return (_BUF_SIZE <= _Myres);

  010b3	83 bd d0 fe ff
	ff 10		 cmp	 DWORD PTR $T187[ebp+20], 16 ; 00000010H
; File f:\program files (x86)\microsoft visual studio\2017\enterprise\vc\tools\msvc\14.11.25503\include\iosfwd

; 517  : 		_Left = _Right;

  010ba	89 bd 84 fe ff
	ff		 mov	 DWORD PTR $T279[ebp], edi
; File f:\program files (x86)\microsoft visual studio\2017\enterprise\vc\tools\msvc\14.11.25503\include\xstring

; 1607 : 		if (_Large_string_engaged())

  010c0	0f 43 85 bc fe
	ff ff		 cmovae	 eax, DWORD PTR $T187[ebp]
; File f:\users\krzysztof\documents\szko³a\2017-2018\informatyka\labolatorium\ruletka\ruletka\main.cpp

; 853  : 				if ((_access((G³os + "w" + numers.str() + ".wav").c_str(), 0)))

  010c7	50		 push	 eax
  010c8	ff 15 00 00 00
	00		 call	 DWORD PTR __imp___access
; File f:\program files (x86)\microsoft visual studio\2017\enterprise\vc\tools\msvc\14.11.25503\include\xstring

; 1617 : 		return (_BUF_SIZE <= _Myres);

  010ce	8b 8d d0 fe ff
	ff		 mov	 ecx, DWORD PTR $T187[ebp+20]
; File f:\users\krzysztof\documents\szko³a\2017-2018\informatyka\labolatorium\ruletka\ruletka\main.cpp

; 853  : 				if ((_access((G³os + "w" + numers.str() + ".wav").c_str(), 0)))

  010d4	83 c4 08	 add	 esp, 8
  010d7	89 85 88 fe ff
	ff		 mov	 DWORD PTR $T280[ebp], eax
; File f:\program files (x86)\microsoft visual studio\2017\enterprise\vc\tools\msvc\14.11.25503\include\xstring

; 1617 : 		return (_BUF_SIZE <= _Myres);

  010dd	83 f9 10	 cmp	 ecx, 16			; 00000010H

; 3709 : 		if (_My_data._Large_string_engaged())

  010e0	72 3c		 jb	 SHORT $LN2198@SprawdŸ_P
; File f:\program files (x86)\microsoft visual studio\2017\enterprise\vc\tools\msvc\14.11.25503\include\xmemory0

; 941  : 		_Deallocate(_Ptr, _Count, sizeof(_Ty));

  010e2	8b 95 bc fe ff
	ff		 mov	 edx, DWORD PTR $T187[ebp]
; File f:\program files (x86)\microsoft visual studio\2017\enterprise\vc\tools\msvc\14.11.25503\include\xstring

; 3714 : 			_Al.deallocate(_Ptr, _My_data._Myres + 1);

  010e8	41		 inc	 ecx
; File f:\program files (x86)\microsoft visual studio\2017\enterprise\vc\tools\msvc\14.11.25503\include\xmemory0

; 107  : 	if (_BIG_ALLOCATION_THRESHOLD <= _Count * _Sz)

  010e9	81 f9 00 10 00
	00		 cmp	 ecx, 4096		; 00001000H
  010ef	72 24		 jb	 SHORT $LN2201@SprawdŸ_P

; 108  : 		{	// deallocate large block
; 109  : 		const uintptr_t _Ptr_user = reinterpret_cast<uintptr_t>(_Ptr);
; 110  : 		if ((_Ptr_user & (_BIG_ALLOCATION_ALIGNMENT - 1)) != 0)

  010f1	f6 c2 1f	 test	 dl, 31			; 0000001fH
  010f4	0f 85 e8 06 00
	00		 jne	 $_Invalid_parameter$3218

; 111  : 			{
; 112  : 			goto _Invalid_parameter;
; 113  : 			}
; 114  : 
; 115  : 		const uintptr_t _Ptr_ptr = _Ptr_user - sizeof(void *);
; 116  : 		const uintptr_t _Ptr_container =
; 117  : 			*reinterpret_cast<uintptr_t *>(_Ptr_ptr);

  010fa	8b 42 fc	 mov	 eax, DWORD PTR [edx-4]

; 118  : 
; 119  :  #ifdef _DEBUG
; 120  : 		// If the following asserts, it likely means that we are performing
; 121  : 		// an aligned delete on memory coming from an unaligned allocation.
; 122  : 		if (reinterpret_cast<uintptr_t *>(_Ptr_ptr)[-1] != _BIG_ALLOCATION_SENTINEL)
; 123  : 			{
; 124  : 			goto _Invalid_parameter;
; 125  : 			}
; 126  :  #endif /* _DEBUG */
; 127  : 
; 128  : 		// Extra paranoia on aligned allocation/deallocation
; 129  : 		if (_Ptr_container >= _Ptr_user)

  010fd	3b c2		 cmp	 eax, edx
  010ff	0f 83 dd 06 00
	00		 jae	 $_Invalid_parameter$3218

; 130  : 			{
; 131  : 			goto _Invalid_parameter;
; 132  : 			}
; 133  : 
; 134  :  #ifdef _DEBUG
; 135  : 		if (2 * sizeof(void *) > _Ptr_user - _Ptr_container)
; 136  :  #else /* _DEBUG */
; 137  : 		if (sizeof(void *) > _Ptr_user - _Ptr_container)

  01105	2b d0		 sub	 edx, eax
  01107	83 ea 04	 sub	 edx, 4
  0110a	83 fa 1f	 cmp	 edx, 31			; 0000001fH
  0110d	0f 87 cf 06 00
	00		 ja	 $_Invalid_parameter$3218

; 138  :  #endif /* _DEBUG */
; 139  : 			{
; 140  : 			goto _Invalid_parameter;
; 141  : 			}
; 142  : 
; 143  : 		if (_Ptr_user - _Ptr_container > _NON_USER_SIZE)
; 144  : 			{
; 145  : 			goto _Invalid_parameter;
; 146  : 			}
; 147  : 
; 148  : 		_Ptr = reinterpret_cast<void *>(_Ptr_container);

  01113	8b d0		 mov	 edx, eax
$LN2201@SprawdŸ_P:

; 149  : 		}
; 150  : 
; 151  : 	::operator delete(_Ptr);

  01115	52		 push	 edx
  01116	e8 00 00 00 00	 call	 ??3@YAXPAX@Z		; operator delete
  0111b	83 c4 04	 add	 esp, 4
$LN2198@SprawdŸ_P:
; File f:\users\krzysztof\documents\szko³a\2017-2018\informatyka\labolatorium\ruletka\ruletka\main.cpp

; 853  : 				if ((_access((G³os + "w" + numers.str() + ".wav").c_str(), 0)))

  0111e	c6 45 fc 2a	 mov	 BYTE PTR __$EHRec$[ebp+8], 42 ; 0000002aH
; File f:\program files (x86)\microsoft visual studio\2017\enterprise\vc\tools\msvc\14.11.25503\include\xstring

; 1617 : 		return (_BUF_SIZE <= _Myres);

  01122	8b 85 a0 fe ff
	ff		 mov	 eax, DWORD PTR $T175[ebp+20]

; 3717 : 		_My_data._Mysize = 0;

  01128	c7 85 cc fe ff
	ff 00 00 00 00	 mov	 DWORD PTR $T187[ebp+16], 0

; 3718 : 		_My_data._Myres = this->_BUF_SIZE - 1;

  01132	c7 85 d0 fe ff
	ff 0f 00 00 00	 mov	 DWORD PTR $T187[ebp+20], 15 ; 0000000fH
; File f:\program files (x86)\microsoft visual studio\2017\enterprise\vc\tools\msvc\14.11.25503\include\iosfwd

; 517  : 		_Left = _Right;

  0113c	c6 85 bc fe ff
	ff 00		 mov	 BYTE PTR $T187[ebp], 0
; File f:\program files (x86)\microsoft visual studio\2017\enterprise\vc\tools\msvc\14.11.25503\include\xstring

; 1617 : 		return (_BUF_SIZE <= _Myres);

  01143	83 f8 10	 cmp	 eax, 16			; 00000010H

; 3709 : 		if (_My_data._Large_string_engaged())

  01146	72 3b		 jb	 SHORT $LN2244@SprawdŸ_P
; File f:\program files (x86)\microsoft visual studio\2017\enterprise\vc\tools\msvc\14.11.25503\include\xmemory0

; 941  : 		_Deallocate(_Ptr, _Count, sizeof(_Ty));

  01148	8b 8d 8c fe ff
	ff		 mov	 ecx, DWORD PTR $T175[ebp]
; File f:\program files (x86)\microsoft visual studio\2017\enterprise\vc\tools\msvc\14.11.25503\include\xstring

; 3714 : 			_Al.deallocate(_Ptr, _My_data._Myres + 1);

  0114e	40		 inc	 eax
; File f:\program files (x86)\microsoft visual studio\2017\enterprise\vc\tools\msvc\14.11.25503\include\xmemory0

; 107  : 	if (_BIG_ALLOCATION_THRESHOLD <= _Count * _Sz)

  0114f	3d 00 10 00 00	 cmp	 eax, 4096		; 00001000H
  01154	72 24		 jb	 SHORT $LN2247@SprawdŸ_P

; 108  : 		{	// deallocate large block
; 109  : 		const uintptr_t _Ptr_user = reinterpret_cast<uintptr_t>(_Ptr);
; 110  : 		if ((_Ptr_user & (_BIG_ALLOCATION_ALIGNMENT - 1)) != 0)

  01156	f6 c1 1f	 test	 cl, 31			; 0000001fH
  01159	0f 85 83 06 00
	00		 jne	 $_Invalid_parameter$3218

; 111  : 			{
; 112  : 			goto _Invalid_parameter;
; 113  : 			}
; 114  : 
; 115  : 		const uintptr_t _Ptr_ptr = _Ptr_user - sizeof(void *);
; 116  : 		const uintptr_t _Ptr_container =
; 117  : 			*reinterpret_cast<uintptr_t *>(_Ptr_ptr);

  0115f	8b 41 fc	 mov	 eax, DWORD PTR [ecx-4]

; 118  : 
; 119  :  #ifdef _DEBUG
; 120  : 		// If the following asserts, it likely means that we are performing
; 121  : 		// an aligned delete on memory coming from an unaligned allocation.
; 122  : 		if (reinterpret_cast<uintptr_t *>(_Ptr_ptr)[-1] != _BIG_ALLOCATION_SENTINEL)
; 123  : 			{
; 124  : 			goto _Invalid_parameter;
; 125  : 			}
; 126  :  #endif /* _DEBUG */
; 127  : 
; 128  : 		// Extra paranoia on aligned allocation/deallocation
; 129  : 		if (_Ptr_container >= _Ptr_user)

  01162	3b c1		 cmp	 eax, ecx
  01164	0f 83 78 06 00
	00		 jae	 $_Invalid_parameter$3218

; 130  : 			{
; 131  : 			goto _Invalid_parameter;
; 132  : 			}
; 133  : 
; 134  :  #ifdef _DEBUG
; 135  : 		if (2 * sizeof(void *) > _Ptr_user - _Ptr_container)
; 136  :  #else /* _DEBUG */
; 137  : 		if (sizeof(void *) > _Ptr_user - _Ptr_container)

  0116a	2b c8		 sub	 ecx, eax
  0116c	83 e9 04	 sub	 ecx, 4
  0116f	83 f9 1f	 cmp	 ecx, 31			; 0000001fH
  01172	0f 87 6a 06 00
	00		 ja	 $_Invalid_parameter$3218

; 138  :  #endif /* _DEBUG */
; 139  : 			{
; 140  : 			goto _Invalid_parameter;
; 141  : 			}
; 142  : 
; 143  : 		if (_Ptr_user - _Ptr_container > _NON_USER_SIZE)
; 144  : 			{
; 145  : 			goto _Invalid_parameter;
; 146  : 			}
; 147  : 
; 148  : 		_Ptr = reinterpret_cast<void *>(_Ptr_container);

  01178	8b c8		 mov	 ecx, eax
$LN2247@SprawdŸ_P:

; 149  : 		}
; 150  : 
; 151  : 	::operator delete(_Ptr);

  0117a	51		 push	 ecx
  0117b	e8 00 00 00 00	 call	 ??3@YAXPAX@Z		; operator delete
  01180	83 c4 04	 add	 esp, 4
$LN2244@SprawdŸ_P:
; File f:\users\krzysztof\documents\szko³a\2017-2018\informatyka\labolatorium\ruletka\ruletka\main.cpp

; 853  : 				if ((_access((G³os + "w" + numers.str() + ".wav").c_str(), 0)))

  01183	c6 45 fc 29	 mov	 BYTE PTR __$EHRec$[ebp+8], 41 ; 00000029H
; File f:\program files (x86)\microsoft visual studio\2017\enterprise\vc\tools\msvc\14.11.25503\include\xstring

; 1617 : 		return (_BUF_SIZE <= _Myres);

  01187	8b 85 b8 fe ff
	ff		 mov	 eax, DWORD PTR $T174[ebp+20]

; 3717 : 		_My_data._Mysize = 0;

  0118d	c7 85 9c fe ff
	ff 00 00 00 00	 mov	 DWORD PTR $T175[ebp+16], 0

; 3718 : 		_My_data._Myres = this->_BUF_SIZE - 1;

  01197	c7 85 a0 fe ff
	ff 0f 00 00 00	 mov	 DWORD PTR $T175[ebp+20], 15 ; 0000000fH
; File f:\program files (x86)\microsoft visual studio\2017\enterprise\vc\tools\msvc\14.11.25503\include\iosfwd

; 517  : 		_Left = _Right;

  011a1	c6 85 8c fe ff
	ff 00		 mov	 BYTE PTR $T175[ebp], 0
; File f:\program files (x86)\microsoft visual studio\2017\enterprise\vc\tools\msvc\14.11.25503\include\xstring

; 1617 : 		return (_BUF_SIZE <= _Myres);

  011a8	83 f8 10	 cmp	 eax, 16			; 00000010H

; 3709 : 		if (_My_data._Large_string_engaged())

  011ab	72 3b		 jb	 SHORT $LN2290@SprawdŸ_P
; File f:\program files (x86)\microsoft visual studio\2017\enterprise\vc\tools\msvc\14.11.25503\include\xmemory0

; 941  : 		_Deallocate(_Ptr, _Count, sizeof(_Ty));

  011ad	8b 8d a4 fe ff
	ff		 mov	 ecx, DWORD PTR $T174[ebp]
; File f:\program files (x86)\microsoft visual studio\2017\enterprise\vc\tools\msvc\14.11.25503\include\xstring

; 3714 : 			_Al.deallocate(_Ptr, _My_data._Myres + 1);

  011b3	40		 inc	 eax
; File f:\program files (x86)\microsoft visual studio\2017\enterprise\vc\tools\msvc\14.11.25503\include\xmemory0

; 107  : 	if (_BIG_ALLOCATION_THRESHOLD <= _Count * _Sz)

  011b4	3d 00 10 00 00	 cmp	 eax, 4096		; 00001000H
  011b9	72 24		 jb	 SHORT $LN2293@SprawdŸ_P

; 108  : 		{	// deallocate large block
; 109  : 		const uintptr_t _Ptr_user = reinterpret_cast<uintptr_t>(_Ptr);
; 110  : 		if ((_Ptr_user & (_BIG_ALLOCATION_ALIGNMENT - 1)) != 0)

  011bb	f6 c1 1f	 test	 cl, 31			; 0000001fH
  011be	0f 85 1e 06 00
	00		 jne	 $_Invalid_parameter$3218

; 111  : 			{
; 112  : 			goto _Invalid_parameter;
; 113  : 			}
; 114  : 
; 115  : 		const uintptr_t _Ptr_ptr = _Ptr_user - sizeof(void *);
; 116  : 		const uintptr_t _Ptr_container =
; 117  : 			*reinterpret_cast<uintptr_t *>(_Ptr_ptr);

  011c4	8b 41 fc	 mov	 eax, DWORD PTR [ecx-4]

; 118  : 
; 119  :  #ifdef _DEBUG
; 120  : 		// If the following asserts, it likely means that we are performing
; 121  : 		// an aligned delete on memory coming from an unaligned allocation.
; 122  : 		if (reinterpret_cast<uintptr_t *>(_Ptr_ptr)[-1] != _BIG_ALLOCATION_SENTINEL)
; 123  : 			{
; 124  : 			goto _Invalid_parameter;
; 125  : 			}
; 126  :  #endif /* _DEBUG */
; 127  : 
; 128  : 		// Extra paranoia on aligned allocation/deallocation
; 129  : 		if (_Ptr_container >= _Ptr_user)

  011c7	3b c1		 cmp	 eax, ecx
  011c9	0f 83 13 06 00
	00		 jae	 $_Invalid_parameter$3218

; 130  : 			{
; 131  : 			goto _Invalid_parameter;
; 132  : 			}
; 133  : 
; 134  :  #ifdef _DEBUG
; 135  : 		if (2 * sizeof(void *) > _Ptr_user - _Ptr_container)
; 136  :  #else /* _DEBUG */
; 137  : 		if (sizeof(void *) > _Ptr_user - _Ptr_container)

  011cf	2b c8		 sub	 ecx, eax
  011d1	83 e9 04	 sub	 ecx, 4
  011d4	83 f9 1f	 cmp	 ecx, 31			; 0000001fH
  011d7	0f 87 05 06 00
	00		 ja	 $_Invalid_parameter$3218

; 138  :  #endif /* _DEBUG */
; 139  : 			{
; 140  : 			goto _Invalid_parameter;
; 141  : 			}
; 142  : 
; 143  : 		if (_Ptr_user - _Ptr_container > _NON_USER_SIZE)
; 144  : 			{
; 145  : 			goto _Invalid_parameter;
; 146  : 			}
; 147  : 
; 148  : 		_Ptr = reinterpret_cast<void *>(_Ptr_container);

  011dd	8b c8		 mov	 ecx, eax
$LN2293@SprawdŸ_P:

; 149  : 		}
; 150  : 
; 151  : 	::operator delete(_Ptr);

  011df	51		 push	 ecx
  011e0	e8 00 00 00 00	 call	 ??3@YAXPAX@Z		; operator delete
  011e5	83 c4 04	 add	 esp, 4
$LN2290@SprawdŸ_P:
; File f:\users\krzysztof\documents\szko³a\2017-2018\informatyka\labolatorium\ruletka\ruletka\main.cpp

; 853  : 				if ((_access((G³os + "w" + numers.str() + ".wav").c_str(), 0)))

  011e8	c6 45 fc 28	 mov	 BYTE PTR __$EHRec$[ebp+8], 40 ; 00000028H
; File f:\program files (x86)\microsoft visual studio\2017\enterprise\vc\tools\msvc\14.11.25503\include\xstring

; 1617 : 		return (_BUF_SIZE <= _Myres);

  011ec	8b 85 e8 fe ff
	ff		 mov	 eax, DWORD PTR $T173[ebp+20]

; 3717 : 		_My_data._Mysize = 0;

  011f2	c7 85 b4 fe ff
	ff 00 00 00 00	 mov	 DWORD PTR $T174[ebp+16], 0

; 3718 : 		_My_data._Myres = this->_BUF_SIZE - 1;

  011fc	c7 85 b8 fe ff
	ff 0f 00 00 00	 mov	 DWORD PTR $T174[ebp+20], 15 ; 0000000fH
; File f:\program files (x86)\microsoft visual studio\2017\enterprise\vc\tools\msvc\14.11.25503\include\iosfwd

; 517  : 		_Left = _Right;

  01206	c6 85 a4 fe ff
	ff 00		 mov	 BYTE PTR $T174[ebp], 0
; File f:\program files (x86)\microsoft visual studio\2017\enterprise\vc\tools\msvc\14.11.25503\include\xstring

; 1617 : 		return (_BUF_SIZE <= _Myres);

  0120d	83 f8 10	 cmp	 eax, 16			; 00000010H

; 3709 : 		if (_My_data._Large_string_engaged())

  01210	72 3b		 jb	 SHORT $LN2336@SprawdŸ_P
; File f:\program files (x86)\microsoft visual studio\2017\enterprise\vc\tools\msvc\14.11.25503\include\xmemory0

; 941  : 		_Deallocate(_Ptr, _Count, sizeof(_Ty));

  01212	8b 8d d4 fe ff
	ff		 mov	 ecx, DWORD PTR $T173[ebp]
; File f:\program files (x86)\microsoft visual studio\2017\enterprise\vc\tools\msvc\14.11.25503\include\xstring

; 3714 : 			_Al.deallocate(_Ptr, _My_data._Myres + 1);

  01218	40		 inc	 eax
; File f:\program files (x86)\microsoft visual studio\2017\enterprise\vc\tools\msvc\14.11.25503\include\xmemory0

; 107  : 	if (_BIG_ALLOCATION_THRESHOLD <= _Count * _Sz)

  01219	3d 00 10 00 00	 cmp	 eax, 4096		; 00001000H
  0121e	72 24		 jb	 SHORT $LN2339@SprawdŸ_P

; 108  : 		{	// deallocate large block
; 109  : 		const uintptr_t _Ptr_user = reinterpret_cast<uintptr_t>(_Ptr);
; 110  : 		if ((_Ptr_user & (_BIG_ALLOCATION_ALIGNMENT - 1)) != 0)

  01220	f6 c1 1f	 test	 cl, 31			; 0000001fH
  01223	0f 85 b9 05 00
	00		 jne	 $_Invalid_parameter$3218

; 111  : 			{
; 112  : 			goto _Invalid_parameter;
; 113  : 			}
; 114  : 
; 115  : 		const uintptr_t _Ptr_ptr = _Ptr_user - sizeof(void *);
; 116  : 		const uintptr_t _Ptr_container =
; 117  : 			*reinterpret_cast<uintptr_t *>(_Ptr_ptr);

  01229	8b 41 fc	 mov	 eax, DWORD PTR [ecx-4]

; 118  : 
; 119  :  #ifdef _DEBUG
; 120  : 		// If the following asserts, it likely means that we are performing
; 121  : 		// an aligned delete on memory coming from an unaligned allocation.
; 122  : 		if (reinterpret_cast<uintptr_t *>(_Ptr_ptr)[-1] != _BIG_ALLOCATION_SENTINEL)
; 123  : 			{
; 124  : 			goto _Invalid_parameter;
; 125  : 			}
; 126  :  #endif /* _DEBUG */
; 127  : 
; 128  : 		// Extra paranoia on aligned allocation/deallocation
; 129  : 		if (_Ptr_container >= _Ptr_user)

  0122c	3b c1		 cmp	 eax, ecx
  0122e	0f 83 ae 05 00
	00		 jae	 $_Invalid_parameter$3218

; 130  : 			{
; 131  : 			goto _Invalid_parameter;
; 132  : 			}
; 133  : 
; 134  :  #ifdef _DEBUG
; 135  : 		if (2 * sizeof(void *) > _Ptr_user - _Ptr_container)
; 136  :  #else /* _DEBUG */
; 137  : 		if (sizeof(void *) > _Ptr_user - _Ptr_container)

  01234	2b c8		 sub	 ecx, eax
  01236	83 e9 04	 sub	 ecx, 4
  01239	83 f9 1f	 cmp	 ecx, 31			; 0000001fH
  0123c	0f 87 a0 05 00
	00		 ja	 $_Invalid_parameter$3218

; 138  :  #endif /* _DEBUG */
; 139  : 			{
; 140  : 			goto _Invalid_parameter;
; 141  : 			}
; 142  : 
; 143  : 		if (_Ptr_user - _Ptr_container > _NON_USER_SIZE)
; 144  : 			{
; 145  : 			goto _Invalid_parameter;
; 146  : 			}
; 147  : 
; 148  : 		_Ptr = reinterpret_cast<void *>(_Ptr_container);

  01242	8b c8		 mov	 ecx, eax
$LN2339@SprawdŸ_P:

; 149  : 		}
; 150  : 
; 151  : 	::operator delete(_Ptr);

  01244	51		 push	 ecx
  01245	e8 00 00 00 00	 call	 ??3@YAXPAX@Z		; operator delete
  0124a	83 c4 04	 add	 esp, 4
$LN2336@SprawdŸ_P:
; File f:\users\krzysztof\documents\szko³a\2017-2018\informatyka\labolatorium\ruletka\ruletka\main.cpp

; 853  : 				if ((_access((G³os + "w" + numers.str() + ".wav").c_str(), 0)))

  0124d	83 bd 88 fe ff
	ff 00		 cmp	 DWORD PTR $T280[ebp], 0
  01254	0f 84 d9 02 00
	00		 je	 $LN67@SprawdŸ_P

; 854  : 				{
; 855  : 					if (!czy_pobierano) cout << "Rozpoczynam pobieranie brakuj¹cych plików g³osów" << endl;

  0125a	80 bd f3 fe ff
	ff 00		 cmp	 BYTE PTR _czy_pobierano$1$[ebp], 0
  01261	75 1d		 jne	 SHORT $LN66@SprawdŸ_P
  01263	8b 0d 00 00 00
	00		 mov	 ecx, DWORD PTR __imp_?cout@std@@3V?$basic_ostream@DU?$char_traits@D@std@@@1@A
  01269	ba 00 00 00 00	 mov	 edx, OFFSET ??_C@_0DB@JAANGCNE@Rozpoczynam?5pobieranie?5brakuj?$LJcy@
  0126e	68 00 00 00 00	 push	 OFFSET ??$endl@DU?$char_traits@D@std@@@std@@YAAAV?$basic_ostream@DU?$char_traits@D@std@@@0@AAV10@@Z ; std::endl<char,std::char_traits<char> >
  01273	e8 00 00 00 00	 call	 ??$?6U?$char_traits@D@std@@@std@@YAAAV?$basic_ostream@DU?$char_traits@D@std@@@0@AAV10@PBD@Z ; std::operator<<<std::char_traits<char> >
  01278	8b c8		 mov	 ecx, eax
  0127a	ff 15 00 00 00
	00		 call	 DWORD PTR __imp_??6?$basic_ostream@DU?$char_traits@D@std@@@std@@QAEAAV01@P6AAAV01@AAV01@@Z@Z
$LN66@SprawdŸ_P:
; File f:\program files (x86)\microsoft visual studio\2017\enterprise\vc\tools\msvc\14.11.25503\include\sstream

; 647  : 		return (_Stringbuffer.str());

  01280	8d 85 8c fe ff
	ff		 lea	 eax, DWORD PTR $T216[ebp]
; File f:\users\krzysztof\documents\szko³a\2017-2018\informatyka\labolatorium\ruletka\ruletka\main.cpp

; 856  : 					czy_pobierano = true;

  01286	c6 85 f3 fe ff
	ff 01		 mov	 BYTE PTR _czy_pobierano$1$[ebp], 1
; File f:\program files (x86)\microsoft visual studio\2017\enterprise\vc\tools\msvc\14.11.25503\include\sstream

; 647  : 		return (_Stringbuffer.str());

  0128d	50		 push	 eax
  0128e	8d 8d 24 ff ff
	ff		 lea	 ecx, DWORD PTR _numers$283[ebp+24]
  01294	e8 00 00 00 00	 call	 ?str@?$basic_stringbuf@DU?$char_traits@D@std@@V?$allocator@D@2@@std@@QBE?AV?$basic_string@DU?$char_traits@D@std@@V?$allocator@D@2@@2@XZ ; std::basic_stringbuf<char,std::char_traits<char>,std::allocator<char> >::str
; File f:\users\krzysztof\documents\szko³a\2017-2018\informatyka\labolatorium\ruletka\ruletka\main.cpp

; 857  : 					auto res = URLDownloadToFileA(nullptr, (link + g³os2 + "w" + numers.str() + ".wav").c_str(), ("G³os/" + g³os2 + "w" + numers.str() + ".wav").c_str(), 0, nullptr);

  01299	8d 45 d4	 lea	 eax, DWORD PTR _g³os2$286[ebp]
  0129c	c6 45 fc 2c	 mov	 BYTE PTR __$EHRec$[ebp+8], 44 ; 0000002cH
  012a0	50		 push	 eax
  012a1	8d 8d 18 fe ff
	ff		 lea	 ecx, DWORD PTR $T217[ebp]
  012a7	e8 00 00 00 00	 call	 ??$?HDU?$char_traits@D@std@@V?$allocator@D@1@@std@@YA?AV?$basic_string@DU?$char_traits@D@std@@V?$allocator@D@2@@0@QBDABV10@@Z ; std::operator+<char,std::char_traits<char>,std::allocator<char> >
  012ac	83 c4 04	 add	 esp, 4
  012af	8b f8		 mov	 edi, eax
  012b1	c6 45 fc 2d	 mov	 BYTE PTR __$EHRec$[ebp+8], 45 ; 0000002dH
; File f:\program files (x86)\microsoft visual studio\2017\enterprise\vc\tools\msvc\14.11.25503\include\xstring

; 2351 : 		if (_Count <= _My_data._Myres - _Old_size)

  012b5	8b 57 14	 mov	 edx, DWORD PTR [edi+20]
  012b8	8b c2		 mov	 eax, edx
  012ba	8b 4f 10	 mov	 ecx, DWORD PTR [edi+16]
  012bd	2b c1		 sub	 eax, ecx
  012bf	83 f8 01	 cmp	 eax, 1
  012c2	72 29		 jb	 SHORT $LN2672@SprawdŸ_P

; 2352 : 			{
; 2353 : 			_My_data._Mysize = _Old_size + _Count;

  012c4	8d 41 01	 lea	 eax, DWORD PTR [ecx+1]
  012c7	89 47 10	 mov	 DWORD PTR [edi+16], eax

; 1595 : 		value_type * _Result = _Bx._Buf;

  012ca	8b c7		 mov	 eax, edi

; 1617 : 		return (_BUF_SIZE <= _Myres);

  012cc	83 fa 10	 cmp	 edx, 16			; 00000010H

; 1596 : 		if (_Large_string_engaged())

  012cf	72 02		 jb	 SHORT $LN2681@SprawdŸ_P
; File f:\program files (x86)\microsoft visual studio\2017\enterprise\vc\tools\msvc\14.11.25503\include\xstddef

; 265  : 	return (_Ptr);

  012d1	8b 07		 mov	 eax, DWORD PTR [edi]
$LN2681@SprawdŸ_P:
; File f:\program files (x86)\microsoft visual studio\2017\enterprise\vc\tools\msvc\14.11.25503\include\iosfwd

; 506  : 		return ((_Elem *)_CSTD memmove(_First1, _First2, _Count));

  012d3	6a 01		 push	 1
; File f:\program files (x86)\microsoft visual studio\2017\enterprise\vc\tools\msvc\14.11.25503\include\xstring

; 2355 : 			_Traits::move(_Old_ptr + _Old_size, _Ptr, _Count);

  012d5	8d 34 01	 lea	 esi, DWORD PTR [ecx+eax]
; File f:\program files (x86)\microsoft visual studio\2017\enterprise\vc\tools\msvc\14.11.25503\include\iosfwd

; 506  : 		return ((_Elem *)_CSTD memmove(_First1, _First2, _Count));

  012d8	68 00 00 00 00	 push	 OFFSET ??_C@_01NOFIACDB@w?$AA@
  012dd	56		 push	 esi
  012de	ff 15 00 00 00
	00		 call	 DWORD PTR __imp__memmove
  012e4	83 c4 0c	 add	 esp, 12			; 0000000cH

; 517  : 		_Left = _Right;

  012e7	c6 46 01 00	 mov	 BYTE PTR [esi+1], 0
; File f:\program files (x86)\microsoft visual studio\2017\enterprise\vc\tools\msvc\14.11.25503\include\xstring

; 2357 : 			return (*this);

  012eb	eb 1f		 jmp	 SHORT $LN2671@SprawdŸ_P
$LN2672@SprawdŸ_P:

; 2358 : 			}
; 2359 : 
; 2360 : 		return (_Reallocate_grow_by(_Count,

  012ed	6a 01		 push	 1
  012ef	68 00 00 00 00	 push	 OFFSET ??_C@_01NOFIACDB@w?$AA@
  012f4	c6 85 7c fe ff
	ff 00		 mov	 BYTE PTR $T223[ebp], 0
  012fb	8b cf		 mov	 ecx, edi
  012fd	ff b5 7c fe ff
	ff		 push	 DWORD PTR $T223[ebp]
  01303	6a 01		 push	 1
  01305	e8 00 00 00 00	 call	 ??$_Reallocate_grow_by@V<lambda_ab246b20b9526e2ef7792587e4298a77>@@PBDI@?$basic_string@DU?$char_traits@D@std@@V?$allocator@D@2@@std@@QAEAAV01@IV<lambda_ab246b20b9526e2ef7792587e4298a77>@@PBDI@Z ; std::basic_string<char,std::char_traits<char>,std::allocator<char> >::_Reallocate_grow_by<<lambda_ab246b20b9526e2ef7792587e4298a77>,char const *,unsigned int>
  0130a	8b f8		 mov	 edi, eax
$LN2671@SprawdŸ_P:

; 1576 : 		_Mysize(0),

  0130c	c7 85 b4 fe ff
	ff 00 00 00 00	 mov	 DWORD PTR $T229[ebp+16], 0

; 1577 : 		_Myres(0)

  01316	c7 85 b8 fe ff
	ff 00 00 00 00	 mov	 DWORD PTR $T229[ebp+20], 0

; 2152 : 		_CSTD memcpy(_My_data_mem, _Right_data_mem, _Memcpy_move_size);

  01320	0f 10 07	 movups	 xmm0, XMMWORD PTR [edi]
  01323	0f 11 85 a4 fe
	ff ff		 movups	 XMMWORD PTR $T229[ebp], xmm0
  0132a	f3 0f 7e 47 10	 movq	 xmm0, QWORD PTR [edi+16]
  0132f	66 0f d6 85 b4
	fe ff ff	 movq	 QWORD PTR $T229[ebp+16], xmm0

; 3698 : 		_My_data._Mysize = 0;

  01337	c7 47 10 00 00
	00 00		 mov	 DWORD PTR [edi+16], 0

; 3699 : 		_My_data._Myres = this->_BUF_SIZE - 1;

  0133e	c7 47 14 0f 00
	00 00		 mov	 DWORD PTR [edi+20], 15	; 0000000fH
; File f:\program files (x86)\microsoft visual studio\2017\enterprise\vc\tools\msvc\14.11.25503\include\iosfwd

; 517  : 		_Left = _Right;

  01345	c6 07 00	 mov	 BYTE PTR [edi], 0
; File f:\users\krzysztof\documents\szko³a\2017-2018\informatyka\labolatorium\ruletka\ruletka\main.cpp

; 857  : 					auto res = URLDownloadToFileA(nullptr, (link + g³os2 + "w" + numers.str() + ".wav").c_str(), ("G³os/" + g³os2 + "w" + numers.str() + ".wav").c_str(), 0, nullptr);

  01348	8d 85 8c fe ff
	ff		 lea	 eax, DWORD PTR $T216[ebp]
  0134e	c6 45 fc 2e	 mov	 BYTE PTR __$EHRec$[ebp+8], 46 ; 0000002eH
  01352	50		 push	 eax
  01353	8d 95 a4 fe ff
	ff		 lea	 edx, DWORD PTR $T229[ebp]
  01359	8d 8d 00 fe ff
	ff		 lea	 ecx, DWORD PTR $T237[ebp]
  0135f	e8 00 00 00 00	 call	 ??$?HDU?$char_traits@D@std@@V?$allocator@D@1@@std@@YA?AV?$basic_string@DU?$char_traits@D@std@@V?$allocator@D@2@@0@$$QAV10@0@Z ; std::operator+<char,std::char_traits<char>,std::allocator<char> >
  01364	83 c4 04	 add	 esp, 4
  01367	8b f0		 mov	 esi, eax
  01369	c6 45 fc 2f	 mov	 BYTE PTR __$EHRec$[ebp+8], 47 ; 0000002fH
; File f:\program files (x86)\microsoft visual studio\2017\enterprise\vc\tools\msvc\14.11.25503\include\xstring

; 2351 : 		if (_Count <= _My_data._Myres - _Old_size)

  0136d	8b 4e 14	 mov	 ecx, DWORD PTR [esi+20]
  01370	8b c1		 mov	 eax, ecx
  01372	8b 7e 10	 mov	 edi, DWORD PTR [esi+16]
  01375	2b c7		 sub	 eax, edi
  01377	83 f8 04	 cmp	 eax, 4
  0137a	72 32		 jb	 SHORT $LN2766@SprawdŸ_P

; 1595 : 		value_type * _Result = _Bx._Buf;

  0137c	89 75 ec	 mov	 DWORD PTR __Result$1$[ebp], esi

; 2353 : 			_My_data._Mysize = _Old_size + _Count;

  0137f	8d 47 04	 lea	 eax, DWORD PTR [edi+4]
  01382	89 46 10	 mov	 DWORD PTR [esi+16], eax

; 1595 : 		value_type * _Result = _Bx._Buf;

  01385	8b c6		 mov	 eax, esi

; 1617 : 		return (_BUF_SIZE <= _Myres);

  01387	83 f9 10	 cmp	 ecx, 16			; 00000010H

; 1596 : 		if (_Large_string_engaged())

  0138a	72 05		 jb	 SHORT $LN2775@SprawdŸ_P
; File f:\program files (x86)\microsoft visual studio\2017\enterprise\vc\tools\msvc\14.11.25503\include\xstddef

; 265  : 	return (_Ptr);

  0138c	8b 06		 mov	 eax, DWORD PTR [esi]
  0138e	89 45 ec	 mov	 DWORD PTR __Result$1$[ebp], eax
$LN2775@SprawdŸ_P:
; File f:\program files (x86)\microsoft visual studio\2017\enterprise\vc\tools\msvc\14.11.25503\include\iosfwd

; 506  : 		return ((_Elem *)_CSTD memmove(_First1, _First2, _Count));

  01391	6a 04		 push	 4
; File f:\program files (x86)\microsoft visual studio\2017\enterprise\vc\tools\msvc\14.11.25503\include\xstring

; 2355 : 			_Traits::move(_Old_ptr + _Old_size, _Ptr, _Count);

  01393	03 c7		 add	 eax, edi
; File f:\program files (x86)\microsoft visual studio\2017\enterprise\vc\tools\msvc\14.11.25503\include\iosfwd

; 506  : 		return ((_Elem *)_CSTD memmove(_First1, _First2, _Count));

  01395	68 00 00 00 00	 push	 OFFSET ??_C@_04IBLEHOMF@?4wav?$AA@
  0139a	50		 push	 eax
  0139b	ff 15 00 00 00
	00		 call	 DWORD PTR __imp__memmove

; 517  : 		_Left = _Right;

  013a1	8b 45 ec	 mov	 eax, DWORD PTR __Result$1$[ebp]

; 506  : 		return ((_Elem *)_CSTD memmove(_First1, _First2, _Count));

  013a4	83 c4 0c	 add	 esp, 12			; 0000000cH

; 517  : 		_Left = _Right;

  013a7	c6 44 07 04 00	 mov	 BYTE PTR [edi+eax+4], 0
; File f:\program files (x86)\microsoft visual studio\2017\enterprise\vc\tools\msvc\14.11.25503\include\xstring

; 2357 : 			return (*this);

  013ac	eb 1f		 jmp	 SHORT $LN2765@SprawdŸ_P
$LN2766@SprawdŸ_P:

; 2358 : 			}
; 2359 : 
; 2360 : 		return (_Reallocate_grow_by(_Count,

  013ae	6a 04		 push	 4
  013b0	68 00 00 00 00	 push	 OFFSET ??_C@_04IBLEHOMF@?4wav?$AA@
  013b5	c6 85 78 fe ff
	ff 00		 mov	 BYTE PTR $T243[ebp], 0
  013bc	8b ce		 mov	 ecx, esi
  013be	ff b5 78 fe ff
	ff		 push	 DWORD PTR $T243[ebp]
  013c4	6a 04		 push	 4
  013c6	e8 00 00 00 00	 call	 ??$_Reallocate_grow_by@V<lambda_ab246b20b9526e2ef7792587e4298a77>@@PBDI@?$basic_string@DU?$char_traits@D@std@@V?$allocator@D@2@@std@@QAEAAV01@IV<lambda_ab246b20b9526e2ef7792587e4298a77>@@PBDI@Z ; std::basic_string<char,std::char_traits<char>,std::allocator<char> >::_Reallocate_grow_by<<lambda_ab246b20b9526e2ef7792587e4298a77>,char const *,unsigned int>
  013cb	8b f0		 mov	 esi, eax
$LN2765@SprawdŸ_P:

; 1576 : 		_Mysize(0),

  013cd	c7 85 cc fe ff
	ff 00 00 00 00	 mov	 DWORD PTR $T249[ebp+16], 0

; 1577 : 		_Myres(0)

  013d7	c7 85 d0 fe ff
	ff 00 00 00 00	 mov	 DWORD PTR $T249[ebp+20], 0

; 2152 : 		_CSTD memcpy(_My_data_mem, _Right_data_mem, _Memcpy_move_size);

  013e1	0f 10 06	 movups	 xmm0, XMMWORD PTR [esi]
  013e4	0f 11 85 bc fe
	ff ff		 movups	 XMMWORD PTR $T249[ebp], xmm0
  013eb	f3 0f 7e 46 10	 movq	 xmm0, QWORD PTR [esi+16]
  013f0	66 0f d6 85 cc
	fe ff ff	 movq	 QWORD PTR $T249[ebp+16], xmm0

; 3698 : 		_My_data._Mysize = 0;

  013f8	c7 46 10 00 00
	00 00		 mov	 DWORD PTR [esi+16], 0

; 3699 : 		_My_data._Myres = this->_BUF_SIZE - 1;

  013ff	c7 46 14 0f 00
	00 00		 mov	 DWORD PTR [esi+20], 15	; 0000000fH
; File f:\program files (x86)\microsoft visual studio\2017\enterprise\vc\tools\msvc\14.11.25503\include\iosfwd

; 517  : 		_Left = _Right;

  01406	c6 06 00	 mov	 BYTE PTR [esi], 0
; File f:\program files (x86)\microsoft visual studio\2017\enterprise\vc\tools\msvc\14.11.25503\include\sstream

; 647  : 		return (_Stringbuffer.str());

  01409	8d 85 d4 fe ff
	ff		 lea	 eax, DWORD PTR $T258[ebp]
; File f:\users\krzysztof\documents\szko³a\2017-2018\informatyka\labolatorium\ruletka\ruletka\main.cpp

; 857  : 					auto res = URLDownloadToFileA(nullptr, (link + g³os2 + "w" + numers.str() + ".wav").c_str(), ("G³os/" + g³os2 + "w" + numers.str() + ".wav").c_str(), 0, nullptr);

  0140f	c6 45 fc 30	 mov	 BYTE PTR __$EHRec$[ebp+8], 48 ; 00000030H
; File f:\program files (x86)\microsoft visual studio\2017\enterprise\vc\tools\msvc\14.11.25503\include\sstream

; 647  : 		return (_Stringbuffer.str());

  01413	50		 push	 eax
  01414	8d 8d 24 ff ff
	ff		 lea	 ecx, DWORD PTR _numers$283[ebp+24]
  0141a	e8 00 00 00 00	 call	 ?str@?$basic_stringbuf@DU?$char_traits@D@std@@V?$allocator@D@2@@std@@QBE?AV?$basic_string@DU?$char_traits@D@std@@V?$allocator@D@2@@2@XZ ; std::basic_stringbuf<char,std::char_traits<char>,std::allocator<char> >::str
  0141f	8b bd 84 fe ff
	ff		 mov	 edi, DWORD PTR $T279[ebp]
  01425	81 cf 00 e8 00
	00		 or	 edi, 59392		; 0000e800H
; File f:\users\krzysztof\documents\szko³a\2017-2018\informatyka\labolatorium\ruletka\ruletka\main.cpp

; 857  : 					auto res = URLDownloadToFileA(nullptr, (link + g³os2 + "w" + numers.str() + ".wav").c_str(), ("G³os/" + g³os2 + "w" + numers.str() + ".wav").c_str(), 0, nullptr);

  0142b	8d 45 d4	 lea	 eax, DWORD PTR _g³os2$286[ebp]
  0142e	c6 45 fc 31	 mov	 BYTE PTR __$EHRec$[ebp+8], 49 ; 00000031H
  01432	50		 push	 eax
  01433	8d 55 bc	 lea	 edx, DWORD PTR _link$285[ebp]
  01436	8d 8d e8 fd ff
	ff		 lea	 ecx, DWORD PTR $T259[ebp]
  0143c	e8 00 00 00 00	 call	 ??$?HDU?$char_traits@D@std@@V?$allocator@D@1@@std@@YA?AV?$basic_string@DU?$char_traits@D@std@@V?$allocator@D@2@@0@ABV10@0@Z ; std::operator+<char,std::char_traits<char>,std::allocator<char> >
  01441	68 00 00 00 00	 push	 OFFSET ??_C@_01NOFIACDB@w?$AA@
  01446	8b d0		 mov	 edx, eax
  01448	c6 45 fc 32	 mov	 BYTE PTR __$EHRec$[ebp+8], 50 ; 00000032H
  0144c	8d 8d 60 fe ff
	ff		 lea	 ecx, DWORD PTR $T260[ebp]
  01452	e8 00 00 00 00	 call	 ??$?HDU?$char_traits@D@std@@V?$allocator@D@1@@std@@YA?AV?$basic_string@DU?$char_traits@D@std@@V?$allocator@D@2@@0@$$QAV10@QBD@Z ; std::operator+<char,std::char_traits<char>,std::allocator<char> >
  01457	8d 8d d4 fe ff
	ff		 lea	 ecx, DWORD PTR $T258[ebp]
  0145d	c6 45 fc 33	 mov	 BYTE PTR __$EHRec$[ebp+8], 51 ; 00000033H
  01461	51		 push	 ecx
  01462	8b d0		 mov	 edx, eax
  01464	8d 8d 48 fe ff
	ff		 lea	 ecx, DWORD PTR $T261[ebp]
  0146a	e8 00 00 00 00	 call	 ??$?HDU?$char_traits@D@std@@V?$allocator@D@1@@std@@YA?AV?$basic_string@DU?$char_traits@D@std@@V?$allocator@D@2@@0@$$QAV10@0@Z ; std::operator+<char,std::char_traits<char>,std::allocator<char> >
  0146f	68 00 00 00 00	 push	 OFFSET ??_C@_04IBLEHOMF@?4wav?$AA@
  01474	8b d0		 mov	 edx, eax
  01476	c6 45 fc 34	 mov	 BYTE PTR __$EHRec$[ebp+8], 52 ; 00000034H
  0147a	8d 8d 30 fe ff
	ff		 lea	 ecx, DWORD PTR $T262[ebp]
  01480	e8 00 00 00 00	 call	 ??$?HDU?$char_traits@D@std@@V?$allocator@D@1@@std@@YA?AV?$basic_string@DU?$char_traits@D@std@@V?$allocator@D@2@@0@$$QAV10@QBD@Z ; std::operator+<char,std::char_traits<char>,std::allocator<char> >
  01485	83 c4 10	 add	 esp, 16			; 00000010H
; File f:\program files (x86)\microsoft visual studio\2017\enterprise\vc\tools\msvc\14.11.25503\include\xstring

; 1606 : 		const value_type * _Result = _Bx._Buf;

  01488	8d 8d bc fe ff
	ff		 lea	 ecx, DWORD PTR $T249[ebp]

; 1617 : 		return (_BUF_SIZE <= _Myres);

  0148e	83 bd d0 fe ff
	ff 10		 cmp	 DWORD PTR $T249[ebp+20], 16 ; 00000010H

; 1607 : 		if (_Large_string_engaged())

  01495	0f 43 8d bc fe
	ff ff		 cmovae	 ecx, DWORD PTR $T249[ebp]
; File f:\users\krzysztof\documents\szko³a\2017-2018\informatyka\labolatorium\ruletka\ruletka\main.cpp

; 857  : 					auto res = URLDownloadToFileA(nullptr, (link + g³os2 + "w" + numers.str() + ".wav").c_str(), ("G³os/" + g³os2 + "w" + numers.str() + ".wav").c_str(), 0, nullptr);

  0149c	6a 00		 push	 0
  0149e	6a 00		 push	 0
  014a0	51		 push	 ecx
  014a1	8b c8		 mov	 ecx, eax
  014a3	e8 00 00 00 00	 call	 ?c_str@?$basic_string@DU?$char_traits@D@std@@V?$allocator@D@2@@std@@QBEPBDXZ ; std::basic_string<char,std::char_traits<char>,std::allocator<char> >::c_str
  014a8	50		 push	 eax
  014a9	6a 00		 push	 0
  014ab	ff 15 00 00 00
	00		 call	 DWORD PTR __imp__URLDownloadToFileA@20
  014b1	8d 8d 30 fe ff
	ff		 lea	 ecx, DWORD PTR $T262[ebp]
  014b7	8b f0		 mov	 esi, eax
  014b9	e8 00 00 00 00	 call	 ??1?$basic_string@DU?$char_traits@D@std@@V?$allocator@D@2@@std@@QAE@XZ ; std::basic_string<char,std::char_traits<char>,std::allocator<char> >::~basic_string<char,std::char_traits<char>,std::allocator<char> >
  014be	8d 8d 48 fe ff
	ff		 lea	 ecx, DWORD PTR $T261[ebp]
  014c4	e8 00 00 00 00	 call	 ??1?$basic_string@DU?$char_traits@D@std@@V?$allocator@D@2@@std@@QAE@XZ ; std::basic_string<char,std::char_traits<char>,std::allocator<char> >::~basic_string<char,std::char_traits<char>,std::allocator<char> >
  014c9	8d 8d 60 fe ff
	ff		 lea	 ecx, DWORD PTR $T260[ebp]
  014cf	e8 00 00 00 00	 call	 ??1?$basic_string@DU?$char_traits@D@std@@V?$allocator@D@2@@std@@QAE@XZ ; std::basic_string<char,std::char_traits<char>,std::allocator<char> >::~basic_string<char,std::char_traits<char>,std::allocator<char> >
  014d4	8d 8d e8 fd ff
	ff		 lea	 ecx, DWORD PTR $T259[ebp]
  014da	e8 00 00 00 00	 call	 ??1?$basic_string@DU?$char_traits@D@std@@V?$allocator@D@2@@std@@QAE@XZ ; std::basic_string<char,std::char_traits<char>,std::allocator<char> >::~basic_string<char,std::char_traits<char>,std::allocator<char> >
  014df	8d 8d d4 fe ff
	ff		 lea	 ecx, DWORD PTR $T258[ebp]
  014e5	e8 00 00 00 00	 call	 ??1?$basic_string@DU?$char_traits@D@std@@V?$allocator@D@2@@std@@QAE@XZ ; std::basic_string<char,std::char_traits<char>,std::allocator<char> >::~basic_string<char,std::char_traits<char>,std::allocator<char> >
  014ea	8d 8d bc fe ff
	ff		 lea	 ecx, DWORD PTR $T249[ebp]
  014f0	e8 00 00 00 00	 call	 ??1?$basic_string@DU?$char_traits@D@std@@V?$allocator@D@2@@std@@QAE@XZ ; std::basic_string<char,std::char_traits<char>,std::allocator<char> >::~basic_string<char,std::char_traits<char>,std::allocator<char> >
  014f5	8d 8d 00 fe ff
	ff		 lea	 ecx, DWORD PTR $T237[ebp]
  014fb	e8 00 00 00 00	 call	 ??1?$basic_string@DU?$char_traits@D@std@@V?$allocator@D@2@@std@@QAE@XZ ; std::basic_string<char,std::char_traits<char>,std::allocator<char> >::~basic_string<char,std::char_traits<char>,std::allocator<char> >
  01500	8d 8d a4 fe ff
	ff		 lea	 ecx, DWORD PTR $T229[ebp]
  01506	e8 00 00 00 00	 call	 ??1?$basic_string@DU?$char_traits@D@std@@V?$allocator@D@2@@std@@QAE@XZ ; std::basic_string<char,std::char_traits<char>,std::allocator<char> >::~basic_string<char,std::char_traits<char>,std::allocator<char> >
  0150b	8d 8d 18 fe ff
	ff		 lea	 ecx, DWORD PTR $T217[ebp]
  01511	e8 00 00 00 00	 call	 ??1?$basic_string@DU?$char_traits@D@std@@V?$allocator@D@2@@std@@QAE@XZ ; std::basic_string<char,std::char_traits<char>,std::allocator<char> >::~basic_string<char,std::char_traits<char>,std::allocator<char> >
  01516	8d 8d 8c fe ff
	ff		 lea	 ecx, DWORD PTR $T216[ebp]
  0151c	c6 45 fc 28	 mov	 BYTE PTR __$EHRec$[ebp+8], 40 ; 00000028H
  01520	e8 00 00 00 00	 call	 ??1?$basic_string@DU?$char_traits@D@std@@V?$allocator@D@2@@std@@QAE@XZ ; std::basic_string<char,std::char_traits<char>,std::allocator<char> >::~basic_string<char,std::char_traits<char>,std::allocator<char> >

; 858  : 					if (res != S_OK)

  01525	85 f6		 test	 esi, esi
  01527	0f 85 bb 02 00
	00		 jne	 $LN3194@SprawdŸ_P
  0152d	8b b5 ec fe ff
	ff		 mov	 esi, DWORD PTR _i$1$[ebp]
$LN67@SprawdŸ_P:

; 859  : 					{
; 860  : 						czy_pobrano = false;
; 861  : 						cout << "Brak plików dla g³osu oraz nie mo¿na pobraæ danych, wy³¹czono odczytywanie wyniku" << endl;
; 862  : 						G³osyKompletne = false; //Wpisanie do zmiennej wartoœci false informuj¹cej o niekompletnych plikach audio
; 863  : 						return; //Wyjœcie z funkcji poniewa¿ nie ma sensu sprawdzania dalej
; 864  : 					}
; 865  : 				}
; 866  : 			}

  01533	8d 8d 0c ff ff
	ff		 lea	 ecx, DWORD PTR _numers$283[ebp]
  01539	c6 45 fc 02	 mov	 BYTE PTR __$EHRec$[ebp+8], 2
  0153d	e8 00 00 00 00	 call	 ??_D?$basic_stringstream@DU?$char_traits@D@std@@V?$allocator@D@2@@std@@QAEXXZ
  01542	46		 inc	 esi
  01543	89 b5 ec fe ff
	ff		 mov	 DWORD PTR _i$1$[ebp], esi
  01549	66 83 fe 0c	 cmp	 si, 12			; 0000000cH
  0154d	0f 86 9d f9 ff
	ff		 jbe	 $LL9@SprawdŸ_P

; 867  : 
; 868  : 			for (unsigned short i = 0; i <= 36; ++i)

  01553	33 f6		 xor	 esi, esi
  01555	89 75 ec	 mov	 DWORD PTR _i$1$[ebp], esi
  01558	0f 1f 84 00 00
	00 00 00	 npad	 8
$LL12@SprawdŸ_P:

; 869  : 			{
; 870  : 				stringstream numers;

  01560	51		 push	 ecx
  01561	8d 8d 0c ff ff
	ff		 lea	 ecx, DWORD PTR _numers$282[ebp]
  01567	e8 00 00 00 00	 call	 ?__autoclassinit2@?$basic_stringstream@DU?$char_traits@D@std@@V?$allocator@D@2@@std@@QAEXI@Z
  0156c	83 ec 08	 sub	 esp, 8
  0156f	8d 8d 0c ff ff
	ff		 lea	 ecx, DWORD PTR _numers$282[ebp]
  01575	e8 00 00 00 00	 call	 ??0?$basic_stringstream@DU?$char_traits@D@std@@V?$allocator@D@2@@std@@QAE@H@Z ; std::basic_stringstream<char,std::char_traits<char>,std::allocator<char> >::basic_stringstream<char,std::char_traits<char>,std::allocator<char> >

; 871  : 				numers << i;

  0157a	56		 push	 esi
  0157b	8d 8d 1c ff ff
	ff		 lea	 ecx, DWORD PTR _numers$282[ebp+16]
  01581	c6 45 fc 35	 mov	 BYTE PTR __$EHRec$[ebp+8], 53 ; 00000035H
  01585	ff 15 00 00 00
	00		 call	 DWORD PTR __imp_??6?$basic_ostream@DU?$char_traits@D@std@@@std@@QAEAAV01@G@Z

; 872  : 				if ((_access((G³os + numers.str() + ".wav").c_str(), 0)))

  0158b	8d 85 60 fe ff
	ff		 lea	 eax, DWORD PTR $T266[ebp]
  01591	50		 push	 eax
  01592	8d 8d 0c ff ff
	ff		 lea	 ecx, DWORD PTR _numers$282[ebp]
  01598	e8 00 00 00 00	 call	 ?str@?$basic_stringstream@DU?$char_traits@D@std@@V?$allocator@D@2@@std@@QBE?AV?$basic_string@DU?$char_traits@D@std@@V?$allocator@D@2@@2@XZ ; std::basic_stringstream<char,std::char_traits<char>,std::allocator<char> >::str
  0159d	50		 push	 eax
  0159e	8d 8d 48 fe ff
	ff		 lea	 ecx, DWORD PTR $T267[ebp]
  015a4	c6 45 fc 36	 mov	 BYTE PTR __$EHRec$[ebp+8], 54 ; 00000036H
  015a8	e8 00 00 00 00	 call	 ??$?HDU?$char_traits@D@std@@V?$allocator@D@1@@std@@YA?AV?$basic_string@DU?$char_traits@D@std@@V?$allocator@D@2@@0@ABV10@$$QAV10@@Z ; std::operator+<char,std::char_traits<char>,std::allocator<char> >
  015ad	68 00 00 00 00	 push	 OFFSET ??_C@_04IBLEHOMF@?4wav?$AA@
  015b2	8b d0		 mov	 edx, eax
  015b4	c6 45 fc 37	 mov	 BYTE PTR __$EHRec$[ebp+8], 55 ; 00000037H
  015b8	8d 8d 30 fe ff
	ff		 lea	 ecx, DWORD PTR $T268[ebp]
  015be	e8 00 00 00 00	 call	 ??$?HDU?$char_traits@D@std@@V?$allocator@D@1@@std@@YA?AV?$basic_string@DU?$char_traits@D@std@@V?$allocator@D@2@@0@$$QAV10@QBD@Z ; std::operator+<char,std::char_traits<char>,std::allocator<char> >
  015c3	83 c4 08	 add	 esp, 8
  015c6	8b c8		 mov	 ecx, eax
  015c8	6a 00		 push	 0
  015ca	e8 00 00 00 00	 call	 ?c_str@?$basic_string@DU?$char_traits@D@std@@V?$allocator@D@2@@std@@QBEPBDXZ ; std::basic_string<char,std::char_traits<char>,std::allocator<char> >::c_str
  015cf	50		 push	 eax
  015d0	ff 15 00 00 00
	00		 call	 DWORD PTR __imp___access
  015d6	83 c4 08	 add	 esp, 8
  015d9	8d 8d 30 fe ff
	ff		 lea	 ecx, DWORD PTR $T268[ebp]
  015df	8b f0		 mov	 esi, eax
  015e1	e8 00 00 00 00	 call	 ??1?$basic_string@DU?$char_traits@D@std@@V?$allocator@D@2@@std@@QAE@XZ ; std::basic_string<char,std::char_traits<char>,std::allocator<char> >::~basic_string<char,std::char_traits<char>,std::allocator<char> >
  015e6	8d 8d 48 fe ff
	ff		 lea	 ecx, DWORD PTR $T267[ebp]
  015ec	e8 00 00 00 00	 call	 ??1?$basic_string@DU?$char_traits@D@std@@V?$allocator@D@2@@std@@QAE@XZ ; std::basic_string<char,std::char_traits<char>,std::allocator<char> >::~basic_string<char,std::char_traits<char>,std::allocator<char> >
  015f1	8d 8d 60 fe ff
	ff		 lea	 ecx, DWORD PTR $T266[ebp]
  015f7	c6 45 fc 35	 mov	 BYTE PTR __$EHRec$[ebp+8], 53 ; 00000035H
  015fb	e8 00 00 00 00	 call	 ??1?$basic_string@DU?$char_traits@D@std@@V?$allocator@D@2@@std@@QAE@XZ ; std::basic_string<char,std::char_traits<char>,std::allocator<char> >::~basic_string<char,std::char_traits<char>,std::allocator<char> >
  01600	85 f6		 test	 esi, esi
  01602	0f 84 5e 01 00
	00		 je	 $LN70@SprawdŸ_P

; 873  : 				{
; 874  : 					if (!czy_pobierano) cout << "Rozpoczynam pobieranie brakuj¹cych plików g³osów" << endl;

  01608	80 bd f3 fe ff
	ff 00		 cmp	 BYTE PTR _czy_pobierano$1$[ebp], 0
  0160f	75 1d		 jne	 SHORT $LN69@SprawdŸ_P
  01611	8b 0d 00 00 00
	00		 mov	 ecx, DWORD PTR __imp_?cout@std@@3V?$basic_ostream@DU?$char_traits@D@std@@@1@A
  01617	ba 00 00 00 00	 mov	 edx, OFFSET ??_C@_0DB@JAANGCNE@Rozpoczynam?5pobieranie?5brakuj?$LJcy@
  0161c	68 00 00 00 00	 push	 OFFSET ??$endl@DU?$char_traits@D@std@@@std@@YAAAV?$basic_ostream@DU?$char_traits@D@std@@@0@AAV10@@Z ; std::endl<char,std::char_traits<char> >
  01621	e8 00 00 00 00	 call	 ??$?6U?$char_traits@D@std@@@std@@YAAAV?$basic_ostream@DU?$char_traits@D@std@@@0@AAV10@PBD@Z ; std::operator<<<std::char_traits<char> >
  01626	8b c8		 mov	 ecx, eax
  01628	ff 15 00 00 00
	00		 call	 DWORD PTR __imp_??6?$basic_ostream@DU?$char_traits@D@std@@@std@@QAEAAV01@P6AAAV01@AAV01@@Z@Z
$LN69@SprawdŸ_P:

; 875  : 					czy_pobierano = true;
; 876  : 					auto res = URLDownloadToFileA(nullptr, (link + g³os2 + numers.str() + ".wav").c_str(), ("G³os/" + g³os2 + numers.str() + ".wav").c_str(), 0, nullptr);

  0162e	8d 85 a4 fe ff
	ff		 lea	 eax, DWORD PTR $T270[ebp]
  01634	c6 85 f3 fe ff
	ff 01		 mov	 BYTE PTR _czy_pobierano$1$[ebp], 1
  0163b	50		 push	 eax
  0163c	8d 8d 0c ff ff
	ff		 lea	 ecx, DWORD PTR _numers$282[ebp]
  01642	e8 00 00 00 00	 call	 ?str@?$basic_stringstream@DU?$char_traits@D@std@@V?$allocator@D@2@@std@@QBE?AV?$basic_string@DU?$char_traits@D@std@@V?$allocator@D@2@@2@XZ ; std::basic_stringstream<char,std::char_traits<char>,std::allocator<char> >::str
  01647	8b f0		 mov	 esi, eax
  01649	8d 45 d4	 lea	 eax, DWORD PTR _g³os2$286[ebp]
  0164c	c6 45 fc 38	 mov	 BYTE PTR __$EHRec$[ebp+8], 56 ; 00000038H
  01650	50		 push	 eax
  01651	8d 8d d4 fe ff
	ff		 lea	 ecx, DWORD PTR $T271[ebp]
  01657	e8 00 00 00 00	 call	 ??$?HDU?$char_traits@D@std@@V?$allocator@D@1@@std@@YA?AV?$basic_string@DU?$char_traits@D@std@@V?$allocator@D@2@@0@QBDABV10@@Z ; std::operator+<char,std::char_traits<char>,std::allocator<char> >
  0165c	56		 push	 esi
  0165d	8b d0		 mov	 edx, eax
  0165f	c6 45 fc 39	 mov	 BYTE PTR __$EHRec$[ebp+8], 57 ; 00000039H
  01663	8d 8d 18 fe ff
	ff		 lea	 ecx, DWORD PTR $T272[ebp]
  01669	e8 00 00 00 00	 call	 ??$?HDU?$char_traits@D@std@@V?$allocator@D@1@@std@@YA?AV?$basic_string@DU?$char_traits@D@std@@V?$allocator@D@2@@0@$$QAV10@0@Z ; std::operator+<char,std::char_traits<char>,std::allocator<char> >
  0166e	68 00 00 00 00	 push	 OFFSET ??_C@_04IBLEHOMF@?4wav?$AA@
  01673	8b d0		 mov	 edx, eax
  01675	c6 45 fc 3a	 mov	 BYTE PTR __$EHRec$[ebp+8], 58 ; 0000003aH
  01679	8d 8d 00 fe ff
	ff		 lea	 ecx, DWORD PTR $T273[ebp]
  0167f	e8 00 00 00 00	 call	 ??$?HDU?$char_traits@D@std@@V?$allocator@D@1@@std@@YA?AV?$basic_string@DU?$char_traits@D@std@@V?$allocator@D@2@@0@$$QAV10@QBD@Z ; std::operator+<char,std::char_traits<char>,std::allocator<char> >
  01684	83 c4 0c	 add	 esp, 12			; 0000000cH
  01687	8b f8		 mov	 edi, eax
  01689	8d 85 e8 fd ff
	ff		 lea	 eax, DWORD PTR $T274[ebp]
  0168f	c6 45 fc 3b	 mov	 BYTE PTR __$EHRec$[ebp+8], 59 ; 0000003bH
  01693	50		 push	 eax
  01694	8d 8d 0c ff ff
	ff		 lea	 ecx, DWORD PTR _numers$282[ebp]
  0169a	e8 00 00 00 00	 call	 ?str@?$basic_stringstream@DU?$char_traits@D@std@@V?$allocator@D@2@@std@@QBE?AV?$basic_string@DU?$char_traits@D@std@@V?$allocator@D@2@@2@XZ ; std::basic_stringstream<char,std::char_traits<char>,std::allocator<char> >::str
  0169f	8b f0		 mov	 esi, eax
  016a1	8d 45 d4	 lea	 eax, DWORD PTR _g³os2$286[ebp]
  016a4	c6 45 fc 3c	 mov	 BYTE PTR __$EHRec$[ebp+8], 60 ; 0000003cH
  016a8	50		 push	 eax
  016a9	8d 55 bc	 lea	 edx, DWORD PTR _link$285[ebp]
  016ac	8d 8d 60 fe ff
	ff		 lea	 ecx, DWORD PTR $T275[ebp]
  016b2	e8 00 00 00 00	 call	 ??$?HDU?$char_traits@D@std@@V?$allocator@D@1@@std@@YA?AV?$basic_string@DU?$char_traits@D@std@@V?$allocator@D@2@@0@ABV10@0@Z ; std::operator+<char,std::char_traits<char>,std::allocator<char> >
  016b7	56		 push	 esi
  016b8	8b d0		 mov	 edx, eax
  016ba	c6 45 fc 3d	 mov	 BYTE PTR __$EHRec$[ebp+8], 61 ; 0000003dH
  016be	8d 8d 48 fe ff
	ff		 lea	 ecx, DWORD PTR $T276[ebp]
  016c4	e8 00 00 00 00	 call	 ??$?HDU?$char_traits@D@std@@V?$allocator@D@1@@std@@YA?AV?$basic_string@DU?$char_traits@D@std@@V?$allocator@D@2@@0@$$QAV10@0@Z ; std::operator+<char,std::char_traits<char>,std::allocator<char> >
  016c9	68 00 00 00 00	 push	 OFFSET ??_C@_04IBLEHOMF@?4wav?$AA@
  016ce	8b d0		 mov	 edx, eax
  016d0	c6 45 fc 3e	 mov	 BYTE PTR __$EHRec$[ebp+8], 62 ; 0000003eH
  016d4	8d 8d 30 fe ff
	ff		 lea	 ecx, DWORD PTR $T277[ebp]
  016da	e8 00 00 00 00	 call	 ??$?HDU?$char_traits@D@std@@V?$allocator@D@1@@std@@YA?AV?$basic_string@DU?$char_traits@D@std@@V?$allocator@D@2@@0@$$QAV10@QBD@Z ; std::operator+<char,std::char_traits<char>,std::allocator<char> >
  016df	83 c4 0c	 add	 esp, 12			; 0000000cH
  016e2	8b cf		 mov	 ecx, edi
  016e4	8b d0		 mov	 edx, eax
  016e6	6a 00		 push	 0
  016e8	6a 00		 push	 0
  016ea	e8 00 00 00 00	 call	 ?c_str@?$basic_string@DU?$char_traits@D@std@@V?$allocator@D@2@@std@@QBEPBDXZ ; std::basic_string<char,std::char_traits<char>,std::allocator<char> >::c_str
  016ef	50		 push	 eax
  016f0	8b ca		 mov	 ecx, edx
  016f2	e8 00 00 00 00	 call	 ?c_str@?$basic_string@DU?$char_traits@D@std@@V?$allocator@D@2@@std@@QBEPBDXZ ; std::basic_string<char,std::char_traits<char>,std::allocator<char> >::c_str
  016f7	50		 push	 eax
  016f8	6a 00		 push	 0
  016fa	ff 15 00 00 00
	00		 call	 DWORD PTR __imp__URLDownloadToFileA@20
  01700	8d 8d 30 fe ff
	ff		 lea	 ecx, DWORD PTR $T277[ebp]
  01706	8b f0		 mov	 esi, eax
  01708	e8 00 00 00 00	 call	 ??1?$basic_string@DU?$char_traits@D@std@@V?$allocator@D@2@@std@@QAE@XZ ; std::basic_string<char,std::char_traits<char>,std::allocator<char> >::~basic_string<char,std::char_traits<char>,std::allocator<char> >
  0170d	8d 8d 48 fe ff
	ff		 lea	 ecx, DWORD PTR $T276[ebp]
  01713	e8 00 00 00 00	 call	 ??1?$basic_string@DU?$char_traits@D@std@@V?$allocator@D@2@@std@@QAE@XZ ; std::basic_string<char,std::char_traits<char>,std::allocator<char> >::~basic_string<char,std::char_traits<char>,std::allocator<char> >
  01718	8d 8d 60 fe ff
	ff		 lea	 ecx, DWORD PTR $T275[ebp]
  0171e	e8 00 00 00 00	 call	 ??1?$basic_string@DU?$char_traits@D@std@@V?$allocator@D@2@@std@@QAE@XZ ; std::basic_string<char,std::char_traits<char>,std::allocator<char> >::~basic_string<char,std::char_traits<char>,std::allocator<char> >
  01723	8d 8d e8 fd ff
	ff		 lea	 ecx, DWORD PTR $T274[ebp]
  01729	e8 00 00 00 00	 call	 ??1?$basic_string@DU?$char_traits@D@std@@V?$allocator@D@2@@std@@QAE@XZ ; std::basic_string<char,std::char_traits<char>,std::allocator<char> >::~basic_string<char,std::char_traits<char>,std::allocator<char> >
  0172e	8d 8d 00 fe ff
	ff		 lea	 ecx, DWORD PTR $T273[ebp]
  01734	e8 00 00 00 00	 call	 ??1?$basic_string@DU?$char_traits@D@std@@V?$allocator@D@2@@std@@QAE@XZ ; std::basic_string<char,std::char_traits<char>,std::allocator<char> >::~basic_string<char,std::char_traits<char>,std::allocator<char> >
  01739	8d 8d 18 fe ff
	ff		 lea	 ecx, DWORD PTR $T272[ebp]
  0173f	e8 00 00 00 00	 call	 ??1?$basic_string@DU?$char_traits@D@std@@V?$allocator@D@2@@std@@QAE@XZ ; std::basic_string<char,std::char_traits<char>,std::allocator<char> >::~basic_string<char,std::char_traits<char>,std::allocator<char> >
  01744	8d 8d d4 fe ff
	ff		 lea	 ecx, DWORD PTR $T271[ebp]
  0174a	e8 00 00 00 00	 call	 ??1?$basic_string@DU?$char_traits@D@std@@V?$allocator@D@2@@std@@QAE@XZ ; std::basic_string<char,std::char_traits<char>,std::allocator<char> >::~basic_string<char,std::char_traits<char>,std::allocator<char> >
  0174f	c6 45 fc 35	 mov	 BYTE PTR __$EHRec$[ebp+8], 53 ; 00000035H
  01753	8d 8d a4 fe ff
	ff		 lea	 ecx, DWORD PTR $T270[ebp]
  01759	e8 00 00 00 00	 call	 ??1?$basic_string@DU?$char_traits@D@std@@V?$allocator@D@2@@std@@QAE@XZ ; std::basic_string<char,std::char_traits<char>,std::allocator<char> >::~basic_string<char,std::char_traits<char>,std::allocator<char> >

; 877  : 					if (res != S_OK)

  0175e	85 f6		 test	 esi, esi
  01760	0f 85 82 00 00
	00		 jne	 $LN3194@SprawdŸ_P
$LN70@SprawdŸ_P:

; 883  : 					}
; 884  : 				}
; 885  : 			}

  01766	8d 8d 0c ff ff
	ff		 lea	 ecx, DWORD PTR _numers$282[ebp]
  0176c	c6 45 fc 02	 mov	 BYTE PTR __$EHRec$[ebp+8], 2
  01770	e8 00 00 00 00	 call	 ??_D?$basic_stringstream@DU?$char_traits@D@std@@V?$allocator@D@2@@std@@QAEXXZ
  01775	8b 75 ec	 mov	 esi, DWORD PTR _i$1$[ebp]
  01778	46		 inc	 esi
  01779	89 75 ec	 mov	 DWORD PTR _i$1$[ebp], esi
  0177c	66 83 fe 24	 cmp	 si, 36			; 00000024H
  01780	0f 86 da fd ff
	ff		 jbe	 $LL12@SprawdŸ_P

; 886  : 
; 887  : 			if (czy_pobierano) if (czy_pobierano) cout << "Pobrano brakuj¹ce pliki g³osów" << endl;

  01786	80 bd f3 fe ff
	ff 00		 cmp	 BYTE PTR _czy_pobierano$1$[ebp], 0
  0178d	74 1d		 je	 SHORT $LN72@SprawdŸ_P
  0178f	8b 0d 00 00 00
	00		 mov	 ecx, DWORD PTR __imp_?cout@std@@3V?$basic_ostream@DU?$char_traits@D@std@@@1@A
  01795	ba 00 00 00 00	 mov	 edx, OFFSET ??_C@_0BP@KIMEIPBM@Pobrano?5brakuj?$LJce?5pliki?5g?$LDos?sw?$AA@
  0179a	68 00 00 00 00	 push	 OFFSET ??$endl@DU?$char_traits@D@std@@@std@@YAAAV?$basic_ostream@DU?$char_traits@D@std@@@0@AAV10@@Z ; std::endl<char,std::char_traits<char> >
  0179f	e8 00 00 00 00	 call	 ??$?6U?$char_traits@D@std@@@std@@YAAAV?$basic_ostream@DU?$char_traits@D@std@@@0@AAV10@PBD@Z ; std::operator<<<std::char_traits<char> >
  017a4	8b c8		 mov	 ecx, eax
  017a6	ff 15 00 00 00
	00		 call	 DWORD PTR __imp_??6?$basic_ostream@DU?$char_traits@D@std@@@std@@QAEAAV01@P6AAAV01@AAV01@@Z@Z
$LN72@SprawdŸ_P:

; 888  : 		}

  017ac	8d 4d d4	 lea	 ecx, DWORD PTR _g³os2$286[ebp]
  017af	e8 00 00 00 00	 call	 ??1?$basic_string@DU?$char_traits@D@std@@V?$allocator@D@2@@std@@QAE@XZ ; std::basic_string<char,std::char_traits<char>,std::allocator<char> >::~basic_string<char,std::char_traits<char>,std::allocator<char> >
  017b4	8d 4d bc	 lea	 ecx, DWORD PTR _link$285[ebp]
  017b7	e8 00 00 00 00	 call	 ??1?$basic_string@DU?$char_traits@D@std@@V?$allocator@D@2@@std@@QAE@XZ ; std::basic_string<char,std::char_traits<char>,std::allocator<char> >::~basic_string<char,std::char_traits<char>,std::allocator<char> >
  017bc	8d 8d f4 fe ff
	ff		 lea	 ecx, DWORD PTR _buf$281[ebp]
  017c2	e8 00 00 00 00	 call	 ??1?$basic_string@DU?$char_traits@D@std@@V?$allocator@D@2@@std@@QAE@XZ ; std::basic_string<char,std::char_traits<char>,std::allocator<char> >::~basic_string<char,std::char_traits<char>,std::allocator<char> >
$LN31@SprawdŸ_P:

; 889  : }

  017c7	8b 4d f4	 mov	 ecx, DWORD PTR __$EHRec$[ebp]
  017ca	64 89 0d 00 00
	00 00		 mov	 DWORD PTR fs:0, ecx
  017d1	59		 pop	 ecx
  017d2	5f		 pop	 edi
  017d3	5e		 pop	 esi
  017d4	8b 4d f0	 mov	 ecx, DWORD PTR __$ArrayPad$[ebp]
  017d7	33 cd		 xor	 ecx, ebp
  017d9	e8 00 00 00 00	 call	 @__security_check_cookie@4
  017de	8b e5		 mov	 esp, ebp
  017e0	5d		 pop	 ebp
  017e1	c3		 ret	 0
$_Invalid_parameter$3218:
$_Invalid_parameter$3219:
$_Invalid_parameter$3220:
$_Invalid_parameter$3221:
; File f:\program files (x86)\microsoft visual studio\2017\enterprise\vc\tools\msvc\14.11.25503\include\xmemory0

; 155  : 	_SCL_SECURE_INVALID_ARGUMENT_NO_ASSERT;

  017e2	ff 15 00 00 00
	00		 call	 DWORD PTR __imp___invalid_parameter_noinfo_noreturn
$LN3217@SprawdŸ_P:
$LN3194@SprawdŸ_P:
; File f:\users\krzysztof\documents\szko³a\2017-2018\informatyka\labolatorium\ruletka\ruletka\main.cpp

; 880  : 						cout << "Brak plików dla g³osu oraz nie mo¿na pobraæ danych, wy³¹czono odczytywanie wyniku" << endl;

  017e8	8b 0d 00 00 00
	00		 mov	 ecx, DWORD PTR __imp_?cout@std@@3V?$basic_ostream@DU?$char_traits@D@std@@@1@A
  017ee	ba 00 00 00 00	 mov	 edx, OFFSET ??_C@_0FC@DPJNGIHL@Brak?5plik?sw?5dla?5g?$LDosu?5oraz?5nie?5m@
  017f3	68 00 00 00 00	 push	 OFFSET ??$endl@DU?$char_traits@D@std@@@std@@YAAAV?$basic_ostream@DU?$char_traits@D@std@@@0@AAV10@@Z ; std::endl<char,std::char_traits<char> >
  017f8	e8 00 00 00 00	 call	 ??$?6U?$char_traits@D@std@@@std@@YAAAV?$basic_ostream@DU?$char_traits@D@std@@@0@AAV10@PBD@Z ; std::operator<<<std::char_traits<char> >
  017fd	8b c8		 mov	 ecx, eax
  017ff	ff 15 00 00 00
	00		 call	 DWORD PTR __imp_??6?$basic_ostream@DU?$char_traits@D@std@@@std@@QAEAAV01@P6AAAV01@AAV01@@Z@Z

; 881  : 						G³osyKompletne = false; //Wpisanie do zmiennej wartoœci false informuj¹cej o niekompletnych plikach audio
; 882  : 						return; //Wyjœcie z funkcji poniewa¿ nie ma sensu sprawdzania dalej

  01805	8d 8d 0c ff ff
	ff		 lea	 ecx, DWORD PTR _numers$282[ebp]
  0180b	c6 05 00 00 00
	00 00		 mov	 BYTE PTR ?G³osyKompletne@@3_NA, 0 ; G³osyKompletne
  01812	e8 00 00 00 00	 call	 ??_D?$basic_stringstream@DU?$char_traits@D@std@@V?$allocator@D@2@@std@@QAEXXZ
  01817	eb 93		 jmp	 SHORT $LN72@SprawdŸ_P
$LN3212@SprawdŸ_P:
  01819	0f 1f 00	 npad	 3
$LN3216@SprawdŸ_P:

; 889  : }

  0181c	00 00 00 00	 DD	 $LN32@SprawdŸ_P
  01820	00 00 00 00	 DD	 $LN33@SprawdŸ_P
  01824	00 00 00 00	 DD	 $LN34@SprawdŸ_P
  01828	00 00 00 00	 DD	 $LN35@SprawdŸ_P
  0182c	00 00 00 00	 DD	 $LN36@SprawdŸ_P
  01830	00 00 00 00	 DD	 $LN37@SprawdŸ_P
  01834	00 00 00 00	 DD	 $LN38@SprawdŸ_P
  01838	00 00 00 00	 DD	 $LN39@SprawdŸ_P
  0183c	00 00 00 00	 DD	 $LN40@SprawdŸ_P
_TEXT	ENDS
;	COMDAT text$x
text$x	SEGMENT
__unwindfunclet$?SprawdŸ_Pliki@@YAXXZ$0:
  00000	8d 8d f4 fe ff
	ff		 lea	 ecx, DWORD PTR _buf$281[ebp]
  00006	e9 00 00 00 00	 jmp	 ??1?$basic_string@DU?$char_traits@D@std@@V?$allocator@D@2@@std@@QAE@XZ ; std::basic_string<char,std::char_traits<char>,std::allocator<char> >::~basic_string<char,std::char_traits<char>,std::allocator<char> >
__unwindfunclet$?SprawdŸ_Pliki@@YAXXZ$1:
  0000b	8d 4d bc	 lea	 ecx, DWORD PTR _link$285[ebp]
  0000e	e9 00 00 00 00	 jmp	 ??1?$basic_string@DU?$char_traits@D@std@@V?$allocator@D@2@@std@@QAE@XZ ; std::basic_string<char,std::char_traits<char>,std::allocator<char> >::~basic_string<char,std::char_traits<char>,std::allocator<char> >
__unwindfunclet$?SprawdŸ_Pliki@@YAXXZ$2:
  00013	8d 4d d4	 lea	 ecx, DWORD PTR _g³os2$286[ebp]
  00016	e9 00 00 00 00	 jmp	 ??1?$basic_string@DU?$char_traits@D@std@@V?$allocator@D@2@@std@@QAE@XZ ; std::basic_string<char,std::char_traits<char>,std::allocator<char> >::~basic_string<char,std::char_traits<char>,std::allocator<char> >
__unwindfunclet$?SprawdŸ_Pliki@@YAXXZ$6:
  0001b	8d 8d bc fe ff
	ff		 lea	 ecx, DWORD PTR $T42[ebp]
  00021	e9 00 00 00 00	 jmp	 ??1?$basic_string@DU?$char_traits@D@std@@V?$allocator@D@2@@std@@QAE@XZ ; std::basic_string<char,std::char_traits<char>,std::allocator<char> >::~basic_string<char,std::char_traits<char>,std::allocator<char> >
__unwindfunclet$?SprawdŸ_Pliki@@YAXXZ$7:
  00026	8d 8d 8c fe ff
	ff		 lea	 ecx, DWORD PTR $T43[ebp]
  0002c	e9 00 00 00 00	 jmp	 ??1?$basic_string@DU?$char_traits@D@std@@V?$allocator@D@2@@std@@QAE@XZ ; std::basic_string<char,std::char_traits<char>,std::allocator<char> >::~basic_string<char,std::char_traits<char>,std::allocator<char> >
__unwindfunclet$?SprawdŸ_Pliki@@YAXXZ$8:
  00031	8d 8d a4 fe ff
	ff		 lea	 ecx, DWORD PTR $T45[ebp]
  00037	e9 00 00 00 00	 jmp	 ??1?$basic_string@DU?$char_traits@D@std@@V?$allocator@D@2@@std@@QAE@XZ ; std::basic_string<char,std::char_traits<char>,std::allocator<char> >::~basic_string<char,std::char_traits<char>,std::allocator<char> >
__unwindfunclet$?SprawdŸ_Pliki@@YAXXZ$11:
  0003c	8d 8d bc fe ff
	ff		 lea	 ecx, DWORD PTR $T60[ebp]
  00042	e9 00 00 00 00	 jmp	 ??1?$basic_string@DU?$char_traits@D@std@@V?$allocator@D@2@@std@@QAE@XZ ; std::basic_string<char,std::char_traits<char>,std::allocator<char> >::~basic_string<char,std::char_traits<char>,std::allocator<char> >
__unwindfunclet$?SprawdŸ_Pliki@@YAXXZ$12:
  00047	8d 8d 8c fe ff
	ff		 lea	 ecx, DWORD PTR $T61[ebp]
  0004d	e9 00 00 00 00	 jmp	 ??1?$basic_string@DU?$char_traits@D@std@@V?$allocator@D@2@@std@@QAE@XZ ; std::basic_string<char,std::char_traits<char>,std::allocator<char> >::~basic_string<char,std::char_traits<char>,std::allocator<char> >
__unwindfunclet$?SprawdŸ_Pliki@@YAXXZ$13:
  00052	8d 8d a4 fe ff
	ff		 lea	 ecx, DWORD PTR $T63[ebp]
  00058	e9 00 00 00 00	 jmp	 ??1?$basic_string@DU?$char_traits@D@std@@V?$allocator@D@2@@std@@QAE@XZ ; std::basic_string<char,std::char_traits<char>,std::allocator<char> >::~basic_string<char,std::char_traits<char>,std::allocator<char> >
__unwindfunclet$?SprawdŸ_Pliki@@YAXXZ$16:
  0005d	8d 8d bc fe ff
	ff		 lea	 ecx, DWORD PTR $T78[ebp]
  00063	e9 00 00 00 00	 jmp	 ??1?$basic_string@DU?$char_traits@D@std@@V?$allocator@D@2@@std@@QAE@XZ ; std::basic_string<char,std::char_traits<char>,std::allocator<char> >::~basic_string<char,std::char_traits<char>,std::allocator<char> >
__unwindfunclet$?SprawdŸ_Pliki@@YAXXZ$17:
  00068	8d 8d 8c fe ff
	ff		 lea	 ecx, DWORD PTR $T79[ebp]
  0006e	e9 00 00 00 00	 jmp	 ??1?$basic_string@DU?$char_traits@D@std@@V?$allocator@D@2@@std@@QAE@XZ ; std::basic_string<char,std::char_traits<char>,std::allocator<char> >::~basic_string<char,std::char_traits<char>,std::allocator<char> >
__unwindfunclet$?SprawdŸ_Pliki@@YAXXZ$18:
  00073	8d 8d a4 fe ff
	ff		 lea	 ecx, DWORD PTR $T81[ebp]
  00079	e9 00 00 00 00	 jmp	 ??1?$basic_string@DU?$char_traits@D@std@@V?$allocator@D@2@@std@@QAE@XZ ; std::basic_string<char,std::char_traits<char>,std::allocator<char> >::~basic_string<char,std::char_traits<char>,std::allocator<char> >
__unwindfunclet$?SprawdŸ_Pliki@@YAXXZ$21:
  0007e	8d 8d bc fe ff
	ff		 lea	 ecx, DWORD PTR $T96[ebp]
  00084	e9 00 00 00 00	 jmp	 ??1?$basic_string@DU?$char_traits@D@std@@V?$allocator@D@2@@std@@QAE@XZ ; std::basic_string<char,std::char_traits<char>,std::allocator<char> >::~basic_string<char,std::char_traits<char>,std::allocator<char> >
__unwindfunclet$?SprawdŸ_Pliki@@YAXXZ$22:
  00089	8d 8d 8c fe ff
	ff		 lea	 ecx, DWORD PTR $T97[ebp]
  0008f	e9 00 00 00 00	 jmp	 ??1?$basic_string@DU?$char_traits@D@std@@V?$allocator@D@2@@std@@QAE@XZ ; std::basic_string<char,std::char_traits<char>,std::allocator<char> >::~basic_string<char,std::char_traits<char>,std::allocator<char> >
__unwindfunclet$?SprawdŸ_Pliki@@YAXXZ$23:
  00094	8d 8d a4 fe ff
	ff		 lea	 ecx, DWORD PTR $T99[ebp]
  0009a	e9 00 00 00 00	 jmp	 ??1?$basic_string@DU?$char_traits@D@std@@V?$allocator@D@2@@std@@QAE@XZ ; std::basic_string<char,std::char_traits<char>,std::allocator<char> >::~basic_string<char,std::char_traits<char>,std::allocator<char> >
__unwindfunclet$?SprawdŸ_Pliki@@YAXXZ$26:
  0009f	8d 8d bc fe ff
	ff		 lea	 ecx, DWORD PTR $T114[ebp]
  000a5	e9 00 00 00 00	 jmp	 ??1?$basic_string@DU?$char_traits@D@std@@V?$allocator@D@2@@std@@QAE@XZ ; std::basic_string<char,std::char_traits<char>,std::allocator<char> >::~basic_string<char,std::char_traits<char>,std::allocator<char> >
__unwindfunclet$?SprawdŸ_Pliki@@YAXXZ$27:
  000aa	8d 8d 8c fe ff
	ff		 lea	 ecx, DWORD PTR $T115[ebp]
  000b0	e9 00 00 00 00	 jmp	 ??1?$basic_string@DU?$char_traits@D@std@@V?$allocator@D@2@@std@@QAE@XZ ; std::basic_string<char,std::char_traits<char>,std::allocator<char> >::~basic_string<char,std::char_traits<char>,std::allocator<char> >
__unwindfunclet$?SprawdŸ_Pliki@@YAXXZ$28:
  000b5	8d 8d a4 fe ff
	ff		 lea	 ecx, DWORD PTR $T117[ebp]
  000bb	e9 00 00 00 00	 jmp	 ??1?$basic_string@DU?$char_traits@D@std@@V?$allocator@D@2@@std@@QAE@XZ ; std::basic_string<char,std::char_traits<char>,std::allocator<char> >::~basic_string<char,std::char_traits<char>,std::allocator<char> >
__unwindfunclet$?SprawdŸ_Pliki@@YAXXZ$31:
  000c0	8d 8d bc fe ff
	ff		 lea	 ecx, DWORD PTR $T132[ebp]
  000c6	e9 00 00 00 00	 jmp	 ??1?$basic_string@DU?$char_traits@D@std@@V?$allocator@D@2@@std@@QAE@XZ ; std::basic_string<char,std::char_traits<char>,std::allocator<char> >::~basic_string<char,std::char_traits<char>,std::allocator<char> >
__unwindfunclet$?SprawdŸ_Pliki@@YAXXZ$32:
  000cb	8d 8d 8c fe ff
	ff		 lea	 ecx, DWORD PTR $T133[ebp]
  000d1	e9 00 00 00 00	 jmp	 ??1?$basic_string@DU?$char_traits@D@std@@V?$allocator@D@2@@std@@QAE@XZ ; std::basic_string<char,std::char_traits<char>,std::allocator<char> >::~basic_string<char,std::char_traits<char>,std::allocator<char> >
__unwindfunclet$?SprawdŸ_Pliki@@YAXXZ$33:
  000d6	8d 8d a4 fe ff
	ff		 lea	 ecx, DWORD PTR $T135[ebp]
  000dc	e9 00 00 00 00	 jmp	 ??1?$basic_string@DU?$char_traits@D@std@@V?$allocator@D@2@@std@@QAE@XZ ; std::basic_string<char,std::char_traits<char>,std::allocator<char> >::~basic_string<char,std::char_traits<char>,std::allocator<char> >
__unwindfunclet$?SprawdŸ_Pliki@@YAXXZ$168:
  000e1	8b 45 ec	 mov	 eax, DWORD PTR $T1[ebp]
  000e4	83 e0 01	 and	 eax, 1
  000e7	0f 84 10 00 00
	00		 je	 $LN662@SprawdŸ_P
  000ed	83 65 ec fe	 and	 DWORD PTR $T1[ebp], -2	; fffffffeH
  000f1	8d 8d 74 ff ff
	ff		 lea	 ecx, DWORD PTR _numers$284[ebp+104]
  000f7	ff 25 00 00 00
	00		 jmp	 DWORD PTR __imp_??1?$basic_ios@DU?$char_traits@D@std@@@std@@UAE@XZ
$LN662@SprawdŸ_P:
  000fd	c3		 ret	 0
__unwindfunclet$?SprawdŸ_Pliki@@YAXXZ$169:
  000fe	8d 8d 2c ff ff
	ff		 lea	 ecx, DWORD PTR _numers$284[ebp+32]
  00104	ff 25 00 00 00
	00		 jmp	 DWORD PTR __imp_??1?$basic_iostream@DU?$char_traits@D@std@@@std@@UAE@XZ
__unwindfunclet$?SprawdŸ_Pliki@@YAXXZ$171:
  0010a	8b 8d 84 fe ff
	ff		 mov	 ecx, DWORD PTR _this$[ebp]
  00110	ff 25 00 00 00
	00		 jmp	 DWORD PTR __imp_??1?$basic_streambuf@DU?$char_traits@D@std@@@std@@UAE@XZ
__unwindfunclet$?SprawdŸ_Pliki@@YAXXZ$35:
  00116	8d 8d 0c ff ff
	ff		 lea	 ecx, DWORD PTR _numers$284[ebp]
  0011c	e9 00 00 00 00	 jmp	 ??_D?$basic_stringstream@DU?$char_traits@D@std@@V?$allocator@D@2@@std@@QAEXXZ
__unwindfunclet$?SprawdŸ_Pliki@@YAXXZ$36:
  00121	8d 8d d4 fe ff
	ff		 lea	 ecx, DWORD PTR $T146[ebp]
  00127	e9 00 00 00 00	 jmp	 ??1?$basic_string@DU?$char_traits@D@std@@V?$allocator@D@2@@std@@QAE@XZ ; std::basic_string<char,std::char_traits<char>,std::allocator<char> >::~basic_string<char,std::char_traits<char>,std::allocator<char> >
__unwindfunclet$?SprawdŸ_Pliki@@YAXXZ$37:
  0012c	8d 8d bc fe ff
	ff		 lea	 ecx, DWORD PTR $T147[ebp]
  00132	e9 00 00 00 00	 jmp	 ??1?$basic_string@DU?$char_traits@D@std@@V?$allocator@D@2@@std@@QAE@XZ ; std::basic_string<char,std::char_traits<char>,std::allocator<char> >::~basic_string<char,std::char_traits<char>,std::allocator<char> >
__unwindfunclet$?SprawdŸ_Pliki@@YAXXZ$38:
  00137	8d 8d 8c fe ff
	ff		 lea	 ecx, DWORD PTR $T148[ebp]
  0013d	e9 00 00 00 00	 jmp	 ??1?$basic_string@DU?$char_traits@D@std@@V?$allocator@D@2@@std@@QAE@XZ ; std::basic_string<char,std::char_traits<char>,std::allocator<char> >::~basic_string<char,std::char_traits<char>,std::allocator<char> >
__unwindfunclet$?SprawdŸ_Pliki@@YAXXZ$40:
  00142	8d 8d a4 fe ff
	ff		 lea	 ecx, DWORD PTR $T155[ebp]
  00148	e9 00 00 00 00	 jmp	 ??1?$basic_string@DU?$char_traits@D@std@@V?$allocator@D@2@@std@@QAE@XZ ; std::basic_string<char,std::char_traits<char>,std::allocator<char> >::~basic_string<char,std::char_traits<char>,std::allocator<char> >
__unwindfunclet$?SprawdŸ_Pliki@@YAXXZ$41:
  0014d	8d 8d 30 fe ff
	ff		 lea	 ecx, DWORD PTR $T156[ebp]
  00153	e9 00 00 00 00	 jmp	 ??1?$basic_string@DU?$char_traits@D@std@@V?$allocator@D@2@@std@@QAE@XZ ; std::basic_string<char,std::char_traits<char>,std::allocator<char> >::~basic_string<char,std::char_traits<char>,std::allocator<char> >
__unwindfunclet$?SprawdŸ_Pliki@@YAXXZ$42:
  00158	8d 8d 48 fe ff
	ff		 lea	 ecx, DWORD PTR $T157[ebp]
  0015e	e9 00 00 00 00	 jmp	 ??1?$basic_string@DU?$char_traits@D@std@@V?$allocator@D@2@@std@@QAE@XZ ; std::basic_string<char,std::char_traits<char>,std::allocator<char> >::~basic_string<char,std::char_traits<char>,std::allocator<char> >
__unwindfunclet$?SprawdŸ_Pliki@@YAXXZ$43:
  00163	8d 8d 60 fe ff
	ff		 lea	 ecx, DWORD PTR $T158[ebp]
  00169	e9 00 00 00 00	 jmp	 ??1?$basic_string@DU?$char_traits@D@std@@V?$allocator@D@2@@std@@QAE@XZ ; std::basic_string<char,std::char_traits<char>,std::allocator<char> >::~basic_string<char,std::char_traits<char>,std::allocator<char> >
__unwindfunclet$?SprawdŸ_Pliki@@YAXXZ$44:
  0016e	8d 8d e8 fd ff
	ff		 lea	 ecx, DWORD PTR $T159[ebp]
  00174	e9 00 00 00 00	 jmp	 ??1?$basic_string@DU?$char_traits@D@std@@V?$allocator@D@2@@std@@QAE@XZ ; std::basic_string<char,std::char_traits<char>,std::allocator<char> >::~basic_string<char,std::char_traits<char>,std::allocator<char> >
__unwindfunclet$?SprawdŸ_Pliki@@YAXXZ$45:
  00179	8d 8d d4 fe ff
	ff		 lea	 ecx, DWORD PTR $T161[ebp]
  0017f	e9 00 00 00 00	 jmp	 ??1?$basic_string@DU?$char_traits@D@std@@V?$allocator@D@2@@std@@QAE@XZ ; std::basic_string<char,std::char_traits<char>,std::allocator<char> >::~basic_string<char,std::char_traits<char>,std::allocator<char> >
__unwindfunclet$?SprawdŸ_Pliki@@YAXXZ$46:
  00184	8d 8d 00 fe ff
	ff		 lea	 ecx, DWORD PTR $T162[ebp]
  0018a	e9 00 00 00 00	 jmp	 ??1?$basic_string@DU?$char_traits@D@std@@V?$allocator@D@2@@std@@QAE@XZ ; std::basic_string<char,std::char_traits<char>,std::allocator<char> >::~basic_string<char,std::char_traits<char>,std::allocator<char> >
__unwindfunclet$?SprawdŸ_Pliki@@YAXXZ$47:
  0018f	8d 8d 18 fe ff
	ff		 lea	 ecx, DWORD PTR $T163[ebp]
  00195	e9 00 00 00 00	 jmp	 ??1?$basic_string@DU?$char_traits@D@std@@V?$allocator@D@2@@std@@QAE@XZ ; std::basic_string<char,std::char_traits<char>,std::allocator<char> >::~basic_string<char,std::char_traits<char>,std::allocator<char> >
__unwindfunclet$?SprawdŸ_Pliki@@YAXXZ$48:
  0019a	8d 8d bc fe ff
	ff		 lea	 ecx, DWORD PTR $T164[ebp]
  001a0	e9 00 00 00 00	 jmp	 ??1?$basic_string@DU?$char_traits@D@std@@V?$allocator@D@2@@std@@QAE@XZ ; std::basic_string<char,std::char_traits<char>,std::allocator<char> >::~basic_string<char,std::char_traits<char>,std::allocator<char> >
__unwindfunclet$?SprawdŸ_Pliki@@YAXXZ$405:
  001a5	8b 45 ec	 mov	 eax, DWORD PTR $T1[ebp]
  001a8	25 80 00 00 00	 and	 eax, 128		; 00000080H
  001ad	0f 84 13 00 00
	00		 je	 $LN1728@SprawdŸ_P
  001b3	81 65 ec 7f ff
	ff ff		 and	 DWORD PTR $T1[ebp], -129 ; ffffff7fH
  001ba	8d 8d 74 ff ff
	ff		 lea	 ecx, DWORD PTR _numers$283[ebp+104]
  001c0	ff 25 00 00 00
	00		 jmp	 DWORD PTR __imp_??1?$basic_ios@DU?$char_traits@D@std@@@std@@UAE@XZ
$LN1728@SprawdŸ_P:
  001c6	c3		 ret	 0
__unwindfunclet$?SprawdŸ_Pliki@@YAXXZ$406:
  001c7	8d 8d 2c ff ff
	ff		 lea	 ecx, DWORD PTR _numers$283[ebp+32]
  001cd	ff 25 00 00 00
	00		 jmp	 DWORD PTR __imp_??1?$basic_iostream@DU?$char_traits@D@std@@@std@@UAE@XZ
__unwindfunclet$?SprawdŸ_Pliki@@YAXXZ$408:
  001d3	8b 8d 84 fe ff
	ff		 mov	 ecx, DWORD PTR _this$[ebp]
  001d9	ff 25 00 00 00
	00		 jmp	 DWORD PTR __imp_??1?$basic_streambuf@DU?$char_traits@D@std@@@std@@UAE@XZ
__unwindfunclet$?SprawdŸ_Pliki@@YAXXZ$50:
  001df	8d 8d 0c ff ff
	ff		 lea	 ecx, DWORD PTR _numers$283[ebp]
  001e5	e9 00 00 00 00	 jmp	 ??_D?$basic_stringstream@DU?$char_traits@D@std@@V?$allocator@D@2@@std@@QAEXXZ
__unwindfunclet$?SprawdŸ_Pliki@@YAXXZ$51:
  001ea	8d 8d d4 fe ff
	ff		 lea	 ecx, DWORD PTR $T173[ebp]
  001f0	e9 00 00 00 00	 jmp	 ??1?$basic_string@DU?$char_traits@D@std@@V?$allocator@D@2@@std@@QAE@XZ ; std::basic_string<char,std::char_traits<char>,std::allocator<char> >::~basic_string<char,std::char_traits<char>,std::allocator<char> >
__unwindfunclet$?SprawdŸ_Pliki@@YAXXZ$52:
  001f5	8d 8d a4 fe ff
	ff		 lea	 ecx, DWORD PTR $T174[ebp]
  001fb	e9 00 00 00 00	 jmp	 ??1?$basic_string@DU?$char_traits@D@std@@V?$allocator@D@2@@std@@QAE@XZ ; std::basic_string<char,std::char_traits<char>,std::allocator<char> >::~basic_string<char,std::char_traits<char>,std::allocator<char> >
__unwindfunclet$?SprawdŸ_Pliki@@YAXXZ$53:
  00200	8d 8d 8c fe ff
	ff		 lea	 ecx, DWORD PTR $T175[ebp]
  00206	e9 00 00 00 00	 jmp	 ??1?$basic_string@DU?$char_traits@D@std@@V?$allocator@D@2@@std@@QAE@XZ ; std::basic_string<char,std::char_traits<char>,std::allocator<char> >::~basic_string<char,std::char_traits<char>,std::allocator<char> >
__unwindfunclet$?SprawdŸ_Pliki@@YAXXZ$55:
  0020b	8d 8d 8c fe ff
	ff		 lea	 ecx, DWORD PTR $T216[ebp]
  00211	e9 00 00 00 00	 jmp	 ??1?$basic_string@DU?$char_traits@D@std@@V?$allocator@D@2@@std@@QAE@XZ ; std::basic_string<char,std::char_traits<char>,std::allocator<char> >::~basic_string<char,std::char_traits<char>,std::allocator<char> >
__unwindfunclet$?SprawdŸ_Pliki@@YAXXZ$56:
  00216	8d 8d 18 fe ff
	ff		 lea	 ecx, DWORD PTR $T217[ebp]
  0021c	e9 00 00 00 00	 jmp	 ??1?$basic_string@DU?$char_traits@D@std@@V?$allocator@D@2@@std@@QAE@XZ ; std::basic_string<char,std::char_traits<char>,std::allocator<char> >::~basic_string<char,std::char_traits<char>,std::allocator<char> >
__unwindfunclet$?SprawdŸ_Pliki@@YAXXZ$57:
  00221	8d 8d a4 fe ff
	ff		 lea	 ecx, DWORD PTR $T229[ebp]
  00227	e9 00 00 00 00	 jmp	 ??1?$basic_string@DU?$char_traits@D@std@@V?$allocator@D@2@@std@@QAE@XZ ; std::basic_string<char,std::char_traits<char>,std::allocator<char> >::~basic_string<char,std::char_traits<char>,std::allocator<char> >
__unwindfunclet$?SprawdŸ_Pliki@@YAXXZ$58:
  0022c	8d 8d 00 fe ff
	ff		 lea	 ecx, DWORD PTR $T237[ebp]
  00232	e9 00 00 00 00	 jmp	 ??1?$basic_string@DU?$char_traits@D@std@@V?$allocator@D@2@@std@@QAE@XZ ; std::basic_string<char,std::char_traits<char>,std::allocator<char> >::~basic_string<char,std::char_traits<char>,std::allocator<char> >
__unwindfunclet$?SprawdŸ_Pliki@@YAXXZ$59:
  00237	8d 8d bc fe ff
	ff		 lea	 ecx, DWORD PTR $T249[ebp]
  0023d	e9 00 00 00 00	 jmp	 ??1?$basic_string@DU?$char_traits@D@std@@V?$allocator@D@2@@std@@QAE@XZ ; std::basic_string<char,std::char_traits<char>,std::allocator<char> >::~basic_string<char,std::char_traits<char>,std::allocator<char> >
__unwindfunclet$?SprawdŸ_Pliki@@YAXXZ$60:
  00242	8d 8d d4 fe ff
	ff		 lea	 ecx, DWORD PTR $T258[ebp]
  00248	e9 00 00 00 00	 jmp	 ??1?$basic_string@DU?$char_traits@D@std@@V?$allocator@D@2@@std@@QAE@XZ ; std::basic_string<char,std::char_traits<char>,std::allocator<char> >::~basic_string<char,std::char_traits<char>,std::allocator<char> >
__unwindfunclet$?SprawdŸ_Pliki@@YAXXZ$61:
  0024d	8d 8d e8 fd ff
	ff		 lea	 ecx, DWORD PTR $T259[ebp]
  00253	e9 00 00 00 00	 jmp	 ??1?$basic_string@DU?$char_traits@D@std@@V?$allocator@D@2@@std@@QAE@XZ ; std::basic_string<char,std::char_traits<char>,std::allocator<char> >::~basic_string<char,std::char_traits<char>,std::allocator<char> >
__unwindfunclet$?SprawdŸ_Pliki@@YAXXZ$62:
  00258	8d 8d 60 fe ff
	ff		 lea	 ecx, DWORD PTR $T260[ebp]
  0025e	e9 00 00 00 00	 jmp	 ??1?$basic_string@DU?$char_traits@D@std@@V?$allocator@D@2@@std@@QAE@XZ ; std::basic_string<char,std::char_traits<char>,std::allocator<char> >::~basic_string<char,std::char_traits<char>,std::allocator<char> >
__unwindfunclet$?SprawdŸ_Pliki@@YAXXZ$63:
  00263	8d 8d 48 fe ff
	ff		 lea	 ecx, DWORD PTR $T261[ebp]
  00269	e9 00 00 00 00	 jmp	 ??1?$basic_string@DU?$char_traits@D@std@@V?$allocator@D@2@@std@@QAE@XZ ; std::basic_string<char,std::char_traits<char>,std::allocator<char> >::~basic_string<char,std::char_traits<char>,std::allocator<char> >
__unwindfunclet$?SprawdŸ_Pliki@@YAXXZ$65:
  0026e	8d 8d 0c ff ff
	ff		 lea	 ecx, DWORD PTR _numers$282[ebp]
  00274	e9 00 00 00 00	 jmp	 ??_D?$basic_stringstream@DU?$char_traits@D@std@@V?$allocator@D@2@@std@@QAEXXZ
__unwindfunclet$?SprawdŸ_Pliki@@YAXXZ$66:
  00279	8d 8d 60 fe ff
	ff		 lea	 ecx, DWORD PTR $T266[ebp]
  0027f	e9 00 00 00 00	 jmp	 ??1?$basic_string@DU?$char_traits@D@std@@V?$allocator@D@2@@std@@QAE@XZ ; std::basic_string<char,std::char_traits<char>,std::allocator<char> >::~basic_string<char,std::char_traits<char>,std::allocator<char> >
__unwindfunclet$?SprawdŸ_Pliki@@YAXXZ$67:
  00284	8d 8d 48 fe ff
	ff		 lea	 ecx, DWORD PTR $T267[ebp]
  0028a	e9 00 00 00 00	 jmp	 ??1?$basic_string@DU?$char_traits@D@std@@V?$allocator@D@2@@std@@QAE@XZ ; std::basic_string<char,std::char_traits<char>,std::allocator<char> >::~basic_string<char,std::char_traits<char>,std::allocator<char> >
__unwindfunclet$?SprawdŸ_Pliki@@YAXXZ$69:
  0028f	8d 8d a4 fe ff
	ff		 lea	 ecx, DWORD PTR $T270[ebp]
  00295	e9 00 00 00 00	 jmp	 ??1?$basic_string@DU?$char_traits@D@std@@V?$allocator@D@2@@std@@QAE@XZ ; std::basic_string<char,std::char_traits<char>,std::allocator<char> >::~basic_string<char,std::char_traits<char>,std::allocator<char> >
__unwindfunclet$?SprawdŸ_Pliki@@YAXXZ$70:
  0029a	8d 8d d4 fe ff
	ff		 lea	 ecx, DWORD PTR $T271[ebp]
  002a0	e9 00 00 00 00	 jmp	 ??1?$basic_string@DU?$char_traits@D@std@@V?$allocator@D@2@@std@@QAE@XZ ; std::basic_string<char,std::char_traits<char>,std::allocator<char> >::~basic_string<char,std::char_traits<char>,std::allocator<char> >
__unwindfunclet$?SprawdŸ_Pliki@@YAXXZ$71:
  002a5	8d 8d 18 fe ff
	ff		 lea	 ecx, DWORD PTR $T272[ebp]
  002ab	e9 00 00 00 00	 jmp	 ??1?$basic_string@DU?$char_traits@D@std@@V?$allocator@D@2@@std@@QAE@XZ ; std::basic_string<char,std::char_traits<char>,std::allocator<char> >::~basic_string<char,std::char_traits<char>,std::allocator<char> >
__unwindfunclet$?SprawdŸ_Pliki@@YAXXZ$72:
  002b0	8d 8d 00 fe ff
	ff		 lea	 ecx, DWORD PTR $T273[ebp]
  002b6	e9 00 00 00 00	 jmp	 ??1?$basic_string@DU?$char_traits@D@std@@V?$allocator@D@2@@std@@QAE@XZ ; std::basic_string<char,std::char_traits<char>,std::allocator<char> >::~basic_string<char,std::char_traits<char>,std::allocator<char> >
__unwindfunclet$?SprawdŸ_Pliki@@YAXXZ$73:
  002bb	8d 8d e8 fd ff
	ff		 lea	 ecx, DWORD PTR $T274[ebp]
  002c1	e9 00 00 00 00	 jmp	 ??1?$basic_string@DU?$char_traits@D@std@@V?$allocator@D@2@@std@@QAE@XZ ; std::basic_string<char,std::char_traits<char>,std::allocator<char> >::~basic_string<char,std::char_traits<char>,std::allocator<char> >
__unwindfunclet$?SprawdŸ_Pliki@@YAXXZ$74:
  002c6	8d 8d 60 fe ff
	ff		 lea	 ecx, DWORD PTR $T275[ebp]
  002cc	e9 00 00 00 00	 jmp	 ??1?$basic_string@DU?$char_traits@D@std@@V?$allocator@D@2@@std@@QAE@XZ ; std::basic_string<char,std::char_traits<char>,std::allocator<char> >::~basic_string<char,std::char_traits<char>,std::allocator<char> >
__unwindfunclet$?SprawdŸ_Pliki@@YAXXZ$75:
  002d1	8d 8d 48 fe ff
	ff		 lea	 ecx, DWORD PTR $T276[ebp]
  002d7	e9 00 00 00 00	 jmp	 ??1?$basic_string@DU?$char_traits@D@std@@V?$allocator@D@2@@std@@QAE@XZ ; std::basic_string<char,std::char_traits<char>,std::allocator<char> >::~basic_string<char,std::char_traits<char>,std::allocator<char> >
__ehhandler$?SprawdŸ_Pliki@@YAXXZ:
  002dc	8b 54 24 08	 mov	 edx, DWORD PTR [esp+8]
  002e0	8d 42 0c	 lea	 eax, DWORD PTR [edx+12]
  002e3	8b 8a e8 fd ff
	ff		 mov	 ecx, DWORD PTR [edx-536]
  002e9	33 c8		 xor	 ecx, eax
  002eb	e8 00 00 00 00	 call	 @__security_check_cookie@4
  002f0	8b 4a fc	 mov	 ecx, DWORD PTR [edx-4]
  002f3	33 c8		 xor	 ecx, eax
  002f5	e8 00 00 00 00	 call	 @__security_check_cookie@4
  002fa	b8 00 00 00 00	 mov	 eax, OFFSET __ehfuncinfo$?SprawdŸ_Pliki@@YAXXZ
  002ff	e9 00 00 00 00	 jmp	 ___CxxFrameHandler3
text$x	ENDS
?SprawdŸ_Pliki@@YAXXZ ENDP				; SprawdŸ_Pliki
; Function compile flags: /Ogtp
; File f:\users\krzysztof\documents\szko³a\2017-2018\informatyka\labolatorium\ruletka\ruletka\main.cpp
; File f:\program files (x86)\microsoft visual studio\2017\enterprise\vc\tools\msvc\14.11.25503\include\fstream
; File f:\users\krzysztof\documents\szko³a\2017-2018\informatyka\labolatorium\ruletka\ruletka\main.cpp
; File f:\program files (x86)\microsoft visual studio\2017\enterprise\vc\tools\msvc\14.11.25503\include\fstream
; File f:\program files (x86)\microsoft visual studio\2017\enterprise\vc\tools\msvc\14.11.25503\include\xstring
; File f:\program files (x86)\microsoft visual studio\2017\enterprise\vc\tools\msvc\14.11.25503\include\iosfwd
; File f:\program files (x86)\microsoft visual studio\2017\enterprise\vc\tools\msvc\14.11.25503\include\xstring
; File f:\program files (x86)\microsoft visual studio\2017\enterprise\vc\tools\msvc\14.11.25503\include\iosfwd
; File f:\users\krzysztof\documents\szko³a\2017-2018\informatyka\labolatorium\ruletka\ruletka\main.cpp
; File f:\program files (x86)\microsoft visual studio\2017\enterprise\vc\tools\msvc\14.11.25503\include\xiosbase
; File f:\users\krzysztof\documents\szko³a\2017-2018\informatyka\labolatorium\ruletka\ruletka\main.cpp
; File f:\program files (x86)\microsoft visual studio\2017\enterprise\vc\tools\msvc\14.11.25503\include\string
; File f:\users\krzysztof\documents\szko³a\2017-2018\informatyka\labolatorium\ruletka\ruletka\main.cpp
; File f:\program files (x86)\microsoft visual studio\2017\enterprise\vc\tools\msvc\14.11.25503\include\xiosbase
; File f:\users\krzysztof\documents\szko³a\2017-2018\informatyka\labolatorium\ruletka\ruletka\main.cpp
; File f:\program files (x86)\microsoft visual studio\2017\enterprise\vc\tools\msvc\14.11.25503\include\xstring
; File f:\program files (x86)\microsoft visual studio\2017\enterprise\vc\tools\msvc\14.11.25503\include\xmemory0
; File f:\program files (x86)\microsoft visual studio\2017\enterprise\vc\tools\msvc\14.11.25503\include\xstring
; File f:\program files (x86)\microsoft visual studio\2017\enterprise\vc\tools\msvc\14.11.25503\include\xmemory0
; File f:\users\krzysztof\documents\szko³a\2017-2018\informatyka\labolatorium\ruletka\ruletka\main.cpp
; File f:\program files (x86)\microsoft visual studio\2017\enterprise\vc\tools\msvc\14.11.25503\include\xstring
; File f:\program files (x86)\microsoft visual studio\2017\enterprise\vc\tools\msvc\14.11.25503\include\iosfwd
; File f:\program files (x86)\microsoft visual studio\2017\enterprise\vc\tools\msvc\14.11.25503\include\fstream
; File f:\users\krzysztof\documents\szko³a\2017-2018\informatyka\labolatorium\ruletka\ruletka\main.cpp
; File f:\program files (x86)\microsoft visual studio\2017\enterprise\vc\tools\msvc\14.11.25503\include\xmemory0
; File f:\users\krzysztof\documents\szko³a\2017-2018\informatyka\labolatorium\ruletka\ruletka\main.cpp
; File f:\program files (x86)\microsoft visual studio\2017\enterprise\vc\tools\msvc\14.11.25503\include\fstream
; File f:\users\krzysztof\documents\szko³a\2017-2018\informatyka\labolatorium\ruletka\ruletka\main.cpp
; File f:\program files (x86)\microsoft visual studio\2017\enterprise\vc\tools\msvc\14.11.25503\include\fstream
; File f:\users\krzysztof\documents\szko³a\2017-2018\informatyka\labolatorium\ruletka\ruletka\main.cpp
; File f:\program files (x86)\microsoft visual studio\2017\enterprise\vc\tools\msvc\14.11.25503\include\fstream
; File f:\users\krzysztof\documents\szko³a\2017-2018\informatyka\labolatorium\ruletka\ruletka\main.cpp
;	COMDAT ?SprawdŸ_ustawienia@@YAXXZ
_TEXT	SEGMENT
_this$ = -408						; size = 4
$T1 = -404						; size = 4
_ustawienia$11 = -400					; size = 184
_ustawienia$12 = -216					; size = 176
_buf$13 = -40						; size = 24
__$ArrayPad$ = -16					; size = 4
__$EHRec$ = -12						; size = 12
?SprawdŸ_ustawienia@@YAXXZ PROC				; SprawdŸ_ustawienia, COMDAT

; 892  : {

  00000	55		 push	 ebp
  00001	8b ec		 mov	 ebp, esp
  00003	6a ff		 push	 -1
  00005	68 00 00 00 00	 push	 __ehhandler$?SprawdŸ_ustawienia@@YAXXZ
  0000a	64 a1 00 00 00
	00		 mov	 eax, DWORD PTR fs:0
  00010	50		 push	 eax
  00011	81 ec 8c 01 00
	00		 sub	 esp, 396		; 0000018cH
  00017	a1 00 00 00 00	 mov	 eax, DWORD PTR ___security_cookie
  0001c	33 c5		 xor	 eax, ebp
  0001e	89 45 f0	 mov	 DWORD PTR __$ArrayPad$[ebp], eax
  00021	53		 push	 ebx
  00022	56		 push	 esi
  00023	57		 push	 edi
  00024	50		 push	 eax
  00025	8d 45 f4	 lea	 eax, DWORD PTR __$EHRec$[ebp]
  00028	64 a3 00 00 00
	00		 mov	 DWORD PTR fs:0, eax

; 893  : 	if (!_access("setting.txt", 0)) // Sprawdzenie dostêpu do pliku (je¿eli takowy istnieje, musi istnieæ plik)

  0002e	6a 00		 push	 0
  00030	68 00 00 00 00	 push	 OFFSET ??_C@_0M@COFBHHKL@setting?4txt?$AA@
  00035	c7 85 6c fe ff
	ff 00 00 00 00	 mov	 DWORD PTR $T1[ebp], 0
  0003f	ff 15 00 00 00
	00		 call	 DWORD PTR __imp___access
  00045	83 c4 08	 add	 esp, 8
  00048	85 c0		 test	 eax, eax
  0004a	0f 85 4b 02 00
	00		 jne	 $LN4@SprawdŸ_u
  00050	68 b8 00 00 00	 push	 184			; 000000b8H
  00055	50		 push	 eax
  00056	8d 85 70 fe ff
	ff		 lea	 eax, DWORD PTR _ustawienia$11[ebp]
  0005c	50		 push	 eax
  0005d	e8 00 00 00 00	 call	 _memset
  00062	83 c4 0c	 add	 esp, 12			; 0000000cH
; File f:\program files (x86)\microsoft visual studio\2017\enterprise\vc\tools\msvc\14.11.25503\include\fstream

; 759  : 		{	// construct unopened

  00065	c7 85 70 fe ff
	ff 00 00 00 00	 mov	 DWORD PTR _ustawienia$11[ebp], OFFSET ??_8?$basic_ifstream@DU?$char_traits@D@std@@@std@@7B@
  0006f	8d 8d e0 fe ff
	ff		 lea	 ecx, DWORD PTR _ustawienia$11[ebp+112]
  00075	ff 15 00 00 00
	00		 call	 DWORD PTR __imp_??0?$basic_ios@DU?$char_traits@D@std@@@std@@IAE@XZ
  0007b	6a 00		 push	 0
  0007d	6a 00		 push	 0
  0007f	8d 85 80 fe ff
	ff		 lea	 eax, DWORD PTR _ustawienia$11[ebp+16]
  00085	c7 45 fc 00 00
	00 00		 mov	 DWORD PTR __$EHRec$[ebp+8], 0
  0008c	50		 push	 eax
  0008d	8d 8d 70 fe ff
	ff		 lea	 ecx, DWORD PTR _ustawienia$11[ebp]
  00093	c7 85 6c fe ff
	ff 01 00 00 00	 mov	 DWORD PTR $T1[ebp], 1

; 654  : 		}
; 655  : 
; 656  : 	bool _Endwrite()
; 657  : 		{	// put shift to initial conversion state, as needed
; 658  : 		if (_Pcvt == 0 || !_Wrotesome)
; 659  : 			return (true);
; 660  : 		else
; 661  : 			{	// may have to put
; 662  : 			const int _STRING_INC = 8;
; 663  : 			char *_Dest;
; 664  : 			if (_Traits::eq_int_type(_Traits::eof(), overflow()))
; 665  : 				return (false);
; 666  : 
; 667  : 			string _Str(_STRING_INC, '\0');
; 668  : 			for (; ; )
; 669  : 				switch (_Pcvt->unshift(_State,
; 670  : 					&*_Str.begin(), &*_Str.begin() + _Str.size(), _Dest))
; 671  : 				{	// test result of homing conversion
; 672  : 				case codecvt_base::ok:
; 673  : 					_Wrotesome = false;	// homed successfully
; 674  : 
; 675  : 				case codecvt_base::partial:	// fall through
; 676  : 					{	// put any generated bytes
; 677  : 					size_t _Count = _Dest - &*_Str.begin();
; 678  : 					if (0 < _Count && _Count !=
; 679  : 						fwrite(&*_Str.begin(), 1, _Count, _Myfile))
; 680  : 						return (false);	// write failed
; 681  : 					if (!_Wrotesome)
; 682  : 						return (true);
; 683  : 					if (_Count == 0)
; 684  : 						_Str.append(_STRING_INC, '\0');	// try with more space
; 685  : 					break;
; 686  : 					}
; 687  : 
; 688  : 				case codecvt_base::noconv:
; 689  : 					return (true);	// nothing to do
; 690  : 
; 691  : 				default:
; 692  : 					return (false);	// conversion failed
; 693  : 				}
; 694  : 			}
; 695  : 		}
; 696  : 
; 697  : 	void _Initcvt(const _Cvt *_Newpcvt)
; 698  : 		{	// initialize codecvt pointer
; 699  : 		if (_Newpcvt->always_noconv())
; 700  : 			_Pcvt = 0;	// nothing to do
; 701  : 		else
; 702  : 			{	// set up for nontrivial codecvt facet
; 703  : 			_Pcvt = _Newpcvt;
; 704  : 			_Mysb::_Init();	// reset any buffering
; 705  : 			}
; 706  : 		}
; 707  : 
; 708  : private:
; 709  : 	const _Cvt *_Pcvt;	// pointer to codecvt facet (may be null)
; 710  : 	_Elem _Mychar;	// putback character, when _Ungetc fails
; 711  : 	bool _Wrotesome;	// true if homing sequence may be needed
; 712  : 	typename _Traits::state_type _State;	// current conversion state
; 713  : 	bool _Closef;	// true if C stream must be closed
; 714  : 	_Filet *_Myfile;	// pointer to C stream
; 715  : 
; 716  : 	void _Reset_back()
; 717  : 		{	// restore buffer after putback
; 718  : 		if (_Mysb::eback() == &_Mychar)
; 719  : 			_Mysb::setg(_Set_eback, _Set_eback, _Set_egptr);
; 720  : 		}
; 721  : 
; 722  : 	void _Set_back()
; 723  : 		{	// set up putback area
; 724  : 		if (_Mysb::eback() != &_Mychar)
; 725  : 			{	// save current get buffer
; 726  : 			_Set_eback = _Mysb::eback();
; 727  : 			_Set_egptr = _Mysb::egptr();
; 728  : 			}
; 729  : 		_Mysb::setg(&_Mychar, &_Mychar, &_Mychar + 1);
; 730  : 		}
; 731  : 
; 732  : 	_Elem *_Set_eback;	// saves eback() during one-element putback
; 733  : 	_Elem *_Set_egptr;	// saves egptr()
; 734  : 	};
; 735  : 
; 736  : 	// basic_filebuf TEMPLATE OPERATORS
; 737  : template<class _Elem,
; 738  : 	class _Traits> inline
; 739  : 	void swap(basic_filebuf<_Elem, _Traits>& _Left,
; 740  : 		basic_filebuf<_Elem, _Traits>& _Right)
; 741  : 	{	// swap _Left and _Right basic_filebufs
; 742  : 	_Left.swap(_Right);
; 743  : 	}
; 744  : 
; 745  : 		// TEMPLATE CLASS basic_ifstream
; 746  : template<class _Elem,
; 747  : 	class _Traits>
; 748  : 	class basic_ifstream
; 749  : 		: public basic_istream<_Elem, _Traits>
; 750  : 	{	// input stream associated with a C stream
; 751  : public:
; 752  : 	typedef basic_ifstream<_Elem, _Traits> _Myt;
; 753  : 	typedef basic_istream<_Elem, _Traits> _Mybase;
; 754  : 	typedef basic_filebuf<_Elem, _Traits> _Myfb;
; 755  : 	typedef basic_ios<_Elem, _Traits> _Myios;
; 756  : 
; 757  : 	basic_ifstream()
; 758  : 		: _Mybase(&_Filebuffer)

  0009d	ff 15 00 00 00
	00		 call	 DWORD PTR __imp_??0?$basic_istream@DU?$char_traits@D@std@@@std@@QAE@PAV?$basic_streambuf@DU?$char_traits@D@std@@@1@_N@Z
  000a3	c7 45 fc 01 00
	00 00		 mov	 DWORD PTR __$EHRec$[ebp+8], 1

; 759  : 		{	// construct unopened

  000aa	8b 85 70 fe ff
	ff		 mov	 eax, DWORD PTR _ustawienia$11[ebp]
  000b0	8b 40 04	 mov	 eax, DWORD PTR [eax+4]
  000b3	c7 84 05 70 fe
	ff ff 00 00 00
	00		 mov	 DWORD PTR _ustawienia$11[ebp+eax], OFFSET ??_7?$basic_ifstream@DU?$char_traits@D@std@@@std@@6B@
  000be	8b 85 70 fe ff
	ff		 mov	 eax, DWORD PTR _ustawienia$11[ebp]
  000c4	8b 48 04	 mov	 ecx, DWORD PTR [eax+4]
  000c7	8d 41 90	 lea	 eax, DWORD PTR [ecx-112]
  000ca	89 84 0d 6c fe
	ff ff		 mov	 DWORD PTR _ustawienia$11[ebp+ecx-4], eax
  000d1	8d 85 80 fe ff
	ff		 lea	 eax, DWORD PTR _ustawienia$11[ebp+16]

; 155  : 		: _Mysb()

  000d7	8b c8		 mov	 ecx, eax

; 759  : 		{	// construct unopened

  000d9	89 85 68 fe ff
	ff		 mov	 DWORD PTR _this$[ebp], eax

; 155  : 		: _Mysb()

  000df	ff 15 00 00 00
	00		 call	 DWORD PTR __imp_??0?$basic_streambuf@DU?$char_traits@D@std@@@std@@IAE@XZ
  000e5	c6 45 fc 02	 mov	 BYTE PTR __$EHRec$[ebp+8], 2

; 628  : 		_Mysb::_Init();	// initialize stream buffer base object

  000e9	8d 8d 80 fe ff
	ff		 lea	 ecx, DWORD PTR _ustawienia$11[ebp+16]

; 156  : 		{	// construct from pointer to C stream

  000ef	c7 85 80 fe ff
	ff 00 00 00 00	 mov	 DWORD PTR _ustawienia$11[ebp+16], OFFSET ??_7?$basic_filebuf@DU?$char_traits@D@std@@@std@@6B@

; 625  : 		_Closef = _Which == _Openfl;

  000f9	c6 85 c8 fe ff
	ff 00		 mov	 BYTE PTR _ustawienia$11[ebp+88], 0

; 626  : 		_Wrotesome = false;

  00100	c6 85 bd fe ff
	ff 00		 mov	 BYTE PTR _ustawienia$11[ebp+77], 0

; 627  : 
; 628  : 		_Mysb::_Init();	// initialize stream buffer base object

  00107	ff 15 00 00 00
	00		 call	 DWORD PTR __imp_?_Init@?$basic_streambuf@DU?$char_traits@D@std@@@std@@IAEXXZ

; 629  : 
; 630  :  #ifndef _IORCNT
; 631  :   #define _IORCNT	_IOCNT	/* read and write counts are the same */
; 632  :   #define _IOWCNT _IOCNT
; 633  :  #endif /* _IORCNT */
; 634  : 
; 635  : 		if (_File != 0 && sizeof (_Elem) == 1)
; 636  : 			{	// point inside C stream with [first, first + count) buffer
; 637  : 			_Elem **_Pb = 0;
; 638  : 			_Elem **_Pn = 0;
; 639  : 			int *_Nr = 0;
; 640  : 
; 641  : 			::_get_stream_buffer_pointers(
; 642  : 				_File,
; 643  : 				reinterpret_cast<char***>(&_Pb),
; 644  : 				reinterpret_cast<char***>(&_Pn),
; 645  : 				&_Nr);
; 646  : 			int *_Nw = _Nr;
; 647  : 
; 648  : 			_Mysb::_Init(_Pb, _Pn, _Nr, _Pb, _Pn, _Nw);
; 649  : 			}
; 650  : 
; 651  : 		_Myfile = _File;
; 652  : 		_State = _Stinit;

  0010d	a1 00 00 00 00	 mov	 eax, DWORD PTR ?_Stinit@?1??_Init@?$basic_filebuf@DU?$char_traits@D@std@@@std@@IAEXPAU_iobuf@@W4_Initfl@23@@Z@4U_Mbstatet@@A
  00112	89 85 c0 fe ff
	ff		 mov	 DWORD PTR _ustawienia$11[ebp+80], eax
  00118	a1 04 00 00 00	 mov	 eax, DWORD PTR ?_Stinit@?1??_Init@?$basic_filebuf@DU?$char_traits@D@std@@@std@@IAEXPAU_iobuf@@W4_Initfl@23@@Z@4U_Mbstatet@@A+4
  0011d	c7 85 cc fe ff
	ff 00 00 00 00	 mov	 DWORD PTR _ustawienia$11[ebp+92], 0
  00127	89 85 c4 fe ff
	ff		 mov	 DWORD PTR _ustawienia$11[ebp+84], eax

; 653  : 		_Pcvt = 0;	// pointer to codecvt facet

  0012d	c7 85 b8 fe ff
	ff 00 00 00 00	 mov	 DWORD PTR _ustawienia$11[ebp+72], 0

; 922  : 		if (_Filebuffer.open(_Filename, _Mode | ios_base::in, _Prot) == 0)

  00137	51		 push	 ecx
  00138	6a 01		 push	 1
  0013a	68 00 00 00 00	 push	 OFFSET ??_C@_0M@COFBHHKL@setting?4txt?$AA@
  0013f	8d 8d 80 fe ff
	ff		 lea	 ecx, DWORD PTR _ustawienia$11[ebp+16]
; File f:\users\krzysztof\documents\szko³a\2017-2018\informatyka\labolatorium\ruletka\ruletka\main.cpp

; 895  : 		ifstream ustawienia; //Utworzenie typu do celu odczytu z pliku

  00145	c7 45 fc 03 00
	00 00		 mov	 DWORD PTR __$EHRec$[ebp+8], 3
; File f:\program files (x86)\microsoft visual studio\2017\enterprise\vc\tools\msvc\14.11.25503\include\fstream

; 922  : 		if (_Filebuffer.open(_Filename, _Mode | ios_base::in, _Prot) == 0)

  0014c	e8 00 00 00 00	 call	 ?open@?$basic_filebuf@DU?$char_traits@D@std@@@std@@QAEPAV12@PBDHH@Z ; std::basic_filebuf<char,std::char_traits<char> >::open
  00151	85 c0		 test	 eax, eax

; 923  : 			_Myios::setstate(ios_base::failbit);

  00153	8d 8d 70 fe ff
	ff		 lea	 ecx, DWORD PTR _ustawienia$11[ebp]
  00159	8b 85 70 fe ff
	ff		 mov	 eax, DWORD PTR _ustawienia$11[ebp]
  0015f	6a 00		 push	 0
  00161	8b 40 04	 mov	 eax, DWORD PTR [eax+4]
  00164	75 0c		 jne	 SHORT $LN47@SprawdŸ_u
  00166	6a 02		 push	 2
  00168	03 c8		 add	 ecx, eax
  0016a	ff 15 00 00 00
	00		 call	 DWORD PTR __imp_?setstate@?$basic_ios@DU?$char_traits@D@std@@@std@@QAEXH_N@Z

; 924  : 		else

  00170	eb 0a		 jmp	 SHORT $LN48@SprawdŸ_u
$LN47@SprawdŸ_u:

; 925  : 			_Myios::clear();	// added with C++11

  00172	6a 00		 push	 0
  00174	03 c8		 add	 ecx, eax
  00176	ff 15 00 00 00
	00		 call	 DWORD PTR __imp_?clear@?$basic_ios@DU?$char_traits@D@std@@@std@@QAEXH_N@Z
$LN48@SprawdŸ_u:
; File f:\program files (x86)\microsoft visual studio\2017\enterprise\vc\tools\msvc\14.11.25503\include\xstring

; 3699 : 		_My_data._Myres = this->_BUF_SIZE - 1;

  0017c	ba 0f 00 00 00	 mov	 edx, 15			; 0000000fH
  00181	c7 45 e8 00 00
	00 00		 mov	 DWORD PTR _buf$13[ebp+16], 0
; File f:\program files (x86)\microsoft visual studio\2017\enterprise\vc\tools\msvc\14.11.25503\include\iosfwd

; 517  : 		_Left = _Right;

  00188	32 db		 xor	 bl, bl
; File f:\program files (x86)\microsoft visual studio\2017\enterprise\vc\tools\msvc\14.11.25503\include\xstring

; 3699 : 		_My_data._Myres = this->_BUF_SIZE - 1;

  0018a	89 55 ec	 mov	 DWORD PTR _buf$13[ebp+20], edx
; File f:\program files (x86)\microsoft visual studio\2017\enterprise\vc\tools\msvc\14.11.25503\include\iosfwd

; 517  : 		_Left = _Right;

  0018d	88 5d d8	 mov	 BYTE PTR _buf$13[ebp], bl
; File f:\users\krzysztof\documents\szko³a\2017-2018\informatyka\labolatorium\ruletka\ruletka\main.cpp

; 897  : 		string buf; //Utworzenie buforu do odczytu z pliku

  00190	c6 45 fc 04	 mov	 BYTE PTR __$EHRec$[ebp+8], 4
; File f:\program files (x86)\microsoft visual studio\2017\enterprise\vc\tools\msvc\14.11.25503\include\xiosbase

; 314  : 		return (_Mystate);

  00194	8b 8d 70 fe ff
	ff		 mov	 ecx, DWORD PTR _ustawienia$11[ebp]
  0019a	8b 41 04	 mov	 eax, DWORD PTR [ecx+4]

; 343  : 		return ((int)rdstate() & (int)eofbit);

  0019d	f6 84 05 7c fe
	ff ff 01	 test	 BYTE PTR _ustawienia$11[ebp+eax+12], 1
; File f:\users\krzysztof\documents\szko³a\2017-2018\informatyka\labolatorium\ruletka\ruletka\main.cpp

; 898  : 		while (!ustawienia.eof()) //Pêtla trwaj¹ca do koñca pliku

  001a5	75 4f		 jne	 SHORT $LN3@SprawdŸ_u
  001a7	66 0f 1f 84 00
	00 00 00 00	 npad	 9
$LL2@SprawdŸ_u:
; File f:\program files (x86)\microsoft visual studio\2017\enterprise\vc\tools\msvc\14.11.25503\include\string

; 159  : 	return (getline(_STD move(_Istr), _Str, _Istr.widen('\n')));

  001b0	8d 8d 70 fe ff
	ff		 lea	 ecx, DWORD PTR _ustawienia$11[ebp]
  001b6	6a 0a		 push	 10			; 0000000aH
  001b8	03 c8		 add	 ecx, eax
  001ba	ff 15 00 00 00
	00		 call	 DWORD PTR __imp_?widen@?$basic_ios@DU?$char_traits@D@std@@@std@@QBEDD@Z
  001c0	0f b6 c0	 movzx	 eax, al
  001c3	8d 55 d8	 lea	 edx, DWORD PTR _buf$13[ebp]
  001c6	50		 push	 eax
  001c7	8d 8d 70 fe ff
	ff		 lea	 ecx, DWORD PTR _ustawienia$11[ebp]
  001cd	e8 00 00 00 00	 call	 ??$getline@DU?$char_traits@D@std@@V?$allocator@D@2@@std@@YAAAV?$basic_istream@DU?$char_traits@D@std@@@0@$$QAV10@AAV?$basic_string@DU?$char_traits@D@std@@V?$allocator@D@2@@0@D@Z ; std::getline<char,std::char_traits<char>,std::allocator<char> >
  001d2	83 c4 04	 add	 esp, 4
; File f:\users\krzysztof\documents\szko³a\2017-2018\informatyka\labolatorium\ruletka\ruletka\main.cpp

; 901  : 			Ustaw_ustawienia(buf); //Zamiana wczytanej lini na ustawienie programu

  001d5	8d 4d d8	 lea	 ecx, DWORD PTR _buf$13[ebp]
  001d8	e8 00 00 00 00	 call	 ?Ustaw_ustawienia@@YAXAAV?$basic_string@DU?$char_traits@D@std@@V?$allocator@D@2@@std@@@Z ; Ustaw_ustawienia
; File f:\program files (x86)\microsoft visual studio\2017\enterprise\vc\tools\msvc\14.11.25503\include\xiosbase

; 314  : 		return (_Mystate);

  001dd	8b 8d 70 fe ff
	ff		 mov	 ecx, DWORD PTR _ustawienia$11[ebp]
  001e3	8b 41 04	 mov	 eax, DWORD PTR [ecx+4]

; 343  : 		return ((int)rdstate() & (int)eofbit);

  001e6	f6 84 05 7c fe
	ff ff 01	 test	 BYTE PTR _ustawienia$11[ebp+eax+12], 1
; File f:\users\krzysztof\documents\szko³a\2017-2018\informatyka\labolatorium\ruletka\ruletka\main.cpp

; 898  : 		while (!ustawienia.eof()) //Pêtla trwaj¹ca do koñca pliku

  001ee	74 c0		 je	 SHORT $LL2@SprawdŸ_u
  001f0	8b 55 ec	 mov	 edx, DWORD PTR _buf$13[ebp+20]
  001f3	8a 5d d8	 mov	 bl, BYTE PTR _buf$13[ebp]
$LN3@SprawdŸ_u:

; 903  : 	}

  001f6	c6 45 fc 03	 mov	 BYTE PTR __$EHRec$[ebp+8], 3
; File f:\program files (x86)\microsoft visual studio\2017\enterprise\vc\tools\msvc\14.11.25503\include\xstring

; 1617 : 		return (_BUF_SIZE <= _Myres);

  001fa	83 fa 10	 cmp	 edx, 16			; 00000010H

; 3709 : 		if (_My_data._Large_string_engaged())

  001fd	72 3a		 jb	 SHORT $LN109@SprawdŸ_u
; File f:\program files (x86)\microsoft visual studio\2017\enterprise\vc\tools\msvc\14.11.25503\include\xmemory0

; 941  : 		_Deallocate(_Ptr, _Count, sizeof(_Ty));

  001ff	8b 4d d8	 mov	 ecx, DWORD PTR _buf$13[ebp]
; File f:\program files (x86)\microsoft visual studio\2017\enterprise\vc\tools\msvc\14.11.25503\include\xstring

; 3714 : 			_Al.deallocate(_Ptr, _My_data._Myres + 1);

  00202	8d 42 01	 lea	 eax, DWORD PTR [edx+1]
; File f:\program files (x86)\microsoft visual studio\2017\enterprise\vc\tools\msvc\14.11.25503\include\xmemory0

; 107  : 	if (_BIG_ALLOCATION_THRESHOLD <= _Count * _Sz)

  00205	3d 00 10 00 00	 cmp	 eax, 4096		; 00001000H
  0020a	72 1e		 jb	 SHORT $LN112@SprawdŸ_u

; 108  : 		{	// deallocate large block
; 109  : 		const uintptr_t _Ptr_user = reinterpret_cast<uintptr_t>(_Ptr);
; 110  : 		if ((_Ptr_user & (_BIG_ALLOCATION_ALIGNMENT - 1)) != 0)

  0020c	f6 c3 1f	 test	 bl, 31			; 0000001fH
  0020f	0f 85 80 00 00
	00		 jne	 $_Invalid_parameter$157

; 111  : 			{
; 112  : 			goto _Invalid_parameter;
; 113  : 			}
; 114  : 
; 115  : 		const uintptr_t _Ptr_ptr = _Ptr_user - sizeof(void *);
; 116  : 		const uintptr_t _Ptr_container =
; 117  : 			*reinterpret_cast<uintptr_t *>(_Ptr_ptr);

  00215	8b 41 fc	 mov	 eax, DWORD PTR [ecx-4]

; 118  : 
; 119  :  #ifdef _DEBUG
; 120  : 		// If the following asserts, it likely means that we are performing
; 121  : 		// an aligned delete on memory coming from an unaligned allocation.
; 122  : 		if (reinterpret_cast<uintptr_t *>(_Ptr_ptr)[-1] != _BIG_ALLOCATION_SENTINEL)
; 123  : 			{
; 124  : 			goto _Invalid_parameter;
; 125  : 			}
; 126  :  #endif /* _DEBUG */
; 127  : 
; 128  : 		// Extra paranoia on aligned allocation/deallocation
; 129  : 		if (_Ptr_container >= _Ptr_user)

  00218	3b c1		 cmp	 eax, ecx
  0021a	73 79		 jae	 SHORT $_Invalid_parameter$157

; 130  : 			{
; 131  : 			goto _Invalid_parameter;
; 132  : 			}
; 133  : 
; 134  :  #ifdef _DEBUG
; 135  : 		if (2 * sizeof(void *) > _Ptr_user - _Ptr_container)
; 136  :  #else /* _DEBUG */
; 137  : 		if (sizeof(void *) > _Ptr_user - _Ptr_container)

  0021c	2b c8		 sub	 ecx, eax
  0021e	83 f9 04	 cmp	 ecx, 4
  00221	72 72		 jb	 SHORT $_Invalid_parameter$157

; 138  :  #endif /* _DEBUG */
; 139  : 			{
; 140  : 			goto _Invalid_parameter;
; 141  : 			}
; 142  : 
; 143  : 		if (_Ptr_user - _Ptr_container > _NON_USER_SIZE)

  00223	83 f9 23	 cmp	 ecx, 35			; 00000023H
  00226	77 6d		 ja	 SHORT $_Invalid_parameter$157

; 144  : 			{
; 145  : 			goto _Invalid_parameter;
; 146  : 			}
; 147  : 
; 148  : 		_Ptr = reinterpret_cast<void *>(_Ptr_container);

  00228	8b c8		 mov	 ecx, eax
$LN112@SprawdŸ_u:

; 149  : 		}
; 150  : 
; 151  : 	::operator delete(_Ptr);

  0022a	51		 push	 ecx
  0022b	e8 00 00 00 00	 call	 ??3@YAXPAX@Z		; operator delete
  00230	8b 8d 70 fe ff
	ff		 mov	 ecx, DWORD PTR _ustawienia$11[ebp]
  00236	83 c4 04	 add	 esp, 4
$LN109@SprawdŸ_u:
; File f:\users\krzysztof\documents\szko³a\2017-2018\informatyka\labolatorium\ruletka\ruletka\main.cpp

; 903  : 	}

  00239	c7 45 fc ff ff
	ff ff		 mov	 DWORD PTR __$EHRec$[ebp+8], -1
; File f:\program files (x86)\microsoft visual studio\2017\enterprise\vc\tools\msvc\14.11.25503\include\xstring

; 3717 : 		_My_data._Mysize = 0;

  00240	c7 45 e8 00 00
	00 00		 mov	 DWORD PTR _buf$13[ebp+16], 0

; 3718 : 		_My_data._Myres = this->_BUF_SIZE - 1;

  00247	c7 45 ec 0f 00
	00 00		 mov	 DWORD PTR _buf$13[ebp+20], 15 ; 0000000fH
; File f:\program files (x86)\microsoft visual studio\2017\enterprise\vc\tools\msvc\14.11.25503\include\iosfwd

; 517  : 		_Left = _Right;

  0024e	c6 45 d8 00	 mov	 BYTE PTR _buf$13[ebp], 0
; File f:\program files (x86)\microsoft visual studio\2017\enterprise\vc\tools\msvc\14.11.25503\include\fstream

; 905  : 		{	// destroy the object

  00252	8b 41 04	 mov	 eax, DWORD PTR [ecx+4]
  00255	c7 84 05 70 fe
	ff ff 00 00 00
	00		 mov	 DWORD PTR _ustawienia$11[ebp+eax], OFFSET ??_7?$basic_ifstream@DU?$char_traits@D@std@@@std@@6B@
  00260	8b 85 70 fe ff
	ff		 mov	 eax, DWORD PTR _ustawienia$11[ebp]
  00266	8b 48 04	 mov	 ecx, DWORD PTR [eax+4]
  00269	8d 41 90	 lea	 eax, DWORD PTR [ecx-112]
  0026c	89 84 0d 6c fe
	ff ff		 mov	 DWORD PTR _ustawienia$11[ebp+ecx-4], eax

; 906  : 		}

  00273	8d 8d 80 fe ff
	ff		 lea	 ecx, DWORD PTR _ustawienia$11[ebp+16]
  00279	e8 00 00 00 00	 call	 ??1?$basic_filebuf@DU?$char_traits@D@std@@@std@@UAE@XZ ; std::basic_filebuf<char,std::char_traits<char> >::~basic_filebuf<char,std::char_traits<char> >
  0027e	8d 8d 88 fe ff
	ff		 lea	 ecx, DWORD PTR _ustawienia$11[ebp+24]
  00284	ff 15 00 00 00
	00		 call	 DWORD PTR __imp_??1?$basic_istream@DU?$char_traits@D@std@@@std@@UAE@XZ
  0028a	8d 8d e0 fe ff
	ff		 lea	 ecx, DWORD PTR _ustawienia$11[ebp+112]
; File f:\users\krzysztof\documents\szko³a\2017-2018\informatyka\labolatorium\ruletka\ruletka\main.cpp

; 904  : 	else

  00290	e9 10 02 00 00	 jmp	 $LN155@SprawdŸ_u
$_Invalid_parameter$157:
; File f:\program files (x86)\microsoft visual studio\2017\enterprise\vc\tools\msvc\14.11.25503\include\xmemory0

; 155  : 	_SCL_SECURE_INVALID_ARGUMENT_NO_ASSERT;

  00295	ff 15 00 00 00
	00		 call	 DWORD PTR __imp___invalid_parameter_noinfo_noreturn
$LN156@SprawdŸ_u:
$LN4@SprawdŸ_u:
  0029b	68 b0 00 00 00	 push	 176			; 000000b0H
  002a0	8d 85 28 ff ff
	ff		 lea	 eax, DWORD PTR _ustawienia$12[ebp]
  002a6	6a 00		 push	 0
  002a8	50		 push	 eax
  002a9	e8 00 00 00 00	 call	 _memset
; File f:\users\krzysztof\documents\szko³a\2017-2018\informatyka\labolatorium\ruletka\ruletka\main.cpp

; 906  : 		ofstream ustawienia; //Utworzenie typu do celu zapisu do pliku

  002ae	83 c4 08	 add	 esp, 8
  002b1	8d 8d 28 ff ff
	ff		 lea	 ecx, DWORD PTR _ustawienia$12[ebp]
  002b7	e8 00 00 00 00	 call	 ??0?$basic_ofstream@DU?$char_traits@D@std@@@std@@QAE@XZ ; std::basic_ofstream<char,std::char_traits<char> >::basic_ofstream<char,std::char_traits<char> >
; File f:\program files (x86)\microsoft visual studio\2017\enterprise\vc\tools\msvc\14.11.25503\include\fstream

; 1138 : 		if (_Filebuffer.open(_Filename, _Mode | ios_base::out, _Prot) == 0)

  002bc	51		 push	 ecx
  002bd	6a 02		 push	 2
  002bf	68 00 00 00 00	 push	 OFFSET ??_C@_0M@COFBHHKL@setting?4txt?$AA@
  002c4	8d 8d 2c ff ff
	ff		 lea	 ecx, DWORD PTR _ustawienia$12[ebp+4]
; File f:\users\krzysztof\documents\szko³a\2017-2018\informatyka\labolatorium\ruletka\ruletka\main.cpp

; 906  : 		ofstream ustawienia; //Utworzenie typu do celu zapisu do pliku

  002ca	c7 45 fc 05 00
	00 00		 mov	 DWORD PTR __$EHRec$[ebp+8], 5
; File f:\program files (x86)\microsoft visual studio\2017\enterprise\vc\tools\msvc\14.11.25503\include\fstream

; 1138 : 		if (_Filebuffer.open(_Filename, _Mode | ios_base::out, _Prot) == 0)

  002d1	e8 00 00 00 00	 call	 ?open@?$basic_filebuf@DU?$char_traits@D@std@@@std@@QAEPAV12@PBDHH@Z ; std::basic_filebuf<char,std::char_traits<char> >::open
  002d6	85 c0		 test	 eax, eax

; 1139 : 			_Myios::setstate(ios_base::failbit);

  002d8	8d 8d 28 ff ff
	ff		 lea	 ecx, DWORD PTR _ustawienia$12[ebp]
  002de	8b 85 28 ff ff
	ff		 mov	 eax, DWORD PTR _ustawienia$12[ebp]
  002e4	6a 00		 push	 0
  002e6	8b 40 04	 mov	 eax, DWORD PTR [eax+4]
  002e9	75 0c		 jne	 SHORT $LN139@SprawdŸ_u
  002eb	6a 02		 push	 2
  002ed	03 c8		 add	 ecx, eax
  002ef	ff 15 00 00 00
	00		 call	 DWORD PTR __imp_?setstate@?$basic_ios@DU?$char_traits@D@std@@@std@@QAEXH_N@Z

; 1140 : 		else

  002f5	eb 0a		 jmp	 SHORT $LN140@SprawdŸ_u
$LN139@SprawdŸ_u:

; 1141 : 			_Myios::clear();	// added with C++11

  002f7	6a 00		 push	 0
  002f9	03 c8		 add	 ecx, eax
  002fb	ff 15 00 00 00
	00		 call	 DWORD PTR __imp_?clear@?$basic_ios@DU?$char_traits@D@std@@@std@@QAEXH_N@Z
$LN140@SprawdŸ_u:
; File f:\users\krzysztof\documents\szko³a\2017-2018\informatyka\labolatorium\ruletka\ruletka\main.cpp

; 908  : 		ustawienia << "iloœæ_minimalna_obrotów_ruletki 2" << endl; //Wpisanie do pliku domyœnych ustawieñ dotycz¹cych iloœæ_minimalna_obrotów_ruletki

  00301	68 00 00 00 00	 push	 OFFSET ??$endl@DU?$char_traits@D@std@@@std@@YAAAV?$basic_ostream@DU?$char_traits@D@std@@@0@AAV10@@Z ; std::endl<char,std::char_traits<char> >
  00306	ba 00 00 00 00	 mov	 edx, OFFSET ??_C@_0CC@GBEJJAFD@ilo?$JM?f_minimalna_obrot?sw_ruletki?5@
  0030b	8d 8d 28 ff ff
	ff		 lea	 ecx, DWORD PTR _ustawienia$12[ebp]
  00311	e8 00 00 00 00	 call	 ??$?6U?$char_traits@D@std@@@std@@YAAAV?$basic_ostream@DU?$char_traits@D@std@@@0@AAV10@PBD@Z ; std::operator<<<std::char_traits<char> >
  00316	8b c8		 mov	 ecx, eax
  00318	ff 15 00 00 00
	00		 call	 DWORD PTR __imp_??6?$basic_ostream@DU?$char_traits@D@std@@@std@@QAEAAV01@P6AAAV01@AAV01@@Z@Z

; 909  : 		ustawienia << "iloœæ_max_dodatkowych_obrotów_ruletki 3" << endl; //Wpisanie do pliku domyœnych ustawieñ dotycz¹cych iloœæ_max_dodatkowych_obrotów_ruletki

  0031e	68 00 00 00 00	 push	 OFFSET ??$endl@DU?$char_traits@D@std@@@std@@YAAAV?$basic_ostream@DU?$char_traits@D@std@@@0@AAV10@@Z ; std::endl<char,std::char_traits<char> >
  00323	ba 00 00 00 00	 mov	 edx, OFFSET ??_C@_0CI@KGOEKJAK@ilo?$JM?f_max_dodatkowych_obrot?sw_ru@
  00328	8d 8d 28 ff ff
	ff		 lea	 ecx, DWORD PTR _ustawienia$12[ebp]
  0032e	e8 00 00 00 00	 call	 ??$?6U?$char_traits@D@std@@@std@@YAAAV?$basic_ostream@DU?$char_traits@D@std@@@0@AAV10@PBD@Z ; std::operator<<<std::char_traits<char> >
  00333	8b c8		 mov	 ecx, eax
  00335	ff 15 00 00 00
	00		 call	 DWORD PTR __imp_??6?$basic_ostream@DU?$char_traits@D@std@@@std@@QAEAAV01@P6AAAV01@AAV01@@Z@Z

; 910  : 		ustawienia << "czas_przeskoku_kulki_szybki 50" << endl; //Wpisanie do pliku domyœnych ustawieñ dotycz¹cych czas_przeskoku_kulki_szybki

  0033b	68 00 00 00 00	 push	 OFFSET ??$endl@DU?$char_traits@D@std@@@std@@YAAAV?$basic_ostream@DU?$char_traits@D@std@@@0@AAV10@@Z ; std::endl<char,std::char_traits<char> >
  00340	ba 00 00 00 00	 mov	 edx, OFFSET ??_C@_0BP@NMHFMMDP@czas_przeskoku_kulki_szybki?550?$AA@
  00345	8d 8d 28 ff ff
	ff		 lea	 ecx, DWORD PTR _ustawienia$12[ebp]
  0034b	e8 00 00 00 00	 call	 ??$?6U?$char_traits@D@std@@@std@@YAAAV?$basic_ostream@DU?$char_traits@D@std@@@0@AAV10@PBD@Z ; std::operator<<<std::char_traits<char> >
  00350	8b c8		 mov	 ecx, eax
  00352	ff 15 00 00 00
	00		 call	 DWORD PTR __imp_??6?$basic_ostream@DU?$char_traits@D@std@@@std@@QAEAAV01@P6AAAV01@AAV01@@Z@Z

; 911  : 		ustawienia << "czas_przeskoku_kulki_wolny 75" << endl; //Wpisanie do pliku domyœnych ustawieñ dotycz¹cych czas_przeskoku_kulki_wolny

  00358	68 00 00 00 00	 push	 OFFSET ??$endl@DU?$char_traits@D@std@@@std@@YAAAV?$basic_ostream@DU?$char_traits@D@std@@@0@AAV10@@Z ; std::endl<char,std::char_traits<char> >
  0035d	ba 00 00 00 00	 mov	 edx, OFFSET ??_C@_0BO@ELNOLLHD@czas_przeskoku_kulki_wolny?575?$AA@
  00362	8d 8d 28 ff ff
	ff		 lea	 ecx, DWORD PTR _ustawienia$12[ebp]
  00368	e8 00 00 00 00	 call	 ??$?6U?$char_traits@D@std@@@std@@YAAAV?$basic_ostream@DU?$char_traits@D@std@@@0@AAV10@PBD@Z ; std::operator<<<std::char_traits<char> >
  0036d	8b c8		 mov	 ecx, eax
  0036f	ff 15 00 00 00
	00		 call	 DWORD PTR __imp_??6?$basic_ostream@DU?$char_traits@D@std@@@std@@QAEAAV01@P6AAAV01@AAV01@@Z@Z

; 912  : 		ustawienia << "czas_przerwy_dzwiêku 500" << endl; //Wpisanie do pliku domyœnych ustawieñ dotycz¹cych czas_przerwy_dzwiêku

  00375	68 00 00 00 00	 push	 OFFSET ??$endl@DU?$char_traits@D@std@@@std@@YAAAV?$basic_ostream@DU?$char_traits@D@std@@@0@AAV10@@Z ; std::endl<char,std::char_traits<char> >
  0037a	ba 00 00 00 00	 mov	 edx, OFFSET ??_C@_0BJ@OHAGCGBG@czas_przerwy_dzwi?jku?5500?$AA@
  0037f	8d 8d 28 ff ff
	ff		 lea	 ecx, DWORD PTR _ustawienia$12[ebp]
  00385	e8 00 00 00 00	 call	 ??$?6U?$char_traits@D@std@@@std@@YAAAV?$basic_ostream@DU?$char_traits@D@std@@@0@AAV10@PBD@Z ; std::operator<<<std::char_traits<char> >
  0038a	8b c8		 mov	 ecx, eax
  0038c	ff 15 00 00 00
	00		 call	 DWORD PTR __imp_??6?$basic_ostream@DU?$char_traits@D@std@@@std@@QAEAAV01@P6AAAV01@AAV01@@Z@Z

; 913  : 		ustawienia << "styl_liczenia_wygranej 1" << endl; //Wpisanie do pliku domyœnych ustawieñ dotycz¹cych styl_liczenia_wygranej

  00392	68 00 00 00 00	 push	 OFFSET ??$endl@DU?$char_traits@D@std@@@std@@YAAAV?$basic_ostream@DU?$char_traits@D@std@@@0@AAV10@@Z ; std::endl<char,std::char_traits<char> >
  00397	ba 00 00 00 00	 mov	 edx, OFFSET ??_C@_0BJ@NJDCNPPC@styl_liczenia_wygranej?51?$AA@
  0039c	8d 8d 28 ff ff
	ff		 lea	 ecx, DWORD PTR _ustawienia$12[ebp]
  003a2	e8 00 00 00 00	 call	 ??$?6U?$char_traits@D@std@@@std@@YAAAV?$basic_ostream@DU?$char_traits@D@std@@@0@AAV10@PBD@Z ; std::operator<<<std::char_traits<char> >
  003a7	8b c8		 mov	 ecx, eax
  003a9	ff 15 00 00 00
	00		 call	 DWORD PTR __imp_??6?$basic_ostream@DU?$char_traits@D@std@@@std@@QAEAAV01@P6AAAV01@AAV01@@Z@Z

; 914  : 		ustawienia << "kwota_pocz¹tkowa 1000" << endl; //Wpisanie do pliku domyœnych ustawieñ dotycz¹cych kwota_pocz¹tkowa

  003af	68 00 00 00 00	 push	 OFFSET ??$endl@DU?$char_traits@D@std@@@std@@YAAAV?$basic_ostream@DU?$char_traits@D@std@@@0@AAV10@@Z ; std::endl<char,std::char_traits<char> >
  003b4	ba 00 00 00 00	 mov	 edx, OFFSET ??_C@_0BG@DNDOADBI@kwota_pocz?$LJtkowa?51000?$AA@
  003b9	8d 8d 28 ff ff
	ff		 lea	 ecx, DWORD PTR _ustawienia$12[ebp]
  003bf	e8 00 00 00 00	 call	 ??$?6U?$char_traits@D@std@@@std@@YAAAV?$basic_ostream@DU?$char_traits@D@std@@@0@AAV10@PBD@Z ; std::operator<<<std::char_traits<char> >
  003c4	8b c8		 mov	 ecx, eax
  003c6	ff 15 00 00 00
	00		 call	 DWORD PTR __imp_??6?$basic_ostream@DU?$char_traits@D@std@@@std@@QAEAAV01@P6AAAV01@AAV01@@Z@Z

; 915  : 		ustawienia << "stan_dŸwiêków 1" << endl; //Wpisanie do pliku domyœnych ustawieñ dotycz¹cych stan_dŸwiêków

  003cc	68 00 00 00 00	 push	 OFFSET ??$endl@DU?$char_traits@D@std@@@std@@YAAAV?$basic_ostream@DU?$char_traits@D@std@@@0@AAV10@@Z ; std::endl<char,std::char_traits<char> >
  003d1	ba 00 00 00 00	 mov	 edx, OFFSET ??_C@_0BA@ILKGKHCK@stan_d?$JPwi?jk?sw?51?$AA@
  003d6	8d 8d 28 ff ff
	ff		 lea	 ecx, DWORD PTR _ustawienia$12[ebp]
  003dc	e8 00 00 00 00	 call	 ??$?6U?$char_traits@D@std@@@std@@YAAAV?$basic_ostream@DU?$char_traits@D@std@@@0@AAV10@PBD@Z ; std::operator<<<std::char_traits<char> >
  003e1	8b c8		 mov	 ecx, eax
  003e3	ff 15 00 00 00
	00		 call	 DWORD PTR __imp_??6?$basic_ostream@DU?$char_traits@D@std@@@std@@QAEAAV01@P6AAAV01@AAV01@@Z@Z

; 916  : 		ustawienia << "czy_kontynuowaæ_grê 1" << endl; //Wpisanie do pliku domyœnych ustawieñ dotycz¹cych czy_kontynuowaæ_grê

  003e9	68 00 00 00 00	 push	 OFFSET ??$endl@DU?$char_traits@D@std@@@std@@YAAAV?$basic_ostream@DU?$char_traits@D@std@@@0@AAV10@@Z ; std::endl<char,std::char_traits<char> >
  003ee	ba 00 00 00 00	 mov	 edx, OFFSET ??_C@_0BG@EMABALP@czy_kontynuowa?f_gr?j?51?$AA@
  003f3	8d 8d 28 ff ff
	ff		 lea	 ecx, DWORD PTR _ustawienia$12[ebp]
  003f9	e8 00 00 00 00	 call	 ??$?6U?$char_traits@D@std@@@std@@YAAAV?$basic_ostream@DU?$char_traits@D@std@@@0@AAV10@PBD@Z ; std::operator<<<std::char_traits<char> >
  003fe	8b c8		 mov	 ecx, eax
  00400	ff 15 00 00 00
	00		 call	 DWORD PTR __imp_??6?$basic_ostream@DU?$char_traits@D@std@@@std@@QAEAAV01@P6AAAV01@AAV01@@Z@Z

; 917  : 		ustawienia << "g³os_odczytu_numeru 1" << endl; //Wpisanie do pliku domyœnych ustawieñ dotycz¹cych g³os_odczytu_numeru

  00406	68 00 00 00 00	 push	 OFFSET ??$endl@DU?$char_traits@D@std@@@std@@YAAAV?$basic_ostream@DU?$char_traits@D@std@@@0@AAV10@@Z ; std::endl<char,std::char_traits<char> >
  0040b	ba 00 00 00 00	 mov	 edx, OFFSET ??_C@_0BG@COMBOMN@g?$LDos_odczytu_numeru?51?$AA@
  00410	8d 8d 28 ff ff
	ff		 lea	 ecx, DWORD PTR _ustawienia$12[ebp]
  00416	e8 00 00 00 00	 call	 ??$?6U?$char_traits@D@std@@@std@@YAAAV?$basic_ostream@DU?$char_traits@D@std@@@0@AAV10@PBD@Z ; std::operator<<<std::char_traits<char> >
  0041b	8b c8		 mov	 ecx, eax
  0041d	ff 15 00 00 00
	00		 call	 DWORD PTR __imp_??6?$basic_ostream@DU?$char_traits@D@std@@@std@@QAEAAV01@P6AAAV01@AAV01@@Z@Z

; 918  : 		ustawienia << "g³os_szybkoœæ_odczytu_numeru 4" << endl; //Wpisanie do pliku domyœnych ustawieñ dotycz¹cych g³os_szybkoœæ_odczytu_numeru

  00423	68 00 00 00 00	 push	 OFFSET ??$endl@DU?$char_traits@D@std@@@std@@YAAAV?$basic_ostream@DU?$char_traits@D@std@@@0@AAV10@@Z ; std::endl<char,std::char_traits<char> >
  00428	ba 00 00 00 00	 mov	 edx, OFFSET ??_C@_0BP@CJDLAIMM@g?$LDos_szybko?$JM?f_odczytu_numeru?54?$AA@
  0042d	8d 8d 28 ff ff
	ff		 lea	 ecx, DWORD PTR _ustawienia$12[ebp]
  00433	e8 00 00 00 00	 call	 ??$?6U?$char_traits@D@std@@@std@@YAAAV?$basic_ostream@DU?$char_traits@D@std@@@0@AAV10@PBD@Z ; std::operator<<<std::char_traits<char> >
  00438	8b c8		 mov	 ecx, eax
  0043a	ff 15 00 00 00
	00		 call	 DWORD PTR __imp_??6?$basic_ostream@DU?$char_traits@D@std@@@std@@QAEAAV01@P6AAAV01@AAV01@@Z@Z

; 919  : 		ustawienia << "efekty_dŸwiêkowe 1" << endl; //Wpisanie do pliku domyœnych ustawieñ dotycz¹cych efekty_dŸwiêkowe

  00440	68 00 00 00 00	 push	 OFFSET ??$endl@DU?$char_traits@D@std@@@std@@YAAAV?$basic_ostream@DU?$char_traits@D@std@@@0@AAV10@@Z ; std::endl<char,std::char_traits<char> >
  00445	ba 00 00 00 00	 mov	 edx, OFFSET ??_C@_0BD@MFIDEEIL@efekty_d?$JPwi?jkowe?51?$AA@
  0044a	8d 8d 28 ff ff
	ff		 lea	 ecx, DWORD PTR _ustawienia$12[ebp]
  00450	e8 00 00 00 00	 call	 ??$?6U?$char_traits@D@std@@@std@@YAAAV?$basic_ostream@DU?$char_traits@D@std@@@0@AAV10@PBD@Z ; std::operator<<<std::char_traits<char> >
  00455	8b c8		 mov	 ecx, eax
  00457	ff 15 00 00 00
	00		 call	 DWORD PTR __imp_??6?$basic_ostream@DU?$char_traits@D@std@@@std@@QAEAAV01@P6AAAV01@AAV01@@Z@Z

; 920  : 	}

  0045d	c7 45 fc ff ff
	ff ff		 mov	 DWORD PTR __$EHRec$[ebp+8], -1
; File f:\program files (x86)\microsoft visual studio\2017\enterprise\vc\tools\msvc\14.11.25503\include\fstream

; 1121 : 		{	// destroy the object

  00464	8b 85 28 ff ff
	ff		 mov	 eax, DWORD PTR _ustawienia$12[ebp]
  0046a	8b 40 04	 mov	 eax, DWORD PTR [eax+4]
  0046d	c7 84 05 28 ff
	ff ff 00 00 00
	00		 mov	 DWORD PTR _ustawienia$12[ebp+eax], OFFSET ??_7?$basic_ofstream@DU?$char_traits@D@std@@@std@@6B@
  00478	8b 85 28 ff ff
	ff		 mov	 eax, DWORD PTR _ustawienia$12[ebp]
  0047e	8b 48 04	 mov	 ecx, DWORD PTR [eax+4]
  00481	8d 41 98	 lea	 eax, DWORD PTR [ecx-104]
  00484	89 84 0d 24 ff
	ff ff		 mov	 DWORD PTR _ustawienia$12[ebp+ecx-4], eax

; 1122 : 		}

  0048b	8d 8d 2c ff ff
	ff		 lea	 ecx, DWORD PTR _ustawienia$12[ebp+4]
  00491	e8 00 00 00 00	 call	 ??1?$basic_filebuf@DU?$char_traits@D@std@@@std@@UAE@XZ ; std::basic_filebuf<char,std::char_traits<char> >::~basic_filebuf<char,std::char_traits<char> >
  00496	8d 8d 30 ff ff
	ff		 lea	 ecx, DWORD PTR _ustawienia$12[ebp+8]
  0049c	ff 15 00 00 00
	00		 call	 DWORD PTR __imp_??1?$basic_ostream@DU?$char_traits@D@std@@@std@@UAE@XZ
  004a2	8d 4d 90	 lea	 ecx, DWORD PTR _ustawienia$12[ebp+104]
$LN155@SprawdŸ_u:
  004a5	ff 15 00 00 00
	00		 call	 DWORD PTR __imp_??1?$basic_ios@DU?$char_traits@D@std@@@std@@UAE@XZ
; File f:\users\krzysztof\documents\szko³a\2017-2018\informatyka\labolatorium\ruletka\ruletka\main.cpp

; 922  : 	if (czas_przeskoku_kulki_wolny < czas_przeskoku_kulki_szybki)

  004ab	66 a1 00 00 00
	00		 mov	 ax, WORD PTR ?czas_przeskoku_kulki_wolny@@3FA ; czas_przeskoku_kulki_wolny
  004b1	66 3b 05 00 00
	00 00		 cmp	 ax, WORD PTR ?czas_przeskoku_kulki_szybki@@3FA ; czas_przeskoku_kulki_szybki
  004b8	7d 50		 jge	 SHORT $LN6@SprawdŸ_u

; 923  : 	{
; 924  : 		cout << "Wartoœæ wolnego czasu przeskoku kulki musi byæ ni¿sza ni¿ wartoœæ szybkiego czasu przeskoku kulki" << endl; //(Wartoœci tych zmiennych to czas opóŸnienia wiêc im jest wy¿szy tym d³u¿sza przerwa)

  004ba	8b 0d 00 00 00
	00		 mov	 ecx, DWORD PTR __imp_?cout@std@@3V?$basic_ostream@DU?$char_traits@D@std@@@1@A
  004c0	ba 00 00 00 00	 mov	 edx, OFFSET ??_C@_0GC@FGDMKFMP@Warto?$JM?f?5wolnego?5czasu?5przeskoku?5@
  004c5	68 00 00 00 00	 push	 OFFSET ??$endl@DU?$char_traits@D@std@@@std@@YAAAV?$basic_ostream@DU?$char_traits@D@std@@@0@AAV10@@Z ; std::endl<char,std::char_traits<char> >
  004ca	e8 00 00 00 00	 call	 ??$?6U?$char_traits@D@std@@@std@@YAAAV?$basic_ostream@DU?$char_traits@D@std@@@0@AAV10@PBD@Z ; std::operator<<<std::char_traits<char> >
  004cf	8b c8		 mov	 ecx, eax
  004d1	ff 15 00 00 00
	00		 call	 DWORD PTR __imp_??6?$basic_ostream@DU?$char_traits@D@std@@@std@@QAEAAV01@P6AAAV01@AAV01@@Z@Z

; 925  : 		cout << "Ustawiam domyœlne ustawienie" << endl;

  004d7	8b 0d 00 00 00
	00		 mov	 ecx, DWORD PTR __imp_?cout@std@@3V?$basic_ostream@DU?$char_traits@D@std@@@1@A
  004dd	ba 00 00 00 00	 mov	 edx, OFFSET ??_C@_0BN@KMOICOCN@Ustawiam?5domy?$JMlne?5ustawienie?$AA@
  004e2	68 00 00 00 00	 push	 OFFSET ??$endl@DU?$char_traits@D@std@@@std@@YAAAV?$basic_ostream@DU?$char_traits@D@std@@@0@AAV10@@Z ; std::endl<char,std::char_traits<char> >
  004e7	e8 00 00 00 00	 call	 ??$?6U?$char_traits@D@std@@@std@@YAAAV?$basic_ostream@DU?$char_traits@D@std@@@0@AAV10@PBD@Z ; std::operator<<<std::char_traits<char> >
  004ec	8b c8		 mov	 ecx, eax
  004ee	ff 15 00 00 00
	00		 call	 DWORD PTR __imp_??6?$basic_ostream@DU?$char_traits@D@std@@@std@@QAEAAV01@P6AAAV01@AAV01@@Z@Z

; 926  : 		czas_przeskoku_kulki_szybki = 50;

  004f4	b8 32 00 00 00	 mov	 eax, 50			; 00000032H
  004f9	66 a3 00 00 00
	00		 mov	 WORD PTR ?czas_przeskoku_kulki_szybki@@3FA, ax ; czas_przeskoku_kulki_szybki

; 927  : 		czas_przeskoku_kulki_wolny = 75;

  004ff	b8 4b 00 00 00	 mov	 eax, 75			; 0000004bH
  00504	66 a3 00 00 00
	00		 mov	 WORD PTR ?czas_przeskoku_kulki_wolny@@3FA, ax ; czas_przeskoku_kulki_wolny
$LN6@SprawdŸ_u:

; 928  : 	}
; 929  : 	if (iloœæ_minimalna_obrotów_ruletki < 0)

  0050a	66 a1 00 00 00
	00		 mov	 ax, WORD PTR ?iloœæ_minimalna_obrotów_ruletki@@3FA ; iloœæ_minimalna_obrotów_ruletki
  00510	be 02 00 00 00	 mov	 esi, 2
  00515	66 85 c0	 test	 ax, ax
  00518	79 42		 jns	 SHORT $LN7@SprawdŸ_u

; 930  : 	{
; 931  : 		cout << "Iloœæ minimalna obrotów ruletki nie mo¿e byæ mniejsza od 0" << endl;

  0051a	8b 0d 00 00 00
	00		 mov	 ecx, DWORD PTR __imp_?cout@std@@3V?$basic_ostream@DU?$char_traits@D@std@@@1@A
  00520	ba 00 00 00 00	 mov	 edx, OFFSET ??_C@_0DL@EDLBNLFA@Ilo?$JM?f?5minimalna?5obrot?sw?5ruletki?5@
  00525	68 00 00 00 00	 push	 OFFSET ??$endl@DU?$char_traits@D@std@@@std@@YAAAV?$basic_ostream@DU?$char_traits@D@std@@@0@AAV10@@Z ; std::endl<char,std::char_traits<char> >
  0052a	e8 00 00 00 00	 call	 ??$?6U?$char_traits@D@std@@@std@@YAAAV?$basic_ostream@DU?$char_traits@D@std@@@0@AAV10@PBD@Z ; std::operator<<<std::char_traits<char> >
  0052f	8b c8		 mov	 ecx, eax
  00531	ff 15 00 00 00
	00		 call	 DWORD PTR __imp_??6?$basic_ostream@DU?$char_traits@D@std@@@std@@QAEAAV01@P6AAAV01@AAV01@@Z@Z

; 932  : 		cout << "Ustawiam domyœlne ustawienie" << endl;

  00537	8b 0d 00 00 00
	00		 mov	 ecx, DWORD PTR __imp_?cout@std@@3V?$basic_ostream@DU?$char_traits@D@std@@@1@A
  0053d	ba 00 00 00 00	 mov	 edx, OFFSET ??_C@_0BN@KMOICOCN@Ustawiam?5domy?$JMlne?5ustawienie?$AA@
  00542	68 00 00 00 00	 push	 OFFSET ??$endl@DU?$char_traits@D@std@@@std@@YAAAV?$basic_ostream@DU?$char_traits@D@std@@@0@AAV10@@Z ; std::endl<char,std::char_traits<char> >
  00547	e8 00 00 00 00	 call	 ??$?6U?$char_traits@D@std@@@std@@YAAAV?$basic_ostream@DU?$char_traits@D@std@@@0@AAV10@PBD@Z ; std::operator<<<std::char_traits<char> >
  0054c	8b c8		 mov	 ecx, eax
  0054e	ff 15 00 00 00
	00		 call	 DWORD PTR __imp_??6?$basic_ostream@DU?$char_traits@D@std@@@std@@QAEAAV01@P6AAAV01@AAV01@@Z@Z

; 933  : 		iloœæ_minimalna_obrotów_ruletki = 2;

  00554	8b c6		 mov	 eax, esi
  00556	66 a3 00 00 00
	00		 mov	 WORD PTR ?iloœæ_minimalna_obrotów_ruletki@@3FA, ax ; iloœæ_minimalna_obrotów_ruletki
$LN7@SprawdŸ_u:

; 934  : 	}
; 935  : 	if (iloœæ_max_dodatkowych_obrotów_ruletki < 0)

  0055c	66 8b 0d 00 00
	00 00		 mov	 cx, WORD PTR ?iloœæ_max_dodatkowych_obrotów_ruletki@@3FA ; iloœæ_max_dodatkowych_obrotów_ruletki
  00563	bf 03 00 00 00	 mov	 edi, 3
  00568	66 85 c9	 test	 cx, cx
  0056b	79 49		 jns	 SHORT $LN8@SprawdŸ_u

; 936  : 	{
; 937  : 		cout << "Iloœæ max obrotów ruletki nie mo¿e byæ mniejsza od 0" << endl;

  0056d	8b 0d 00 00 00
	00		 mov	 ecx, DWORD PTR __imp_?cout@std@@3V?$basic_ostream@DU?$char_traits@D@std@@@1@A
  00573	ba 00 00 00 00	 mov	 edx, OFFSET ??_C@_0DF@PACHBLM@Ilo?$JM?f?5max?5obrot?sw?5ruletki?5nie?5mo@
  00578	68 00 00 00 00	 push	 OFFSET ??$endl@DU?$char_traits@D@std@@@std@@YAAAV?$basic_ostream@DU?$char_traits@D@std@@@0@AAV10@@Z ; std::endl<char,std::char_traits<char> >
  0057d	e8 00 00 00 00	 call	 ??$?6U?$char_traits@D@std@@@std@@YAAAV?$basic_ostream@DU?$char_traits@D@std@@@0@AAV10@PBD@Z ; std::operator<<<std::char_traits<char> >
  00582	8b c8		 mov	 ecx, eax
  00584	ff 15 00 00 00
	00		 call	 DWORD PTR __imp_??6?$basic_ostream@DU?$char_traits@D@std@@@std@@QAEAAV01@P6AAAV01@AAV01@@Z@Z

; 938  : 		cout << "Ustawiam domyœlne ustawienie" << endl;

  0058a	8b 0d 00 00 00
	00		 mov	 ecx, DWORD PTR __imp_?cout@std@@3V?$basic_ostream@DU?$char_traits@D@std@@@1@A
  00590	ba 00 00 00 00	 mov	 edx, OFFSET ??_C@_0BN@KMOICOCN@Ustawiam?5domy?$JMlne?5ustawienie?$AA@
  00595	68 00 00 00 00	 push	 OFFSET ??$endl@DU?$char_traits@D@std@@@std@@YAAAV?$basic_ostream@DU?$char_traits@D@std@@@0@AAV10@@Z ; std::endl<char,std::char_traits<char> >
  0059a	e8 00 00 00 00	 call	 ??$?6U?$char_traits@D@std@@@std@@YAAAV?$basic_ostream@DU?$char_traits@D@std@@@0@AAV10@PBD@Z ; std::operator<<<std::char_traits<char> >
  0059f	8b c8		 mov	 ecx, eax
  005a1	ff 15 00 00 00
	00		 call	 DWORD PTR __imp_??6?$basic_ostream@DU?$char_traits@D@std@@@std@@QAEAAV01@P6AAAV01@AAV01@@Z@Z

; 939  : 		iloœæ_max_dodatkowych_obrotów_ruletki = 3;

  005a7	66 a1 00 00 00
	00		 mov	 ax, WORD PTR ?iloœæ_minimalna_obrotów_ruletki@@3FA ; iloœæ_minimalna_obrotów_ruletki
  005ad	8b cf		 mov	 ecx, edi
  005af	66 89 0d 00 00
	00 00		 mov	 WORD PTR ?iloœæ_max_dodatkowych_obrotów_ruletki@@3FA, cx ; iloœæ_max_dodatkowych_obrotów_ruletki
$LN8@SprawdŸ_u:

; 940  : 	}
; 941  : 	if ((iloœæ_minimalna_obrotów_ruletki == 0) && (iloœæ_max_dodatkowych_obrotów_ruletki == 0))

  005b6	66 85 c0	 test	 ax, ax
  005b9	75 4d		 jne	 SHORT $LN9@SprawdŸ_u
  005bb	66 85 c9	 test	 cx, cx
  005be	75 48		 jne	 SHORT $LN9@SprawdŸ_u

; 942  : 	{
; 943  : 		cout << "Jedna z deklaracji w sprawie obrotów ruletki musi byæ wiêksza od zera" << endl;

  005c0	8b 0d 00 00 00
	00		 mov	 ecx, DWORD PTR __imp_?cout@std@@3V?$basic_ostream@DU?$char_traits@D@std@@@1@A
  005c6	ba 00 00 00 00	 mov	 edx, OFFSET ??_C@_0EG@FJFKONPC@Jedna?5z?5deklaracji?5w?5sprawie?5obr@
  005cb	68 00 00 00 00	 push	 OFFSET ??$endl@DU?$char_traits@D@std@@@std@@YAAAV?$basic_ostream@DU?$char_traits@D@std@@@0@AAV10@@Z ; std::endl<char,std::char_traits<char> >
  005d0	e8 00 00 00 00	 call	 ??$?6U?$char_traits@D@std@@@std@@YAAAV?$basic_ostream@DU?$char_traits@D@std@@@0@AAV10@PBD@Z ; std::operator<<<std::char_traits<char> >
  005d5	8b c8		 mov	 ecx, eax
  005d7	ff 15 00 00 00
	00		 call	 DWORD PTR __imp_??6?$basic_ostream@DU?$char_traits@D@std@@@std@@QAEAAV01@P6AAAV01@AAV01@@Z@Z

; 944  : 		cout << "Ustawiam domyœlne ustawienie" << endl;

  005dd	8b 0d 00 00 00
	00		 mov	 ecx, DWORD PTR __imp_?cout@std@@3V?$basic_ostream@DU?$char_traits@D@std@@@1@A
  005e3	ba 00 00 00 00	 mov	 edx, OFFSET ??_C@_0BN@KMOICOCN@Ustawiam?5domy?$JMlne?5ustawienie?$AA@
  005e8	68 00 00 00 00	 push	 OFFSET ??$endl@DU?$char_traits@D@std@@@std@@YAAAV?$basic_ostream@DU?$char_traits@D@std@@@0@AAV10@@Z ; std::endl<char,std::char_traits<char> >
  005ed	e8 00 00 00 00	 call	 ??$?6U?$char_traits@D@std@@@std@@YAAAV?$basic_ostream@DU?$char_traits@D@std@@@0@AAV10@PBD@Z ; std::operator<<<std::char_traits<char> >
  005f2	8b c8		 mov	 ecx, eax
  005f4	ff 15 00 00 00
	00		 call	 DWORD PTR __imp_??6?$basic_ostream@DU?$char_traits@D@std@@@std@@QAEAAV01@P6AAAV01@AAV01@@Z@Z

; 945  : 		iloœæ_minimalna_obrotów_ruletki = 2;

  005fa	66 89 35 00 00
	00 00		 mov	 WORD PTR ?iloœæ_minimalna_obrotów_ruletki@@3FA, si ; iloœæ_minimalna_obrotów_ruletki

; 946  : 		iloœæ_max_dodatkowych_obrotów_ruletki = 3;

  00601	66 89 3d 00 00
	00 00		 mov	 WORD PTR ?iloœæ_max_dodatkowych_obrotów_ruletki@@3FA, di ; iloœæ_max_dodatkowych_obrotów_ruletki
$LN9@SprawdŸ_u:

; 947  : 	}
; 948  : 	if (((styl_liczenia_wygranej > 1) || (styl_liczenia_wygranej < 0)))

  00608	66 a1 00 00 00
	00		 mov	 ax, WORD PTR ?styl_liczenia_wygranej@@3FA ; styl_liczenia_wygranej
  0060e	be 01 00 00 00	 mov	 esi, 1
  00613	66 3b c6	 cmp	 ax, si
  00616	7f 05		 jg	 SHORT $LN11@SprawdŸ_u
  00618	66 85 c0	 test	 ax, ax
  0061b	79 41		 jns	 SHORT $LN10@SprawdŸ_u
$LN11@SprawdŸ_u:

; 949  : 	{
; 950  : 		cout << "Styl liczeia wygranej przyjmuje wartoœci tylko 0 lub 1" << endl;

  0061d	8b 0d 00 00 00
	00		 mov	 ecx, DWORD PTR __imp_?cout@std@@3V?$basic_ostream@DU?$char_traits@D@std@@@1@A
  00623	ba 00 00 00 00	 mov	 edx, OFFSET ??_C@_0DH@EDACBMH@Styl?5liczeia?5wygranej?5przyjmuje?5@
  00628	68 00 00 00 00	 push	 OFFSET ??$endl@DU?$char_traits@D@std@@@std@@YAAAV?$basic_ostream@DU?$char_traits@D@std@@@0@AAV10@@Z ; std::endl<char,std::char_traits<char> >
  0062d	e8 00 00 00 00	 call	 ??$?6U?$char_traits@D@std@@@std@@YAAAV?$basic_ostream@DU?$char_traits@D@std@@@0@AAV10@PBD@Z ; std::operator<<<std::char_traits<char> >
  00632	8b c8		 mov	 ecx, eax
  00634	ff 15 00 00 00
	00		 call	 DWORD PTR __imp_??6?$basic_ostream@DU?$char_traits@D@std@@@std@@QAEAAV01@P6AAAV01@AAV01@@Z@Z

; 951  : 		cout << "Ustawiam domyœlne ustawienie" << endl;

  0063a	8b 0d 00 00 00
	00		 mov	 ecx, DWORD PTR __imp_?cout@std@@3V?$basic_ostream@DU?$char_traits@D@std@@@1@A
  00640	ba 00 00 00 00	 mov	 edx, OFFSET ??_C@_0BN@KMOICOCN@Ustawiam?5domy?$JMlne?5ustawienie?$AA@
  00645	68 00 00 00 00	 push	 OFFSET ??$endl@DU?$char_traits@D@std@@@std@@YAAAV?$basic_ostream@DU?$char_traits@D@std@@@0@AAV10@@Z ; std::endl<char,std::char_traits<char> >
  0064a	e8 00 00 00 00	 call	 ??$?6U?$char_traits@D@std@@@std@@YAAAV?$basic_ostream@DU?$char_traits@D@std@@@0@AAV10@PBD@Z ; std::operator<<<std::char_traits<char> >
  0064f	8b c8		 mov	 ecx, eax
  00651	ff 15 00 00 00
	00		 call	 DWORD PTR __imp_??6?$basic_ostream@DU?$char_traits@D@std@@@std@@QAEAAV01@P6AAAV01@AAV01@@Z@Z

; 952  : 		styl_liczenia_wygranej = 1;

  00657	66 89 35 00 00
	00 00		 mov	 WORD PTR ?styl_liczenia_wygranej@@3FA, si ; styl_liczenia_wygranej
$LN10@SprawdŸ_u:

; 953  : 	}
; 954  : 	if (czas_przerwy_dzwiêku < 0)

  0065e	66 83 3d 00 00
	00 00 00	 cmp	 WORD PTR ?czas_przerwy_dzwiêku@@3FA, 0 ; czas_przerwy_dzwiêku
  00666	7d 45		 jge	 SHORT $LN12@SprawdŸ_u

; 955  : 	{
; 956  : 		cout << "Czas przerwy dŸwiêku nie mo¿e byæ mniejszy od zera" << endl;

  00668	8b 0d 00 00 00
	00		 mov	 ecx, DWORD PTR __imp_?cout@std@@3V?$basic_ostream@DU?$char_traits@D@std@@@1@A
  0066e	ba 00 00 00 00	 mov	 edx, OFFSET ??_C@_0DD@CJFGHGHP@Czas?5przerwy?5d?$JPwi?jku?5nie?5mo?$LPe?5by@
  00673	68 00 00 00 00	 push	 OFFSET ??$endl@DU?$char_traits@D@std@@@std@@YAAAV?$basic_ostream@DU?$char_traits@D@std@@@0@AAV10@@Z ; std::endl<char,std::char_traits<char> >
  00678	e8 00 00 00 00	 call	 ??$?6U?$char_traits@D@std@@@std@@YAAAV?$basic_ostream@DU?$char_traits@D@std@@@0@AAV10@PBD@Z ; std::operator<<<std::char_traits<char> >
  0067d	8b c8		 mov	 ecx, eax
  0067f	ff 15 00 00 00
	00		 call	 DWORD PTR __imp_??6?$basic_ostream@DU?$char_traits@D@std@@@std@@QAEAAV01@P6AAAV01@AAV01@@Z@Z

; 957  : 		cout << "Ustawiam domyœlne ustawienie" << endl;

  00685	8b 0d 00 00 00
	00		 mov	 ecx, DWORD PTR __imp_?cout@std@@3V?$basic_ostream@DU?$char_traits@D@std@@@1@A
  0068b	ba 00 00 00 00	 mov	 edx, OFFSET ??_C@_0BN@KMOICOCN@Ustawiam?5domy?$JMlne?5ustawienie?$AA@
  00690	68 00 00 00 00	 push	 OFFSET ??$endl@DU?$char_traits@D@std@@@std@@YAAAV?$basic_ostream@DU?$char_traits@D@std@@@0@AAV10@@Z ; std::endl<char,std::char_traits<char> >
  00695	e8 00 00 00 00	 call	 ??$?6U?$char_traits@D@std@@@std@@YAAAV?$basic_ostream@DU?$char_traits@D@std@@@0@AAV10@PBD@Z ; std::operator<<<std::char_traits<char> >
  0069a	8b c8		 mov	 ecx, eax
  0069c	ff 15 00 00 00
	00		 call	 DWORD PTR __imp_??6?$basic_ostream@DU?$char_traits@D@std@@@std@@QAEAAV01@P6AAAV01@AAV01@@Z@Z

; 958  : 		czas_przerwy_dzwiêku = 500;

  006a2	b8 f4 01 00 00	 mov	 eax, 500		; 000001f4H
  006a7	66 a3 00 00 00
	00		 mov	 WORD PTR ?czas_przerwy_dzwiêku@@3FA, ax ; czas_przerwy_dzwiêku
$LN12@SprawdŸ_u:

; 959  : 	}
; 960  : 	if (kwota_pocz¹tkowa < 0)

  006ad	83 3d 00 00 00
	00 00		 cmp	 DWORD PTR ?kwota_pocz¹tkowa@@3HA, 0 ; kwota_pocz¹tkowa
  006b4	7d 44		 jge	 SHORT $LN13@SprawdŸ_u

; 961  : 	{
; 962  : 		cout << "Kwota pocz¹tkowa nie mo¿e byæ mniejsza od zera" << endl;

  006b6	8b 0d 00 00 00
	00		 mov	 ecx, DWORD PTR __imp_?cout@std@@3V?$basic_ostream@DU?$char_traits@D@std@@@1@A
  006bc	ba 00 00 00 00	 mov	 edx, OFFSET ??_C@_0CP@ODEFLMCC@Kwota?5pocz?$LJtkowa?5nie?5mo?$LPe?5by?f?5mn@
  006c1	68 00 00 00 00	 push	 OFFSET ??$endl@DU?$char_traits@D@std@@@std@@YAAAV?$basic_ostream@DU?$char_traits@D@std@@@0@AAV10@@Z ; std::endl<char,std::char_traits<char> >
  006c6	e8 00 00 00 00	 call	 ??$?6U?$char_traits@D@std@@@std@@YAAAV?$basic_ostream@DU?$char_traits@D@std@@@0@AAV10@PBD@Z ; std::operator<<<std::char_traits<char> >
  006cb	8b c8		 mov	 ecx, eax
  006cd	ff 15 00 00 00
	00		 call	 DWORD PTR __imp_??6?$basic_ostream@DU?$char_traits@D@std@@@std@@QAEAAV01@P6AAAV01@AAV01@@Z@Z

; 963  : 		cout << "Ustawiam domyœlne ustawienie" << endl;

  006d3	8b 0d 00 00 00
	00		 mov	 ecx, DWORD PTR __imp_?cout@std@@3V?$basic_ostream@DU?$char_traits@D@std@@@1@A
  006d9	ba 00 00 00 00	 mov	 edx, OFFSET ??_C@_0BN@KMOICOCN@Ustawiam?5domy?$JMlne?5ustawienie?$AA@
  006de	68 00 00 00 00	 push	 OFFSET ??$endl@DU?$char_traits@D@std@@@std@@YAAAV?$basic_ostream@DU?$char_traits@D@std@@@0@AAV10@@Z ; std::endl<char,std::char_traits<char> >
  006e3	e8 00 00 00 00	 call	 ??$?6U?$char_traits@D@std@@@std@@YAAAV?$basic_ostream@DU?$char_traits@D@std@@@0@AAV10@PBD@Z ; std::operator<<<std::char_traits<char> >
  006e8	8b c8		 mov	 ecx, eax
  006ea	ff 15 00 00 00
	00		 call	 DWORD PTR __imp_??6?$basic_ostream@DU?$char_traits@D@std@@@std@@QAEAAV01@P6AAAV01@AAV01@@Z@Z

; 964  : 		kwota_pocz¹tkowa = 1000;

  006f0	c7 05 00 00 00
	00 e8 03 00 00	 mov	 DWORD PTR ?kwota_pocz¹tkowa@@3HA, 1000 ; kwota_pocz¹tkowa, 000003e8H
$LN13@SprawdŸ_u:

; 965  : 	}
; 966  : 	if ((stan_dŸwiêków > 1) || (stan_dŸwiêków < 0))

  006fa	66 a1 00 00 00
	00		 mov	 ax, WORD PTR ?stan_dŸwiêków@@3FA ; stan_dŸwiêków
  00700	66 83 f8 01	 cmp	 ax, 1
  00704	7f 05		 jg	 SHORT $LN15@SprawdŸ_u
  00706	66 85 c0	 test	 ax, ax
  00709	79 41		 jns	 SHORT $LN14@SprawdŸ_u
$LN15@SprawdŸ_u:

; 967  : 	{
; 968  : 		cout << "Stan dŸwiêków przyjmuje wartoœci tylko 0 lub 1" << endl;

  0070b	8b 0d 00 00 00
	00		 mov	 ecx, DWORD PTR __imp_?cout@std@@3V?$basic_ostream@DU?$char_traits@D@std@@@1@A
  00711	ba 00 00 00 00	 mov	 edx, OFFSET ??_C@_0CP@LNDFINPO@Stan?5d?$JPwi?jk?sw?5przyjmuje?5warto?$JMci@
  00716	68 00 00 00 00	 push	 OFFSET ??$endl@DU?$char_traits@D@std@@@std@@YAAAV?$basic_ostream@DU?$char_traits@D@std@@@0@AAV10@@Z ; std::endl<char,std::char_traits<char> >
  0071b	e8 00 00 00 00	 call	 ??$?6U?$char_traits@D@std@@@std@@YAAAV?$basic_ostream@DU?$char_traits@D@std@@@0@AAV10@PBD@Z ; std::operator<<<std::char_traits<char> >
  00720	8b c8		 mov	 ecx, eax
  00722	ff 15 00 00 00
	00		 call	 DWORD PTR __imp_??6?$basic_ostream@DU?$char_traits@D@std@@@std@@QAEAAV01@P6AAAV01@AAV01@@Z@Z

; 969  : 		cout << "Ustawiam domyœlne ustawienie" << endl;

  00728	8b 0d 00 00 00
	00		 mov	 ecx, DWORD PTR __imp_?cout@std@@3V?$basic_ostream@DU?$char_traits@D@std@@@1@A
  0072e	ba 00 00 00 00	 mov	 edx, OFFSET ??_C@_0BN@KMOICOCN@Ustawiam?5domy?$JMlne?5ustawienie?$AA@
  00733	68 00 00 00 00	 push	 OFFSET ??$endl@DU?$char_traits@D@std@@@std@@YAAAV?$basic_ostream@DU?$char_traits@D@std@@@0@AAV10@@Z ; std::endl<char,std::char_traits<char> >
  00738	e8 00 00 00 00	 call	 ??$?6U?$char_traits@D@std@@@std@@YAAAV?$basic_ostream@DU?$char_traits@D@std@@@0@AAV10@PBD@Z ; std::operator<<<std::char_traits<char> >
  0073d	8b c8		 mov	 ecx, eax
  0073f	ff 15 00 00 00
	00		 call	 DWORD PTR __imp_??6?$basic_ostream@DU?$char_traits@D@std@@@std@@QAEAAV01@P6AAAV01@AAV01@@Z@Z

; 970  : 		stan_dŸwiêków = 1;

  00745	66 89 35 00 00
	00 00		 mov	 WORD PTR ?stan_dŸwiêków@@3FA, si ; stan_dŸwiêków
$LN14@SprawdŸ_u:

; 971  : 	}
; 972  : 	if ((czy_kontynuowaæ_grê > 1) || (czy_kontynuowaæ_grê < 0))

  0074c	66 a1 00 00 00
	00		 mov	 ax, WORD PTR ?czy_kontynuowaæ_grê@@3FA ; czy_kontynuowaæ_grê
  00752	66 83 f8 01	 cmp	 ax, 1
  00756	7f 05		 jg	 SHORT $LN17@SprawdŸ_u
  00758	66 85 c0	 test	 ax, ax
  0075b	79 41		 jns	 SHORT $LN16@SprawdŸ_u
$LN17@SprawdŸ_u:

; 973  : 	{
; 974  : 		cout << "Opcja kontynuowania gry przyjmuje wartoœci tylko 0 lub 1" << endl;

  0075d	8b 0d 00 00 00
	00		 mov	 ecx, DWORD PTR __imp_?cout@std@@3V?$basic_ostream@DU?$char_traits@D@std@@@1@A
  00763	ba 00 00 00 00	 mov	 edx, OFFSET ??_C@_0DJ@OKKJHGDF@Opcja?5kontynuowania?5gry?5przyjmuj@
  00768	68 00 00 00 00	 push	 OFFSET ??$endl@DU?$char_traits@D@std@@@std@@YAAAV?$basic_ostream@DU?$char_traits@D@std@@@0@AAV10@@Z ; std::endl<char,std::char_traits<char> >
  0076d	e8 00 00 00 00	 call	 ??$?6U?$char_traits@D@std@@@std@@YAAAV?$basic_ostream@DU?$char_traits@D@std@@@0@AAV10@PBD@Z ; std::operator<<<std::char_traits<char> >
  00772	8b c8		 mov	 ecx, eax
  00774	ff 15 00 00 00
	00		 call	 DWORD PTR __imp_??6?$basic_ostream@DU?$char_traits@D@std@@@std@@QAEAAV01@P6AAAV01@AAV01@@Z@Z

; 975  : 		cout << "Ustawiam domyœlne ustawienie" << endl;

  0077a	8b 0d 00 00 00
	00		 mov	 ecx, DWORD PTR __imp_?cout@std@@3V?$basic_ostream@DU?$char_traits@D@std@@@1@A
  00780	ba 00 00 00 00	 mov	 edx, OFFSET ??_C@_0BN@KMOICOCN@Ustawiam?5domy?$JMlne?5ustawienie?$AA@
  00785	68 00 00 00 00	 push	 OFFSET ??$endl@DU?$char_traits@D@std@@@std@@YAAAV?$basic_ostream@DU?$char_traits@D@std@@@0@AAV10@@Z ; std::endl<char,std::char_traits<char> >
  0078a	e8 00 00 00 00	 call	 ??$?6U?$char_traits@D@std@@@std@@YAAAV?$basic_ostream@DU?$char_traits@D@std@@@0@AAV10@PBD@Z ; std::operator<<<std::char_traits<char> >
  0078f	8b c8		 mov	 ecx, eax
  00791	ff 15 00 00 00
	00		 call	 DWORD PTR __imp_??6?$basic_ostream@DU?$char_traits@D@std@@@std@@QAEAAV01@P6AAAV01@AAV01@@Z@Z

; 976  : 		czy_kontynuowaæ_grê = 1;

  00797	66 89 35 00 00
	00 00		 mov	 WORD PTR ?czy_kontynuowaæ_grê@@3FA, si ; czy_kontynuowaæ_grê
$LN16@SprawdŸ_u:

; 977  : 	}
; 978  : 	if ((g³os_odczytu_numeru > 10) || (g³os_odczytu_numeru < 0))

  0079e	66 a1 00 00 00
	00		 mov	 ax, WORD PTR ?g³os_odczytu_numeru@@3FA ; g³os_odczytu_numeru
  007a4	66 83 f8 0a	 cmp	 ax, 10			; 0000000aH
  007a8	7f 05		 jg	 SHORT $LN19@SprawdŸ_u
  007aa	66 85 c0	 test	 ax, ax
  007ad	79 41		 jns	 SHORT $LN18@SprawdŸ_u
$LN19@SprawdŸ_u:

; 979  : 	{
; 980  : 		cout << "Opcja g³os odczytu numeru przyjmuje wartoœci w przedziale [0;10]" << endl;

  007af	8b 0d 00 00 00
	00		 mov	 ecx, DWORD PTR __imp_?cout@std@@3V?$basic_ostream@DU?$char_traits@D@std@@@1@A
  007b5	ba 00 00 00 00	 mov	 edx, OFFSET ??_C@_0EB@BAPPBOHB@Opcja?5g?$LDos?5odczytu?5numeru?5przyjm@
  007ba	68 00 00 00 00	 push	 OFFSET ??$endl@DU?$char_traits@D@std@@@std@@YAAAV?$basic_ostream@DU?$char_traits@D@std@@@0@AAV10@@Z ; std::endl<char,std::char_traits<char> >
  007bf	e8 00 00 00 00	 call	 ??$?6U?$char_traits@D@std@@@std@@YAAAV?$basic_ostream@DU?$char_traits@D@std@@@0@AAV10@PBD@Z ; std::operator<<<std::char_traits<char> >
  007c4	8b c8		 mov	 ecx, eax
  007c6	ff 15 00 00 00
	00		 call	 DWORD PTR __imp_??6?$basic_ostream@DU?$char_traits@D@std@@@std@@QAEAAV01@P6AAAV01@AAV01@@Z@Z

; 981  : 		cout << "Ustawiam domyœlne ustawienie" << endl;

  007cc	8b 0d 00 00 00
	00		 mov	 ecx, DWORD PTR __imp_?cout@std@@3V?$basic_ostream@DU?$char_traits@D@std@@@1@A
  007d2	ba 00 00 00 00	 mov	 edx, OFFSET ??_C@_0BN@KMOICOCN@Ustawiam?5domy?$JMlne?5ustawienie?$AA@
  007d7	68 00 00 00 00	 push	 OFFSET ??$endl@DU?$char_traits@D@std@@@std@@YAAAV?$basic_ostream@DU?$char_traits@D@std@@@0@AAV10@@Z ; std::endl<char,std::char_traits<char> >
  007dc	e8 00 00 00 00	 call	 ??$?6U?$char_traits@D@std@@@std@@YAAAV?$basic_ostream@DU?$char_traits@D@std@@@0@AAV10@PBD@Z ; std::operator<<<std::char_traits<char> >
  007e1	8b c8		 mov	 ecx, eax
  007e3	ff 15 00 00 00
	00		 call	 DWORD PTR __imp_??6?$basic_ostream@DU?$char_traits@D@std@@@std@@QAEAAV01@P6AAAV01@AAV01@@Z@Z

; 982  : 		g³os_odczytu_numeru = 1;

  007e9	66 89 35 00 00
	00 00		 mov	 WORD PTR ?g³os_odczytu_numeru@@3FA, si ; g³os_odczytu_numeru
$LN18@SprawdŸ_u:

; 983  : 	}
; 984  : 	if ((g³os_szybkoœæ_odczytu_numeru > 5) || (g³os_szybkoœæ_odczytu_numeru < 1))

  007f0	66 a1 00 00 00
	00		 mov	 ax, WORD PTR ?g³os_szybkoœæ_odczytu_numeru@@3FA ; g³os_szybkoœæ_odczytu_numeru
  007f6	66 83 f8 05	 cmp	 ax, 5
  007fa	7f 06		 jg	 SHORT $LN21@SprawdŸ_u
  007fc	66 83 f8 01	 cmp	 ax, 1
  00800	7d 45		 jge	 SHORT $LN20@SprawdŸ_u
$LN21@SprawdŸ_u:

; 985  : 	{
; 986  : 		cout << "Opcja szybkoœæ g³osu odczytu przyjmuje wartoœci w przedziale [1;5]" << endl;

  00802	8b 0d 00 00 00
	00		 mov	 ecx, DWORD PTR __imp_?cout@std@@3V?$basic_ostream@DU?$char_traits@D@std@@@1@A
  00808	ba 00 00 00 00	 mov	 edx, OFFSET ??_C@_0ED@BNKOADPP@Opcja?5szybko?$JM?f?5g?$LDosu?5odczytu?5prz@
  0080d	68 00 00 00 00	 push	 OFFSET ??$endl@DU?$char_traits@D@std@@@std@@YAAAV?$basic_ostream@DU?$char_traits@D@std@@@0@AAV10@@Z ; std::endl<char,std::char_traits<char> >
  00812	e8 00 00 00 00	 call	 ??$?6U?$char_traits@D@std@@@std@@YAAAV?$basic_ostream@DU?$char_traits@D@std@@@0@AAV10@PBD@Z ; std::operator<<<std::char_traits<char> >
  00817	8b c8		 mov	 ecx, eax
  00819	ff 15 00 00 00
	00		 call	 DWORD PTR __imp_??6?$basic_ostream@DU?$char_traits@D@std@@@std@@QAEAAV01@P6AAAV01@AAV01@@Z@Z

; 987  : 		cout << "Ustawiam domyœlne ustawienie" << endl;

  0081f	8b 0d 00 00 00
	00		 mov	 ecx, DWORD PTR __imp_?cout@std@@3V?$basic_ostream@DU?$char_traits@D@std@@@1@A
  00825	ba 00 00 00 00	 mov	 edx, OFFSET ??_C@_0BN@KMOICOCN@Ustawiam?5domy?$JMlne?5ustawienie?$AA@
  0082a	68 00 00 00 00	 push	 OFFSET ??$endl@DU?$char_traits@D@std@@@std@@YAAAV?$basic_ostream@DU?$char_traits@D@std@@@0@AAV10@@Z ; std::endl<char,std::char_traits<char> >
  0082f	e8 00 00 00 00	 call	 ??$?6U?$char_traits@D@std@@@std@@YAAAV?$basic_ostream@DU?$char_traits@D@std@@@0@AAV10@PBD@Z ; std::operator<<<std::char_traits<char> >
  00834	8b c8		 mov	 ecx, eax
  00836	ff 15 00 00 00
	00		 call	 DWORD PTR __imp_??6?$basic_ostream@DU?$char_traits@D@std@@@std@@QAEAAV01@P6AAAV01@AAV01@@Z@Z

; 988  : 		g³os_szybkoœæ_odczytu_numeru = 4;

  0083c	b8 04 00 00 00	 mov	 eax, 4
  00841	66 a3 00 00 00
	00		 mov	 WORD PTR ?g³os_szybkoœæ_odczytu_numeru@@3FA, ax ; g³os_szybkoœæ_odczytu_numeru
$LN20@SprawdŸ_u:

; 989  : 	}
; 990  : 	if ((efekty_dŸwiêkowe > 1) || (efekty_dŸwiêkowe < 0))

  00847	66 a1 00 00 00
	00		 mov	 ax, WORD PTR ?efekty_dŸwiêkowe@@3FA ; efekty_dŸwiêkowe
  0084d	66 83 f8 01	 cmp	 ax, 1
  00851	7f 11		 jg	 SHORT $LN23@SprawdŸ_u
  00853	66 85 c0	 test	 ax, ax
  00856	78 0c		 js	 SHORT $LN23@SprawdŸ_u

; 995  : 	}
; 996  : 	if (efekty_dŸwiêkowe == 1 && stan_dŸwiêków == 0)

  00858	66 83 f8 01	 cmp	 ax, 1
  0085c	0f 85 8e 00 00
	00		 jne	 $LN24@SprawdŸ_u
  00862	eb 41		 jmp	 SHORT $LN152@SprawdŸ_u
$LN23@SprawdŸ_u:

; 991  : 	{
; 992  : 		cout << "Opcja efekty dŸwiêkowe przyjmuje wartoœci 0 lub 1" << endl;

  00864	8b 0d 00 00 00
	00		 mov	 ecx, DWORD PTR __imp_?cout@std@@3V?$basic_ostream@DU?$char_traits@D@std@@@1@A
  0086a	ba 00 00 00 00	 mov	 edx, OFFSET ??_C@_0DC@HENMFLLO@Opcja?5efekty?5d?$JPwi?jkowe?5przyjmuje@
  0086f	68 00 00 00 00	 push	 OFFSET ??$endl@DU?$char_traits@D@std@@@std@@YAAAV?$basic_ostream@DU?$char_traits@D@std@@@0@AAV10@@Z ; std::endl<char,std::char_traits<char> >
  00874	e8 00 00 00 00	 call	 ??$?6U?$char_traits@D@std@@@std@@YAAAV?$basic_ostream@DU?$char_traits@D@std@@@0@AAV10@PBD@Z ; std::operator<<<std::char_traits<char> >
  00879	8b c8		 mov	 ecx, eax
  0087b	ff 15 00 00 00
	00		 call	 DWORD PTR __imp_??6?$basic_ostream@DU?$char_traits@D@std@@@std@@QAEAAV01@P6AAAV01@AAV01@@Z@Z

; 993  : 		cout << "Ustawiam domyœlne ustawienie" << endl;

  00881	8b 0d 00 00 00
	00		 mov	 ecx, DWORD PTR __imp_?cout@std@@3V?$basic_ostream@DU?$char_traits@D@std@@@1@A
  00887	ba 00 00 00 00	 mov	 edx, OFFSET ??_C@_0BN@KMOICOCN@Ustawiam?5domy?$JMlne?5ustawienie?$AA@
  0088c	68 00 00 00 00	 push	 OFFSET ??$endl@DU?$char_traits@D@std@@@std@@YAAAV?$basic_ostream@DU?$char_traits@D@std@@@0@AAV10@@Z ; std::endl<char,std::char_traits<char> >
  00891	e8 00 00 00 00	 call	 ??$?6U?$char_traits@D@std@@@std@@YAAAV?$basic_ostream@DU?$char_traits@D@std@@@0@AAV10@PBD@Z ; std::operator<<<std::char_traits<char> >
  00896	8b c8		 mov	 ecx, eax
  00898	ff 15 00 00 00
	00		 call	 DWORD PTR __imp_??6?$basic_ostream@DU?$char_traits@D@std@@@std@@QAEAAV01@P6AAAV01@AAV01@@Z@Z

; 994  : 		efekty_dŸwiêkowe = 1;

  0089e	66 89 35 00 00
	00 00		 mov	 WORD PTR ?efekty_dŸwiêkowe@@3FA, si ; efekty_dŸwiêkowe
$LN152@SprawdŸ_u:

; 995  : 	}
; 996  : 	if (efekty_dŸwiêkowe == 1 && stan_dŸwiêków == 0)

  008a5	66 83 3d 00 00
	00 00 00	 cmp	 WORD PTR ?stan_dŸwiêków@@3FA, 0 ; stan_dŸwiêków
  008ad	75 41		 jne	 SHORT $LN24@SprawdŸ_u

; 997  : 	{
; 998  : 		cout << "Nie mo¿esz mieæ wy³¹czonych dŸwiêków i w³¹czonych efektów dŸwiêkowych" << endl;

  008af	8b 0d 00 00 00
	00		 mov	 ecx, DWORD PTR __imp_?cout@std@@3V?$basic_ostream@DU?$char_traits@D@std@@@1@A
  008b5	ba 00 00 00 00	 mov	 edx, OFFSET ??_C@_0EG@GKBLFIMF@Nie?5mo?$LPesz?5mie?f?5wy?$LD?$LJczonych?5d?$JPwi@
  008ba	68 00 00 00 00	 push	 OFFSET ??$endl@DU?$char_traits@D@std@@@std@@YAAAV?$basic_ostream@DU?$char_traits@D@std@@@0@AAV10@@Z ; std::endl<char,std::char_traits<char> >
  008bf	e8 00 00 00 00	 call	 ??$?6U?$char_traits@D@std@@@std@@YAAAV?$basic_ostream@DU?$char_traits@D@std@@@0@AAV10@PBD@Z ; std::operator<<<std::char_traits<char> >
  008c4	8b c8		 mov	 ecx, eax
  008c6	ff 15 00 00 00
	00		 call	 DWORD PTR __imp_??6?$basic_ostream@DU?$char_traits@D@std@@@std@@QAEAAV01@P6AAAV01@AAV01@@Z@Z

; 999  : 		cout << "Ustawiam domyœlne ustawienie" << endl;

  008cc	8b 0d 00 00 00
	00		 mov	 ecx, DWORD PTR __imp_?cout@std@@3V?$basic_ostream@DU?$char_traits@D@std@@@1@A
  008d2	ba 00 00 00 00	 mov	 edx, OFFSET ??_C@_0BN@KMOICOCN@Ustawiam?5domy?$JMlne?5ustawienie?$AA@
  008d7	68 00 00 00 00	 push	 OFFSET ??$endl@DU?$char_traits@D@std@@@std@@YAAAV?$basic_ostream@DU?$char_traits@D@std@@@0@AAV10@@Z ; std::endl<char,std::char_traits<char> >
  008dc	e8 00 00 00 00	 call	 ??$?6U?$char_traits@D@std@@@std@@YAAAV?$basic_ostream@DU?$char_traits@D@std@@@0@AAV10@PBD@Z ; std::operator<<<std::char_traits<char> >
  008e1	8b c8		 mov	 ecx, eax
  008e3	ff 15 00 00 00
	00		 call	 DWORD PTR __imp_??6?$basic_ostream@DU?$char_traits@D@std@@@std@@QAEAAV01@P6AAAV01@AAV01@@Z@Z

; 1000 : 		stan_dŸwiêków = 1;

  008e9	66 89 35 00 00
	00 00		 mov	 WORD PTR ?stan_dŸwiêków@@3FA, si ; stan_dŸwiêków
$LN24@SprawdŸ_u:

; 1001 : 	}
; 1002 : 	if (g³os_odczytu_numeru > 0 && stan_dŸwiêków == 0)

  008f0	66 83 3d 00 00
	00 00 00	 cmp	 WORD PTR ?g³os_odczytu_numeru@@3FA, 0 ; g³os_odczytu_numeru
  008f8	7e 4b		 jle	 SHORT $LN25@SprawdŸ_u
  008fa	66 83 3d 00 00
	00 00 00	 cmp	 WORD PTR ?stan_dŸwiêków@@3FA, 0 ; stan_dŸwiêków
  00902	75 41		 jne	 SHORT $LN25@SprawdŸ_u

; 1003 : 	{
; 1004 : 		cout << "Nie mo¿esz mieæ wy³¹czonych dŸwiêków i w³¹czon¹ mowê" << endl;

  00904	8b 0d 00 00 00
	00		 mov	 ecx, DWORD PTR __imp_?cout@std@@3V?$basic_ostream@DU?$char_traits@D@std@@@1@A
  0090a	ba 00 00 00 00	 mov	 edx, OFFSET ??_C@_0DF@LJEKJLPK@Nie?5mo?$LPesz?5mie?f?5wy?$LD?$LJczonych?5d?$JPwi@
  0090f	68 00 00 00 00	 push	 OFFSET ??$endl@DU?$char_traits@D@std@@@std@@YAAAV?$basic_ostream@DU?$char_traits@D@std@@@0@AAV10@@Z ; std::endl<char,std::char_traits<char> >
  00914	e8 00 00 00 00	 call	 ??$?6U?$char_traits@D@std@@@std@@YAAAV?$basic_ostream@DU?$char_traits@D@std@@@0@AAV10@PBD@Z ; std::operator<<<std::char_traits<char> >
  00919	8b c8		 mov	 ecx, eax
  0091b	ff 15 00 00 00
	00		 call	 DWORD PTR __imp_??6?$basic_ostream@DU?$char_traits@D@std@@@std@@QAEAAV01@P6AAAV01@AAV01@@Z@Z

; 1005 : 		cout << "Ustawiam domyœlne ustawienie" << endl;

  00921	8b 0d 00 00 00
	00		 mov	 ecx, DWORD PTR __imp_?cout@std@@3V?$basic_ostream@DU?$char_traits@D@std@@@1@A
  00927	ba 00 00 00 00	 mov	 edx, OFFSET ??_C@_0BN@KMOICOCN@Ustawiam?5domy?$JMlne?5ustawienie?$AA@
  0092c	68 00 00 00 00	 push	 OFFSET ??$endl@DU?$char_traits@D@std@@@std@@YAAAV?$basic_ostream@DU?$char_traits@D@std@@@0@AAV10@@Z ; std::endl<char,std::char_traits<char> >
  00931	e8 00 00 00 00	 call	 ??$?6U?$char_traits@D@std@@@std@@YAAAV?$basic_ostream@DU?$char_traits@D@std@@@0@AAV10@PBD@Z ; std::operator<<<std::char_traits<char> >
  00936	8b c8		 mov	 ecx, eax
  00938	ff 15 00 00 00
	00		 call	 DWORD PTR __imp_??6?$basic_ostream@DU?$char_traits@D@std@@@std@@QAEAAV01@P6AAAV01@AAV01@@Z@Z

; 1006 : 		stan_dŸwiêków = 1;

  0093e	66 89 35 00 00
	00 00		 mov	 WORD PTR ?stan_dŸwiêków@@3FA, si ; stan_dŸwiêków
$LN25@SprawdŸ_u:

; 1007 : 	}
; 1008 : }

  00945	8b 4d f4	 mov	 ecx, DWORD PTR __$EHRec$[ebp]
  00948	64 89 0d 00 00
	00 00		 mov	 DWORD PTR fs:0, ecx
  0094f	59		 pop	 ecx
  00950	5f		 pop	 edi
  00951	5e		 pop	 esi
  00952	5b		 pop	 ebx
  00953	8b 4d f0	 mov	 ecx, DWORD PTR __$ArrayPad$[ebp]
  00956	33 cd		 xor	 ecx, ebp
  00958	e8 00 00 00 00	 call	 @__security_check_cookie@4
  0095d	8b e5		 mov	 esp, ebp
  0095f	5d		 pop	 ebp
  00960	c3		 ret	 0
$LN154@SprawdŸ_u:
_TEXT	ENDS
;	COMDAT text$x
text$x	SEGMENT
__unwindfunclet$?SprawdŸ_ustawienia@@YAXXZ$4:
  00000	8b 85 6c fe ff
	ff		 mov	 eax, DWORD PTR $T1[ebp]
  00006	83 e0 01	 and	 eax, 1
  00009	0f 84 13 00 00
	00		 je	 $LN37@SprawdŸ_u
  0000f	83 a5 6c fe ff
	ff fe		 and	 DWORD PTR $T1[ebp], -2	; fffffffeH
  00016	8d 8d e0 fe ff
	ff		 lea	 ecx, DWORD PTR _ustawienia$11[ebp+112]
  0001c	ff 25 00 00 00
	00		 jmp	 DWORD PTR __imp_??1?$basic_ios@DU?$char_traits@D@std@@@std@@UAE@XZ
$LN37@SprawdŸ_u:
  00022	c3		 ret	 0
__unwindfunclet$?SprawdŸ_ustawienia@@YAXXZ$5:
  00023	8d 8d 88 fe ff
	ff		 lea	 ecx, DWORD PTR _ustawienia$11[ebp+24]
  00029	ff 25 00 00 00
	00		 jmp	 DWORD PTR __imp_??1?$basic_istream@DU?$char_traits@D@std@@@std@@UAE@XZ
__unwindfunclet$?SprawdŸ_ustawienia@@YAXXZ$7:
  0002f	8b 8d 68 fe ff
	ff		 mov	 ecx, DWORD PTR _this$[ebp]
  00035	ff 25 00 00 00
	00		 jmp	 DWORD PTR __imp_??1?$basic_streambuf@DU?$char_traits@D@std@@@std@@UAE@XZ
__unwindfunclet$?SprawdŸ_ustawienia@@YAXXZ$0:
  0003b	8d 8d 70 fe ff
	ff		 lea	 ecx, DWORD PTR _ustawienia$11[ebp]
  00041	e9 00 00 00 00	 jmp	 ??_D?$basic_ifstream@DU?$char_traits@D@std@@@std@@QAEXXZ
__unwindfunclet$?SprawdŸ_ustawienia@@YAXXZ$1:
  00046	8d 4d d8	 lea	 ecx, DWORD PTR _buf$13[ebp]
  00049	e9 00 00 00 00	 jmp	 ??1?$basic_string@DU?$char_traits@D@std@@V?$allocator@D@2@@std@@QAE@XZ ; std::basic_string<char,std::char_traits<char>,std::allocator<char> >::~basic_string<char,std::char_traits<char>,std::allocator<char> >
__unwindfunclet$?SprawdŸ_ustawienia@@YAXXZ$2:
  0004e	8d 8d 28 ff ff
	ff		 lea	 ecx, DWORD PTR _ustawienia$12[ebp]
  00054	e9 00 00 00 00	 jmp	 ??_D?$basic_ofstream@DU?$char_traits@D@std@@@std@@QAEXXZ
__ehhandler$?SprawdŸ_ustawienia@@YAXXZ:
  00059	8b 54 24 08	 mov	 edx, DWORD PTR [esp+8]
  0005d	8d 42 0c	 lea	 eax, DWORD PTR [edx+12]
  00060	8b 8a 64 fe ff
	ff		 mov	 ecx, DWORD PTR [edx-412]
  00066	33 c8		 xor	 ecx, eax
  00068	e8 00 00 00 00	 call	 @__security_check_cookie@4
  0006d	8b 4a fc	 mov	 ecx, DWORD PTR [edx-4]
  00070	33 c8		 xor	 ecx, eax
  00072	e8 00 00 00 00	 call	 @__security_check_cookie@4
  00077	b8 00 00 00 00	 mov	 eax, OFFSET __ehfuncinfo$?SprawdŸ_ustawienia@@YAXXZ
  0007c	e9 00 00 00 00	 jmp	 ___CxxFrameHandler3
text$x	ENDS
?SprawdŸ_ustawienia@@YAXXZ ENDP				; SprawdŸ_ustawienia
; Function compile flags: /Ogtp
; File f:\users\krzysztof\documents\szko³a\2017-2018\informatyka\labolatorium\ruletka\ruletka\main.cpp
; File f:\program files (x86)\microsoft visual studio\2017\enterprise\vc\tools\msvc\14.11.25503\include\xstring
; File f:\program files (x86)\microsoft visual studio\2017\enterprise\vc\tools\msvc\14.11.25503\include\xstddef
; File f:\users\krzysztof\documents\szko³a\2017-2018\informatyka\labolatorium\ruletka\ruletka\main.cpp
;	COMDAT ?Og³oœ_wynik@@YAXABH0AAHAAV?$basic_ofstream@DU?$char_traits@D@std@@@std@@AAV?$basic_fstream@DU?$char_traits@D@std@@@2@@Z
_TEXT	SEGMENT
$T1 = -36						; size = 24
_kwota_zak³adu$1$ = -12					; size = 4
_wygrana$1$ = -8					; size = 4
_iloœæ_pieniêdzy$ = 8					; size = 4
_log_ogólny$ = 12					; size = 4
_log$ = 16						; size = 4
?Og³oœ_wynik@@YAXABH0AAHAAV?$basic_ofstream@DU?$char_traits@D@std@@@std@@AAV?$basic_fstream@DU?$char_traits@D@std@@@2@@Z PROC ; Og³oœ_wynik, COMDAT
; _wygrana$ = ecx
; _kwota_zak³adu$ = edx

; 1011 : {

  00000	55		 push	 ebp
  00001	8b ec		 mov	 ebp, esp
  00003	83 ec 28	 sub	 esp, 40			; 00000028H
  00006	53		 push	 ebx
  00007	8b c2		 mov	 eax, edx
  00009	89 4d f8	 mov	 DWORD PTR _wygrana$1$[ebp], ecx
  0000c	56		 push	 esi

; 1012 : 	if (wygrana >= kwota_zak³adu) //Je¿eli wygrana jest wiêksza lub równa kwocie zak³adu to znaczy, ¿e siê wygra³o zak³ad

  0000d	8b 31		 mov	 esi, DWORD PTR [ecx]
  0000f	57		 push	 edi
  00010	8b 38		 mov	 edi, DWORD PTR [eax]
  00012	89 45 f4	 mov	 DWORD PTR _kwota_zak³adu$1$[ebp], eax
  00015	3b f7		 cmp	 esi, edi
  00017	0f 8c 7a 01 00
	00		 jl	 $LN2@Og?

; 1013 : 	{
; 1014 : 		iloœæ_pieniêdzy += wygrana; //Dopisanie do salda kwoty wygranej z zak³adu

  0001d	8b 5d 08	 mov	 ebx, DWORD PTR _iloœæ_pieniêdzy$[ebp]
  00020	01 33		 add	 DWORD PTR [ebx], esi

; 1015 : 		if (styl_liczenia_wygranej) iloœæ_pieniêdzy += kwota_zak³adu; //Dopisanie do salda kwoty zak³adu

  00022	66 83 3d 00 00
	00 00 00	 cmp	 WORD PTR ?styl_liczenia_wygranej@@3FA, 0 ; styl_liczenia_wygranej
  0002a	74 04		 je	 SHORT $LN4@Og?
  0002c	8b 00		 mov	 eax, DWORD PTR [eax]
  0002e	01 03		 add	 DWORD PTR [ebx], eax
$LN4@Og?:

; 1016 : 		log << " Wygrywasz " << wygrana << "$"; //Zapisanie do bufora pliku logu aktualnego informacji o kwocie wygranej zak³adu

  00030	8b 45 10	 mov	 eax, DWORD PTR _log$[ebp]
  00033	33 d2		 xor	 edx, edx
  00035	ff 31		 push	 DWORD PTR [ecx]
  00037	85 c0		 test	 eax, eax
  00039	51		 push	 ecx
  0003a	8d 78 10	 lea	 edi, DWORD PTR [eax+16]
  0003d	8b f7		 mov	 esi, edi
  0003f	0f 44 f2	 cmove	 esi, edx
  00042	ba 00 00 00 00	 mov	 edx, OFFSET ??_C@_0M@GPFIMODH@?5Wygrywasz?5?$AA@
  00047	8b ce		 mov	 ecx, esi
  00049	e8 00 00 00 00	 call	 ??$?6U?$char_traits@D@std@@@std@@YAAAV?$basic_ostream@DU?$char_traits@D@std@@@0@AAV10@PBD@Z ; std::operator<<<std::char_traits<char> >
  0004e	83 c4 04	 add	 esp, 4
  00051	8b c8		 mov	 ecx, eax
  00053	ff 15 00 00 00
	00		 call	 DWORD PTR __imp_??6?$basic_ostream@DU?$char_traits@D@std@@@std@@QAEAAV01@H@Z
  00059	ba 00 00 00 00	 mov	 edx, OFFSET ??_C@_01EPMOAMKG@$?$AA@
  0005e	8b c8		 mov	 ecx, eax
  00060	e8 00 00 00 00	 call	 ??$?6U?$char_traits@D@std@@@std@@YAAAV?$basic_ostream@DU?$char_traits@D@std@@@0@AAV10@PBD@Z ; std::operator<<<std::char_traits<char> >

; 1017 : 		log << " Posiadasz " << iloœæ_pieniêdzy << "$" << endl; //Zapisanie do bufora pliku logu aktualnego informacji o saldzie konta u¿ytkownika

  00065	68 00 00 00 00	 push	 OFFSET ??$endl@DU?$char_traits@D@std@@@std@@YAAAV?$basic_ostream@DU?$char_traits@D@std@@@0@AAV10@@Z ; std::endl<char,std::char_traits<char> >
  0006a	51		 push	 ecx
  0006b	ff 33		 push	 DWORD PTR [ebx]
  0006d	ba 00 00 00 00	 mov	 edx, OFFSET ??_C@_0M@GNFNLGIH@?5Posiadasz?5?$AA@
  00072	51		 push	 ecx
  00073	8b ce		 mov	 ecx, esi
  00075	e8 00 00 00 00	 call	 ??$?6U?$char_traits@D@std@@@std@@YAAAV?$basic_ostream@DU?$char_traits@D@std@@@0@AAV10@PBD@Z ; std::operator<<<std::char_traits<char> >
  0007a	83 c4 04	 add	 esp, 4
  0007d	8b c8		 mov	 ecx, eax
  0007f	ff 15 00 00 00
	00		 call	 DWORD PTR __imp_??6?$basic_ostream@DU?$char_traits@D@std@@@std@@QAEAAV01@H@Z
  00085	ba 00 00 00 00	 mov	 edx, OFFSET ??_C@_01EPMOAMKG@$?$AA@
  0008a	8b c8		 mov	 ecx, eax
  0008c	e8 00 00 00 00	 call	 ??$?6U?$char_traits@D@std@@@std@@YAAAV?$basic_ostream@DU?$char_traits@D@std@@@0@AAV10@PBD@Z ; std::operator<<<std::char_traits<char> >
  00091	83 c4 04	 add	 esp, 4
  00094	8b c8		 mov	 ecx, eax
  00096	ff 15 00 00 00
	00		 call	 DWORD PTR __imp_??6?$basic_ostream@DU?$char_traits@D@std@@@std@@QAEAAV01@P6AAAV01@AAV01@@Z@Z

; 1018 : 		log_ogólny << " Wygrywasz " << wygrana << "$"; //Zapisanie do bufora pliku logu ogólnego informacji o kwocie wygranej zak³adu

  0009c	8b 45 f8	 mov	 eax, DWORD PTR _wygrana$1$[ebp]
  0009f	ba 00 00 00 00	 mov	 edx, OFFSET ??_C@_0M@GPFIMODH@?5Wygrywasz?5?$AA@
  000a4	8b 75 0c	 mov	 esi, DWORD PTR _log_ogólny$[ebp]
  000a7	ff 30		 push	 DWORD PTR [eax]
  000a9	51		 push	 ecx
  000aa	8b ce		 mov	 ecx, esi
  000ac	e8 00 00 00 00	 call	 ??$?6U?$char_traits@D@std@@@std@@YAAAV?$basic_ostream@DU?$char_traits@D@std@@@0@AAV10@PBD@Z ; std::operator<<<std::char_traits<char> >
  000b1	83 c4 04	 add	 esp, 4
  000b4	8b c8		 mov	 ecx, eax
  000b6	ff 15 00 00 00
	00		 call	 DWORD PTR __imp_??6?$basic_ostream@DU?$char_traits@D@std@@@std@@QAEAAV01@H@Z
  000bc	ba 00 00 00 00	 mov	 edx, OFFSET ??_C@_01EPMOAMKG@$?$AA@
  000c1	8b c8		 mov	 ecx, eax
  000c3	e8 00 00 00 00	 call	 ??$?6U?$char_traits@D@std@@@std@@YAAAV?$basic_ostream@DU?$char_traits@D@std@@@0@AAV10@PBD@Z ; std::operator<<<std::char_traits<char> >

; 1019 : 		log_ogólny << " Posiadasz " << iloœæ_pieniêdzy << "$" << endl; //Zapisanie do bufora pliku logu ogólnego informacji o saldzie konta u¿ytkownika

  000c8	68 00 00 00 00	 push	 OFFSET ??$endl@DU?$char_traits@D@std@@@std@@YAAAV?$basic_ostream@DU?$char_traits@D@std@@@0@AAV10@@Z ; std::endl<char,std::char_traits<char> >
  000cd	51		 push	 ecx
  000ce	ff 33		 push	 DWORD PTR [ebx]
  000d0	ba 00 00 00 00	 mov	 edx, OFFSET ??_C@_0M@GNFNLGIH@?5Posiadasz?5?$AA@
  000d5	51		 push	 ecx
  000d6	8b ce		 mov	 ecx, esi
  000d8	e8 00 00 00 00	 call	 ??$?6U?$char_traits@D@std@@@std@@YAAAV?$basic_ostream@DU?$char_traits@D@std@@@0@AAV10@PBD@Z ; std::operator<<<std::char_traits<char> >
  000dd	83 c4 04	 add	 esp, 4
  000e0	8b c8		 mov	 ecx, eax
  000e2	ff 15 00 00 00
	00		 call	 DWORD PTR __imp_??6?$basic_ostream@DU?$char_traits@D@std@@@std@@QAEAAV01@H@Z
  000e8	ba 00 00 00 00	 mov	 edx, OFFSET ??_C@_01EPMOAMKG@$?$AA@
  000ed	8b c8		 mov	 ecx, eax
  000ef	e8 00 00 00 00	 call	 ??$?6U?$char_traits@D@std@@@std@@YAAAV?$basic_ostream@DU?$char_traits@D@std@@@0@AAV10@PBD@Z ; std::operator<<<std::char_traits<char> >
  000f4	83 c4 04	 add	 esp, 4
  000f7	8b c8		 mov	 ecx, eax
  000f9	ff 15 00 00 00
	00		 call	 DWORD PTR __imp_??6?$basic_ostream@DU?$char_traits@D@std@@@std@@QAEAAV01@P6AAAV01@AAV01@@Z@Z

; 1020 : 		log.flush(); //Zapisanie do pliku log_aktualny.txt danych wpisanych do bufora danych

  000ff	8b cf		 mov	 ecx, edi
  00101	ff 15 00 00 00
	00		 call	 DWORD PTR __imp_?flush@?$basic_ostream@DU?$char_traits@D@std@@@std@@QAEAAV12@XZ

; 1021 : 		log_ogólny.flush(); //Zapisanie do pliku log_ogólny.txt danych wpisanych do bufora danych

  00107	8b ce		 mov	 ecx, esi
  00109	ff 15 00 00 00
	00		 call	 DWORD PTR __imp_?flush@?$basic_ostream@DU?$char_traits@D@std@@@std@@QAEAAV12@XZ

; 1022 : 		if (stan_dŸwiêków)

  0010f	66 83 3d 00 00
	00 00 00	 cmp	 WORD PTR ?stan_dŸwiêków@@3FA, 0 ; stan_dŸwiêków
  00117	0f 84 9f 02 00
	00		 je	 $LN12@Og?

; 1023 : 		{
; 1024 : 			if (G³osyKompletne)

  0011d	80 3d 00 00 00
	00 00		 cmp	 BYTE PTR ?G³osyKompletne@@3_NA, 0 ; G³osyKompletne
  00124	74 32		 je	 SHORT $LN6@Og?

; 1026 : 				PlaySound((G³os + "win.wav").c_str(), nullptr, SND_SYNC);

  00126	68 00 00 00 00	 push	 OFFSET ??_C@_07KIPBKJCE@win?4wav?$AA@
  0012b	8d 4d dc	 lea	 ecx, DWORD PTR $T1[ebp]
  0012e	e8 00 00 00 00	 call	 ??$?HDU?$char_traits@D@std@@V?$allocator@D@1@@std@@YA?AV?$basic_string@DU?$char_traits@D@std@@V?$allocator@D@2@@0@ABV10@QBD@Z ; std::operator+<char,std::char_traits<char>,std::allocator<char> >
  00133	83 c4 04	 add	 esp, 4
; File f:\program files (x86)\microsoft visual studio\2017\enterprise\vc\tools\msvc\14.11.25503\include\xstring

; 1617 : 		return (_BUF_SIZE <= _Myres);

  00136	83 78 14 10	 cmp	 DWORD PTR [eax+20], 16	; 00000010H

; 1607 : 		if (_Large_string_engaged())

  0013a	72 02		 jb	 SHORT $LN37@Og?
; File f:\program files (x86)\microsoft visual studio\2017\enterprise\vc\tools\msvc\14.11.25503\include\xstddef

; 265  : 	return (_Ptr);

  0013c	8b 00		 mov	 eax, DWORD PTR [eax]
$LN37@Og?:
; File f:\users\krzysztof\documents\szko³a\2017-2018\informatyka\labolatorium\ruletka\ruletka\main.cpp

; 1026 : 				PlaySound((G³os + "win.wav").c_str(), nullptr, SND_SYNC);

  0013e	6a 00		 push	 0
  00140	6a 00		 push	 0
  00142	50		 push	 eax
  00143	ff 15 00 00 00
	00		 call	 DWORD PTR __imp__PlaySoundA@12
  00149	8d 4d dc	 lea	 ecx, DWORD PTR $T1[ebp]
  0014c	e8 00 00 00 00	 call	 ??1?$basic_string@DU?$char_traits@D@std@@V?$allocator@D@2@@std@@QAE@XZ ; std::basic_string<char,std::char_traits<char>,std::allocator<char> >::~basic_string<char,std::char_traits<char>,std::allocator<char> >

; 1063 : 	}
; 1064 : }

  00151	5f		 pop	 edi
  00152	5e		 pop	 esi
  00153	5b		 pop	 ebx
  00154	8b e5		 mov	 esp, ebp
  00156	5d		 pop	 ebp
  00157	c3		 ret	 0
$LN6@Og?:

; 1027 : 			}
; 1028 : 			else
; 1029 : 			{
; 1030 : 				cout << "\a"; //Wywo³anie pikniêcia w g³oœniku

  00158	8b 0d 00 00 00
	00		 mov	 ecx, DWORD PTR __imp_?cout@std@@3V?$basic_ostream@DU?$char_traits@D@std@@@1@A
  0015e	ba 00 00 00 00	 mov	 edx, OFFSET ??_C@_01PBGHHLMH@?$AH?$AA@
  00163	e8 00 00 00 00	 call	 ??$?6U?$char_traits@D@std@@@std@@YAAAV?$basic_ostream@DU?$char_traits@D@std@@@0@AAV10@PBD@Z ; std::operator<<<std::char_traits<char> >

; 1031 : 				Sleep(czas_przerwy_dzwiêku); //Przerwa przed kolejnym pikniêciem

  00168	0f bf 05 00 00
	00 00		 movsx	 eax, WORD PTR ?czas_przerwy_dzwiêku@@3FA ; czas_przerwy_dzwiêku
  0016f	8b 35 00 00 00
	00		 mov	 esi, DWORD PTR __imp__Sleep@4
  00175	50		 push	 eax
  00176	ff d6		 call	 esi

; 1032 : 				cout << "\a"; //Wywo³anie pikniêcia w g³oœniku

  00178	8b 0d 00 00 00
	00		 mov	 ecx, DWORD PTR __imp_?cout@std@@3V?$basic_ostream@DU?$char_traits@D@std@@@1@A
  0017e	ba 00 00 00 00	 mov	 edx, OFFSET ??_C@_01PBGHHLMH@?$AH?$AA@
  00183	e8 00 00 00 00	 call	 ??$?6U?$char_traits@D@std@@@std@@YAAAV?$basic_ostream@DU?$char_traits@D@std@@@0@AAV10@PBD@Z ; std::operator<<<std::char_traits<char> >

; 1033 : 				Sleep(czas_przerwy_dzwiêku); //Przerwa przed kolejnym pikniêciem

  00188	0f bf 05 00 00
	00 00		 movsx	 eax, WORD PTR ?czas_przerwy_dzwiêku@@3FA ; czas_przerwy_dzwiêku
  0018f	50		 push	 eax
  00190	ff d6		 call	 esi

; 1034 : 				cout << "\a"; //Wywo³anie pikniêcia w g³oœniku
; 1035 : 			}
; 1036 : 		}
; 1037 : 	}

  00192	e9 15 02 00 00	 jmp	 $LN43@Og?
$LN2@Og?:

; 1038 : 	else if (wygrana == (kwota_zak³adu / 2)) //Je¿eli wygrana jest równa po³owie kwocie zak³adu to znaczy, ¿e dostaje siê zwrot po³owy kwoty zak³adu

  00197	8b c7		 mov	 eax, edi
  00199	99		 cdq
  0019a	2b c2		 sub	 eax, edx
  0019c	d1 f8		 sar	 eax, 1
  0019e	3b f0		 cmp	 esi, eax
  001a0	0f 85 14 01 00
	00		 jne	 $LN8@Og?

; 1039 : 	{
; 1040 : 		iloœæ_pieniêdzy += wygrana; //Dopisanie do salda kwoty zwrotu z zak³adu
; 1041 : 		log << " Dostajesz polowe zak³adu " << wygrana << "$"; //Zapisanie do bufora pliku logu aktualnego informacji o kwocie zwrotu zak³adu

  001a6	8b 45 10	 mov	 eax, DWORD PTR _log$[ebp]
  001a9	33 d2		 xor	 edx, edx
  001ab	8b 7d 08	 mov	 edi, DWORD PTR _iloœæ_pieniêdzy$[ebp]
  001ae	8d 58 10	 lea	 ebx, DWORD PTR [eax+16]
  001b1	01 37		 add	 DWORD PTR [edi], esi
  001b3	85 c0		 test	 eax, eax
  001b5	ff 31		 push	 DWORD PTR [ecx]
  001b7	8b f3		 mov	 esi, ebx
  001b9	0f 44 f2	 cmove	 esi, edx
  001bc	ba 00 00 00 00	 mov	 edx, OFFSET ??_C@_0BL@LJEGNEAJ@?5Dostajesz?5polowe?5zak?$LDadu?5?$AA@
  001c1	51		 push	 ecx
  001c2	8b ce		 mov	 ecx, esi
  001c4	e8 00 00 00 00	 call	 ??$?6U?$char_traits@D@std@@@std@@YAAAV?$basic_ostream@DU?$char_traits@D@std@@@0@AAV10@PBD@Z ; std::operator<<<std::char_traits<char> >
  001c9	83 c4 04	 add	 esp, 4
  001cc	8b c8		 mov	 ecx, eax
  001ce	ff 15 00 00 00
	00		 call	 DWORD PTR __imp_??6?$basic_ostream@DU?$char_traits@D@std@@@std@@QAEAAV01@H@Z
  001d4	ba 00 00 00 00	 mov	 edx, OFFSET ??_C@_01EPMOAMKG@$?$AA@
  001d9	8b c8		 mov	 ecx, eax
  001db	e8 00 00 00 00	 call	 ??$?6U?$char_traits@D@std@@@std@@YAAAV?$basic_ostream@DU?$char_traits@D@std@@@0@AAV10@PBD@Z ; std::operator<<<std::char_traits<char> >

; 1042 : 		log << " Posiadasz " << iloœæ_pieniêdzy << "$" << endl; //Zapisanie do bufora pliku logu aktualnego informacji o saldzie konta u¿ytkownika

  001e0	68 00 00 00 00	 push	 OFFSET ??$endl@DU?$char_traits@D@std@@@std@@YAAAV?$basic_ostream@DU?$char_traits@D@std@@@0@AAV10@@Z ; std::endl<char,std::char_traits<char> >
  001e5	51		 push	 ecx
  001e6	ff 37		 push	 DWORD PTR [edi]
  001e8	ba 00 00 00 00	 mov	 edx, OFFSET ??_C@_0M@GNFNLGIH@?5Posiadasz?5?$AA@
  001ed	51		 push	 ecx
  001ee	8b ce		 mov	 ecx, esi
  001f0	e8 00 00 00 00	 call	 ??$?6U?$char_traits@D@std@@@std@@YAAAV?$basic_ostream@DU?$char_traits@D@std@@@0@AAV10@PBD@Z ; std::operator<<<std::char_traits<char> >
  001f5	83 c4 04	 add	 esp, 4
  001f8	8b c8		 mov	 ecx, eax
  001fa	ff 15 00 00 00
	00		 call	 DWORD PTR __imp_??6?$basic_ostream@DU?$char_traits@D@std@@@std@@QAEAAV01@H@Z
  00200	ba 00 00 00 00	 mov	 edx, OFFSET ??_C@_01EPMOAMKG@$?$AA@
  00205	8b c8		 mov	 ecx, eax
  00207	e8 00 00 00 00	 call	 ??$?6U?$char_traits@D@std@@@std@@YAAAV?$basic_ostream@DU?$char_traits@D@std@@@0@AAV10@PBD@Z ; std::operator<<<std::char_traits<char> >
  0020c	83 c4 04	 add	 esp, 4
  0020f	8b c8		 mov	 ecx, eax
  00211	ff 15 00 00 00
	00		 call	 DWORD PTR __imp_??6?$basic_ostream@DU?$char_traits@D@std@@@std@@QAEAAV01@P6AAAV01@AAV01@@Z@Z

; 1043 : 		log_ogólny << " Dostajesz polowe zak³adu " << wygrana << "$"; //Zapisanie do bufora pliku logu ogólnego informacji o kwocie zwrotu zak³adu

  00217	8b 45 f8	 mov	 eax, DWORD PTR _wygrana$1$[ebp]
  0021a	ba 00 00 00 00	 mov	 edx, OFFSET ??_C@_0BL@LJEGNEAJ@?5Dostajesz?5polowe?5zak?$LDadu?5?$AA@
  0021f	8b 75 0c	 mov	 esi, DWORD PTR _log_ogólny$[ebp]
  00222	ff 30		 push	 DWORD PTR [eax]
  00224	51		 push	 ecx
  00225	8b ce		 mov	 ecx, esi
  00227	e8 00 00 00 00	 call	 ??$?6U?$char_traits@D@std@@@std@@YAAAV?$basic_ostream@DU?$char_traits@D@std@@@0@AAV10@PBD@Z ; std::operator<<<std::char_traits<char> >
  0022c	83 c4 04	 add	 esp, 4
  0022f	8b c8		 mov	 ecx, eax
  00231	ff 15 00 00 00
	00		 call	 DWORD PTR __imp_??6?$basic_ostream@DU?$char_traits@D@std@@@std@@QAEAAV01@H@Z
  00237	ba 00 00 00 00	 mov	 edx, OFFSET ??_C@_01EPMOAMKG@$?$AA@
  0023c	8b c8		 mov	 ecx, eax
  0023e	e8 00 00 00 00	 call	 ??$?6U?$char_traits@D@std@@@std@@YAAAV?$basic_ostream@DU?$char_traits@D@std@@@0@AAV10@PBD@Z ; std::operator<<<std::char_traits<char> >

; 1044 : 		log_ogólny << " Posiadasz " << iloœæ_pieniêdzy << "$" << endl; //Zapisanie do bufora pliku logu ogólnego informacji o saldzie konta u¿ytkownika

  00243	68 00 00 00 00	 push	 OFFSET ??$endl@DU?$char_traits@D@std@@@std@@YAAAV?$basic_ostream@DU?$char_traits@D@std@@@0@AAV10@@Z ; std::endl<char,std::char_traits<char> >
  00248	51		 push	 ecx
  00249	ff 37		 push	 DWORD PTR [edi]
  0024b	ba 00 00 00 00	 mov	 edx, OFFSET ??_C@_0M@GNFNLGIH@?5Posiadasz?5?$AA@
  00250	51		 push	 ecx
  00251	8b ce		 mov	 ecx, esi
  00253	e8 00 00 00 00	 call	 ??$?6U?$char_traits@D@std@@@std@@YAAAV?$basic_ostream@DU?$char_traits@D@std@@@0@AAV10@PBD@Z ; std::operator<<<std::char_traits<char> >
  00258	83 c4 04	 add	 esp, 4
  0025b	8b c8		 mov	 ecx, eax
  0025d	ff 15 00 00 00
	00		 call	 DWORD PTR __imp_??6?$basic_ostream@DU?$char_traits@D@std@@@std@@QAEAAV01@H@Z
  00263	ba 00 00 00 00	 mov	 edx, OFFSET ??_C@_01EPMOAMKG@$?$AA@
  00268	8b c8		 mov	 ecx, eax
  0026a	e8 00 00 00 00	 call	 ??$?6U?$char_traits@D@std@@@std@@YAAAV?$basic_ostream@DU?$char_traits@D@std@@@0@AAV10@PBD@Z ; std::operator<<<std::char_traits<char> >
  0026f	83 c4 04	 add	 esp, 4
  00272	8b c8		 mov	 ecx, eax
  00274	ff 15 00 00 00
	00		 call	 DWORD PTR __imp_??6?$basic_ostream@DU?$char_traits@D@std@@@std@@QAEAAV01@P6AAAV01@AAV01@@Z@Z

; 1045 : 		log.flush(); //Zapisanie do pliku log_aktualny.txt danych wpisanych do bufora danych

  0027a	8b cb		 mov	 ecx, ebx
  0027c	ff 15 00 00 00
	00		 call	 DWORD PTR __imp_?flush@?$basic_ostream@DU?$char_traits@D@std@@@std@@QAEAAV12@XZ

; 1046 : 		log_ogólny.flush(); //Zapisanie do pliku log_ogólny.txt danych wpisanych do bufora danych

  00282	8b ce		 mov	 ecx, esi
  00284	ff 15 00 00 00
	00		 call	 DWORD PTR __imp_?flush@?$basic_ostream@DU?$char_traits@D@std@@@std@@QAEAAV12@XZ

; 1047 : 		if (!G³osyKompletne)

  0028a	80 3d 00 00 00
	00 00		 cmp	 BYTE PTR ?G³osyKompletne@@3_NA, 0 ; G³osyKompletne
  00291	0f 85 25 01 00
	00		 jne	 $LN12@Og?

; 1048 : 		{
; 1049 : 			cout << "\a"; //Wywo³anie pikniêcia w g³oœniku

  00297	8b 0d 00 00 00
	00		 mov	 ecx, DWORD PTR __imp_?cout@std@@3V?$basic_ostream@DU?$char_traits@D@std@@@1@A
  0029d	ba 00 00 00 00	 mov	 edx, OFFSET ??_C@_01PBGHHLMH@?$AH?$AA@
  002a2	e8 00 00 00 00	 call	 ??$?6U?$char_traits@D@std@@@std@@YAAAV?$basic_ostream@DU?$char_traits@D@std@@@0@AAV10@PBD@Z ; std::operator<<<std::char_traits<char> >

; 1050 : 			Sleep(czas_przerwy_dzwiêku); //Przerwa przed kolejnym pikniêciem

  002a7	0f bf 05 00 00
	00 00		 movsx	 eax, WORD PTR ?czas_przerwy_dzwiêku@@3FA ; czas_przerwy_dzwiêku
  002ae	50		 push	 eax
  002af	ff 15 00 00 00
	00		 call	 DWORD PTR __imp__Sleep@4

; 1051 : 			cout << "\a"; //Wywo³anie pikniêcia w g³oœniku
; 1052 : 		}
; 1053 : 	}

  002b5	e9 f2 00 00 00	 jmp	 $LN43@Og?
$LN8@Og?:

; 1054 : 	else if (wygrana == 0) //Je¿eli wygrana jest równa 0 to znaczy, ¿e siê zak³ad przegra³o

  002ba	85 f6		 test	 esi, esi
  002bc	0f 85 fa 00 00
	00		 jne	 $LN12@Og?

; 1055 : 	{
; 1056 : 		log << " Przegrales " << kwota_zak³adu << "$"; //Zapisanie do bufora pliku logu aktualnego informacji o przegranej kwocie

  002c2	8b 45 10	 mov	 eax, DWORD PTR _log$[ebp]
  002c5	33 c9		 xor	 ecx, ecx
  002c7	85 c0		 test	 eax, eax
  002c9	ba 00 00 00 00	 mov	 edx, OFFSET ??_C@_0N@NPCHEJIF@?5Przegrales?5?$AA@
  002ce	57		 push	 edi
  002cf	51		 push	 ecx
  002d0	8d 58 10	 lea	 ebx, DWORD PTR [eax+16]
  002d3	8b f3		 mov	 esi, ebx
  002d5	0f 44 f1	 cmove	 esi, ecx
  002d8	8b ce		 mov	 ecx, esi
  002da	e8 00 00 00 00	 call	 ??$?6U?$char_traits@D@std@@@std@@YAAAV?$basic_ostream@DU?$char_traits@D@std@@@0@AAV10@PBD@Z ; std::operator<<<std::char_traits<char> >
  002df	83 c4 04	 add	 esp, 4
  002e2	8b c8		 mov	 ecx, eax
  002e4	ff 15 00 00 00
	00		 call	 DWORD PTR __imp_??6?$basic_ostream@DU?$char_traits@D@std@@@std@@QAEAAV01@H@Z
  002ea	ba 00 00 00 00	 mov	 edx, OFFSET ??_C@_01EPMOAMKG@$?$AA@
  002ef	8b c8		 mov	 ecx, eax
  002f1	e8 00 00 00 00	 call	 ??$?6U?$char_traits@D@std@@@std@@YAAAV?$basic_ostream@DU?$char_traits@D@std@@@0@AAV10@PBD@Z ; std::operator<<<std::char_traits<char> >

; 1057 : 		log << " Posiadasz " << iloœæ_pieniêdzy << "$" << endl; //Zapisanie do bufora pliku logu aktualnego informacji o saldzie konta u¿ytkownika

  002f6	8b 7d 08	 mov	 edi, DWORD PTR _iloœæ_pieniêdzy$[ebp]
  002f9	ba 00 00 00 00	 mov	 edx, OFFSET ??_C@_0M@GNFNLGIH@?5Posiadasz?5?$AA@
  002fe	68 00 00 00 00	 push	 OFFSET ??$endl@DU?$char_traits@D@std@@@std@@YAAAV?$basic_ostream@DU?$char_traits@D@std@@@0@AAV10@@Z ; std::endl<char,std::char_traits<char> >
  00303	51		 push	 ecx
  00304	ff 37		 push	 DWORD PTR [edi]
  00306	51		 push	 ecx
  00307	8b ce		 mov	 ecx, esi
  00309	e8 00 00 00 00	 call	 ??$?6U?$char_traits@D@std@@@std@@YAAAV?$basic_ostream@DU?$char_traits@D@std@@@0@AAV10@PBD@Z ; std::operator<<<std::char_traits<char> >
  0030e	83 c4 04	 add	 esp, 4
  00311	8b c8		 mov	 ecx, eax
  00313	ff 15 00 00 00
	00		 call	 DWORD PTR __imp_??6?$basic_ostream@DU?$char_traits@D@std@@@std@@QAEAAV01@H@Z
  00319	ba 00 00 00 00	 mov	 edx, OFFSET ??_C@_01EPMOAMKG@$?$AA@
  0031e	8b c8		 mov	 ecx, eax
  00320	e8 00 00 00 00	 call	 ??$?6U?$char_traits@D@std@@@std@@YAAAV?$basic_ostream@DU?$char_traits@D@std@@@0@AAV10@PBD@Z ; std::operator<<<std::char_traits<char> >
  00325	83 c4 04	 add	 esp, 4
  00328	8b c8		 mov	 ecx, eax
  0032a	ff 15 00 00 00
	00		 call	 DWORD PTR __imp_??6?$basic_ostream@DU?$char_traits@D@std@@@std@@QAEAAV01@P6AAAV01@AAV01@@Z@Z

; 1058 : 		log_ogólny << " Przegrales " << kwota_zak³adu << "$"; //Zapisanie do bufora pliku logu ogólnego informacji o przegranej kwocie

  00330	8b 45 f4	 mov	 eax, DWORD PTR _kwota_zak³adu$1$[ebp]
  00333	ba 00 00 00 00	 mov	 edx, OFFSET ??_C@_0N@NPCHEJIF@?5Przegrales?5?$AA@
  00338	8b 75 0c	 mov	 esi, DWORD PTR _log_ogólny$[ebp]
  0033b	ff 30		 push	 DWORD PTR [eax]
  0033d	51		 push	 ecx
  0033e	8b ce		 mov	 ecx, esi
  00340	e8 00 00 00 00	 call	 ??$?6U?$char_traits@D@std@@@std@@YAAAV?$basic_ostream@DU?$char_traits@D@std@@@0@AAV10@PBD@Z ; std::operator<<<std::char_traits<char> >
  00345	83 c4 04	 add	 esp, 4
  00348	8b c8		 mov	 ecx, eax
  0034a	ff 15 00 00 00
	00		 call	 DWORD PTR __imp_??6?$basic_ostream@DU?$char_traits@D@std@@@std@@QAEAAV01@H@Z
  00350	ba 00 00 00 00	 mov	 edx, OFFSET ??_C@_01EPMOAMKG@$?$AA@
  00355	8b c8		 mov	 ecx, eax
  00357	e8 00 00 00 00	 call	 ??$?6U?$char_traits@D@std@@@std@@YAAAV?$basic_ostream@DU?$char_traits@D@std@@@0@AAV10@PBD@Z ; std::operator<<<std::char_traits<char> >

; 1059 : 		log_ogólny << " Posiadasz " << iloœæ_pieniêdzy << "$" << endl; //Zapisanie do bufora pliku logu aktualnego informacji o saldzie konta u¿ytkownika

  0035c	68 00 00 00 00	 push	 OFFSET ??$endl@DU?$char_traits@D@std@@@std@@YAAAV?$basic_ostream@DU?$char_traits@D@std@@@0@AAV10@@Z ; std::endl<char,std::char_traits<char> >
  00361	51		 push	 ecx
  00362	ff 37		 push	 DWORD PTR [edi]
  00364	ba 00 00 00 00	 mov	 edx, OFFSET ??_C@_0M@GNFNLGIH@?5Posiadasz?5?$AA@
  00369	51		 push	 ecx
  0036a	8b ce		 mov	 ecx, esi
  0036c	e8 00 00 00 00	 call	 ??$?6U?$char_traits@D@std@@@std@@YAAAV?$basic_ostream@DU?$char_traits@D@std@@@0@AAV10@PBD@Z ; std::operator<<<std::char_traits<char> >
  00371	83 c4 04	 add	 esp, 4
  00374	8b c8		 mov	 ecx, eax
  00376	ff 15 00 00 00
	00		 call	 DWORD PTR __imp_??6?$basic_ostream@DU?$char_traits@D@std@@@std@@QAEAAV01@H@Z
  0037c	ba 00 00 00 00	 mov	 edx, OFFSET ??_C@_01EPMOAMKG@$?$AA@
  00381	8b c8		 mov	 ecx, eax
  00383	e8 00 00 00 00	 call	 ??$?6U?$char_traits@D@std@@@std@@YAAAV?$basic_ostream@DU?$char_traits@D@std@@@0@AAV10@PBD@Z ; std::operator<<<std::char_traits<char> >
  00388	83 c4 04	 add	 esp, 4
  0038b	8b c8		 mov	 ecx, eax
  0038d	ff 15 00 00 00
	00		 call	 DWORD PTR __imp_??6?$basic_ostream@DU?$char_traits@D@std@@@std@@QAEAAV01@P6AAAV01@AAV01@@Z@Z

; 1060 : 		log.flush(); //Zapisanie do pliku log_aktualny.txt danych wpisanych do bufora danych

  00393	8b cb		 mov	 ecx, ebx
  00395	ff 15 00 00 00
	00		 call	 DWORD PTR __imp_?flush@?$basic_ostream@DU?$char_traits@D@std@@@std@@QAEAAV12@XZ

; 1061 : 		log_ogólny.flush(); //Zapisanie do pliku log_ogólny.txt danych wpisanych do bufora danych

  0039b	8b ce		 mov	 ecx, esi
  0039d	ff 15 00 00 00
	00		 call	 DWORD PTR __imp_?flush@?$basic_ostream@DU?$char_traits@D@std@@@std@@QAEAAV12@XZ

; 1062 : 		if (!G³osyKompletne) cout << "\a"; //Wywo³anie pikniêcia w g³oœniku

  003a3	80 3d 00 00 00
	00 00		 cmp	 BYTE PTR ?G³osyKompletne@@3_NA, 0 ; G³osyKompletne
  003aa	75 10		 jne	 SHORT $LN12@Og?
$LN43@Og?:
  003ac	8b 0d 00 00 00
	00		 mov	 ecx, DWORD PTR __imp_?cout@std@@3V?$basic_ostream@DU?$char_traits@D@std@@@1@A
  003b2	ba 00 00 00 00	 mov	 edx, OFFSET ??_C@_01PBGHHLMH@?$AH?$AA@
  003b7	e8 00 00 00 00	 call	 ??$?6U?$char_traits@D@std@@@std@@YAAAV?$basic_ostream@DU?$char_traits@D@std@@@0@AAV10@PBD@Z ; std::operator<<<std::char_traits<char> >
$LN12@Og?:

; 1063 : 	}
; 1064 : }

  003bc	5f		 pop	 edi
  003bd	5e		 pop	 esi
  003be	5b		 pop	 ebx
  003bf	8b e5		 mov	 esp, ebp
  003c1	5d		 pop	 ebp
  003c2	c3		 ret	 0
?Og³oœ_wynik@@YAXABH0AAHAAV?$basic_ofstream@DU?$char_traits@D@std@@@std@@AAV?$basic_fstream@DU?$char_traits@D@std@@@2@@Z ENDP ; Og³oœ_wynik
_TEXT	ENDS
; Function compile flags: /Ogtp
; File f:\users\krzysztof\documents\szko³a\2017-2018\informatyka\labolatorium\ruletka\ruletka\main.cpp
;	COMDAT ?Koniec_gry@@YAXAAV?$basic_ofstream@DU?$char_traits@D@std@@@std@@AAV?$basic_fstream@DU?$char_traits@D@std@@@2@AAH@Z
_TEXT	SEGMENT
_iloœæ_pieniêdzy$ = 8					; size = 4
?Koniec_gry@@YAXAAV?$basic_ofstream@DU?$char_traits@D@std@@@std@@AAV?$basic_fstream@DU?$char_traits@D@std@@@2@AAH@Z PROC ; Koniec_gry, COMDAT
; _log_ogólny$ = ecx
; _log$ = edx

; 1067 : {

  00000	55		 push	 ebp
  00001	8b ec		 mov	 ebp, esp
  00003	83 e4 f8	 and	 esp, -8			; fffffff8H
  00006	51		 push	 ecx

; 1068 : 	cout << endl << "Koñczysz grê z wynikiem " << iloœæ_pieniêdzy << "$" << endl; //Poinformowanie u¿ytkownika o saldzie konta

  00007	8b 45 08	 mov	 eax, DWORD PTR _iloœæ_pieniêdzy$[ebp]
  0000a	53		 push	 ebx
  0000b	56		 push	 esi
  0000c	57		 push	 edi
  0000d	68 00 00 00 00	 push	 OFFSET ??$endl@DU?$char_traits@D@std@@@std@@YAAAV?$basic_ostream@DU?$char_traits@D@std@@@0@AAV10@@Z ; std::endl<char,std::char_traits<char> >
  00012	51		 push	 ecx
  00013	ff 30		 push	 DWORD PTR [eax]
  00015	8b f9		 mov	 edi, ecx
  00017	8b da		 mov	 ebx, edx
  00019	51		 push	 ecx
  0001a	8b 0d 00 00 00
	00		 mov	 ecx, DWORD PTR __imp_?cout@std@@3V?$basic_ostream@DU?$char_traits@D@std@@@1@A
  00020	68 00 00 00 00	 push	 OFFSET ??$endl@DU?$char_traits@D@std@@@std@@YAAAV?$basic_ostream@DU?$char_traits@D@std@@@0@AAV10@@Z ; std::endl<char,std::char_traits<char> >
  00025	ff 15 00 00 00
	00		 call	 DWORD PTR __imp_??6?$basic_ostream@DU?$char_traits@D@std@@@std@@QAEAAV01@P6AAAV01@AAV01@@Z@Z
  0002b	ba 00 00 00 00	 mov	 edx, OFFSET ??_C@_0BJ@GCHIFPGC@Ko?qczysz?5gr?j?5z?5wynikiem?5?$AA@
  00030	8b c8		 mov	 ecx, eax
  00032	e8 00 00 00 00	 call	 ??$?6U?$char_traits@D@std@@@std@@YAAAV?$basic_ostream@DU?$char_traits@D@std@@@0@AAV10@PBD@Z ; std::operator<<<std::char_traits<char> >
  00037	83 c4 04	 add	 esp, 4
  0003a	8b c8		 mov	 ecx, eax
  0003c	ff 15 00 00 00
	00		 call	 DWORD PTR __imp_??6?$basic_ostream@DU?$char_traits@D@std@@@std@@QAEAAV01@H@Z
  00042	ba 00 00 00 00	 mov	 edx, OFFSET ??_C@_01EPMOAMKG@$?$AA@
  00047	8b c8		 mov	 ecx, eax
  00049	e8 00 00 00 00	 call	 ??$?6U?$char_traits@D@std@@@std@@YAAAV?$basic_ostream@DU?$char_traits@D@std@@@0@AAV10@PBD@Z ; std::operator<<<std::char_traits<char> >
  0004e	83 c4 04	 add	 esp, 4
  00051	8b c8		 mov	 ecx, eax
  00053	ff 15 00 00 00
	00		 call	 DWORD PTR __imp_??6?$basic_ostream@DU?$char_traits@D@std@@@std@@QAEAAV01@P6AAAV01@AAV01@@Z@Z

; 1069 : 	log << endl << "Koñczysz grê z wynikiem " << iloœæ_pieniêdzy << "$" << endl; //Zapisanie do bufora pliku logu aktualnego informacji o saldzie konta u¿ytkownika

  00059	8b 45 08	 mov	 eax, DWORD PTR _iloœæ_pieniêdzy$[ebp]
  0005c	68 00 00 00 00	 push	 OFFSET ??$endl@DU?$char_traits@D@std@@@std@@YAAAV?$basic_ostream@DU?$char_traits@D@std@@@0@AAV10@@Z ; std::endl<char,std::char_traits<char> >
  00061	51		 push	 ecx
  00062	ff 30		 push	 DWORD PTR [eax]
  00064	51		 push	 ecx
  00065	68 00 00 00 00	 push	 OFFSET ??$endl@DU?$char_traits@D@std@@@std@@YAAAV?$basic_ostream@DU?$char_traits@D@std@@@0@AAV10@@Z ; std::endl<char,std::char_traits<char> >
  0006a	8d 4b 10	 lea	 ecx, DWORD PTR [ebx+16]
  0006d	ff 15 00 00 00
	00		 call	 DWORD PTR __imp_??6?$basic_ostream@DU?$char_traits@D@std@@@std@@QAEAAV01@P6AAAV01@AAV01@@Z@Z
  00073	ba 00 00 00 00	 mov	 edx, OFFSET ??_C@_0BJ@GCHIFPGC@Ko?qczysz?5gr?j?5z?5wynikiem?5?$AA@
  00078	8b c8		 mov	 ecx, eax
  0007a	e8 00 00 00 00	 call	 ??$?6U?$char_traits@D@std@@@std@@YAAAV?$basic_ostream@DU?$char_traits@D@std@@@0@AAV10@PBD@Z ; std::operator<<<std::char_traits<char> >
  0007f	83 c4 04	 add	 esp, 4
  00082	8b c8		 mov	 ecx, eax
  00084	ff 15 00 00 00
	00		 call	 DWORD PTR __imp_??6?$basic_ostream@DU?$char_traits@D@std@@@std@@QAEAAV01@H@Z
  0008a	ba 00 00 00 00	 mov	 edx, OFFSET ??_C@_01EPMOAMKG@$?$AA@
  0008f	8b c8		 mov	 ecx, eax
  00091	e8 00 00 00 00	 call	 ??$?6U?$char_traits@D@std@@@std@@YAAAV?$basic_ostream@DU?$char_traits@D@std@@@0@AAV10@PBD@Z ; std::operator<<<std::char_traits<char> >
  00096	83 c4 04	 add	 esp, 4
  00099	8b c8		 mov	 ecx, eax
  0009b	ff 15 00 00 00
	00		 call	 DWORD PTR __imp_??6?$basic_ostream@DU?$char_traits@D@std@@@std@@QAEAAV01@P6AAAV01@AAV01@@Z@Z

; 1070 : 	log_ogólny << "Koñczysz grê z wynikiem " << iloœæ_pieniêdzy << "$" << endl; //Zapisanie do bufora pliku logu ogólnego informacji o saldzie konta u¿ytkownika

  000a1	8b 45 08	 mov	 eax, DWORD PTR _iloœæ_pieniêdzy$[ebp]
  000a4	ba 00 00 00 00	 mov	 edx, OFFSET ??_C@_0BJ@GCHIFPGC@Ko?qczysz?5gr?j?5z?5wynikiem?5?$AA@
  000a9	68 00 00 00 00	 push	 OFFSET ??$endl@DU?$char_traits@D@std@@@std@@YAAAV?$basic_ostream@DU?$char_traits@D@std@@@0@AAV10@@Z ; std::endl<char,std::char_traits<char> >
  000ae	51		 push	 ecx
  000af	ff 30		 push	 DWORD PTR [eax]
  000b1	51		 push	 ecx
  000b2	8b cf		 mov	 ecx, edi
  000b4	e8 00 00 00 00	 call	 ??$?6U?$char_traits@D@std@@@std@@YAAAV?$basic_ostream@DU?$char_traits@D@std@@@0@AAV10@PBD@Z ; std::operator<<<std::char_traits<char> >
  000b9	83 c4 04	 add	 esp, 4
  000bc	8b c8		 mov	 ecx, eax
  000be	ff 15 00 00 00
	00		 call	 DWORD PTR __imp_??6?$basic_ostream@DU?$char_traits@D@std@@@std@@QAEAAV01@H@Z
  000c4	ba 00 00 00 00	 mov	 edx, OFFSET ??_C@_01EPMOAMKG@$?$AA@
  000c9	8b c8		 mov	 ecx, eax
  000cb	e8 00 00 00 00	 call	 ??$?6U?$char_traits@D@std@@@std@@YAAAV?$basic_ostream@DU?$char_traits@D@std@@@0@AAV10@PBD@Z ; std::operator<<<std::char_traits<char> >
  000d0	83 c4 04	 add	 esp, 4
  000d3	8b c8		 mov	 ecx, eax
  000d5	ff 15 00 00 00
	00		 call	 DWORD PTR __imp_??6?$basic_ostream@DU?$char_traits@D@std@@@std@@QAEAAV01@P6AAAV01@AAV01@@Z@Z

; 1071 : 	log.flush(); //Zapisanie do pliku log_aktualny.txt danych wpisanych do bufora danych

  000db	8d 4b 10	 lea	 ecx, DWORD PTR [ebx+16]
  000de	ff 15 00 00 00
	00		 call	 DWORD PTR __imp_?flush@?$basic_ostream@DU?$char_traits@D@std@@@std@@QAEAAV12@XZ

; 1072 : 	log_ogólny.flush(); //Zapisanie do pliku log_ogólny.txt danych wpisanych do bufora danych

  000e4	8b cf		 mov	 ecx, edi
  000e6	ff 15 00 00 00
	00		 call	 DWORD PTR __imp_?flush@?$basic_ostream@DU?$char_traits@D@std@@@std@@QAEAAV12@XZ

; 1073 : 	log.close();

  000ec	8b cb		 mov	 ecx, ebx
  000ee	e8 00 00 00 00	 call	 ?close@?$basic_fstream@DU?$char_traits@D@std@@@std@@QAEXXZ ; std::basic_fstream<char,std::char_traits<char> >::close

; 1074 : 	remove("log_aktualny.txt"); //Usuniêcie pliku log aktualny poniewa¿ skoñczy³o siê grê

  000f3	68 00 00 00 00	 push	 OFFSET ??_C@_0BB@KLDNCCFE@log_aktualny?4txt?$AA@
  000f8	ff 15 00 00 00
	00		 call	 DWORD PTR __imp__remove

; 1075 : 
; 1076 : 	if (stan_dŸwiêków == 1) //Kompilacja je¿eli stan_dŸwiêków == 1

  000fe	8b 1d 00 00 00
	00		 mov	 ebx, DWORD PTR __imp__PlaySoundA@12
  00104	83 c4 04	 add	 esp, 4
  00107	66 83 3d 00 00
	00 00 01	 cmp	 WORD PTR ?stan_dŸwiêków@@3FA, 1 ; stan_dŸwiêków

; 1077 : 		if (iloœæ_pieniêdzy == 0) //Je¿eli bud¿et jest równy 0 to

  0010f	8b 75 08	 mov	 esi, DWORD PTR _iloœæ_pieniêdzy$[ebp]
  00112	75 4e		 jne	 SHORT $LN3@Koniec_gry
  00114	83 3e 00	 cmp	 DWORD PTR [esi], 0
  00117	75 49		 jne	 SHORT $LN3@Koniec_gry

; 1078 : 			if (EfektyKompletne) PlaySound("Efekty_dŸwiêkowe/bankrut.wav", nullptr, SND_SYNC);

  00119	80 3d 00 00 00
	00 00		 cmp	 BYTE PTR ?EfektyKompletne@@3_NA, 0 ; EfektyKompletne
  00120	74 0d		 je	 SHORT $LN7@Koniec_gry
  00122	6a 00		 push	 0
  00124	6a 00		 push	 0
  00126	68 00 00 00 00	 push	 OFFSET ??_C@_0BN@JMMCOBLJ@Efekty_d?$JPwi?jkowe?1bankrut?4wav?$AA@
  0012b	ff d3		 call	 ebx

; 1079 : 			else

  0012d	eb 33		 jmp	 SHORT $LN3@Koniec_gry
$LN7@Koniec_gry:

; 1080 : 				for (int i = 0; i < 5; ++i) //Rozpoczêcie pêtli która wykona 5 obrotów

  0012f	8b 3d 00 00 00
	00		 mov	 edi, DWORD PTR __imp__Sleep@4
  00135	be 05 00 00 00	 mov	 esi, 5
  0013a	66 0f 1f 44 00
	00		 npad	 6
$LL4@Koniec_gry:

; 1081 : 				{
; 1082 : 					cout << "\a"; //Wywo³anie pikniêcia w g³oœniku

  00140	8b 0d 00 00 00
	00		 mov	 ecx, DWORD PTR __imp_?cout@std@@3V?$basic_ostream@DU?$char_traits@D@std@@@1@A
  00146	ba 00 00 00 00	 mov	 edx, OFFSET ??_C@_01PBGHHLMH@?$AH?$AA@
  0014b	e8 00 00 00 00	 call	 ??$?6U?$char_traits@D@std@@@std@@YAAAV?$basic_ostream@DU?$char_traits@D@std@@@0@AAV10@PBD@Z ; std::operator<<<std::char_traits<char> >

; 1083 : 					Sleep(czas_przerwy_dzwiêku); //Przerwa przed kolejnym pikniêciem //Przerwa przed kolejnym pikniêciem

  00150	0f bf 05 00 00
	00 00		 movsx	 eax, WORD PTR ?czas_przerwy_dzwiêku@@3FA ; czas_przerwy_dzwiêku
  00157	50		 push	 eax
  00158	ff d7		 call	 edi
  0015a	83 ee 01	 sub	 esi, 1
  0015d	75 e1		 jne	 SHORT $LL4@Koniec_gry

; 1075 : 
; 1076 : 	if (stan_dŸwiêków == 1) //Kompilacja je¿eli stan_dŸwiêków == 1

  0015f	8b 75 08	 mov	 esi, DWORD PTR _iloœæ_pieniêdzy$[ebp]
$LN3@Koniec_gry:

; 1084 : 				}
; 1085 : 
; 1086 : 	if (iloœæ_pieniêdzy > kwota_pocz¹tkowa && iloœæ_pieniêdzy < kwota_pocz¹tkowa * 2)

  00162	8b 16		 mov	 edx, DWORD PTR [esi]
  00164	8b 35 00 00 00
	00		 mov	 esi, DWORD PTR ?kwota_pocz¹tkowa@@3HA ; kwota_pocz¹tkowa
  0016a	3b d6		 cmp	 edx, esi
  0016c	7e 49		 jle	 SHORT $LN9@Koniec_gry
  0016e	8d 04 36	 lea	 eax, DWORD PTR [esi+esi]
  00171	3b d0		 cmp	 edx, eax
  00173	7d 42		 jge	 SHORT $LN9@Koniec_gry

; 1087 : 	{
; 1088 : 		cout << "Gratuluje zwiêkszy³eœ swój zasób finansowy" << endl; //Wyœwietlenie gratulacji z powodu zwiêkszenia bud¿etu

  00175	68 00 00 00 00	 push	 OFFSET ??$endl@DU?$char_traits@D@std@@@std@@YAAAV?$basic_ostream@DU?$char_traits@D@std@@@0@AAV10@@Z ; std::endl<char,std::char_traits<char> >
  0017a	51		 push	 ecx
  0017b	8b 0d 00 00 00
	00		 mov	 ecx, DWORD PTR __imp_?cout@std@@3V?$basic_ostream@DU?$char_traits@D@std@@@1@A
  00181	ba 00 00 00 00	 mov	 edx, OFFSET ??_C@_0CL@DCKMMPCF@Gratuluje?5zwi?jkszy?$LDe?$JM?5sw?sj?5zas?sb@
  00186	e8 00 00 00 00	 call	 ??$?6U?$char_traits@D@std@@@std@@YAAAV?$basic_ostream@DU?$char_traits@D@std@@@0@AAV10@PBD@Z ; std::operator<<<std::char_traits<char> >
  0018b	83 c4 04	 add	 esp, 4
  0018e	8b c8		 mov	 ecx, eax
  00190	ff 15 00 00 00
	00		 call	 DWORD PTR __imp_??6?$basic_ostream@DU?$char_traits@D@std@@@std@@QAEAAV01@P6AAAV01@AAV01@@Z@Z

; 1089 : 		if (EfektyKompletne)

  00196	80 3d 00 00 00
	00 00		 cmp	 BYTE PTR ?EfektyKompletne@@3_NA, 0 ; EfektyKompletne
  0019d	74 72		 je	 SHORT $LN15@Koniec_gry

; 1090 : 			if (rand() % 1) PlaySound("Efekty_dŸwiêkowe/wygrana1.wav", nullptr, SND_SYNC);

  0019f	ff 15 00 00 00
	00		 call	 DWORD PTR __imp__rand

; 1091 : 			else PlaySound("Efekty_dŸwiêkowe/wygrana2.wav", nullptr, SND_SYNC);

  001a5	6a 00		 push	 0
  001a7	6a 00		 push	 0
  001a9	68 00 00 00 00	 push	 OFFSET ??_C@_0BO@GEPIDPJJ@Efekty_d?$JPwi?jkowe?1wygrana2?4wav?$AA@

; 1096 : 		if (EfektyKompletne) PlaySound("Efekty_dŸwiêkowe/zwielokrotnenie.wav", nullptr, SND_SYNC);

  001ae	ff d3		 call	 ebx

; 1097 : 	}
; 1098 : }

  001b0	5f		 pop	 edi
  001b1	5e		 pop	 esi
  001b2	5b		 pop	 ebx
  001b3	8b e5		 mov	 esp, ebp
  001b5	5d		 pop	 ebp
  001b6	c3		 ret	 0
$LN9@Koniec_gry:

; 1092 : 	}
; 1093 : 	else if (iloœæ_pieniêdzy >= kwota_pocz¹tkowa * 2)

  001b7	8d 0c 36	 lea	 ecx, DWORD PTR [esi+esi]
  001ba	3b d1		 cmp	 edx, ecx
  001bc	7c 53		 jl	 SHORT $LN15@Koniec_gry

; 1094 : 	{
; 1095 : 		cout << "Gratuluje zwiêkszy³eœ " << iloœæ_pieniêdzy / kwota_pocz¹tkowa << " krotnie swój zasób finansowy" << endl; //Wyœwietlenie gratulacji z powodu zwielokrotnienia przynajmniej 2 razy bud¿etu

  001be	8b c2		 mov	 eax, edx
  001c0	99		 cdq
  001c1	f7 fe		 idiv	 esi
  001c3	68 00 00 00 00	 push	 OFFSET ??$endl@DU?$char_traits@D@std@@@std@@YAAAV?$basic_ostream@DU?$char_traits@D@std@@@0@AAV10@@Z ; std::endl<char,std::char_traits<char> >
  001c8	51		 push	 ecx
  001c9	50		 push	 eax
  001ca	51		 push	 ecx
  001cb	8b 0d 00 00 00
	00		 mov	 ecx, DWORD PTR __imp_?cout@std@@3V?$basic_ostream@DU?$char_traits@D@std@@@1@A
  001d1	ba 00 00 00 00	 mov	 edx, OFFSET ??_C@_0BH@GDCLDFHN@Gratuluje?5zwi?jkszy?$LDe?$JM?5?$AA@
  001d6	e8 00 00 00 00	 call	 ??$?6U?$char_traits@D@std@@@std@@YAAAV?$basic_ostream@DU?$char_traits@D@std@@@0@AAV10@PBD@Z ; std::operator<<<std::char_traits<char> >
  001db	83 c4 04	 add	 esp, 4
  001de	8b c8		 mov	 ecx, eax
  001e0	ff 15 00 00 00
	00		 call	 DWORD PTR __imp_??6?$basic_ostream@DU?$char_traits@D@std@@@std@@QAEAAV01@H@Z
  001e6	ba 00 00 00 00	 mov	 edx, OFFSET ??_C@_0BO@CAHFKDBP@?5krotnie?5sw?sj?5zas?sb?5finansowy?$AA@
  001eb	8b c8		 mov	 ecx, eax
  001ed	e8 00 00 00 00	 call	 ??$?6U?$char_traits@D@std@@@std@@YAAAV?$basic_ostream@DU?$char_traits@D@std@@@0@AAV10@PBD@Z ; std::operator<<<std::char_traits<char> >
  001f2	83 c4 04	 add	 esp, 4
  001f5	8b c8		 mov	 ecx, eax
  001f7	ff 15 00 00 00
	00		 call	 DWORD PTR __imp_??6?$basic_ostream@DU?$char_traits@D@std@@@std@@QAEAAV01@P6AAAV01@AAV01@@Z@Z

; 1096 : 		if (EfektyKompletne) PlaySound("Efekty_dŸwiêkowe/zwielokrotnenie.wav", nullptr, SND_SYNC);

  001fd	80 3d 00 00 00
	00 00		 cmp	 BYTE PTR ?EfektyKompletne@@3_NA, 0 ; EfektyKompletne
  00204	74 0b		 je	 SHORT $LN15@Koniec_gry
  00206	6a 00		 push	 0
  00208	6a 00		 push	 0
  0020a	68 00 00 00 00	 push	 OFFSET ??_C@_0CF@PNMICDIM@Efekty_d?$JPwi?jkowe?1zwielokrotnenie@
  0020f	ff d3		 call	 ebx
$LN15@Koniec_gry:

; 1097 : 	}
; 1098 : }

  00211	5f		 pop	 edi
  00212	5e		 pop	 esi
  00213	5b		 pop	 ebx
  00214	8b e5		 mov	 esp, ebp
  00216	5d		 pop	 ebp
  00217	c3		 ret	 0
?Koniec_gry@@YAXAAV?$basic_ofstream@DU?$char_traits@D@std@@@std@@AAV?$basic_fstream@DU?$char_traits@D@std@@@2@AAH@Z ENDP ; Koniec_gry
_TEXT	ENDS
; Function compile flags: /Ogtp
; File f:\users\krzysztof\documents\szko³a\2017-2018\informatyka\labolatorium\ruletka\ruletka\main.cpp
; File f:\program files (x86)\microsoft visual studio\2017\enterprise\vc\tools\msvc\14.11.25503\include\xstring
; File f:\program files (x86)\microsoft visual studio\2017\enterprise\vc\tools\msvc\14.11.25503\include\xstddef
; File f:\users\krzysztof\documents\szko³a\2017-2018\informatyka\labolatorium\ruletka\ruletka\main.cpp
; File f:\program files (x86)\microsoft visual studio\2017\enterprise\vc\tools\msvc\14.11.25503\include\string
; File f:\users\krzysztof\documents\szko³a\2017-2018\informatyka\labolatorium\ruletka\ruletka\main.cpp
; File f:\program files (x86)\microsoft visual studio\2017\enterprise\vc\tools\msvc\14.11.25503\include\xstring
; File f:\users\krzysztof\documents\szko³a\2017-2018\informatyka\labolatorium\ruletka\ruletka\main.cpp
; File f:\program files (x86)\microsoft visual studio\2017\enterprise\vc\tools\msvc\14.11.25503\include\xstring
; File f:\program files (x86)\microsoft visual studio\2017\enterprise\vc\tools\msvc\14.11.25503\include\xmemory0
; File f:\program files (x86)\microsoft visual studio\2017\enterprise\vc\tools\msvc\14.11.25503\include\xstring
; File f:\program files (x86)\microsoft visual studio\2017\enterprise\vc\tools\msvc\14.11.25503\include\xmemory0
; File f:\program files (x86)\microsoft visual studio\2017\enterprise\vc\tools\msvc\14.11.25503\include\xstring
; File f:\program files (x86)\microsoft visual studio\2017\enterprise\vc\tools\msvc\14.11.25503\include\iosfwd
; File f:\program files (x86)\microsoft visual studio\2017\enterprise\vc\tools\msvc\14.11.25503\include\xstring
; File f:\program files (x86)\microsoft visual studio\2017\enterprise\vc\tools\msvc\14.11.25503\include\iosfwd
; File f:\program files (x86)\microsoft visual studio\2017\enterprise\vc\tools\msvc\14.11.25503\include\xstring
; File f:\program files (x86)\microsoft visual studio\2017\enterprise\vc\tools\msvc\14.11.25503\include\xmemory0
; File f:\program files (x86)\microsoft visual studio\2017\enterprise\vc\tools\msvc\14.11.25503\include\xstring
; File f:\program files (x86)\microsoft visual studio\2017\enterprise\vc\tools\msvc\14.11.25503\include\xmemory0
; File f:\program files (x86)\microsoft visual studio\2017\enterprise\vc\tools\msvc\14.11.25503\include\xstring
; File f:\users\krzysztof\documents\szko³a\2017-2018\informatyka\labolatorium\ruletka\ruletka\main.cpp
; File f:\program files (x86)\microsoft visual studio\2017\enterprise\vc\tools\msvc\14.11.25503\include\xstring
; File f:\program files (x86)\microsoft visual studio\2017\enterprise\vc\tools\msvc\14.11.25503\include\xstddef
; File f:\program files (x86)\microsoft visual studio\2017\enterprise\vc\tools\msvc\14.11.25503\include\string
; File f:\users\krzysztof\documents\szko³a\2017-2018\informatyka\labolatorium\ruletka\ruletka\main.cpp
; File f:\program files (x86)\microsoft visual studio\2017\enterprise\vc\tools\msvc\14.11.25503\include\xstring
; File f:\program files (x86)\microsoft visual studio\2017\enterprise\vc\tools\msvc\14.11.25503\include\xstddef
; File f:\program files (x86)\microsoft visual studio\2017\enterprise\vc\tools\msvc\14.11.25503\include\string
; File f:\users\krzysztof\documents\szko³a\2017-2018\informatyka\labolatorium\ruletka\ruletka\main.cpp
; File f:\program files (x86)\microsoft visual studio\2017\enterprise\vc\tools\msvc\14.11.25503\include\xmemory0
; File f:\users\krzysztof\documents\szko³a\2017-2018\informatyka\labolatorium\ruletka\ruletka\main.cpp
;	COMDAT ?Pêtla_g³ówna@@YAXAAH00AAV?$basic_ofstream@DU?$char_traits@D@std@@@std@@AAV?$basic_fstream@DU?$char_traits@D@std@@@2@AADAAV?$basic_string@DU?$char_traits@D@std@@V?$allocator@D@2@@2@0@Z
_TEXT	SEGMENT
_kwota_zak³adu$1$ = -36					; size = 4
_wygrana$1$ = -32					; size = 4
$T1 = -24						; size = 24
_iloœæ_pieniêdzy$ = 8					; size = 4
_log_ogólny$ = 12					; size = 4
_log$ = 16						; size = 4
_co_kontynuowaæ$ = 20					; size = 4
_typ_zak³adu$ = 24					; size = 4
_wylosowana_liczba$ = 28				; size = 4
?Pêtla_g³ówna@@YAXAAH00AAV?$basic_ofstream@DU?$char_traits@D@std@@@std@@AAV?$basic_fstream@DU?$char_traits@D@std@@@2@AADAAV?$basic_string@DU?$char_traits@D@std@@V?$allocator@D@2@@2@0@Z PROC ; Pêtla_g³ówna, COMDAT
; _wygrana$ = ecx
; _kwota_zak³adu$ = edx

; 1101 : {

  00000	55		 push	 ebp
  00001	8b ec		 mov	 ebp, esp
  00003	83 e4 f8	 and	 esp, -8			; fffffff8H
  00006	83 ec 24	 sub	 esp, 36			; 00000024H
  00009	53		 push	 ebx
  0000a	56		 push	 esi

; 1102 : 	if (co_kontynuowaæ == 'n') Wczytaj_Kwotê_Zak³adu(kwota_zak³adu, iloœæ_pieniêdzy); //Przypisanie do zmiennej pobranej od u¿ytkownika kwoty zak³adu

  0000b	8b 75 14	 mov	 esi, DWORD PTR _co_kontynuowaæ$[ebp]
  0000e	8b da		 mov	 ebx, edx
  00010	57		 push	 edi
  00011	89 5c 24 0c	 mov	 DWORD PTR _kwota_zak³adu$1$[esp+48], ebx
  00015	89 4c 24 10	 mov	 DWORD PTR _wygrana$1$[esp+48], ecx
  00019	80 3e 6e	 cmp	 BYTE PTR [esi], 110	; 0000006eH
  0001c	75 0c		 jne	 SHORT $LN2@P?
  0001e	8b 55 08	 mov	 edx, DWORD PTR _iloœæ_pieniêdzy$[ebp]
  00021	8b cb		 mov	 ecx, ebx
  00023	e8 00 00 00 00	 call	 ?Wczytaj_Kwotê_Zak³adu@@YAXAAHABH@Z ; Wczytaj_Kwotê_Zak³adu
  00028	eb 3b		 jmp	 SHORT $LN3@P?
$LN2@P?:

; 1103 : 	else cout << "Obstawiono za " << kwota_zak³adu << "$" << endl; //Wypisanie wczytanej kwoty zak³adu

  0002a	68 00 00 00 00	 push	 OFFSET ??$endl@DU?$char_traits@D@std@@@std@@YAAAV?$basic_ostream@DU?$char_traits@D@std@@@0@AAV10@@Z ; std::endl<char,std::char_traits<char> >
  0002f	51		 push	 ecx
  00030	ff 33		 push	 DWORD PTR [ebx]
  00032	ba 00 00 00 00	 mov	 edx, OFFSET ??_C@_0P@LMKDJHDC@Obstawiono?5za?5?$AA@
  00037	51		 push	 ecx
  00038	8b 0d 00 00 00
	00		 mov	 ecx, DWORD PTR __imp_?cout@std@@3V?$basic_ostream@DU?$char_traits@D@std@@@1@A
  0003e	e8 00 00 00 00	 call	 ??$?6U?$char_traits@D@std@@@std@@YAAAV?$basic_ostream@DU?$char_traits@D@std@@@0@AAV10@PBD@Z ; std::operator<<<std::char_traits<char> >
  00043	83 c4 04	 add	 esp, 4
  00046	8b c8		 mov	 ecx, eax
  00048	ff 15 00 00 00
	00		 call	 DWORD PTR __imp_??6?$basic_ostream@DU?$char_traits@D@std@@@std@@QAEAAV01@H@Z
  0004e	ba 00 00 00 00	 mov	 edx, OFFSET ??_C@_01EPMOAMKG@$?$AA@
  00053	8b c8		 mov	 ecx, eax
  00055	e8 00 00 00 00	 call	 ??$?6U?$char_traits@D@std@@@std@@YAAAV?$basic_ostream@DU?$char_traits@D@std@@@0@AAV10@PBD@Z ; std::operator<<<std::char_traits<char> >
  0005a	83 c4 04	 add	 esp, 4
  0005d	8b c8		 mov	 ecx, eax
  0005f	ff 15 00 00 00
	00		 call	 DWORD PTR __imp_??6?$basic_ostream@DU?$char_traits@D@std@@@std@@QAEAAV01@P6AAAV01@AAV01@@Z@Z
$LN3@P?:

; 1104 : 	if (co_kontynuowaæ == 'n') log << "Obstawiono za " << kwota_zak³adu << "$"; //Zapisanie do bufora pliku logu aktualnego informacji o kwocie obstawionego zak³adu

  00065	80 3e 6e	 cmp	 BYTE PTR [esi], 110	; 0000006eH
  00068	8b 7d 0c	 mov	 edi, DWORD PTR _log_ogólny$[ebp]
  0006b	75 5c		 jne	 SHORT $LN5@P?
  0006d	8b 45 10	 mov	 eax, DWORD PTR _log$[ebp]
  00070	33 d2		 xor	 edx, edx
  00072	ff 33		 push	 DWORD PTR [ebx]
  00074	85 c0		 test	 eax, eax
  00076	51		 push	 ecx
  00077	8d 48 10	 lea	 ecx, DWORD PTR [eax+16]
  0007a	0f 44 ca	 cmove	 ecx, edx
  0007d	ba 00 00 00 00	 mov	 edx, OFFSET ??_C@_0P@LMKDJHDC@Obstawiono?5za?5?$AA@
  00082	e8 00 00 00 00	 call	 ??$?6U?$char_traits@D@std@@@std@@YAAAV?$basic_ostream@DU?$char_traits@D@std@@@0@AAV10@PBD@Z ; std::operator<<<std::char_traits<char> >
  00087	83 c4 04	 add	 esp, 4
  0008a	8b c8		 mov	 ecx, eax
  0008c	ff 15 00 00 00
	00		 call	 DWORD PTR __imp_??6?$basic_ostream@DU?$char_traits@D@std@@@std@@QAEAAV01@H@Z
  00092	ba 00 00 00 00	 mov	 edx, OFFSET ??_C@_01EPMOAMKG@$?$AA@
  00097	8b c8		 mov	 ecx, eax
  00099	e8 00 00 00 00	 call	 ??$?6U?$char_traits@D@std@@@std@@YAAAV?$basic_ostream@DU?$char_traits@D@std@@@0@AAV10@PBD@Z ; std::operator<<<std::char_traits<char> >

; 1105 : 	if (co_kontynuowaæ == 'n') log_ogólny << "Obstawiono za " << kwota_zak³adu << "$"; //Zapisanie do bufora pliku logu ogólnego informacji o kwocie obstawionego zak³adu

  0009e	80 3e 6e	 cmp	 BYTE PTR [esi], 110	; 0000006eH
  000a1	75 26		 jne	 SHORT $LN5@P?
  000a3	ff 33		 push	 DWORD PTR [ebx]
  000a5	ba 00 00 00 00	 mov	 edx, OFFSET ??_C@_0P@LMKDJHDC@Obstawiono?5za?5?$AA@
  000aa	51		 push	 ecx
  000ab	8b cf		 mov	 ecx, edi
  000ad	e8 00 00 00 00	 call	 ??$?6U?$char_traits@D@std@@@std@@YAAAV?$basic_ostream@DU?$char_traits@D@std@@@0@AAV10@PBD@Z ; std::operator<<<std::char_traits<char> >
  000b2	83 c4 04	 add	 esp, 4
  000b5	8b c8		 mov	 ecx, eax
  000b7	ff 15 00 00 00
	00		 call	 DWORD PTR __imp_??6?$basic_ostream@DU?$char_traits@D@std@@@std@@QAEAAV01@H@Z
  000bd	ba 00 00 00 00	 mov	 edx, OFFSET ??_C@_01EPMOAMKG@$?$AA@
  000c2	8b c8		 mov	 ecx, eax
  000c4	e8 00 00 00 00	 call	 ??$?6U?$char_traits@D@std@@@std@@YAAAV?$basic_ostream@DU?$char_traits@D@std@@@0@AAV10@PBD@Z ; std::operator<<<std::char_traits<char> >
$LN5@P?:

; 1106 : 	log.flush(); //Zapisanie do pliku log_aktualny.txt danych wpisanych do bufora danych

  000c9	8b 45 10	 mov	 eax, DWORD PTR _log$[ebp]
  000cc	83 c0 10	 add	 eax, 16			; 00000010H
  000cf	8b c8		 mov	 ecx, eax
  000d1	ff 15 00 00 00
	00		 call	 DWORD PTR __imp_?flush@?$basic_ostream@DU?$char_traits@D@std@@@std@@QAEAAV12@XZ

; 1107 : 	log_ogólny.flush(); //Zapisanie do pliku log_ogólny.txt danych wpisanych do bufora danych

  000d7	8b cf		 mov	 ecx, edi
  000d9	ff 15 00 00 00
	00		 call	 DWORD PTR __imp_?flush@?$basic_ostream@DU?$char_traits@D@std@@@std@@QAEAAV12@XZ

; 1108 : 	if (co_kontynuowaæ == 'n' || co_kontynuowaæ == 'k') typ_zak³adu = Obstaw(); //Przypisanie do zmiennej pobranej od u¿ytkownika typu zak³adu

  000df	8a 06		 mov	 al, BYTE PTR [esi]
  000e1	3c 6e		 cmp	 al, 110			; 0000006eH
  000e3	74 41		 je	 SHORT $LN8@P?
  000e5	3c 6b		 cmp	 al, 107			; 0000006bH
  000e7	74 3d		 je	 SHORT $LN8@P?

; 1109 : 	else cout << "Obstawiono zak³ad " << typ_zak³adu << endl; //Wypisanie wczytanego typu zak³adu

  000e9	8b 0d 00 00 00
	00		 mov	 ecx, DWORD PTR __imp_?cout@std@@3V?$basic_ostream@DU?$char_traits@D@std@@@1@A
  000ef	ba 00 00 00 00	 mov	 edx, OFFSET ??_C@_0BD@IOLLNBIB@Obstawiono?5zak?$LDad?5?$AA@
  000f4	e8 00 00 00 00	 call	 ??$?6U?$char_traits@D@std@@@std@@YAAAV?$basic_ostream@DU?$char_traits@D@std@@@0@AAV10@PBD@Z ; std::operator<<<std::char_traits<char> >
; File f:\program files (x86)\microsoft visual studio\2017\enterprise\vc\tools\msvc\14.11.25503\include\xstring

; 3062 : 		return (this->_Get_data()._Mysize);

  000f9	8b 5d 18	 mov	 ebx, DWORD PTR _typ_zak³adu$[ebp]

; 1606 : 		const value_type * _Result = _Bx._Buf;

  000fc	8b d3		 mov	 edx, ebx

; 1617 : 		return (_BUF_SIZE <= _Myres);

  000fe	83 7b 14 10	 cmp	 DWORD PTR [ebx+20], 16	; 00000010H

; 1607 : 		if (_Large_string_engaged())

  00102	72 02		 jb	 SHORT $LN202@P?
; File f:\program files (x86)\microsoft visual studio\2017\enterprise\vc\tools\msvc\14.11.25503\include\xstddef

; 265  : 	return (_Ptr);

  00104	8b 13		 mov	 edx, DWORD PTR [ebx]
$LN202@P?:
; File f:\users\krzysztof\documents\szko³a\2017-2018\informatyka\labolatorium\ruletka\ruletka\main.cpp

; 1109 : 	else cout << "Obstawiono zak³ad " << typ_zak³adu << endl; //Wypisanie wczytanego typu zak³adu

  00106	68 00 00 00 00	 push	 OFFSET ??$endl@DU?$char_traits@D@std@@@std@@YAAAV?$basic_ostream@DU?$char_traits@D@std@@@0@AAV10@@Z ; std::endl<char,std::char_traits<char> >
; File f:\program files (x86)\microsoft visual studio\2017\enterprise\vc\tools\msvc\14.11.25503\include\string

; 169  : 	return (_Insert_string(_Ostr, _Str.data(), _Str.size()));

  0010b	51		 push	 ecx
  0010c	ff 73 10	 push	 DWORD PTR [ebx+16]
  0010f	8b c8		 mov	 ecx, eax
  00111	e8 00 00 00 00	 call	 ??$_Insert_string@DU?$char_traits@D@std@@I@std@@YAAAV?$basic_ostream@DU?$char_traits@D@std@@@0@AAV10@QBDI@Z ; std::_Insert_string<char,std::char_traits<char>,unsigned int>
  00116	83 c4 08	 add	 esp, 8
; File f:\users\krzysztof\documents\szko³a\2017-2018\informatyka\labolatorium\ruletka\ruletka\main.cpp

; 1109 : 	else cout << "Obstawiono zak³ad " << typ_zak³adu << endl; //Wypisanie wczytanego typu zak³adu

  00119	8b c8		 mov	 ecx, eax
  0011b	ff 15 00 00 00
	00		 call	 DWORD PTR __imp_??6?$basic_ostream@DU?$char_traits@D@std@@@std@@QAEAAV01@P6AAAV01@AAV01@@Z@Z
  00121	e9 d4 00 00 00	 jmp	 $LN162@P?
$LN8@P?:

; 1108 : 	if (co_kontynuowaæ == 'n' || co_kontynuowaæ == 'k') typ_zak³adu = Obstaw(); //Przypisanie do zmiennej pobranej od u¿ytkownika typu zak³adu

  00126	8d 4c 24 18	 lea	 ecx, DWORD PTR $T1[esp+48]
  0012a	e8 00 00 00 00	 call	 ?Obstaw@@YA?AV?$basic_string@DU?$char_traits@D@std@@V?$allocator@D@2@@std@@XZ ; Obstaw
; File f:\program files (x86)\microsoft visual studio\2017\enterprise\vc\tools\msvc\14.11.25503\include\xstring

; 2086 : 		if (this != _STD addressof(_Right))

  0012f	8b 5d 18	 mov	 ebx, DWORD PTR _typ_zak³adu$[ebp]
; File f:\users\krzysztof\documents\szko³a\2017-2018\informatyka\labolatorium\ruletka\ruletka\main.cpp

; 1108 : 	if (co_kontynuowaæ == 'n' || co_kontynuowaæ == 'k') typ_zak³adu = Obstaw(); //Przypisanie do zmiennej pobranej od u¿ytkownika typu zak³adu

  00132	8b f8		 mov	 edi, eax
; File f:\program files (x86)\microsoft visual studio\2017\enterprise\vc\tools\msvc\14.11.25503\include\xstring

; 2086 : 		if (this != _STD addressof(_Right))

  00134	3b df		 cmp	 ebx, edi
  00136	74 77		 je	 SHORT $LN132@P?

; 1617 : 		return (_BUF_SIZE <= _Myres);

  00138	8b 43 14	 mov	 eax, DWORD PTR [ebx+20]
  0013b	83 f8 10	 cmp	 eax, 16			; 00000010H

; 3709 : 		if (_My_data._Large_string_engaged())

  0013e	72 3d		 jb	 SHORT $LN70@P?
; File f:\program files (x86)\microsoft visual studio\2017\enterprise\vc\tools\msvc\14.11.25503\include\xmemory0

; 941  : 		_Deallocate(_Ptr, _Count, sizeof(_Ty));

  00140	8b 0b		 mov	 ecx, DWORD PTR [ebx]
; File f:\program files (x86)\microsoft visual studio\2017\enterprise\vc\tools\msvc\14.11.25503\include\xstring

; 3714 : 			_Al.deallocate(_Ptr, _My_data._Myres + 1);

  00142	40		 inc	 eax
; File f:\program files (x86)\microsoft visual studio\2017\enterprise\vc\tools\msvc\14.11.25503\include\xmemory0

; 107  : 	if (_BIG_ALLOCATION_THRESHOLD <= _Count * _Sz)

  00143	3d 00 10 00 00	 cmp	 eax, 4096		; 00001000H
  00148	72 2a		 jb	 SHORT $LN73@P?

; 108  : 		{	// deallocate large block
; 109  : 		const uintptr_t _Ptr_user = reinterpret_cast<uintptr_t>(_Ptr);
; 110  : 		if ((_Ptr_user & (_BIG_ALLOCATION_ALIGNMENT - 1)) != 0)

  0014a	f6 c1 1f	 test	 cl, 31			; 0000001fH
  0014d	0f 85 df 01 00
	00		 jne	 $_Invalid_parameter$271

; 111  : 			{
; 112  : 			goto _Invalid_parameter;
; 113  : 			}
; 114  : 
; 115  : 		const uintptr_t _Ptr_ptr = _Ptr_user - sizeof(void *);
; 116  : 		const uintptr_t _Ptr_container =
; 117  : 			*reinterpret_cast<uintptr_t *>(_Ptr_ptr);

  00153	8b 41 fc	 mov	 eax, DWORD PTR [ecx-4]

; 118  : 
; 119  :  #ifdef _DEBUG
; 120  : 		// If the following asserts, it likely means that we are performing
; 121  : 		// an aligned delete on memory coming from an unaligned allocation.
; 122  : 		if (reinterpret_cast<uintptr_t *>(_Ptr_ptr)[-1] != _BIG_ALLOCATION_SENTINEL)
; 123  : 			{
; 124  : 			goto _Invalid_parameter;
; 125  : 			}
; 126  :  #endif /* _DEBUG */
; 127  : 
; 128  : 		// Extra paranoia on aligned allocation/deallocation
; 129  : 		if (_Ptr_container >= _Ptr_user)

  00156	3b c1		 cmp	 eax, ecx
  00158	0f 83 d4 01 00
	00		 jae	 $_Invalid_parameter$271

; 130  : 			{
; 131  : 			goto _Invalid_parameter;
; 132  : 			}
; 133  : 
; 134  :  #ifdef _DEBUG
; 135  : 		if (2 * sizeof(void *) > _Ptr_user - _Ptr_container)
; 136  :  #else /* _DEBUG */
; 137  : 		if (sizeof(void *) > _Ptr_user - _Ptr_container)

  0015e	2b c8		 sub	 ecx, eax
  00160	83 f9 04	 cmp	 ecx, 4
  00163	0f 82 c9 01 00
	00		 jb	 $_Invalid_parameter$271

; 138  :  #endif /* _DEBUG */
; 139  : 			{
; 140  : 			goto _Invalid_parameter;
; 141  : 			}
; 142  : 
; 143  : 		if (_Ptr_user - _Ptr_container > _NON_USER_SIZE)

  00169	83 f9 23	 cmp	 ecx, 35			; 00000023H
  0016c	0f 87 c0 01 00
	00		 ja	 $_Invalid_parameter$271

; 144  : 			{
; 145  : 			goto _Invalid_parameter;
; 146  : 			}
; 147  : 
; 148  : 		_Ptr = reinterpret_cast<void *>(_Ptr_container);

  00172	8b c8		 mov	 ecx, eax
$LN73@P?:

; 149  : 		}
; 150  : 
; 151  : 	::operator delete(_Ptr);

  00174	51		 push	 ecx
  00175	e8 00 00 00 00	 call	 ??3@YAXPAX@Z		; operator delete
  0017a	83 c4 04	 add	 esp, 4
$LN70@P?:
; File f:\program files (x86)\microsoft visual studio\2017\enterprise\vc\tools\msvc\14.11.25503\include\xstring

; 3717 : 		_My_data._Mysize = 0;

  0017d	c7 43 10 00 00
	00 00		 mov	 DWORD PTR [ebx+16], 0

; 3718 : 		_My_data._Myres = this->_BUF_SIZE - 1;

  00184	c7 43 14 0f 00
	00 00		 mov	 DWORD PTR [ebx+20], 15	; 0000000fH
; File f:\program files (x86)\microsoft visual studio\2017\enterprise\vc\tools\msvc\14.11.25503\include\iosfwd

; 517  : 		_Left = _Right;

  0018b	c6 03 00	 mov	 BYTE PTR [ebx], 0
; File f:\program files (x86)\microsoft visual studio\2017\enterprise\vc\tools\msvc\14.11.25503\include\xstring

; 2152 : 		_CSTD memcpy(_My_data_mem, _Right_data_mem, _Memcpy_move_size);

  0018e	0f 10 07	 movups	 xmm0, XMMWORD PTR [edi]
  00191	0f 11 03	 movups	 XMMWORD PTR [ebx], xmm0
  00194	f3 0f 7e 47 10	 movq	 xmm0, QWORD PTR [edi+16]
  00199	66 0f d6 43 10	 movq	 QWORD PTR [ebx+16], xmm0

; 3698 : 		_My_data._Mysize = 0;

  0019e	c7 47 10 00 00
	00 00		 mov	 DWORD PTR [edi+16], 0

; 3699 : 		_My_data._Myres = this->_BUF_SIZE - 1;

  001a5	c7 47 14 0f 00
	00 00		 mov	 DWORD PTR [edi+20], 15	; 0000000fH
; File f:\program files (x86)\microsoft visual studio\2017\enterprise\vc\tools\msvc\14.11.25503\include\iosfwd

; 517  : 		_Left = _Right;

  001ac	c6 07 00	 mov	 BYTE PTR [edi], 0
$LN132@P?:
; File f:\program files (x86)\microsoft visual studio\2017\enterprise\vc\tools\msvc\14.11.25503\include\xstring

; 1617 : 		return (_BUF_SIZE <= _Myres);

  001af	8b 44 24 2c	 mov	 eax, DWORD PTR $T1[esp+68]
  001b3	83 f8 10	 cmp	 eax, 16			; 00000010H

; 3709 : 		if (_My_data._Large_string_engaged())

  001b6	72 3f		 jb	 SHORT $LN266@P?
; File f:\program files (x86)\microsoft visual studio\2017\enterprise\vc\tools\msvc\14.11.25503\include\xmemory0

; 941  : 		_Deallocate(_Ptr, _Count, sizeof(_Ty));

  001b8	8b 4c 24 18	 mov	 ecx, DWORD PTR $T1[esp+48]
; File f:\program files (x86)\microsoft visual studio\2017\enterprise\vc\tools\msvc\14.11.25503\include\xstring

; 3714 : 			_Al.deallocate(_Ptr, _My_data._Myres + 1);

  001bc	40		 inc	 eax
; File f:\program files (x86)\microsoft visual studio\2017\enterprise\vc\tools\msvc\14.11.25503\include\xmemory0

; 107  : 	if (_BIG_ALLOCATION_THRESHOLD <= _Count * _Sz)

  001bd	3d 00 10 00 00	 cmp	 eax, 4096		; 00001000H
  001c2	72 2a		 jb	 SHORT $LN165@P?

; 108  : 		{	// deallocate large block
; 109  : 		const uintptr_t _Ptr_user = reinterpret_cast<uintptr_t>(_Ptr);
; 110  : 		if ((_Ptr_user & (_BIG_ALLOCATION_ALIGNMENT - 1)) != 0)

  001c4	f6 c1 1f	 test	 cl, 31			; 0000001fH
  001c7	0f 85 65 01 00
	00		 jne	 $_Invalid_parameter$271

; 111  : 			{
; 112  : 			goto _Invalid_parameter;
; 113  : 			}
; 114  : 
; 115  : 		const uintptr_t _Ptr_ptr = _Ptr_user - sizeof(void *);
; 116  : 		const uintptr_t _Ptr_container =
; 117  : 			*reinterpret_cast<uintptr_t *>(_Ptr_ptr);

  001cd	8b 41 fc	 mov	 eax, DWORD PTR [ecx-4]

; 118  : 
; 119  :  #ifdef _DEBUG
; 120  : 		// If the following asserts, it likely means that we are performing
; 121  : 		// an aligned delete on memory coming from an unaligned allocation.
; 122  : 		if (reinterpret_cast<uintptr_t *>(_Ptr_ptr)[-1] != _BIG_ALLOCATION_SENTINEL)
; 123  : 			{
; 124  : 			goto _Invalid_parameter;
; 125  : 			}
; 126  :  #endif /* _DEBUG */
; 127  : 
; 128  : 		// Extra paranoia on aligned allocation/deallocation
; 129  : 		if (_Ptr_container >= _Ptr_user)

  001d0	3b c1		 cmp	 eax, ecx
  001d2	0f 83 5a 01 00
	00		 jae	 $_Invalid_parameter$271

; 130  : 			{
; 131  : 			goto _Invalid_parameter;
; 132  : 			}
; 133  : 
; 134  :  #ifdef _DEBUG
; 135  : 		if (2 * sizeof(void *) > _Ptr_user - _Ptr_container)
; 136  :  #else /* _DEBUG */
; 137  : 		if (sizeof(void *) > _Ptr_user - _Ptr_container)

  001d8	2b c8		 sub	 ecx, eax
  001da	83 f9 04	 cmp	 ecx, 4
  001dd	0f 82 4f 01 00
	00		 jb	 $_Invalid_parameter$271

; 138  :  #endif /* _DEBUG */
; 139  : 			{
; 140  : 			goto _Invalid_parameter;
; 141  : 			}
; 142  : 
; 143  : 		if (_Ptr_user - _Ptr_container > _NON_USER_SIZE)

  001e3	83 f9 23	 cmp	 ecx, 35			; 00000023H
  001e6	0f 87 46 01 00
	00		 ja	 $_Invalid_parameter$271

; 144  : 			{
; 145  : 			goto _Invalid_parameter;
; 146  : 			}
; 147  : 
; 148  : 		_Ptr = reinterpret_cast<void *>(_Ptr_container);

  001ec	8b c8		 mov	 ecx, eax
$LN165@P?:

; 149  : 		}
; 150  : 
; 151  : 	::operator delete(_Ptr);

  001ee	51		 push	 ecx
  001ef	e8 00 00 00 00	 call	 ??3@YAXPAX@Z		; operator delete
  001f4	83 c4 04	 add	 esp, 4
$LN266@P?:
; File f:\program files (x86)\microsoft visual studio\2017\enterprise\vc\tools\msvc\14.11.25503\include\xstring

; 3709 : 		if (_My_data._Large_string_engaged())

  001f7	8b 7d 0c	 mov	 edi, DWORD PTR _log_ogólny$[ebp]
$LN162@P?:
; File f:\users\krzysztof\documents\szko³a\2017-2018\informatyka\labolatorium\ruletka\ruletka\main.cpp

; 1110 : 	if (co_kontynuowaæ == 'n' || co_kontynuowaæ == 'k') log << " Obstawiono zaklad " << typ_zak³adu; //Zapisanie do bufora pliku logu aktualnego informacji o typie obstawionego zak³adu

  001fa	8a 06		 mov	 al, BYTE PTR [esi]
  001fc	3c 6e		 cmp	 al, 110			; 0000006eH
  001fe	74 04		 je	 SHORT $LN10@P?
  00200	3c 6b		 cmp	 al, 107			; 0000006bH
  00202	75 2e		 jne	 SHORT $LN9@P?
$LN10@P?:
  00204	8b 45 10	 mov	 eax, DWORD PTR _log$[ebp]
  00207	33 d2		 xor	 edx, edx
  00209	85 c0		 test	 eax, eax
  0020b	8d 48 10	 lea	 ecx, DWORD PTR [eax+16]
  0020e	0f 44 ca	 cmove	 ecx, edx
  00211	ba 00 00 00 00	 mov	 edx, OFFSET ??_C@_0BE@EKDPDLOA@?5Obstawiono?5zaklad?5?$AA@
  00216	e8 00 00 00 00	 call	 ??$?6U?$char_traits@D@std@@@std@@YAAAV?$basic_ostream@DU?$char_traits@D@std@@@0@AAV10@PBD@Z ; std::operator<<<std::char_traits<char> >
; File f:\program files (x86)\microsoft visual studio\2017\enterprise\vc\tools\msvc\14.11.25503\include\xstring

; 1617 : 		return (_BUF_SIZE <= _Myres);

  0021b	83 7b 14 10	 cmp	 DWORD PTR [ebx+20], 16	; 00000010H

; 1606 : 		const value_type * _Result = _Bx._Buf;

  0021f	8b d3		 mov	 edx, ebx

; 1607 : 		if (_Large_string_engaged())

  00221	72 02		 jb	 SHORT $LN229@P?
; File f:\program files (x86)\microsoft visual studio\2017\enterprise\vc\tools\msvc\14.11.25503\include\xstddef

; 265  : 	return (_Ptr);

  00223	8b 13		 mov	 edx, DWORD PTR [ebx]
$LN229@P?:
; File f:\program files (x86)\microsoft visual studio\2017\enterprise\vc\tools\msvc\14.11.25503\include\string

; 169  : 	return (_Insert_string(_Ostr, _Str.data(), _Str.size()));

  00225	ff 73 10	 push	 DWORD PTR [ebx+16]
  00228	8b c8		 mov	 ecx, eax
  0022a	e8 00 00 00 00	 call	 ??$_Insert_string@DU?$char_traits@D@std@@I@std@@YAAAV?$basic_ostream@DU?$char_traits@D@std@@@0@AAV10@QBDI@Z ; std::_Insert_string<char,std::char_traits<char>,unsigned int>
  0022f	83 c4 04	 add	 esp, 4
$LN9@P?:
; File f:\users\krzysztof\documents\szko³a\2017-2018\informatyka\labolatorium\ruletka\ruletka\main.cpp

; 1111 : 	if (co_kontynuowaæ == 'n' || co_kontynuowaæ == 'k') log_ogólny << " Obstawiono zaklad " << typ_zak³adu; //Zapisanie do bufora pliku logu ogólnego informacji o typie obstawionego zak³adu

  00232	8a 06		 mov	 al, BYTE PTR [esi]
  00234	3c 6e		 cmp	 al, 110			; 0000006eH
  00236	74 04		 je	 SHORT $LN12@P?
  00238	3c 6b		 cmp	 al, 107			; 0000006bH
  0023a	75 23		 jne	 SHORT $LN11@P?
$LN12@P?:
  0023c	ba 00 00 00 00	 mov	 edx, OFFSET ??_C@_0BE@EKDPDLOA@?5Obstawiono?5zaklad?5?$AA@
  00241	8b cf		 mov	 ecx, edi
  00243	e8 00 00 00 00	 call	 ??$?6U?$char_traits@D@std@@@std@@YAAAV?$basic_ostream@DU?$char_traits@D@std@@@0@AAV10@PBD@Z ; std::operator<<<std::char_traits<char> >
; File f:\program files (x86)\microsoft visual studio\2017\enterprise\vc\tools\msvc\14.11.25503\include\xstring

; 1617 : 		return (_BUF_SIZE <= _Myres);

  00248	83 7b 14 10	 cmp	 DWORD PTR [ebx+20], 16	; 00000010H

; 1606 : 		const value_type * _Result = _Bx._Buf;

  0024c	8b d3		 mov	 edx, ebx

; 1607 : 		if (_Large_string_engaged())

  0024e	72 02		 jb	 SHORT $LN256@P?
; File f:\program files (x86)\microsoft visual studio\2017\enterprise\vc\tools\msvc\14.11.25503\include\xstddef

; 265  : 	return (_Ptr);

  00250	8b 13		 mov	 edx, DWORD PTR [ebx]
$LN256@P?:
; File f:\program files (x86)\microsoft visual studio\2017\enterprise\vc\tools\msvc\14.11.25503\include\string

; 169  : 	return (_Insert_string(_Ostr, _Str.data(), _Str.size()));

  00252	ff 73 10	 push	 DWORD PTR [ebx+16]
  00255	8b c8		 mov	 ecx, eax
  00257	e8 00 00 00 00	 call	 ??$_Insert_string@DU?$char_traits@D@std@@I@std@@YAAAV?$basic_ostream@DU?$char_traits@D@std@@@0@AAV10@QBDI@Z ; std::_Insert_string<char,std::char_traits<char>,unsigned int>
  0025c	83 c4 04	 add	 esp, 4
$LN11@P?:
; File f:\users\krzysztof\documents\szko³a\2017-2018\informatyka\labolatorium\ruletka\ruletka\main.cpp

; 1112 : 	log.flush(); //Zapisanie do pliku log_aktualny.txt danych wpisanych do bufora danych

  0025f	8b 45 10	 mov	 eax, DWORD PTR _log$[ebp]
  00262	83 c0 10	 add	 eax, 16			; 00000010H
  00265	8b c8		 mov	 ecx, eax
  00267	ff 15 00 00 00
	00		 call	 DWORD PTR __imp_?flush@?$basic_ostream@DU?$char_traits@D@std@@@std@@QAEAAV12@XZ

; 1113 : 	log_ogólny.flush(); //Zapisanie do pliku log_ogólny.txt danych wpisanych do bufora danych

  0026d	8b cf		 mov	 ecx, edi
  0026f	ff 15 00 00 00
	00		 call	 DWORD PTR __imp_?flush@?$basic_ostream@DU?$char_traits@D@std@@@std@@QAEAAV12@XZ

; 1114 : 	if (co_kontynuowaæ == 'n' || co_kontynuowaæ == 'k' || co_kontynuowaæ == 't' || co_kontynuowaæ == 'w') iloœæ_pieniêdzy -= kwota_zak³adu; //Odjêcie od iloœci pieniêdzy kwoty zak³adu

  00275	8a 06		 mov	 al, BYTE PTR [esi]
  00277	3c 6e		 cmp	 al, 110			; 0000006eH
  00279	74 0c		 je	 SHORT $LN14@P?
  0027b	3c 6b		 cmp	 al, 107			; 0000006bH
  0027d	74 08		 je	 SHORT $LN14@P?
  0027f	3c 74		 cmp	 al, 116			; 00000074H
  00281	74 04		 je	 SHORT $LN14@P?
  00283	3c 77		 cmp	 al, 119			; 00000077H
  00285	75 0b		 jne	 SHORT $LN13@P?
$LN14@P?:
  00287	8b 44 24 0c	 mov	 eax, DWORD PTR _kwota_zak³adu$1$[esp+48]
  0028b	8b 4d 08	 mov	 ecx, DWORD PTR _iloœæ_pieniêdzy$[ebp]
  0028e	8b 00		 mov	 eax, DWORD PTR [eax]
  00290	29 01		 sub	 DWORD PTR [ecx], eax
$LN13@P?:

; 1115 : 	if (co_kontynuowaæ == 'n' || co_kontynuowaæ == 'k' || co_kontynuowaæ == 't') cout << "Kulka w grze, zaczekaj na wylosowanie numeru..." << endl; //Poinformowanie u¿ytkownika o rozpoczêciu losowania

  00292	8a 06		 mov	 al, BYTE PTR [esi]
  00294	3c 6e		 cmp	 al, 110			; 0000006eH
  00296	74 08		 je	 SHORT $LN16@P?
  00298	3c 6b		 cmp	 al, 107			; 0000006bH
  0029a	74 04		 je	 SHORT $LN16@P?
  0029c	3c 74		 cmp	 al, 116			; 00000074H
  0029e	75 21		 jne	 SHORT $LN15@P?
$LN16@P?:
  002a0	68 00 00 00 00	 push	 OFFSET ??$endl@DU?$char_traits@D@std@@@std@@YAAAV?$basic_ostream@DU?$char_traits@D@std@@@0@AAV10@@Z ; std::endl<char,std::char_traits<char> >
  002a5	51		 push	 ecx
  002a6	8b 0d 00 00 00
	00		 mov	 ecx, DWORD PTR __imp_?cout@std@@3V?$basic_ostream@DU?$char_traits@D@std@@@1@A
  002ac	ba 00 00 00 00	 mov	 edx, OFFSET ??_C@_0DA@EJNBAHOM@Kulka?5w?5grze?0?5zaczekaj?5na?5wyloso@
  002b1	e8 00 00 00 00	 call	 ??$?6U?$char_traits@D@std@@@std@@YAAAV?$basic_ostream@DU?$char_traits@D@std@@@0@AAV10@PBD@Z ; std::operator<<<std::char_traits<char> >
  002b6	83 c4 04	 add	 esp, 4
  002b9	8b c8		 mov	 ecx, eax
  002bb	ff 15 00 00 00
	00		 call	 DWORD PTR __imp_??6?$basic_ostream@DU?$char_traits@D@std@@@std@@QAEAAV01@P6AAAV01@AAV01@@Z@Z
$LN15@P?:

; 1116 : 	if (co_kontynuowaæ == 'n' || co_kontynuowaæ == 'k' || co_kontynuowaæ == 't') wylosowana_liczba = Zakrêæ_Ruletk¹(); //Wylosowanie i przypisanie do zmiennej liczby bêdêcej na  wylosowanej pozycji na kole ruletki

  002c1	8a 06		 mov	 al, BYTE PTR [esi]
  002c3	3c 6e		 cmp	 al, 110			; 0000006eH
  002c5	74 71		 je	 SHORT $LN19@P?
  002c7	3c 6b		 cmp	 al, 107			; 0000006bH
  002c9	74 6d		 je	 SHORT $LN19@P?
  002cb	3c 74		 cmp	 al, 116			; 00000074H
  002cd	74 69		 je	 SHORT $LN19@P?

; 1117 : 	else {
; 1118 : 		cout << "Wylosowano numer "; //Poinformowaniu o wylosowaniu liczby

  002cf	8b 0d 00 00 00
	00		 mov	 ecx, DWORD PTR __imp_?cout@std@@3V?$basic_ostream@DU?$char_traits@D@std@@@1@A
  002d5	ba 00 00 00 00	 mov	 edx, OFFSET ??_C@_0BC@IEHJKDDM@Wylosowano?5numer?5?$AA@
  002da	e8 00 00 00 00	 call	 ??$?6U?$char_traits@D@std@@@std@@YAAAV?$basic_ostream@DU?$char_traits@D@std@@@0@AAV10@PBD@Z ; std::operator<<<std::char_traits<char> >

; 1119 : 		Change_Col(Ruletka_plansza_kolor_col[wylosowana_liczba]); //Zmiana koloru tekstu w konsoli zgodnie z kolorem numeru na ruletce

  002df	8b 75 1c	 mov	 esi, DWORD PTR _wylosowana_liczba$[ebp]

; 362  : 	HANDLE h_wyj = GetStdHandle(STD_OUTPUT_HANDLE); //Stworzenie zmiennej typu uchwyt i przypisanie do standardowego wyjœcia

  002e2	8b 3d 00 00 00
	00		 mov	 edi, DWORD PTR __imp__GetStdHandle@4
  002e8	6a f5		 push	 -11			; fffffff5H

; 1119 : 		Change_Col(Ruletka_plansza_kolor_col[wylosowana_liczba]); //Zmiana koloru tekstu w konsoli zgodnie z kolorem numeru na ruletce

  002ea	8b 36		 mov	 esi, DWORD PTR [esi]

; 362  : 	HANDLE h_wyj = GetStdHandle(STD_OUTPUT_HANDLE); //Stworzenie zmiennej typu uchwyt i przypisanie do standardowego wyjœcia

  002ec	ff d7		 call	 edi

; 363  : 	SetConsoleTextAttribute(h_wyj, num_of_col); //Zmienia atrybut koloru tekstu w konsoli

  002ee	0f b7 0c b5 00
	00 00 00	 movzx	 ecx, WORD PTR ?Ruletka_plansza_kolor_col@@3QBHB[esi*4]
  002f6	8b 35 00 00 00
	00		 mov	 esi, DWORD PTR __imp__SetConsoleTextAttribute@8
  002fc	51		 push	 ecx
  002fd	50		 push	 eax
  002fe	ff d6		 call	 esi

; 1120 : 		cout << wylosowana_liczba; //Wypisanie wylosowanej liczby

  00300	8b 45 1c	 mov	 eax, DWORD PTR _wylosowana_liczba$[ebp]
  00303	8b 0d 00 00 00
	00		 mov	 ecx, DWORD PTR __imp_?cout@std@@3V?$basic_ostream@DU?$char_traits@D@std@@@1@A
  00309	ff 30		 push	 DWORD PTR [eax]
  0030b	ff 15 00 00 00
	00		 call	 DWORD PTR __imp_??6?$basic_ostream@DU?$char_traits@D@std@@@std@@QAEAAV01@H@Z

; 362  : 	HANDLE h_wyj = GetStdHandle(STD_OUTPUT_HANDLE); //Stworzenie zmiennej typu uchwyt i przypisanie do standardowego wyjœcia

  00311	6a f5		 push	 -11			; fffffff5H
  00313	ff d7		 call	 edi

; 363  : 	SetConsoleTextAttribute(h_wyj, num_of_col); //Zmienia atrybut koloru tekstu w konsoli

  00315	6a 07		 push	 7
  00317	50		 push	 eax
  00318	ff d6		 call	 esi

; 1121 : 		Change_Col(7); //Powrót do standardowego koloru tekstu w konsoli
; 1122 : 		cout << ". "; //Wypisanie kropki koñcz¹cej zdanie

  0031a	8b 0d 00 00 00
	00		 mov	 ecx, DWORD PTR __imp_?cout@std@@3V?$basic_ostream@DU?$char_traits@D@std@@@1@A
  00320	ba 00 00 00 00	 mov	 edx, OFFSET ??_C@_02KHOJGJKF@?4?5?$AA@
  00325	e8 00 00 00 00	 call	 ??$?6U?$char_traits@D@std@@@std@@YAAAV?$basic_ostream@DU?$char_traits@D@std@@@0@AAV10@PBD@Z ; std::operator<<<std::char_traits<char> >
  0032a	8b 75 14	 mov	 esi, DWORD PTR _co_kontynuowaæ$[ebp]
  0032d	8b 7d 1c	 mov	 edi, DWORD PTR _wylosowana_liczba$[ebp]
  00330	eb 10		 jmp	 SHORT $LN18@P?
$_Invalid_parameter$271:
$_Invalid_parameter$272:
; File f:\program files (x86)\microsoft visual studio\2017\enterprise\vc\tools\msvc\14.11.25503\include\xmemory0

; 155  : 	_SCL_SECURE_INVALID_ARGUMENT_NO_ASSERT;

  00332	ff 15 00 00 00
	00		 call	 DWORD PTR __imp___invalid_parameter_noinfo_noreturn
$LN270@P?:
$LN19@P?:
; File f:\users\krzysztof\documents\szko³a\2017-2018\informatyka\labolatorium\ruletka\ruletka\main.cpp

; 1116 : 	if (co_kontynuowaæ == 'n' || co_kontynuowaæ == 'k' || co_kontynuowaæ == 't') wylosowana_liczba = Zakrêæ_Ruletk¹(); //Wylosowanie i przypisanie do zmiennej liczby bêdêcej na  wylosowanej pozycji na kole ruletki

  00338	e8 00 00 00 00	 call	 ?Zakrêæ_Ruletk¹@@YAHXZ	; Zakrêæ_Ruletk¹
  0033d	8b 7d 1c	 mov	 edi, DWORD PTR _wylosowana_liczba$[ebp]
  00340	89 07		 mov	 DWORD PTR [edi], eax
$LN18@P?:

; 1123 : 	}
; 1124 : 	if (co_kontynuowaæ == 'n' || co_kontynuowaæ == 'k' || co_kontynuowaæ == 't') log << " Wylosowano " << wylosowana_liczba; //Zapisanie do bufora pliku logu aktualnego informacji o wylosowanej liczbie

  00342	8a 06		 mov	 al, BYTE PTR [esi]
  00344	3c 6e		 cmp	 al, 110			; 0000006eH
  00346	74 08		 je	 SHORT $LN21@P?
  00348	3c 6b		 cmp	 al, 107			; 0000006bH
  0034a	74 04		 je	 SHORT $LN21@P?
  0034c	3c 74		 cmp	 al, 116			; 00000074H
  0034e	75 25		 jne	 SHORT $LN20@P?
$LN21@P?:
  00350	8b 55 10	 mov	 edx, DWORD PTR _log$[ebp]
  00353	33 c0		 xor	 eax, eax
  00355	ff 37		 push	 DWORD PTR [edi]
  00357	85 d2		 test	 edx, edx
  00359	51		 push	 ecx
  0035a	8d 4a 10	 lea	 ecx, DWORD PTR [edx+16]
  0035d	ba 00 00 00 00	 mov	 edx, OFFSET ??_C@_0N@CGNKGGIC@?5Wylosowano?5?$AA@
  00362	0f 44 c8	 cmove	 ecx, eax
  00365	e8 00 00 00 00	 call	 ??$?6U?$char_traits@D@std@@@std@@YAAAV?$basic_ostream@DU?$char_traits@D@std@@@0@AAV10@PBD@Z ; std::operator<<<std::char_traits<char> >
  0036a	83 c4 04	 add	 esp, 4
  0036d	8b c8		 mov	 ecx, eax
  0036f	ff 15 00 00 00
	00		 call	 DWORD PTR __imp_??6?$basic_ostream@DU?$char_traits@D@std@@@std@@QAEAAV01@H@Z
$LN20@P?:

; 1125 : 	if (co_kontynuowaæ == 'n' || co_kontynuowaæ == 'k' || co_kontynuowaæ == 't') log_ogólny << " Wylosowano " << wylosowana_liczba; //Zapisanie do bufora pliku logu ogólnego informacji o wylosowanej liczbie

  00375	8a 06		 mov	 al, BYTE PTR [esi]
  00377	3c 6e		 cmp	 al, 110			; 0000006eH
  00379	74 08		 je	 SHORT $LN23@P?
  0037b	3c 6b		 cmp	 al, 107			; 0000006bH
  0037d	74 04		 je	 SHORT $LN23@P?
  0037f	3c 74		 cmp	 al, 116			; 00000074H
  00381	75 1b		 jne	 SHORT $LN22@P?
$LN23@P?:
  00383	ff 37		 push	 DWORD PTR [edi]
  00385	ba 00 00 00 00	 mov	 edx, OFFSET ??_C@_0N@CGNKGGIC@?5Wylosowano?5?$AA@
  0038a	51		 push	 ecx
  0038b	8b 4d 0c	 mov	 ecx, DWORD PTR _log_ogólny$[ebp]
  0038e	e8 00 00 00 00	 call	 ??$?6U?$char_traits@D@std@@@std@@YAAAV?$basic_ostream@DU?$char_traits@D@std@@@0@AAV10@PBD@Z ; std::operator<<<std::char_traits<char> >
  00393	83 c4 04	 add	 esp, 4
  00396	8b c8		 mov	 ecx, eax
  00398	ff 15 00 00 00
	00		 call	 DWORD PTR __imp_??6?$basic_ostream@DU?$char_traits@D@std@@@std@@QAEAAV01@H@Z
$LN22@P?:

; 1126 : 	log.flush(); //Zapisanie do pliku log_aktualny.txt danych wpisanych do bufora danych

  0039e	8b 45 10	 mov	 eax, DWORD PTR _log$[ebp]
  003a1	83 c0 10	 add	 eax, 16			; 00000010H
  003a4	8b c8		 mov	 ecx, eax
  003a6	ff 15 00 00 00
	00		 call	 DWORD PTR __imp_?flush@?$basic_ostream@DU?$char_traits@D@std@@@std@@QAEAAV12@XZ

; 1127 : 	log_ogólny.flush(); //Zapisanie do pliku log_ogólny.txt danych wpisanych do bufora danych

  003ac	8b 4d 0c	 mov	 ecx, DWORD PTR _log_ogólny$[ebp]
  003af	ff 15 00 00 00
	00		 call	 DWORD PTR __imp_?flush@?$basic_ostream@DU?$char_traits@D@std@@@std@@QAEAAV12@XZ

; 1128 : 	if (co_kontynuowaæ == 'n' || co_kontynuowaæ == 'k' || co_kontynuowaæ == 't') Odczytaj_liczbê(wylosowana_liczba, typ_zak³adu);

  003b5	8a 06		 mov	 al, BYTE PTR [esi]
  003b7	3c 6e		 cmp	 al, 110			; 0000006eH
  003b9	74 08		 je	 SHORT $LN25@P?
  003bb	3c 6b		 cmp	 al, 107			; 0000006bH
  003bd	74 04		 je	 SHORT $LN25@P?
  003bf	3c 74		 cmp	 al, 116			; 00000074H
  003c1	75 09		 jne	 SHORT $LN24@P?
$LN25@P?:
  003c3	8b d3		 mov	 edx, ebx
  003c5	8b cf		 mov	 ecx, edi
  003c7	e8 00 00 00 00	 call	 ?Odczytaj_liczbê@@YAXABHABV?$basic_string@DU?$char_traits@D@std@@V?$allocator@D@2@@std@@@Z ; Odczytaj_liczbê
$LN24@P?:

; 1129 : 	if (co_kontynuowaæ == 'n' || co_kontynuowaæ == 'k' || co_kontynuowaæ == 't' || co_kontynuowaæ == 'w') wygrana = SprawdŸ_Zak³ad(kwota_zak³adu, typ_zak³adu, wylosowana_liczba);

  003cc	8a 06		 mov	 al, BYTE PTR [esi]
  003ce	3c 6e		 cmp	 al, 110			; 0000006eH
  003d0	74 0c		 je	 SHORT $LN27@P?
  003d2	3c 6b		 cmp	 al, 107			; 0000006bH
  003d4	74 08		 je	 SHORT $LN27@P?
  003d6	3c 74		 cmp	 al, 116			; 00000074H
  003d8	74 04		 je	 SHORT $LN27@P?
  003da	3c 77		 cmp	 al, 119			; 00000077H
  003dc	75 23		 jne	 SHORT $LN267@P?
$LN27@P?:
  003de	83 ec 18	 sub	 esp, 24			; 00000018H
  003e1	8b cc		 mov	 ecx, esp
  003e3	53		 push	 ebx
  003e4	e8 00 00 00 00	 call	 ??0?$basic_string@DU?$char_traits@D@std@@V?$allocator@D@2@@std@@QAE@ABV01@@Z ; std::basic_string<char,std::char_traits<char>,std::allocator<char> >::basic_string<char,std::char_traits<char>,std::allocator<char> >
  003e9	8b 5c 24 24	 mov	 ebx, DWORD PTR _kwota_zak³adu$1$[esp+72]
  003ed	8b d7		 mov	 edx, edi
  003ef	8b cb		 mov	 ecx, ebx
  003f1	e8 00 00 00 00	 call	 ?SprawdŸ_Zak³ad@@YAHABHV?$basic_string@DU?$char_traits@D@std@@V?$allocator@D@2@@std@@0@Z ; SprawdŸ_Zak³ad
  003f6	8b 4c 24 28	 mov	 ecx, DWORD PTR _wygrana$1$[esp+72]
  003fa	83 c4 18	 add	 esp, 24			; 00000018H
  003fd	89 01		 mov	 DWORD PTR [ecx], eax
  003ff	eb 08		 jmp	 SHORT $LN26@P?
$LN267@P?:
  00401	8b 5c 24 0c	 mov	 ebx, DWORD PTR _kwota_zak³adu$1$[esp+48]
  00405	8b 4c 24 10	 mov	 ecx, DWORD PTR _wygrana$1$[esp+48]
$LN26@P?:

; 1130 : 	if (co_kontynuowaæ == 'n' || co_kontynuowaæ == 'k' || co_kontynuowaæ == 't' || co_kontynuowaæ == 'w') Og³oœ_wynik(wygrana, kwota_zak³adu, iloœæ_pieniêdzy, log_ogólny, log);

  00409	8a 06		 mov	 al, BYTE PTR [esi]
  0040b	3c 6e		 cmp	 al, 110			; 0000006eH
  0040d	74 0c		 je	 SHORT $LN29@P?
  0040f	3c 6b		 cmp	 al, 107			; 0000006bH
  00411	74 08		 je	 SHORT $LN29@P?
  00413	3c 74		 cmp	 al, 116			; 00000074H
  00415	74 04		 je	 SHORT $LN29@P?
  00417	3c 77		 cmp	 al, 119			; 00000077H
  00419	75 13		 jne	 SHORT $LN28@P?
$LN29@P?:
  0041b	ff 75 10	 push	 DWORD PTR _log$[ebp]
  0041e	8b d3		 mov	 edx, ebx
  00420	ff 75 0c	 push	 DWORD PTR _log_ogólny$[ebp]
  00423	ff 75 08	 push	 DWORD PTR _iloœæ_pieniêdzy$[ebp]
  00426	e8 00 00 00 00	 call	 ?Og³oœ_wynik@@YAXABH0AAHAAV?$basic_ofstream@DU?$char_traits@D@std@@@std@@AAV?$basic_fstream@DU?$char_traits@D@std@@@2@@Z ; Og³oœ_wynik
  0042b	83 c4 0c	 add	 esp, 12			; 0000000cH
$LN28@P?:

; 1131 : }

  0042e	5f		 pop	 edi
  0042f	5e		 pop	 esi
  00430	5b		 pop	 ebx
  00431	8b e5		 mov	 esp, ebp
  00433	5d		 pop	 ebp
  00434	c3		 ret	 0
$LN269@P?:
?Pêtla_g³ówna@@YAXAAH00AAV?$basic_ofstream@DU?$char_traits@D@std@@@std@@AAV?$basic_fstream@DU?$char_traits@D@std@@@2@AADAAV?$basic_string@DU?$char_traits@D@std@@V?$allocator@D@2@@2@0@Z ENDP ; Pêtla_g³ówna
_TEXT	ENDS
; Function compile flags: /Ogtp
; File f:\users\krzysztof\documents\szko³a\2017-2018\informatyka\labolatorium\ruletka\ruletka\main.cpp
; File f:\program files (x86)\microsoft visual studio\2017\enterprise\vc\tools\msvc\14.11.25503\include\xstring
; File f:\program files (x86)\microsoft visual studio\2017\enterprise\vc\tools\msvc\14.11.25503\include\utility
; File f:\program files (x86)\microsoft visual studio\2017\enterprise\vc\tools\msvc\14.11.25503\include\xstring
; File f:\program files (x86)\microsoft visual studio\2017\enterprise\vc\tools\msvc\14.11.25503\include\utility
; File f:\program files (x86)\microsoft visual studio\2017\enterprise\vc\tools\msvc\14.11.25503\include\xstring
; File f:\program files (x86)\microsoft visual studio\2017\enterprise\vc\tools\msvc\14.11.25503\include\xstddef
; File f:\program files (x86)\microsoft visual studio\2017\enterprise\vc\tools\msvc\14.11.25503\include\xstring
; File f:\program files (x86)\microsoft visual studio\2017\enterprise\vc\tools\msvc\14.11.25503\include\iosfwd
; File f:\program files (x86)\microsoft visual studio\2017\enterprise\vc\tools\msvc\14.11.25503\include\xstring
; File f:\program files (x86)\microsoft visual studio\2017\enterprise\vc\tools\msvc\14.11.25503\include\iosfwd
; File f:\program files (x86)\microsoft visual studio\2017\enterprise\vc\tools\msvc\14.11.25503\include\xstring
; File f:\program files (x86)\microsoft visual studio\2017\enterprise\vc\tools\msvc\14.11.25503\include\xstddef
; File f:\users\krzysztof\documents\szko³a\2017-2018\informatyka\labolatorium\ruletka\ruletka\main.cpp
; File f:\program files (x86)\microsoft visual studio\2017\enterprise\vc\tools\msvc\14.11.25503\include\xstring
; File f:\program files (x86)\microsoft visual studio\2017\enterprise\vc\tools\msvc\14.11.25503\include\xstddef
; File f:\users\krzysztof\documents\szko³a\2017-2018\informatyka\labolatorium\ruletka\ruletka\main.cpp
; File f:\program files (x86)\microsoft visual studio\2017\enterprise\vc\tools\msvc\14.11.25503\include\xstring
; File f:\program files (x86)\microsoft visual studio\2017\enterprise\vc\tools\msvc\14.11.25503\include\xstddef
; File f:\program files (x86)\microsoft visual studio\2017\enterprise\vc\tools\msvc\14.11.25503\include\xstring
; File f:\users\krzysztof\documents\szko³a\2017-2018\informatyka\labolatorium\ruletka\ruletka\main.cpp
; File f:\program files (x86)\microsoft visual studio\2017\enterprise\vc\tools\msvc\14.11.25503\include\xstring
; File f:\program files (x86)\microsoft visual studio\2017\enterprise\vc\tools\msvc\14.11.25503\include\utility
; File f:\program files (x86)\microsoft visual studio\2017\enterprise\vc\tools\msvc\14.11.25503\include\xstring
; File f:\program files (x86)\microsoft visual studio\2017\enterprise\vc\tools\msvc\14.11.25503\include\utility
; File f:\program files (x86)\microsoft visual studio\2017\enterprise\vc\tools\msvc\14.11.25503\include\xstring
; File f:\program files (x86)\microsoft visual studio\2017\enterprise\vc\tools\msvc\14.11.25503\include\xstddef
; File f:\program files (x86)\microsoft visual studio\2017\enterprise\vc\tools\msvc\14.11.25503\include\xstring
; File f:\program files (x86)\microsoft visual studio\2017\enterprise\vc\tools\msvc\14.11.25503\include\iosfwd
; File f:\program files (x86)\microsoft visual studio\2017\enterprise\vc\tools\msvc\14.11.25503\include\xstring
; File f:\program files (x86)\microsoft visual studio\2017\enterprise\vc\tools\msvc\14.11.25503\include\iosfwd
; File f:\program files (x86)\microsoft visual studio\2017\enterprise\vc\tools\msvc\14.11.25503\include\xstring
; File f:\program files (x86)\microsoft visual studio\2017\enterprise\vc\tools\msvc\14.11.25503\include\xstddef
; File f:\users\krzysztof\documents\szko³a\2017-2018\informatyka\labolatorium\ruletka\ruletka\main.cpp
; File f:\program files (x86)\microsoft visual studio\2017\enterprise\vc\tools\msvc\14.11.25503\include\xstring
; File f:\program files (x86)\microsoft visual studio\2017\enterprise\vc\tools\msvc\14.11.25503\include\xstddef
; File f:\users\krzysztof\documents\szko³a\2017-2018\informatyka\labolatorium\ruletka\ruletka\main.cpp
; File f:\program files (x86)\microsoft visual studio\2017\enterprise\vc\tools\msvc\14.11.25503\include\xstring
; File f:\program files (x86)\microsoft visual studio\2017\enterprise\vc\tools\msvc\14.11.25503\include\xstddef
; File f:\program files (x86)\microsoft visual studio\2017\enterprise\vc\tools\msvc\14.11.25503\include\xstring
; File f:\users\krzysztof\documents\szko³a\2017-2018\informatyka\labolatorium\ruletka\ruletka\main.cpp
; File f:\program files (x86)\microsoft visual studio\2017\enterprise\vc\tools\msvc\14.11.25503\include\xstring
; File f:\program files (x86)\microsoft visual studio\2017\enterprise\vc\tools\msvc\14.11.25503\include\xstddef
; File f:\users\krzysztof\documents\szko³a\2017-2018\informatyka\labolatorium\ruletka\ruletka\main.cpp
; File f:\program files (x86)\microsoft visual studio\2017\enterprise\vc\tools\msvc\14.11.25503\include\xstring
; File f:\program files (x86)\microsoft visual studio\2017\enterprise\vc\tools\msvc\14.11.25503\include\xstddef
; File f:\users\krzysztof\documents\szko³a\2017-2018\informatyka\labolatorium\ruletka\ruletka\main.cpp
; File f:\program files (x86)\microsoft visual studio\2017\enterprise\vc\tools\msvc\14.11.25503\include\xstring
; File f:\program files (x86)\microsoft visual studio\2017\enterprise\vc\tools\msvc\14.11.25503\include\xstddef
; File f:\program files (x86)\microsoft visual studio\2017\enterprise\vc\tools\msvc\14.11.25503\include\xstring
; File f:\program files (x86)\microsoft visual studio\2017\enterprise\vc\tools\msvc\14.11.25503\include\xstddef
; File f:\program files (x86)\microsoft visual studio\2017\enterprise\vc\tools\msvc\14.11.25503\include\xstring
; File f:\users\krzysztof\documents\szko³a\2017-2018\informatyka\labolatorium\ruletka\ruletka\main.cpp
; File f:\program files (x86)\microsoft visual studio\2017\enterprise\vc\tools\msvc\14.11.25503\include\xstring
; File f:\program files (x86)\microsoft visual studio\2017\enterprise\vc\tools\msvc\14.11.25503\include\xstddef
; File f:\users\krzysztof\documents\szko³a\2017-2018\informatyka\labolatorium\ruletka\ruletka\main.cpp
; File f:\program files (x86)\microsoft visual studio\2017\enterprise\vc\tools\msvc\14.11.25503\include\xstring
; File f:\program files (x86)\microsoft visual studio\2017\enterprise\vc\tools\msvc\14.11.25503\include\xstddef
; File f:\users\krzysztof\documents\szko³a\2017-2018\informatyka\labolatorium\ruletka\ruletka\main.cpp
; File f:\program files (x86)\microsoft visual studio\2017\enterprise\vc\tools\msvc\14.11.25503\include\xstring
; File f:\program files (x86)\microsoft visual studio\2017\enterprise\vc\tools\msvc\14.11.25503\include\xstddef
; File f:\program files (x86)\microsoft visual studio\2017\enterprise\vc\tools\msvc\14.11.25503\include\xstring
; File f:\program files (x86)\microsoft visual studio\2017\enterprise\vc\tools\msvc\14.11.25503\include\xstddef
; File f:\program files (x86)\microsoft visual studio\2017\enterprise\vc\tools\msvc\14.11.25503\include\xstring
; File f:\users\krzysztof\documents\szko³a\2017-2018\informatyka\labolatorium\ruletka\ruletka\main.cpp
; File f:\program files (x86)\microsoft visual studio\2017\enterprise\vc\tools\msvc\14.11.25503\include\xstring
; File f:\program files (x86)\microsoft visual studio\2017\enterprise\vc\tools\msvc\14.11.25503\include\xstddef
; File f:\users\krzysztof\documents\szko³a\2017-2018\informatyka\labolatorium\ruletka\ruletka\main.cpp
; File f:\program files (x86)\microsoft visual studio\2017\enterprise\vc\tools\msvc\14.11.25503\include\xstring
; File f:\program files (x86)\microsoft visual studio\2017\enterprise\vc\tools\msvc\14.11.25503\include\xstddef
; File f:\users\krzysztof\documents\szko³a\2017-2018\informatyka\labolatorium\ruletka\ruletka\main.cpp
; File f:\program files (x86)\microsoft visual studio\2017\enterprise\vc\tools\msvc\14.11.25503\include\xstring
; File f:\program files (x86)\microsoft visual studio\2017\enterprise\vc\tools\msvc\14.11.25503\include\xstddef
; File f:\program files (x86)\microsoft visual studio\2017\enterprise\vc\tools\msvc\14.11.25503\include\xstring
; File f:\program files (x86)\microsoft visual studio\2017\enterprise\vc\tools\msvc\14.11.25503\include\xstddef
; File f:\program files (x86)\microsoft visual studio\2017\enterprise\vc\tools\msvc\14.11.25503\include\xstring
; File f:\users\krzysztof\documents\szko³a\2017-2018\informatyka\labolatorium\ruletka\ruletka\main.cpp
; File f:\program files (x86)\microsoft visual studio\2017\enterprise\vc\tools\msvc\14.11.25503\include\xstring
; File f:\program files (x86)\microsoft visual studio\2017\enterprise\vc\tools\msvc\14.11.25503\include\xstddef
; File f:\users\krzysztof\documents\szko³a\2017-2018\informatyka\labolatorium\ruletka\ruletka\main.cpp
; File f:\program files (x86)\microsoft visual studio\2017\enterprise\vc\tools\msvc\14.11.25503\include\xstring
; File f:\program files (x86)\microsoft visual studio\2017\enterprise\vc\tools\msvc\14.11.25503\include\xstddef
; File f:\users\krzysztof\documents\szko³a\2017-2018\informatyka\labolatorium\ruletka\ruletka\main.cpp
; File f:\program files (x86)\microsoft visual studio\2017\enterprise\vc\tools\msvc\14.11.25503\include\xstring
; File f:\program files (x86)\microsoft visual studio\2017\enterprise\vc\tools\msvc\14.11.25503\include\xstddef
; File f:\program files (x86)\microsoft visual studio\2017\enterprise\vc\tools\msvc\14.11.25503\include\xstring
; File f:\program files (x86)\microsoft visual studio\2017\enterprise\vc\tools\msvc\14.11.25503\include\xstddef
; File f:\program files (x86)\microsoft visual studio\2017\enterprise\vc\tools\msvc\14.11.25503\include\xstring
; File f:\users\krzysztof\documents\szko³a\2017-2018\informatyka\labolatorium\ruletka\ruletka\main.cpp
; File f:\program files (x86)\microsoft visual studio\2017\enterprise\vc\tools\msvc\14.11.25503\include\xstring
; File f:\program files (x86)\microsoft visual studio\2017\enterprise\vc\tools\msvc\14.11.25503\include\xstddef
; File f:\users\krzysztof\documents\szko³a\2017-2018\informatyka\labolatorium\ruletka\ruletka\main.cpp
; File f:\program files (x86)\microsoft visual studio\2017\enterprise\vc\tools\msvc\14.11.25503\include\xstring
; File f:\program files (x86)\microsoft visual studio\2017\enterprise\vc\tools\msvc\14.11.25503\include\xstddef
; File f:\users\krzysztof\documents\szko³a\2017-2018\informatyka\labolatorium\ruletka\ruletka\main.cpp
; File f:\program files (x86)\microsoft visual studio\2017\enterprise\vc\tools\msvc\14.11.25503\include\xstring
; File f:\program files (x86)\microsoft visual studio\2017\enterprise\vc\tools\msvc\14.11.25503\include\xstddef
; File f:\program files (x86)\microsoft visual studio\2017\enterprise\vc\tools\msvc\14.11.25503\include\xstring
; File f:\program files (x86)\microsoft visual studio\2017\enterprise\vc\tools\msvc\14.11.25503\include\xstddef
; File f:\program files (x86)\microsoft visual studio\2017\enterprise\vc\tools\msvc\14.11.25503\include\xstring
; File f:\users\krzysztof\documents\szko³a\2017-2018\informatyka\labolatorium\ruletka\ruletka\main.cpp
; File f:\program files (x86)\microsoft visual studio\2017\enterprise\vc\tools\msvc\14.11.25503\include\xstring
; File f:\program files (x86)\microsoft visual studio\2017\enterprise\vc\tools\msvc\14.11.25503\include\xstddef
; File f:\users\krzysztof\documents\szko³a\2017-2018\informatyka\labolatorium\ruletka\ruletka\main.cpp
; File f:\program files (x86)\microsoft visual studio\2017\enterprise\vc\tools\msvc\14.11.25503\include\xstring
; File f:\program files (x86)\microsoft visual studio\2017\enterprise\vc\tools\msvc\14.11.25503\include\xstddef
; File f:\users\krzysztof\documents\szko³a\2017-2018\informatyka\labolatorium\ruletka\ruletka\main.cpp
; File f:\program files (x86)\microsoft visual studio\2017\enterprise\vc\tools\msvc\14.11.25503\include\xstring
; File f:\program files (x86)\microsoft visual studio\2017\enterprise\vc\tools\msvc\14.11.25503\include\xstddef
; File f:\program files (x86)\microsoft visual studio\2017\enterprise\vc\tools\msvc\14.11.25503\include\xstring
; File f:\program files (x86)\microsoft visual studio\2017\enterprise\vc\tools\msvc\14.11.25503\include\xstddef
; File f:\program files (x86)\microsoft visual studio\2017\enterprise\vc\tools\msvc\14.11.25503\include\xstring
; File f:\users\krzysztof\documents\szko³a\2017-2018\informatyka\labolatorium\ruletka\ruletka\main.cpp
; File f:\program files (x86)\microsoft visual studio\2017\enterprise\vc\tools\msvc\14.11.25503\include\xstring
; File f:\program files (x86)\microsoft visual studio\2017\enterprise\vc\tools\msvc\14.11.25503\include\xstddef
; File f:\users\krzysztof\documents\szko³a\2017-2018\informatyka\labolatorium\ruletka\ruletka\main.cpp
; File f:\program files (x86)\microsoft visual studio\2017\enterprise\vc\tools\msvc\14.11.25503\include\xstring
; File f:\program files (x86)\microsoft visual studio\2017\enterprise\vc\tools\msvc\14.11.25503\include\xstddef
; File f:\users\krzysztof\documents\szko³a\2017-2018\informatyka\labolatorium\ruletka\ruletka\main.cpp
; File f:\program files (x86)\microsoft visual studio\2017\enterprise\vc\tools\msvc\14.11.25503\include\xstring
; File f:\program files (x86)\microsoft visual studio\2017\enterprise\vc\tools\msvc\14.11.25503\include\xstddef
; File f:\program files (x86)\microsoft visual studio\2017\enterprise\vc\tools\msvc\14.11.25503\include\xstring
; File f:\program files (x86)\microsoft visual studio\2017\enterprise\vc\tools\msvc\14.11.25503\include\xstddef
; File f:\program files (x86)\microsoft visual studio\2017\enterprise\vc\tools\msvc\14.11.25503\include\xstring
; File f:\users\krzysztof\documents\szko³a\2017-2018\informatyka\labolatorium\ruletka\ruletka\main.cpp
; File f:\program files (x86)\microsoft visual studio\2017\enterprise\vc\tools\msvc\14.11.25503\include\xstring
; File f:\program files (x86)\microsoft visual studio\2017\enterprise\vc\tools\msvc\14.11.25503\include\xstddef
; File f:\users\krzysztof\documents\szko³a\2017-2018\informatyka\labolatorium\ruletka\ruletka\main.cpp
; File f:\program files (x86)\microsoft visual studio\2017\enterprise\vc\tools\msvc\14.11.25503\include\xstring
; File f:\program files (x86)\microsoft visual studio\2017\enterprise\vc\tools\msvc\14.11.25503\include\xstddef
; File f:\users\krzysztof\documents\szko³a\2017-2018\informatyka\labolatorium\ruletka\ruletka\main.cpp
; File f:\program files (x86)\microsoft visual studio\2017\enterprise\vc\tools\msvc\14.11.25503\include\xstring
; File f:\program files (x86)\microsoft visual studio\2017\enterprise\vc\tools\msvc\14.11.25503\include\xstddef
; File f:\program files (x86)\microsoft visual studio\2017\enterprise\vc\tools\msvc\14.11.25503\include\xstring
; File f:\program files (x86)\microsoft visual studio\2017\enterprise\vc\tools\msvc\14.11.25503\include\xstddef
; File f:\program files (x86)\microsoft visual studio\2017\enterprise\vc\tools\msvc\14.11.25503\include\xstring
; File f:\users\krzysztof\documents\szko³a\2017-2018\informatyka\labolatorium\ruletka\ruletka\main.cpp
; File f:\program files (x86)\microsoft visual studio\2017\enterprise\vc\tools\msvc\14.11.25503\include\xstring
; File f:\program files (x86)\microsoft visual studio\2017\enterprise\vc\tools\msvc\14.11.25503\include\xstddef
; File f:\users\krzysztof\documents\szko³a\2017-2018\informatyka\labolatorium\ruletka\ruletka\main.cpp
; File f:\program files (x86)\microsoft visual studio\2017\enterprise\vc\tools\msvc\14.11.25503\include\xstring
; File f:\program files (x86)\microsoft visual studio\2017\enterprise\vc\tools\msvc\14.11.25503\include\xstddef
; File f:\users\krzysztof\documents\szko³a\2017-2018\informatyka\labolatorium\ruletka\ruletka\main.cpp
; File f:\program files (x86)\microsoft visual studio\2017\enterprise\vc\tools\msvc\14.11.25503\include\xstring
; File f:\program files (x86)\microsoft visual studio\2017\enterprise\vc\tools\msvc\14.11.25503\include\xstddef
; File f:\program files (x86)\microsoft visual studio\2017\enterprise\vc\tools\msvc\14.11.25503\include\xstring
; File f:\program files (x86)\microsoft visual studio\2017\enterprise\vc\tools\msvc\14.11.25503\include\xstddef
; File f:\program files (x86)\microsoft visual studio\2017\enterprise\vc\tools\msvc\14.11.25503\include\xstring
; File f:\users\krzysztof\documents\szko³a\2017-2018\informatyka\labolatorium\ruletka\ruletka\main.cpp
;	COMDAT ?Ustaw_ustawienia@@YAXAAV?$basic_string@DU?$char_traits@D@std@@V?$allocator@D@2@@std@@@Z
_TEXT	SEGMENT
?Ustaw_ustawienia@@YAXAAV?$basic_string@DU?$char_traits@D@std@@V?$allocator@D@2@@std@@@Z PROC ; Ustaw_ustawienia, COMDAT
; _tekst$ = ecx

; 1133 : {

  00000	53		 push	 ebx
  00001	56		 push	 esi
  00002	57		 push	 edi

; 1134 : 	if (tekst.find("iloœæ_minimalna_obrotów_ruletki") != string::npos) //Sprawdzenie czy znaleziony jest poszukiwany tekst

  00003	51		 push	 ecx
  00004	68 00 00 00 00	 push	 OFFSET ??_C@_0CA@FGPIEHEM@ilo?$JM?f_minimalna_obrot?sw_ruletki?$AA@
  00009	8b f1		 mov	 esi, ecx
  0000b	e8 00 00 00 00	 call	 ?find@?$basic_string@DU?$char_traits@D@std@@V?$allocator@D@2@@std@@QBEIQBDI@Z ; std::basic_string<char,std::char_traits<char>,std::allocator<char> >::find
  00010	83 f8 ff	 cmp	 eax, -1
  00013	0f 84 94 00 00
	00		 je	 $LN35@Ustaw_usta
; File f:\program files (x86)\microsoft visual studio\2017\enterprise\vc\tools\msvc\14.11.25503\include\xstring

; 1622 : 		if (_Mysize < _Off)

  00019	8b 46 10	 mov	 eax, DWORD PTR [esi+16]
  0001c	8d 5e 10	 lea	 ebx, DWORD PTR [esi+16]
; File f:\program files (x86)\microsoft visual studio\2017\enterprise\vc\tools\msvc\14.11.25503\include\utility

; 23   : 	return (_Right < _Left ? _Right : _Left);

  0001f	b9 20 00 00 00	 mov	 ecx, 32			; 00000020H
; File f:\program files (x86)\microsoft visual studio\2017\enterprise\vc\tools\msvc\14.11.25503\include\xstring

; 1595 : 		value_type * _Result = _Bx._Buf;

  00024	8b d6		 mov	 edx, esi
; File f:\program files (x86)\microsoft visual studio\2017\enterprise\vc\tools\msvc\14.11.25503\include\utility

; 23   : 	return (_Right < _Left ? _Right : _Left);

  00026	3b c1		 cmp	 eax, ecx
  00028	0f 42 c8	 cmovb	 ecx, eax
; File f:\program files (x86)\microsoft visual studio\2017\enterprise\vc\tools\msvc\14.11.25503\include\xstring

; 1617 : 		return (_BUF_SIZE <= _Myres);

  0002b	83 7e 14 10	 cmp	 DWORD PTR [esi+20], 16	; 00000010H

; 1596 : 		if (_Large_string_engaged())

  0002f	72 02		 jb	 SHORT $LN112@Ustaw_usta
; File f:\program files (x86)\microsoft visual studio\2017\enterprise\vc\tools\msvc\14.11.25503\include\xstddef

; 265  : 	return (_Ptr);

  00031	8b 16		 mov	 edx, DWORD PTR [esi]
$LN112@Ustaw_usta:
; File f:\program files (x86)\microsoft visual studio\2017\enterprise\vc\tools\msvc\14.11.25503\include\xstring

; 2621 : 		const size_type _New_size = _Old_size - _Count;

  00033	2b c1		 sub	 eax, ecx

; 2622 : 		_My_data._Mysize = _New_size;

  00035	89 03		 mov	 DWORD PTR [ebx], eax

; 2623 : 		_Traits::move(_Erase_at, _Erase_at + _Count, _New_size - _Off + 1); // move suffix + null up

  00037	40		 inc	 eax
; File f:\program files (x86)\microsoft visual studio\2017\enterprise\vc\tools\msvc\14.11.25503\include\iosfwd

; 506  : 		return ((_Elem *)_CSTD memmove(_First1, _First2, _Count));

  00038	50		 push	 eax
; File f:\program files (x86)\microsoft visual studio\2017\enterprise\vc\tools\msvc\14.11.25503\include\xstring

; 2623 : 		_Traits::move(_Erase_at, _Erase_at + _Count, _New_size - _Off + 1); // move suffix + null up

  00039	8d 04 0a	 lea	 eax, DWORD PTR [edx+ecx]
; File f:\program files (x86)\microsoft visual studio\2017\enterprise\vc\tools\msvc\14.11.25503\include\iosfwd

; 506  : 		return ((_Elem *)_CSTD memmove(_First1, _First2, _Count));

  0003c	50		 push	 eax
  0003d	52		 push	 edx
  0003e	ff 15 00 00 00
	00		 call	 DWORD PTR __imp__memmove
  00044	83 c4 0c	 add	 esp, 12			; 0000000cH
; File f:\program files (x86)\microsoft visual studio\2017\enterprise\vc\tools\msvc\14.11.25503\include\xstring

; 1606 : 		const value_type * _Result = _Bx._Buf;

  00047	8b c6		 mov	 eax, esi

; 1617 : 		return (_BUF_SIZE <= _Myres);

  00049	83 7e 14 10	 cmp	 DWORD PTR [esi+20], 16	; 00000010H

; 1607 : 		if (_Large_string_engaged())

  0004d	72 02		 jb	 SHORT $LN132@Ustaw_usta
; File f:\program files (x86)\microsoft visual studio\2017\enterprise\vc\tools\msvc\14.11.25503\include\xstddef

; 265  : 	return (_Ptr);

  0004f	8b 06		 mov	 eax, DWORD PTR [esi]
$LN132@Ustaw_usta:
; File f:\users\krzysztof\documents\szko³a\2017-2018\informatyka\labolatorium\ruletka\ruletka\main.cpp

; 1137 : 		if (atoi(tekst.c_str())) iloœæ_minimalna_obrotów_ruletki = atoi(tekst.c_str()); //Sprawdzenie czy po usuniêciu tekstu, to co pozosta³o jest wartoœci¹ ró¿n¹ od zera

  00051	8b 3d 00 00 00
	00		 mov	 edi, DWORD PTR __imp__atoi
  00057	50		 push	 eax
  00058	ff d7		 call	 edi
  0005a	83 c4 04	 add	 esp, 4
  0005d	85 c0		 test	 eax, eax
  0005f	74 18		 je	 SHORT $LN37@Ustaw_usta
; File f:\program files (x86)\microsoft visual studio\2017\enterprise\vc\tools\msvc\14.11.25503\include\xstring

; 1617 : 		return (_BUF_SIZE <= _Myres);

  00061	83 7e 14 10	 cmp	 DWORD PTR [esi+20], 16	; 00000010H

; 1607 : 		if (_Large_string_engaged())

  00065	72 02		 jb	 SHORT $LN148@Ustaw_usta
; File f:\program files (x86)\microsoft visual studio\2017\enterprise\vc\tools\msvc\14.11.25503\include\xstddef

; 265  : 	return (_Ptr);

  00067	8b 36		 mov	 esi, DWORD PTR [esi]
$LN148@Ustaw_usta:
; File f:\users\krzysztof\documents\szko³a\2017-2018\informatyka\labolatorium\ruletka\ruletka\main.cpp

; 1137 : 		if (atoi(tekst.c_str())) iloœæ_minimalna_obrotów_ruletki = atoi(tekst.c_str()); //Sprawdzenie czy po usuniêciu tekstu, to co pozosta³o jest wartoœci¹ ró¿n¹ od zera

  00069	56		 push	 esi
  0006a	ff d7		 call	 edi
  0006c	83 c4 04	 add	 esp, 4
  0006f	66 a3 00 00 00
	00		 mov	 WORD PTR ?iloœæ_minimalna_obrotów_ruletki@@3FA, ax ; iloœæ_minimalna_obrotów_ruletki

; 1253 : 		}
; 1254 : 	}
; 1255 : }

  00075	5f		 pop	 edi
  00076	5e		 pop	 esi
  00077	5b		 pop	 ebx
  00078	c3		 ret	 0
$LN37@Ustaw_usta:
; File f:\program files (x86)\microsoft visual studio\2017\enterprise\vc\tools\msvc\14.11.25503\include\xstring

; 1617 : 		return (_BUF_SIZE <= _Myres);

  00079	8b 4e 14	 mov	 ecx, DWORD PTR [esi+20]

; 1595 : 		value_type * _Result = _Bx._Buf;

  0007c	8b c6		 mov	 eax, esi

; 1617 : 		return (_BUF_SIZE <= _Myres);

  0007e	83 f9 10	 cmp	 ecx, 16			; 00000010H

; 1596 : 		if (_Large_string_engaged())

  00081	72 04		 jb	 SHORT $LN180@Ustaw_usta
; File f:\program files (x86)\microsoft visual studio\2017\enterprise\vc\tools\msvc\14.11.25503\include\xstddef

; 265  : 	return (_Ptr);

  00083	8b 06		 mov	 eax, DWORD PTR [esi]
  00085	8b f0		 mov	 esi, eax
$LN180@Ustaw_usta:
; File f:\program files (x86)\microsoft visual studio\2017\enterprise\vc\tools\msvc\14.11.25503\include\xstring

; 2876 : 		return (_My_data._Myptr() + _My_data._Mysize);

  00087	8b 0b		 mov	 ecx, DWORD PTR [ebx]
  00089	03 ce		 add	 ecx, esi
; File f:\users\krzysztof\documents\szko³a\2017-2018\informatyka\labolatorium\ruletka\ruletka\main.cpp

; 1140 : 			for (const char & i : tekst) //Pêtla id¹ca po ka¿dym elemencie tablicy tekst i przypisuj¹ca wartoœæ na tym polu do zmiennej i

  0008b	3b c1		 cmp	 eax, ecx
  0008d	0f 84 02 05 00
	00		 je	 $LN30@Ustaw_usta
$LL4@Ustaw_usta:

; 1141 : 				if (i != '0') return; //Je¿eli zmienna i jest ró¿na od znaku 0 to wychodzi z funkcji

  00093	80 38 30	 cmp	 BYTE PTR [eax], 48	; 00000030H
  00096	0f 85 86 05 00
	00		 jne	 $LN87@Ustaw_usta

; 1140 : 			for (const char & i : tekst) //Pêtla id¹ca po ka¿dym elemencie tablicy tekst i przypisuj¹ca wartoœæ na tym polu do zmiennej i

  0009c	40		 inc	 eax
  0009d	3b c1		 cmp	 eax, ecx
  0009f	75 f2		 jne	 SHORT $LL4@Ustaw_usta

; 1253 : 		}
; 1254 : 	}
; 1255 : }

  000a1	5f		 pop	 edi
  000a2	33 c0		 xor	 eax, eax
  000a4	5e		 pop	 esi
  000a5	66 a3 00 00 00
	00		 mov	 WORD PTR ?g³os_szybkoœæ_odczytu_numeru@@3FA, ax ; g³os_szybkoœæ_odczytu_numeru
  000ab	5b		 pop	 ebx
  000ac	c3		 ret	 0
$LN35@Ustaw_usta:

; 1142 : 			g³os_szybkoœæ_odczytu_numeru = 0; //Je¿eli wszystkie pozycje wyrazu tekst s¹ zerami to zaczy, ¿e jego wartoœæ liczbowa to 0
; 1143 : 		}
; 1144 : 	}
; 1145 : 	else if (tekst.find("iloœæ_max_dodatkowych_obrotów_ruletki") != string::npos) //Sprawdzenie czy znaleziony jest poszukiwany tekst

  000ad	51		 push	 ecx
  000ae	68 00 00 00 00	 push	 OFFSET ??_C@_0CG@KNEPJEMG@ilo?$JM?f_max_dodatkowych_obrot?sw_ru@
  000b3	8b ce		 mov	 ecx, esi
  000b5	e8 00 00 00 00	 call	 ?find@?$basic_string@DU?$char_traits@D@std@@V?$allocator@D@2@@std@@QBEIQBDI@Z ; std::basic_string<char,std::char_traits<char>,std::allocator<char> >::find
  000ba	83 f8 ff	 cmp	 eax, -1
  000bd	0f 84 97 00 00
	00		 je	 $LN40@Ustaw_usta
; File f:\program files (x86)\microsoft visual studio\2017\enterprise\vc\tools\msvc\14.11.25503\include\xstring

; 1622 : 		if (_Mysize < _Off)

  000c3	8b 46 10	 mov	 eax, DWORD PTR [esi+16]
  000c6	8d 5e 10	 lea	 ebx, DWORD PTR [esi+16]
; File f:\program files (x86)\microsoft visual studio\2017\enterprise\vc\tools\msvc\14.11.25503\include\utility

; 23   : 	return (_Right < _Left ? _Right : _Left);

  000c9	b9 26 00 00 00	 mov	 ecx, 38			; 00000026H
; File f:\program files (x86)\microsoft visual studio\2017\enterprise\vc\tools\msvc\14.11.25503\include\xstring

; 1595 : 		value_type * _Result = _Bx._Buf;

  000ce	8b d6		 mov	 edx, esi
; File f:\program files (x86)\microsoft visual studio\2017\enterprise\vc\tools\msvc\14.11.25503\include\utility

; 23   : 	return (_Right < _Left ? _Right : _Left);

  000d0	3b c1		 cmp	 eax, ecx
  000d2	0f 42 c8	 cmovb	 ecx, eax
; File f:\program files (x86)\microsoft visual studio\2017\enterprise\vc\tools\msvc\14.11.25503\include\xstring

; 1617 : 		return (_BUF_SIZE <= _Myres);

  000d5	83 7e 14 10	 cmp	 DWORD PTR [esi+20], 16	; 00000010H

; 1596 : 		if (_Large_string_engaged())

  000d9	72 02		 jb	 SHORT $LN208@Ustaw_usta
; File f:\program files (x86)\microsoft visual studio\2017\enterprise\vc\tools\msvc\14.11.25503\include\xstddef

; 265  : 	return (_Ptr);

  000db	8b 16		 mov	 edx, DWORD PTR [esi]
$LN208@Ustaw_usta:
; File f:\program files (x86)\microsoft visual studio\2017\enterprise\vc\tools\msvc\14.11.25503\include\xstring

; 2621 : 		const size_type _New_size = _Old_size - _Count;

  000dd	2b c1		 sub	 eax, ecx

; 2622 : 		_My_data._Mysize = _New_size;

  000df	89 03		 mov	 DWORD PTR [ebx], eax

; 2623 : 		_Traits::move(_Erase_at, _Erase_at + _Count, _New_size - _Off + 1); // move suffix + null up

  000e1	40		 inc	 eax
; File f:\program files (x86)\microsoft visual studio\2017\enterprise\vc\tools\msvc\14.11.25503\include\iosfwd

; 506  : 		return ((_Elem *)_CSTD memmove(_First1, _First2, _Count));

  000e2	50		 push	 eax
; File f:\program files (x86)\microsoft visual studio\2017\enterprise\vc\tools\msvc\14.11.25503\include\xstring

; 2623 : 		_Traits::move(_Erase_at, _Erase_at + _Count, _New_size - _Off + 1); // move suffix + null up

  000e3	8d 04 0a	 lea	 eax, DWORD PTR [edx+ecx]
; File f:\program files (x86)\microsoft visual studio\2017\enterprise\vc\tools\msvc\14.11.25503\include\iosfwd

; 506  : 		return ((_Elem *)_CSTD memmove(_First1, _First2, _Count));

  000e6	50		 push	 eax
  000e7	52		 push	 edx
  000e8	ff 15 00 00 00
	00		 call	 DWORD PTR __imp__memmove
  000ee	83 c4 0c	 add	 esp, 12			; 0000000cH
; File f:\program files (x86)\microsoft visual studio\2017\enterprise\vc\tools\msvc\14.11.25503\include\xstring

; 1606 : 		const value_type * _Result = _Bx._Buf;

  000f1	8b c6		 mov	 eax, esi

; 1617 : 		return (_BUF_SIZE <= _Myres);

  000f3	83 7e 14 10	 cmp	 DWORD PTR [esi+20], 16	; 00000010H

; 1607 : 		if (_Large_string_engaged())

  000f7	72 02		 jb	 SHORT $LN227@Ustaw_usta
; File f:\program files (x86)\microsoft visual studio\2017\enterprise\vc\tools\msvc\14.11.25503\include\xstddef

; 265  : 	return (_Ptr);

  000f9	8b 06		 mov	 eax, DWORD PTR [esi]
$LN227@Ustaw_usta:
; File f:\users\krzysztof\documents\szko³a\2017-2018\informatyka\labolatorium\ruletka\ruletka\main.cpp

; 1148 : 		if (atoi(tekst.c_str())) iloœæ_max_dodatkowych_obrotów_ruletki = atoi(tekst.c_str()); //Sprawdzenie czy po usuniêciu tekstu, to co pozosta³o jest wartoœci¹ ró¿n¹ od zera

  000fb	8b 3d 00 00 00
	00		 mov	 edi, DWORD PTR __imp__atoi
  00101	50		 push	 eax
  00102	ff d7		 call	 edi
  00104	83 c4 04	 add	 esp, 4
  00107	85 c0		 test	 eax, eax
  00109	74 18		 je	 SHORT $LN42@Ustaw_usta
; File f:\program files (x86)\microsoft visual studio\2017\enterprise\vc\tools\msvc\14.11.25503\include\xstring

; 1617 : 		return (_BUF_SIZE <= _Myres);

  0010b	83 7e 14 10	 cmp	 DWORD PTR [esi+20], 16	; 00000010H

; 1607 : 		if (_Large_string_engaged())

  0010f	72 02		 jb	 SHORT $LN243@Ustaw_usta
; File f:\program files (x86)\microsoft visual studio\2017\enterprise\vc\tools\msvc\14.11.25503\include\xstddef

; 265  : 	return (_Ptr);

  00111	8b 36		 mov	 esi, DWORD PTR [esi]
$LN243@Ustaw_usta:
; File f:\users\krzysztof\documents\szko³a\2017-2018\informatyka\labolatorium\ruletka\ruletka\main.cpp

; 1148 : 		if (atoi(tekst.c_str())) iloœæ_max_dodatkowych_obrotów_ruletki = atoi(tekst.c_str()); //Sprawdzenie czy po usuniêciu tekstu, to co pozosta³o jest wartoœci¹ ró¿n¹ od zera

  00113	56		 push	 esi
  00114	ff d7		 call	 edi
  00116	83 c4 04	 add	 esp, 4
  00119	66 a3 00 00 00
	00		 mov	 WORD PTR ?iloœæ_max_dodatkowych_obrotów_ruletki@@3FA, ax ; iloœæ_max_dodatkowych_obrotów_ruletki

; 1253 : 		}
; 1254 : 	}
; 1255 : }

  0011f	5f		 pop	 edi
  00120	5e		 pop	 esi
  00121	5b		 pop	 ebx
  00122	c3		 ret	 0
$LN42@Ustaw_usta:
; File f:\program files (x86)\microsoft visual studio\2017\enterprise\vc\tools\msvc\14.11.25503\include\xstring

; 1617 : 		return (_BUF_SIZE <= _Myres);

  00123	8b 4e 14	 mov	 ecx, DWORD PTR [esi+20]

; 1595 : 		value_type * _Result = _Bx._Buf;

  00126	8b c6		 mov	 eax, esi

; 1617 : 		return (_BUF_SIZE <= _Myres);

  00128	83 f9 10	 cmp	 ecx, 16			; 00000010H

; 1596 : 		if (_Large_string_engaged())

  0012b	72 04		 jb	 SHORT $LN275@Ustaw_usta
; File f:\program files (x86)\microsoft visual studio\2017\enterprise\vc\tools\msvc\14.11.25503\include\xstddef

; 265  : 	return (_Ptr);

  0012d	8b 06		 mov	 eax, DWORD PTR [esi]
  0012f	8b f0		 mov	 esi, eax
$LN275@Ustaw_usta:
; File f:\program files (x86)\microsoft visual studio\2017\enterprise\vc\tools\msvc\14.11.25503\include\xstring

; 2876 : 		return (_My_data._Myptr() + _My_data._Mysize);

  00131	8b 0b		 mov	 ecx, DWORD PTR [ebx]
  00133	03 ce		 add	 ecx, esi
; File f:\users\krzysztof\documents\szko³a\2017-2018\informatyka\labolatorium\ruletka\ruletka\main.cpp

; 1151 : 			for (const char & i : tekst) //Pêtla id¹ca po ka¿dym elemencie tablicy tekst i przypisuj¹ca wartoœæ na tym polu do zmiennej i

  00135	3b c1		 cmp	 eax, ecx
  00137	74 15		 je	 SHORT $LN6@Ustaw_usta
  00139	0f 1f 80 00 00
	00 00		 npad	 7
$LL7@Ustaw_usta:

; 1152 : 				if (i != '0') return; //Je¿eli zmienna i jest ró¿na od znaku 0 to wychodzi z funkcji

  00140	80 38 30	 cmp	 BYTE PTR [eax], 48	; 00000030H
  00143	0f 85 d9 04 00
	00		 jne	 $LN87@Ustaw_usta

; 1151 : 			for (const char & i : tekst) //Pêtla id¹ca po ka¿dym elemencie tablicy tekst i przypisuj¹ca wartoœæ na tym polu do zmiennej i

  00149	40		 inc	 eax
  0014a	3b c1		 cmp	 eax, ecx
  0014c	75 f2		 jne	 SHORT $LL7@Ustaw_usta
$LN6@Ustaw_usta:

; 1253 : 		}
; 1254 : 	}
; 1255 : }

  0014e	5f		 pop	 edi
  0014f	33 c0		 xor	 eax, eax
  00151	5e		 pop	 esi
  00152	66 a3 00 00 00
	00		 mov	 WORD PTR ?iloœæ_max_dodatkowych_obrotów_ruletki@@3FA, ax ; iloœæ_max_dodatkowych_obrotów_ruletki
  00158	5b		 pop	 ebx
  00159	c3		 ret	 0
$LN40@Ustaw_usta:

; 1153 : 			iloœæ_max_dodatkowych_obrotów_ruletki = 0; //Je¿eli wszystkie pozycje wyrazu tekst s¹ zerami to zaczy, ¿e jego wartoœæ liczbowa to 0
; 1154 : 		}
; 1155 : 	}
; 1156 : 	else if (tekst.find("czas_przeskoku_kulki_szybki") != string::npos) //Sprawdzenie czy znaleziony jest poszukiwany tekst

  0015a	51		 push	 ecx
  0015b	68 00 00 00 00	 push	 OFFSET ??_C@_0BM@MMKKMDHC@czas_przeskoku_kulki_szybki?$AA@
  00160	8b ce		 mov	 ecx, esi
  00162	e8 00 00 00 00	 call	 ?find@?$basic_string@DU?$char_traits@D@std@@V?$allocator@D@2@@std@@QBEIQBDI@Z ; std::basic_string<char,std::char_traits<char>,std::allocator<char> >::find
  00167	83 f8 ff	 cmp	 eax, -1
  0016a	74 75		 je	 SHORT $LN45@Ustaw_usta

; 1157 : 	{
; 1158 : 		tekst.erase(0, size("czas_przeskoku_kulki_szybki")); //Usuniêcie s³owa z tekst aby zosta³a tylko liczba która jest wartoœci¹ ustawienia

  0016c	6a 1c		 push	 28			; 0000001cH
  0016e	6a 00		 push	 0
  00170	8b ce		 mov	 ecx, esi
  00172	e8 00 00 00 00	 call	 ?erase@?$basic_string@DU?$char_traits@D@std@@V?$allocator@D@2@@std@@QAEAAV12@II@Z ; std::basic_string<char,std::char_traits<char>,std::allocator<char> >::erase
; File f:\program files (x86)\microsoft visual studio\2017\enterprise\vc\tools\msvc\14.11.25503\include\xstring

; 1617 : 		return (_BUF_SIZE <= _Myres);

  00177	83 7e 14 10	 cmp	 DWORD PTR [esi+20], 16	; 00000010H

; 1606 : 		const value_type * _Result = _Bx._Buf;

  0017b	8b c6		 mov	 eax, esi

; 1607 : 		if (_Large_string_engaged())

  0017d	72 02		 jb	 SHORT $LN294@Ustaw_usta
; File f:\program files (x86)\microsoft visual studio\2017\enterprise\vc\tools\msvc\14.11.25503\include\xstddef

; 265  : 	return (_Ptr);

  0017f	8b 06		 mov	 eax, DWORD PTR [esi]
$LN294@Ustaw_usta:
; File f:\users\krzysztof\documents\szko³a\2017-2018\informatyka\labolatorium\ruletka\ruletka\main.cpp

; 1159 : 		if (atoi(tekst.c_str())) czas_przeskoku_kulki_szybki = atoi(tekst.c_str()); //Sprawdzenie czy po usuniêciu tekstu, to co pozosta³o jest wartoœci¹ ró¿n¹ od zera

  00181	8b 3d 00 00 00
	00		 mov	 edi, DWORD PTR __imp__atoi
  00187	50		 push	 eax
  00188	ff d7		 call	 edi
  0018a	83 c4 04	 add	 esp, 4
  0018d	85 c0		 test	 eax, eax
  0018f	74 18		 je	 SHORT $LN47@Ustaw_usta
; File f:\program files (x86)\microsoft visual studio\2017\enterprise\vc\tools\msvc\14.11.25503\include\xstring

; 1617 : 		return (_BUF_SIZE <= _Myres);

  00191	83 7e 14 10	 cmp	 DWORD PTR [esi+20], 16	; 00000010H

; 1607 : 		if (_Large_string_engaged())

  00195	72 02		 jb	 SHORT $LN310@Ustaw_usta
; File f:\program files (x86)\microsoft visual studio\2017\enterprise\vc\tools\msvc\14.11.25503\include\xstddef

; 265  : 	return (_Ptr);

  00197	8b 36		 mov	 esi, DWORD PTR [esi]
$LN310@Ustaw_usta:
; File f:\users\krzysztof\documents\szko³a\2017-2018\informatyka\labolatorium\ruletka\ruletka\main.cpp

; 1159 : 		if (atoi(tekst.c_str())) czas_przeskoku_kulki_szybki = atoi(tekst.c_str()); //Sprawdzenie czy po usuniêciu tekstu, to co pozosta³o jest wartoœci¹ ró¿n¹ od zera

  00199	56		 push	 esi
  0019a	ff d7		 call	 edi
  0019c	83 c4 04	 add	 esp, 4
  0019f	66 a3 00 00 00
	00		 mov	 WORD PTR ?czas_przeskoku_kulki_szybki@@3FA, ax ; czas_przeskoku_kulki_szybki

; 1253 : 		}
; 1254 : 	}
; 1255 : }

  001a5	5f		 pop	 edi
  001a6	5e		 pop	 esi
  001a7	5b		 pop	 ebx
  001a8	c3		 ret	 0
$LN47@Ustaw_usta:
; File f:\program files (x86)\microsoft visual studio\2017\enterprise\vc\tools\msvc\14.11.25503\include\xstring

; 1617 : 		return (_BUF_SIZE <= _Myres);

  001a9	8b 4e 14	 mov	 ecx, DWORD PTR [esi+20]

; 1595 : 		value_type * _Result = _Bx._Buf;

  001ac	8b c6		 mov	 eax, esi

; 1617 : 		return (_BUF_SIZE <= _Myres);

  001ae	83 f9 10	 cmp	 ecx, 16			; 00000010H

; 1596 : 		if (_Large_string_engaged())

  001b1	72 02		 jb	 SHORT $LN326@Ustaw_usta
; File f:\program files (x86)\microsoft visual studio\2017\enterprise\vc\tools\msvc\14.11.25503\include\xstddef

; 265  : 	return (_Ptr);

  001b3	8b 06		 mov	 eax, DWORD PTR [esi]
$LN326@Ustaw_usta:
; File f:\program files (x86)\microsoft visual studio\2017\enterprise\vc\tools\msvc\14.11.25503\include\xstring

; 1595 : 		value_type * _Result = _Bx._Buf;

  001b5	8b d6		 mov	 edx, esi

; 1617 : 		return (_BUF_SIZE <= _Myres);

  001b7	83 f9 10	 cmp	 ecx, 16			; 00000010H

; 1596 : 		if (_Large_string_engaged())

  001ba	72 02		 jb	 SHORT $LN342@Ustaw_usta
; File f:\program files (x86)\microsoft visual studio\2017\enterprise\vc\tools\msvc\14.11.25503\include\xstddef

; 265  : 	return (_Ptr);

  001bc	8b 16		 mov	 edx, DWORD PTR [esi]
$LN342@Ustaw_usta:
; File f:\program files (x86)\microsoft visual studio\2017\enterprise\vc\tools\msvc\14.11.25503\include\xstring

; 2876 : 		return (_My_data._Myptr() + _My_data._Mysize);

  001be	8b 4e 10	 mov	 ecx, DWORD PTR [esi+16]
  001c1	03 ca		 add	 ecx, edx
; File f:\users\krzysztof\documents\szko³a\2017-2018\informatyka\labolatorium\ruletka\ruletka\main.cpp

; 1162 : 			for (const char & i : tekst) //Pêtla id¹ca po ka¿dym elemencie tablicy tekst i przypisuj¹ca wartoœæ na tym polu do zmiennej i

  001c3	3b c1		 cmp	 eax, ecx
  001c5	74 0e		 je	 SHORT $LN9@Ustaw_usta
$LL10@Ustaw_usta:

; 1163 : 				if (i != '0') return; //Je¿eli zmienna i jest ró¿na od znaku 0 to wychodzi z funkcji

  001c7	80 38 30	 cmp	 BYTE PTR [eax], 48	; 00000030H
  001ca	0f 85 52 04 00
	00		 jne	 $LN87@Ustaw_usta

; 1162 : 			for (const char & i : tekst) //Pêtla id¹ca po ka¿dym elemencie tablicy tekst i przypisuj¹ca wartoœæ na tym polu do zmiennej i

  001d0	40		 inc	 eax
  001d1	3b c1		 cmp	 eax, ecx
  001d3	75 f2		 jne	 SHORT $LL10@Ustaw_usta
$LN9@Ustaw_usta:

; 1253 : 		}
; 1254 : 	}
; 1255 : }

  001d5	5f		 pop	 edi
  001d6	33 c0		 xor	 eax, eax
  001d8	5e		 pop	 esi
  001d9	66 a3 00 00 00
	00		 mov	 WORD PTR ?czas_przeskoku_kulki_szybki@@3FA, ax ; czas_przeskoku_kulki_szybki
  001df	5b		 pop	 ebx
  001e0	c3		 ret	 0
$LN45@Ustaw_usta:

; 1164 : 			czas_przeskoku_kulki_szybki = 0; //Je¿eli wszystkie pozycje wyrazu tekst s¹ zerami to zaczy, ¿e jego wartoœæ liczbowa to 0
; 1165 : 		}
; 1166 : 	}
; 1167 : 	else if (tekst.find("czas_przeskoku_kulki_wolny") != string::npos) //Sprawdzenie czy znaleziony jest poszukiwany tekst

  001e1	51		 push	 ecx
  001e2	68 00 00 00 00	 push	 OFFSET ??_C@_0BL@LHGCEKLG@czas_przeskoku_kulki_wolny?$AA@
  001e7	8b ce		 mov	 ecx, esi
  001e9	e8 00 00 00 00	 call	 ?find@?$basic_string@DU?$char_traits@D@std@@V?$allocator@D@2@@std@@QBEIQBDI@Z ; std::basic_string<char,std::char_traits<char>,std::allocator<char> >::find
  001ee	83 f8 ff	 cmp	 eax, -1
  001f1	74 77		 je	 SHORT $LN50@Ustaw_usta

; 1168 : 	{
; 1169 : 		tekst.erase(0, size("czas_przeskoku_kulki_wolny")); //Usuniêcie s³owa z tekst aby zosta³a tylko liczba która jest wartoœci¹ ustawienia

  001f3	6a 1b		 push	 27			; 0000001bH
  001f5	6a 00		 push	 0
  001f7	8b ce		 mov	 ecx, esi
  001f9	e8 00 00 00 00	 call	 ?erase@?$basic_string@DU?$char_traits@D@std@@V?$allocator@D@2@@std@@QAEAAV12@II@Z ; std::basic_string<char,std::char_traits<char>,std::allocator<char> >::erase
; File f:\program files (x86)\microsoft visual studio\2017\enterprise\vc\tools\msvc\14.11.25503\include\xstring

; 1617 : 		return (_BUF_SIZE <= _Myres);

  001fe	83 7e 14 10	 cmp	 DWORD PTR [esi+20], 16	; 00000010H

; 1606 : 		const value_type * _Result = _Bx._Buf;

  00202	8b c6		 mov	 eax, esi

; 1607 : 		if (_Large_string_engaged())

  00204	72 02		 jb	 SHORT $LN361@Ustaw_usta
; File f:\program files (x86)\microsoft visual studio\2017\enterprise\vc\tools\msvc\14.11.25503\include\xstddef

; 265  : 	return (_Ptr);

  00206	8b 06		 mov	 eax, DWORD PTR [esi]
$LN361@Ustaw_usta:
; File f:\users\krzysztof\documents\szko³a\2017-2018\informatyka\labolatorium\ruletka\ruletka\main.cpp

; 1170 : 		if (atoi(tekst.c_str())) czas_przeskoku_kulki_wolny = atoi(tekst.c_str()); //Sprawdzenie czy po usuniêciu tekstu, to co pozosta³o jest wartoœci¹ ró¿n¹ od zera

  00208	8b 3d 00 00 00
	00		 mov	 edi, DWORD PTR __imp__atoi
  0020e	50		 push	 eax
  0020f	ff d7		 call	 edi
  00211	83 c4 04	 add	 esp, 4
  00214	85 c0		 test	 eax, eax
  00216	74 18		 je	 SHORT $LN52@Ustaw_usta
; File f:\program files (x86)\microsoft visual studio\2017\enterprise\vc\tools\msvc\14.11.25503\include\xstring

; 1617 : 		return (_BUF_SIZE <= _Myres);

  00218	83 7e 14 10	 cmp	 DWORD PTR [esi+20], 16	; 00000010H

; 1607 : 		if (_Large_string_engaged())

  0021c	72 02		 jb	 SHORT $LN377@Ustaw_usta
; File f:\program files (x86)\microsoft visual studio\2017\enterprise\vc\tools\msvc\14.11.25503\include\xstddef

; 265  : 	return (_Ptr);

  0021e	8b 36		 mov	 esi, DWORD PTR [esi]
$LN377@Ustaw_usta:
; File f:\users\krzysztof\documents\szko³a\2017-2018\informatyka\labolatorium\ruletka\ruletka\main.cpp

; 1170 : 		if (atoi(tekst.c_str())) czas_przeskoku_kulki_wolny = atoi(tekst.c_str()); //Sprawdzenie czy po usuniêciu tekstu, to co pozosta³o jest wartoœci¹ ró¿n¹ od zera

  00220	56		 push	 esi
  00221	ff d7		 call	 edi
  00223	83 c4 04	 add	 esp, 4
  00226	66 a3 00 00 00
	00		 mov	 WORD PTR ?czas_przeskoku_kulki_wolny@@3FA, ax ; czas_przeskoku_kulki_wolny

; 1253 : 		}
; 1254 : 	}
; 1255 : }

  0022c	5f		 pop	 edi
  0022d	5e		 pop	 esi
  0022e	5b		 pop	 ebx
  0022f	c3		 ret	 0
$LN52@Ustaw_usta:
; File f:\program files (x86)\microsoft visual studio\2017\enterprise\vc\tools\msvc\14.11.25503\include\xstring

; 1617 : 		return (_BUF_SIZE <= _Myres);

  00230	8b 4e 14	 mov	 ecx, DWORD PTR [esi+20]

; 1595 : 		value_type * _Result = _Bx._Buf;

  00233	8b c6		 mov	 eax, esi

; 1617 : 		return (_BUF_SIZE <= _Myres);

  00235	83 f9 10	 cmp	 ecx, 16			; 00000010H

; 1596 : 		if (_Large_string_engaged())

  00238	72 02		 jb	 SHORT $LN393@Ustaw_usta
; File f:\program files (x86)\microsoft visual studio\2017\enterprise\vc\tools\msvc\14.11.25503\include\xstddef

; 265  : 	return (_Ptr);

  0023a	8b 06		 mov	 eax, DWORD PTR [esi]
$LN393@Ustaw_usta:
; File f:\program files (x86)\microsoft visual studio\2017\enterprise\vc\tools\msvc\14.11.25503\include\xstring

; 1595 : 		value_type * _Result = _Bx._Buf;

  0023c	8b d6		 mov	 edx, esi

; 1617 : 		return (_BUF_SIZE <= _Myres);

  0023e	83 f9 10	 cmp	 ecx, 16			; 00000010H

; 1596 : 		if (_Large_string_engaged())

  00241	72 02		 jb	 SHORT $LN409@Ustaw_usta
; File f:\program files (x86)\microsoft visual studio\2017\enterprise\vc\tools\msvc\14.11.25503\include\xstddef

; 265  : 	return (_Ptr);

  00243	8b 16		 mov	 edx, DWORD PTR [esi]
$LN409@Ustaw_usta:
; File f:\program files (x86)\microsoft visual studio\2017\enterprise\vc\tools\msvc\14.11.25503\include\xstring

; 2876 : 		return (_My_data._Myptr() + _My_data._Mysize);

  00245	8b 4e 10	 mov	 ecx, DWORD PTR [esi+16]
  00248	03 ca		 add	 ecx, edx
; File f:\users\krzysztof\documents\szko³a\2017-2018\informatyka\labolatorium\ruletka\ruletka\main.cpp

; 1173 : 			for (const char & i : tekst) //Pêtla id¹ca po ka¿dym elemencie tablicy tekst i przypisuj¹ca wartoœæ na tym polu do zmiennej i

  0024a	3b c1		 cmp	 eax, ecx
  0024c	74 10		 je	 SHORT $LN12@Ustaw_usta
  0024e	66 90		 npad	 2
$LL13@Ustaw_usta:

; 1174 : 				if (i != '0') return; //Je¿eli zmienna i jest ró¿na od znaku 0 to wychodzi z funkcji

  00250	80 38 30	 cmp	 BYTE PTR [eax], 48	; 00000030H
  00253	0f 85 c9 03 00
	00		 jne	 $LN87@Ustaw_usta

; 1173 : 			for (const char & i : tekst) //Pêtla id¹ca po ka¿dym elemencie tablicy tekst i przypisuj¹ca wartoœæ na tym polu do zmiennej i

  00259	40		 inc	 eax
  0025a	3b c1		 cmp	 eax, ecx
  0025c	75 f2		 jne	 SHORT $LL13@Ustaw_usta
$LN12@Ustaw_usta:

; 1253 : 		}
; 1254 : 	}
; 1255 : }

  0025e	5f		 pop	 edi
  0025f	33 c0		 xor	 eax, eax
  00261	5e		 pop	 esi
  00262	66 a3 00 00 00
	00		 mov	 WORD PTR ?czas_przeskoku_kulki_wolny@@3FA, ax ; czas_przeskoku_kulki_wolny
  00268	5b		 pop	 ebx
  00269	c3		 ret	 0
$LN50@Ustaw_usta:

; 1175 : 			czas_przeskoku_kulki_wolny = 0; //Je¿eli wszystkie pozycje wyrazu tekst s¹ zerami to zaczy, ¿e jego wartoœæ liczbowa to 0
; 1176 : 		}
; 1177 : 	}
; 1178 : 	else if (tekst.find("styl_liczenia_wygranej") != string::npos) //Sprawdzenie czy znaleziony jest poszukiwany tekst

  0026a	51		 push	 ecx
  0026b	68 00 00 00 00	 push	 OFFSET ??_C@_0BH@LAIPMCHF@styl_liczenia_wygranej?$AA@
  00270	8b ce		 mov	 ecx, esi
  00272	e8 00 00 00 00	 call	 ?find@?$basic_string@DU?$char_traits@D@std@@V?$allocator@D@2@@std@@QBEIQBDI@Z ; std::basic_string<char,std::char_traits<char>,std::allocator<char> >::find
  00277	83 f8 ff	 cmp	 eax, -1
  0027a	74 75		 je	 SHORT $LN55@Ustaw_usta

; 1179 : 	{
; 1180 : 		tekst.erase(0, size("styl_liczenia_wygranej")); //Usuniêcie s³owa z tekst aby zosta³a tylko liczba która jest wartoœci¹ ustawienia

  0027c	6a 17		 push	 23			; 00000017H
  0027e	6a 00		 push	 0
  00280	8b ce		 mov	 ecx, esi
  00282	e8 00 00 00 00	 call	 ?erase@?$basic_string@DU?$char_traits@D@std@@V?$allocator@D@2@@std@@QAEAAV12@II@Z ; std::basic_string<char,std::char_traits<char>,std::allocator<char> >::erase
; File f:\program files (x86)\microsoft visual studio\2017\enterprise\vc\tools\msvc\14.11.25503\include\xstring

; 1617 : 		return (_BUF_SIZE <= _Myres);

  00287	83 7e 14 10	 cmp	 DWORD PTR [esi+20], 16	; 00000010H

; 1606 : 		const value_type * _Result = _Bx._Buf;

  0028b	8b c6		 mov	 eax, esi

; 1607 : 		if (_Large_string_engaged())

  0028d	72 02		 jb	 SHORT $LN428@Ustaw_usta
; File f:\program files (x86)\microsoft visual studio\2017\enterprise\vc\tools\msvc\14.11.25503\include\xstddef

; 265  : 	return (_Ptr);

  0028f	8b 06		 mov	 eax, DWORD PTR [esi]
$LN428@Ustaw_usta:
; File f:\users\krzysztof\documents\szko³a\2017-2018\informatyka\labolatorium\ruletka\ruletka\main.cpp

; 1181 : 		if (atoi(tekst.c_str())) styl_liczenia_wygranej = atoi(tekst.c_str()); //Sprawdzenie czy po usuniêciu tekstu, to co pozosta³o jest wartoœci¹ ró¿n¹ od zera

  00291	8b 3d 00 00 00
	00		 mov	 edi, DWORD PTR __imp__atoi
  00297	50		 push	 eax
  00298	ff d7		 call	 edi
  0029a	83 c4 04	 add	 esp, 4
  0029d	85 c0		 test	 eax, eax
  0029f	74 18		 je	 SHORT $LN57@Ustaw_usta
; File f:\program files (x86)\microsoft visual studio\2017\enterprise\vc\tools\msvc\14.11.25503\include\xstring

; 1617 : 		return (_BUF_SIZE <= _Myres);

  002a1	83 7e 14 10	 cmp	 DWORD PTR [esi+20], 16	; 00000010H

; 1607 : 		if (_Large_string_engaged())

  002a5	72 02		 jb	 SHORT $LN444@Ustaw_usta
; File f:\program files (x86)\microsoft visual studio\2017\enterprise\vc\tools\msvc\14.11.25503\include\xstddef

; 265  : 	return (_Ptr);

  002a7	8b 36		 mov	 esi, DWORD PTR [esi]
$LN444@Ustaw_usta:
; File f:\users\krzysztof\documents\szko³a\2017-2018\informatyka\labolatorium\ruletka\ruletka\main.cpp

; 1181 : 		if (atoi(tekst.c_str())) styl_liczenia_wygranej = atoi(tekst.c_str()); //Sprawdzenie czy po usuniêciu tekstu, to co pozosta³o jest wartoœci¹ ró¿n¹ od zera

  002a9	56		 push	 esi
  002aa	ff d7		 call	 edi
  002ac	83 c4 04	 add	 esp, 4
  002af	66 a3 00 00 00
	00		 mov	 WORD PTR ?styl_liczenia_wygranej@@3FA, ax ; styl_liczenia_wygranej

; 1253 : 		}
; 1254 : 	}
; 1255 : }

  002b5	5f		 pop	 edi
  002b6	5e		 pop	 esi
  002b7	5b		 pop	 ebx
  002b8	c3		 ret	 0
$LN57@Ustaw_usta:
; File f:\program files (x86)\microsoft visual studio\2017\enterprise\vc\tools\msvc\14.11.25503\include\xstring

; 1617 : 		return (_BUF_SIZE <= _Myres);

  002b9	8b 4e 14	 mov	 ecx, DWORD PTR [esi+20]

; 1595 : 		value_type * _Result = _Bx._Buf;

  002bc	8b c6		 mov	 eax, esi

; 1617 : 		return (_BUF_SIZE <= _Myres);

  002be	83 f9 10	 cmp	 ecx, 16			; 00000010H

; 1596 : 		if (_Large_string_engaged())

  002c1	72 02		 jb	 SHORT $LN460@Ustaw_usta
; File f:\program files (x86)\microsoft visual studio\2017\enterprise\vc\tools\msvc\14.11.25503\include\xstddef

; 265  : 	return (_Ptr);

  002c3	8b 06		 mov	 eax, DWORD PTR [esi]
$LN460@Ustaw_usta:
; File f:\program files (x86)\microsoft visual studio\2017\enterprise\vc\tools\msvc\14.11.25503\include\xstring

; 1595 : 		value_type * _Result = _Bx._Buf;

  002c5	8b d6		 mov	 edx, esi

; 1617 : 		return (_BUF_SIZE <= _Myres);

  002c7	83 f9 10	 cmp	 ecx, 16			; 00000010H

; 1596 : 		if (_Large_string_engaged())

  002ca	72 02		 jb	 SHORT $LN476@Ustaw_usta
; File f:\program files (x86)\microsoft visual studio\2017\enterprise\vc\tools\msvc\14.11.25503\include\xstddef

; 265  : 	return (_Ptr);

  002cc	8b 16		 mov	 edx, DWORD PTR [esi]
$LN476@Ustaw_usta:
; File f:\program files (x86)\microsoft visual studio\2017\enterprise\vc\tools\msvc\14.11.25503\include\xstring

; 2876 : 		return (_My_data._Myptr() + _My_data._Mysize);

  002ce	8b 4e 10	 mov	 ecx, DWORD PTR [esi+16]
  002d1	03 ca		 add	 ecx, edx
; File f:\users\krzysztof\documents\szko³a\2017-2018\informatyka\labolatorium\ruletka\ruletka\main.cpp

; 1184 : 			for (const char & i : tekst) //Pêtla id¹ca po ka¿dym elemencie tablicy tekst i przypisuj¹ca wartoœæ na tym polu do zmiennej i

  002d3	3b c1		 cmp	 eax, ecx
  002d5	74 0e		 je	 SHORT $LN15@Ustaw_usta
$LL16@Ustaw_usta:

; 1185 : 				if (i != '0') return; //Je¿eli zmienna i jest ró¿na od znaku 0 to wychodzi z funkcji

  002d7	80 38 30	 cmp	 BYTE PTR [eax], 48	; 00000030H
  002da	0f 85 42 03 00
	00		 jne	 $LN87@Ustaw_usta

; 1184 : 			for (const char & i : tekst) //Pêtla id¹ca po ka¿dym elemencie tablicy tekst i przypisuj¹ca wartoœæ na tym polu do zmiennej i

  002e0	40		 inc	 eax
  002e1	3b c1		 cmp	 eax, ecx
  002e3	75 f2		 jne	 SHORT $LL16@Ustaw_usta
$LN15@Ustaw_usta:

; 1253 : 		}
; 1254 : 	}
; 1255 : }

  002e5	5f		 pop	 edi
  002e6	33 c0		 xor	 eax, eax
  002e8	5e		 pop	 esi
  002e9	66 a3 00 00 00
	00		 mov	 WORD PTR ?styl_liczenia_wygranej@@3FA, ax ; styl_liczenia_wygranej
  002ef	5b		 pop	 ebx
  002f0	c3		 ret	 0
$LN55@Ustaw_usta:

; 1186 : 			styl_liczenia_wygranej = 0; //Je¿eli wszystkie pozycje wyrazu tekst s¹ zerami to zaczy, ¿e jego wartoœæ liczbowa to 0
; 1187 : 		}
; 1188 : 	}
; 1189 : 	else if (tekst.find("kwota_pocz¹tkowa") != string::npos) //Sprawdzenie czy znaleziony jest poszukiwany tekst

  002f1	51		 push	 ecx
  002f2	68 00 00 00 00	 push	 OFFSET ??_C@_0BB@KJAOIHBF@kwota_pocz?$LJtkowa?$AA@
  002f7	8b ce		 mov	 ecx, esi
  002f9	e8 00 00 00 00	 call	 ?find@?$basic_string@DU?$char_traits@D@std@@V?$allocator@D@2@@std@@QBEIQBDI@Z ; std::basic_string<char,std::char_traits<char>,std::allocator<char> >::find
  002fe	83 f8 ff	 cmp	 eax, -1
  00301	74 79		 je	 SHORT $LN60@Ustaw_usta

; 1190 : 	{
; 1191 : 		tekst.erase(0, size("kwota_pocz¹tkowa")); //Usuniêcie s³owa z tekst aby zosta³a tylko liczba która jest wartoœci¹ ustawienia

  00303	6a 11		 push	 17			; 00000011H
  00305	6a 00		 push	 0
  00307	8b ce		 mov	 ecx, esi
  00309	e8 00 00 00 00	 call	 ?erase@?$basic_string@DU?$char_traits@D@std@@V?$allocator@D@2@@std@@QAEAAV12@II@Z ; std::basic_string<char,std::char_traits<char>,std::allocator<char> >::erase
; File f:\program files (x86)\microsoft visual studio\2017\enterprise\vc\tools\msvc\14.11.25503\include\xstring

; 1617 : 		return (_BUF_SIZE <= _Myres);

  0030e	83 7e 14 10	 cmp	 DWORD PTR [esi+20], 16	; 00000010H

; 1606 : 		const value_type * _Result = _Bx._Buf;

  00312	8b c6		 mov	 eax, esi

; 1607 : 		if (_Large_string_engaged())

  00314	72 02		 jb	 SHORT $LN495@Ustaw_usta
; File f:\program files (x86)\microsoft visual studio\2017\enterprise\vc\tools\msvc\14.11.25503\include\xstddef

; 265  : 	return (_Ptr);

  00316	8b 06		 mov	 eax, DWORD PTR [esi]
$LN495@Ustaw_usta:
; File f:\users\krzysztof\documents\szko³a\2017-2018\informatyka\labolatorium\ruletka\ruletka\main.cpp

; 1192 : 		if (atoi(tekst.c_str())) kwota_pocz¹tkowa = atoi(tekst.c_str()); //Sprawdzenie czy po usuniêciu tekstu, to co pozosta³o jest wartoœci¹ ró¿n¹ od zera

  00318	8b 3d 00 00 00
	00		 mov	 edi, DWORD PTR __imp__atoi
  0031e	50		 push	 eax
  0031f	ff d7		 call	 edi
  00321	83 c4 04	 add	 esp, 4
  00324	85 c0		 test	 eax, eax
  00326	74 17		 je	 SHORT $LN62@Ustaw_usta
; File f:\program files (x86)\microsoft visual studio\2017\enterprise\vc\tools\msvc\14.11.25503\include\xstring

; 1617 : 		return (_BUF_SIZE <= _Myres);

  00328	83 7e 14 10	 cmp	 DWORD PTR [esi+20], 16	; 00000010H

; 1607 : 		if (_Large_string_engaged())

  0032c	72 02		 jb	 SHORT $LN511@Ustaw_usta
; File f:\program files (x86)\microsoft visual studio\2017\enterprise\vc\tools\msvc\14.11.25503\include\xstddef

; 265  : 	return (_Ptr);

  0032e	8b 36		 mov	 esi, DWORD PTR [esi]
$LN511@Ustaw_usta:
; File f:\users\krzysztof\documents\szko³a\2017-2018\informatyka\labolatorium\ruletka\ruletka\main.cpp

; 1192 : 		if (atoi(tekst.c_str())) kwota_pocz¹tkowa = atoi(tekst.c_str()); //Sprawdzenie czy po usuniêciu tekstu, to co pozosta³o jest wartoœci¹ ró¿n¹ od zera

  00330	56		 push	 esi
  00331	ff d7		 call	 edi
  00333	83 c4 04	 add	 esp, 4
  00336	a3 00 00 00 00	 mov	 DWORD PTR ?kwota_pocz¹tkowa@@3HA, eax ; kwota_pocz¹tkowa

; 1253 : 		}
; 1254 : 	}
; 1255 : }

  0033b	5f		 pop	 edi
  0033c	5e		 pop	 esi
  0033d	5b		 pop	 ebx
  0033e	c3		 ret	 0
$LN62@Ustaw_usta:
; File f:\program files (x86)\microsoft visual studio\2017\enterprise\vc\tools\msvc\14.11.25503\include\xstring

; 1617 : 		return (_BUF_SIZE <= _Myres);

  0033f	8b 4e 14	 mov	 ecx, DWORD PTR [esi+20]

; 1595 : 		value_type * _Result = _Bx._Buf;

  00342	8b c6		 mov	 eax, esi

; 1617 : 		return (_BUF_SIZE <= _Myres);

  00344	83 f9 10	 cmp	 ecx, 16			; 00000010H

; 1596 : 		if (_Large_string_engaged())

  00347	72 02		 jb	 SHORT $LN527@Ustaw_usta
; File f:\program files (x86)\microsoft visual studio\2017\enterprise\vc\tools\msvc\14.11.25503\include\xstddef

; 265  : 	return (_Ptr);

  00349	8b 06		 mov	 eax, DWORD PTR [esi]
$LN527@Ustaw_usta:
; File f:\program files (x86)\microsoft visual studio\2017\enterprise\vc\tools\msvc\14.11.25503\include\xstring

; 1595 : 		value_type * _Result = _Bx._Buf;

  0034b	8b d6		 mov	 edx, esi

; 1617 : 		return (_BUF_SIZE <= _Myres);

  0034d	83 f9 10	 cmp	 ecx, 16			; 00000010H

; 1596 : 		if (_Large_string_engaged())

  00350	72 02		 jb	 SHORT $LN543@Ustaw_usta
; File f:\program files (x86)\microsoft visual studio\2017\enterprise\vc\tools\msvc\14.11.25503\include\xstddef

; 265  : 	return (_Ptr);

  00352	8b 16		 mov	 edx, DWORD PTR [esi]
$LN543@Ustaw_usta:
; File f:\program files (x86)\microsoft visual studio\2017\enterprise\vc\tools\msvc\14.11.25503\include\xstring

; 2876 : 		return (_My_data._Myptr() + _My_data._Mysize);

  00354	8b 4e 10	 mov	 ecx, DWORD PTR [esi+16]
  00357	03 ca		 add	 ecx, edx
; File f:\users\krzysztof\documents\szko³a\2017-2018\informatyka\labolatorium\ruletka\ruletka\main.cpp

; 1195 : 			for (const char & i : tekst) //Pêtla id¹ca po ka¿dym elemencie tablicy tekst i przypisuj¹ca wartoœæ na tym polu do zmiennej i

  00359	3b c1		 cmp	 eax, ecx
  0035b	74 11		 je	 SHORT $LN18@Ustaw_usta
  0035d	0f 1f 00	 npad	 3
$LL19@Ustaw_usta:

; 1196 : 				if (i != '0') return; //Je¿eli zmienna i jest ró¿na od znaku 0 to wychodzi z funkcji

  00360	80 38 30	 cmp	 BYTE PTR [eax], 48	; 00000030H
  00363	0f 85 b9 02 00
	00		 jne	 $LN87@Ustaw_usta

; 1195 : 			for (const char & i : tekst) //Pêtla id¹ca po ka¿dym elemencie tablicy tekst i przypisuj¹ca wartoœæ na tym polu do zmiennej i

  00369	40		 inc	 eax
  0036a	3b c1		 cmp	 eax, ecx
  0036c	75 f2		 jne	 SHORT $LL19@Ustaw_usta
$LN18@Ustaw_usta:

; 1253 : 		}
; 1254 : 	}
; 1255 : }

  0036e	5f		 pop	 edi
  0036f	5e		 pop	 esi
  00370	c7 05 00 00 00
	00 00 00 00 00	 mov	 DWORD PTR ?kwota_pocz¹tkowa@@3HA, 0 ; kwota_pocz¹tkowa
  0037a	5b		 pop	 ebx
  0037b	c3		 ret	 0
$LN60@Ustaw_usta:

; 1197 : 			kwota_pocz¹tkowa = 0; //Je¿eli wszystkie pozycje wyrazu tekst s¹ zerami to zaczy, ¿e jego wartoœæ liczbowa to 0
; 1198 : 		}
; 1199 : 	}
; 1200 : 	else if (tekst.find("stan_dŸwiêków") != string::npos) //Sprawdzenie czy znaleziony jest poszukiwany tekst

  0037c	51		 push	 ecx
  0037d	68 00 00 00 00	 push	 OFFSET ??_C@_0O@JDOJANCO@stan_d?$JPwi?jk?sw?$AA@
  00382	8b ce		 mov	 ecx, esi
  00384	e8 00 00 00 00	 call	 ?find@?$basic_string@DU?$char_traits@D@std@@V?$allocator@D@2@@std@@QBEIQBDI@Z ; std::basic_string<char,std::char_traits<char>,std::allocator<char> >::find
  00389	83 f8 ff	 cmp	 eax, -1
  0038c	74 7c		 je	 SHORT $LN65@Ustaw_usta

; 1201 : 	{
; 1202 : 		tekst.erase(0, size("stan_dŸwiêków")); //Usuniêcie s³owa z tekst aby zosta³a tylko liczba która jest wartoœci¹ ustawienia

  0038e	6a 0e		 push	 14			; 0000000eH
  00390	6a 00		 push	 0
  00392	8b ce		 mov	 ecx, esi
  00394	e8 00 00 00 00	 call	 ?erase@?$basic_string@DU?$char_traits@D@std@@V?$allocator@D@2@@std@@QAEAAV12@II@Z ; std::basic_string<char,std::char_traits<char>,std::allocator<char> >::erase
; File f:\program files (x86)\microsoft visual studio\2017\enterprise\vc\tools\msvc\14.11.25503\include\xstring

; 1617 : 		return (_BUF_SIZE <= _Myres);

  00399	83 7e 14 10	 cmp	 DWORD PTR [esi+20], 16	; 00000010H

; 1606 : 		const value_type * _Result = _Bx._Buf;

  0039d	8b c6		 mov	 eax, esi

; 1607 : 		if (_Large_string_engaged())

  0039f	72 02		 jb	 SHORT $LN562@Ustaw_usta
; File f:\program files (x86)\microsoft visual studio\2017\enterprise\vc\tools\msvc\14.11.25503\include\xstddef

; 265  : 	return (_Ptr);

  003a1	8b 06		 mov	 eax, DWORD PTR [esi]
$LN562@Ustaw_usta:
; File f:\users\krzysztof\documents\szko³a\2017-2018\informatyka\labolatorium\ruletka\ruletka\main.cpp

; 1203 : 		if (atoi(tekst.c_str())) stan_dŸwiêków = atoi(tekst.c_str()); //Sprawdzenie czy po usuniêciu tekstu, to co pozosta³o jest wartoœci¹ ró¿n¹ od zera

  003a3	8b 3d 00 00 00
	00		 mov	 edi, DWORD PTR __imp__atoi
  003a9	50		 push	 eax
  003aa	ff d7		 call	 edi
  003ac	83 c4 04	 add	 esp, 4
  003af	85 c0		 test	 eax, eax
  003b1	74 18		 je	 SHORT $LN67@Ustaw_usta
; File f:\program files (x86)\microsoft visual studio\2017\enterprise\vc\tools\msvc\14.11.25503\include\xstring

; 1617 : 		return (_BUF_SIZE <= _Myres);

  003b3	83 7e 14 10	 cmp	 DWORD PTR [esi+20], 16	; 00000010H

; 1607 : 		if (_Large_string_engaged())

  003b7	72 02		 jb	 SHORT $LN578@Ustaw_usta
; File f:\program files (x86)\microsoft visual studio\2017\enterprise\vc\tools\msvc\14.11.25503\include\xstddef

; 265  : 	return (_Ptr);

  003b9	8b 36		 mov	 esi, DWORD PTR [esi]
$LN578@Ustaw_usta:
; File f:\users\krzysztof\documents\szko³a\2017-2018\informatyka\labolatorium\ruletka\ruletka\main.cpp

; 1203 : 		if (atoi(tekst.c_str())) stan_dŸwiêków = atoi(tekst.c_str()); //Sprawdzenie czy po usuniêciu tekstu, to co pozosta³o jest wartoœci¹ ró¿n¹ od zera

  003bb	56		 push	 esi
  003bc	ff d7		 call	 edi
  003be	83 c4 04	 add	 esp, 4
  003c1	66 a3 00 00 00
	00		 mov	 WORD PTR ?stan_dŸwiêków@@3FA, ax ; stan_dŸwiêków

; 1253 : 		}
; 1254 : 	}
; 1255 : }

  003c7	5f		 pop	 edi
  003c8	5e		 pop	 esi
  003c9	5b		 pop	 ebx
  003ca	c3		 ret	 0
$LN67@Ustaw_usta:
; File f:\program files (x86)\microsoft visual studio\2017\enterprise\vc\tools\msvc\14.11.25503\include\xstring

; 1617 : 		return (_BUF_SIZE <= _Myres);

  003cb	8b 4e 14	 mov	 ecx, DWORD PTR [esi+20]

; 1595 : 		value_type * _Result = _Bx._Buf;

  003ce	8b c6		 mov	 eax, esi

; 1617 : 		return (_BUF_SIZE <= _Myres);

  003d0	83 f9 10	 cmp	 ecx, 16			; 00000010H

; 1596 : 		if (_Large_string_engaged())

  003d3	72 02		 jb	 SHORT $LN594@Ustaw_usta
; File f:\program files (x86)\microsoft visual studio\2017\enterprise\vc\tools\msvc\14.11.25503\include\xstddef

; 265  : 	return (_Ptr);

  003d5	8b 06		 mov	 eax, DWORD PTR [esi]
$LN594@Ustaw_usta:
; File f:\program files (x86)\microsoft visual studio\2017\enterprise\vc\tools\msvc\14.11.25503\include\xstring

; 1595 : 		value_type * _Result = _Bx._Buf;

  003d7	8b d6		 mov	 edx, esi

; 1617 : 		return (_BUF_SIZE <= _Myres);

  003d9	83 f9 10	 cmp	 ecx, 16			; 00000010H

; 1596 : 		if (_Large_string_engaged())

  003dc	72 02		 jb	 SHORT $LN610@Ustaw_usta
; File f:\program files (x86)\microsoft visual studio\2017\enterprise\vc\tools\msvc\14.11.25503\include\xstddef

; 265  : 	return (_Ptr);

  003de	8b 16		 mov	 edx, DWORD PTR [esi]
$LN610@Ustaw_usta:
; File f:\program files (x86)\microsoft visual studio\2017\enterprise\vc\tools\msvc\14.11.25503\include\xstring

; 2876 : 		return (_My_data._Myptr() + _My_data._Mysize);

  003e0	8b 4e 10	 mov	 ecx, DWORD PTR [esi+16]
  003e3	03 ca		 add	 ecx, edx
; File f:\users\krzysztof\documents\szko³a\2017-2018\informatyka\labolatorium\ruletka\ruletka\main.cpp

; 1206 : 			for (const char & i : tekst) //Pêtla id¹ca po ka¿dym elemencie tablicy tekst i przypisuj¹ca wartoœæ na tym polu do zmiennej i

  003e5	3b c1		 cmp	 eax, ecx
  003e7	74 15		 je	 SHORT $LN21@Ustaw_usta
  003e9	0f 1f 80 00 00
	00 00		 npad	 7
$LL22@Ustaw_usta:

; 1207 : 				if (i != '0') return; //Je¿eli zmienna i jest ró¿na od znaku 0 to wychodzi z funkcji

  003f0	80 38 30	 cmp	 BYTE PTR [eax], 48	; 00000030H
  003f3	0f 85 29 02 00
	00		 jne	 $LN87@Ustaw_usta

; 1206 : 			for (const char & i : tekst) //Pêtla id¹ca po ka¿dym elemencie tablicy tekst i przypisuj¹ca wartoœæ na tym polu do zmiennej i

  003f9	40		 inc	 eax
  003fa	3b c1		 cmp	 eax, ecx
  003fc	75 f2		 jne	 SHORT $LL22@Ustaw_usta
$LN21@Ustaw_usta:

; 1253 : 		}
; 1254 : 	}
; 1255 : }

  003fe	5f		 pop	 edi
  003ff	33 c0		 xor	 eax, eax
  00401	5e		 pop	 esi
  00402	66 a3 00 00 00
	00		 mov	 WORD PTR ?stan_dŸwiêków@@3FA, ax ; stan_dŸwiêków
  00408	5b		 pop	 ebx
  00409	c3		 ret	 0
$LN65@Ustaw_usta:

; 1208 : 			stan_dŸwiêków = 0; //Je¿eli wszystkie pozycje wyrazu tekst s¹ zerami to zaczy, ¿e jego wartoœæ liczbowa to 0
; 1209 : 		}
; 1210 : 	}
; 1211 : 	else if (tekst.find("czy_kontynuowaæ_grê") != string::npos) //Sprawdzenie czy znaleziony jest poszukiwany tekst

  0040a	51		 push	 ecx
  0040b	68 00 00 00 00	 push	 OFFSET ??_C@_0BE@MGBNNKM@czy_kontynuowa?f_gr?j?$AA@
  00410	8b ce		 mov	 ecx, esi
  00412	e8 00 00 00 00	 call	 ?find@?$basic_string@DU?$char_traits@D@std@@V?$allocator@D@2@@std@@QBEIQBDI@Z ; std::basic_string<char,std::char_traits<char>,std::allocator<char> >::find
  00417	83 f8 ff	 cmp	 eax, -1
  0041a	74 75		 je	 SHORT $LN70@Ustaw_usta

; 1212 : 	{
; 1213 : 		tekst.erase(0, size("czy_kontynuowaæ_grê")); //Usuniêcie s³owa z tekst aby zosta³a tylko liczba która jest wartoœci¹ ustawienia

  0041c	6a 14		 push	 20			; 00000014H
  0041e	6a 00		 push	 0
  00420	8b ce		 mov	 ecx, esi
  00422	e8 00 00 00 00	 call	 ?erase@?$basic_string@DU?$char_traits@D@std@@V?$allocator@D@2@@std@@QAEAAV12@II@Z ; std::basic_string<char,std::char_traits<char>,std::allocator<char> >::erase
; File f:\program files (x86)\microsoft visual studio\2017\enterprise\vc\tools\msvc\14.11.25503\include\xstring

; 1617 : 		return (_BUF_SIZE <= _Myres);

  00427	83 7e 14 10	 cmp	 DWORD PTR [esi+20], 16	; 00000010H

; 1606 : 		const value_type * _Result = _Bx._Buf;

  0042b	8b c6		 mov	 eax, esi

; 1607 : 		if (_Large_string_engaged())

  0042d	72 02		 jb	 SHORT $LN629@Ustaw_usta
; File f:\program files (x86)\microsoft visual studio\2017\enterprise\vc\tools\msvc\14.11.25503\include\xstddef

; 265  : 	return (_Ptr);

  0042f	8b 06		 mov	 eax, DWORD PTR [esi]
$LN629@Ustaw_usta:
; File f:\users\krzysztof\documents\szko³a\2017-2018\informatyka\labolatorium\ruletka\ruletka\main.cpp

; 1214 : 		if (atoi(tekst.c_str())) czy_kontynuowaæ_grê = atoi(tekst.c_str()); //Sprawdzenie czy po usuniêciu tekstu, to co pozosta³o jest wartoœci¹ ró¿n¹ od zera

  00431	8b 3d 00 00 00
	00		 mov	 edi, DWORD PTR __imp__atoi
  00437	50		 push	 eax
  00438	ff d7		 call	 edi
  0043a	83 c4 04	 add	 esp, 4
  0043d	85 c0		 test	 eax, eax
  0043f	74 18		 je	 SHORT $LN72@Ustaw_usta
; File f:\program files (x86)\microsoft visual studio\2017\enterprise\vc\tools\msvc\14.11.25503\include\xstring

; 1617 : 		return (_BUF_SIZE <= _Myres);

  00441	83 7e 14 10	 cmp	 DWORD PTR [esi+20], 16	; 00000010H

; 1607 : 		if (_Large_string_engaged())

  00445	72 02		 jb	 SHORT $LN645@Ustaw_usta
; File f:\program files (x86)\microsoft visual studio\2017\enterprise\vc\tools\msvc\14.11.25503\include\xstddef

; 265  : 	return (_Ptr);

  00447	8b 36		 mov	 esi, DWORD PTR [esi]
$LN645@Ustaw_usta:
; File f:\users\krzysztof\documents\szko³a\2017-2018\informatyka\labolatorium\ruletka\ruletka\main.cpp

; 1214 : 		if (atoi(tekst.c_str())) czy_kontynuowaæ_grê = atoi(tekst.c_str()); //Sprawdzenie czy po usuniêciu tekstu, to co pozosta³o jest wartoœci¹ ró¿n¹ od zera

  00449	56		 push	 esi
  0044a	ff d7		 call	 edi
  0044c	83 c4 04	 add	 esp, 4
  0044f	66 a3 00 00 00
	00		 mov	 WORD PTR ?czy_kontynuowaæ_grê@@3FA, ax ; czy_kontynuowaæ_grê

; 1253 : 		}
; 1254 : 	}
; 1255 : }

  00455	5f		 pop	 edi
  00456	5e		 pop	 esi
  00457	5b		 pop	 ebx
  00458	c3		 ret	 0
$LN72@Ustaw_usta:
; File f:\program files (x86)\microsoft visual studio\2017\enterprise\vc\tools\msvc\14.11.25503\include\xstring

; 1617 : 		return (_BUF_SIZE <= _Myres);

  00459	8b 4e 14	 mov	 ecx, DWORD PTR [esi+20]

; 1595 : 		value_type * _Result = _Bx._Buf;

  0045c	8b c6		 mov	 eax, esi

; 1617 : 		return (_BUF_SIZE <= _Myres);

  0045e	83 f9 10	 cmp	 ecx, 16			; 00000010H

; 1596 : 		if (_Large_string_engaged())

  00461	72 02		 jb	 SHORT $LN661@Ustaw_usta
; File f:\program files (x86)\microsoft visual studio\2017\enterprise\vc\tools\msvc\14.11.25503\include\xstddef

; 265  : 	return (_Ptr);

  00463	8b 06		 mov	 eax, DWORD PTR [esi]
$LN661@Ustaw_usta:
; File f:\program files (x86)\microsoft visual studio\2017\enterprise\vc\tools\msvc\14.11.25503\include\xstring

; 1595 : 		value_type * _Result = _Bx._Buf;

  00465	8b d6		 mov	 edx, esi

; 1617 : 		return (_BUF_SIZE <= _Myres);

  00467	83 f9 10	 cmp	 ecx, 16			; 00000010H

; 1596 : 		if (_Large_string_engaged())

  0046a	72 02		 jb	 SHORT $LN677@Ustaw_usta
; File f:\program files (x86)\microsoft visual studio\2017\enterprise\vc\tools\msvc\14.11.25503\include\xstddef

; 265  : 	return (_Ptr);

  0046c	8b 16		 mov	 edx, DWORD PTR [esi]
$LN677@Ustaw_usta:
; File f:\program files (x86)\microsoft visual studio\2017\enterprise\vc\tools\msvc\14.11.25503\include\xstring

; 2876 : 		return (_My_data._Myptr() + _My_data._Mysize);

  0046e	8b 4e 10	 mov	 ecx, DWORD PTR [esi+16]
  00471	03 ca		 add	 ecx, edx
; File f:\users\krzysztof\documents\szko³a\2017-2018\informatyka\labolatorium\ruletka\ruletka\main.cpp

; 1217 : 			for (const char & i : tekst) //Pêtla id¹ca po ka¿dym elemencie tablicy tekst i przypisuj¹ca wartoœæ na tym polu do zmiennej i

  00473	3b c1		 cmp	 eax, ecx
  00475	74 0e		 je	 SHORT $LN24@Ustaw_usta
$LL25@Ustaw_usta:

; 1218 : 				if (i != '0') return; //Je¿eli zmienna i jest ró¿na od znaku 0 to wychodzi z funkcji

  00477	80 38 30	 cmp	 BYTE PTR [eax], 48	; 00000030H
  0047a	0f 85 a2 01 00
	00		 jne	 $LN87@Ustaw_usta

; 1217 : 			for (const char & i : tekst) //Pêtla id¹ca po ka¿dym elemencie tablicy tekst i przypisuj¹ca wartoœæ na tym polu do zmiennej i

  00480	40		 inc	 eax
  00481	3b c1		 cmp	 eax, ecx
  00483	75 f2		 jne	 SHORT $LL25@Ustaw_usta
$LN24@Ustaw_usta:

; 1253 : 		}
; 1254 : 	}
; 1255 : }

  00485	5f		 pop	 edi
  00486	33 c0		 xor	 eax, eax
  00488	5e		 pop	 esi
  00489	66 a3 00 00 00
	00		 mov	 WORD PTR ?czy_kontynuowaæ_grê@@3FA, ax ; czy_kontynuowaæ_grê
  0048f	5b		 pop	 ebx
  00490	c3		 ret	 0
$LN70@Ustaw_usta:

; 1219 : 			czy_kontynuowaæ_grê = 0; //Je¿eli wszystkie pozycje wyrazu tekst s¹ zerami to zaczy, ¿e jego wartoœæ liczbowa to 0
; 1220 : 		}
; 1221 : 	}
; 1222 : 	else if (tekst.find("g³os_odczytu_numeru") != string::npos) //Sprawdzenie czy znaleziony jest poszukiwany tekst

  00491	51		 push	 ecx
  00492	68 00 00 00 00	 push	 OFFSET ??_C@_0BE@ILPCOCN@g?$LDos_odczytu_numeru?$AA@
  00497	8b ce		 mov	 ecx, esi
  00499	e8 00 00 00 00	 call	 ?find@?$basic_string@DU?$char_traits@D@std@@V?$allocator@D@2@@std@@QBEIQBDI@Z ; std::basic_string<char,std::char_traits<char>,std::allocator<char> >::find
  0049e	83 f8 ff	 cmp	 eax, -1
  004a1	74 77		 je	 SHORT $LN75@Ustaw_usta

; 1223 : 	{
; 1224 : 		tekst.erase(0, size("g³os_odczytu_numeru")); //Usuniêcie s³owa z tekst aby zosta³a tylko liczba która jest wartoœci¹ ustawienia

  004a3	6a 14		 push	 20			; 00000014H
  004a5	6a 00		 push	 0
  004a7	8b ce		 mov	 ecx, esi
  004a9	e8 00 00 00 00	 call	 ?erase@?$basic_string@DU?$char_traits@D@std@@V?$allocator@D@2@@std@@QAEAAV12@II@Z ; std::basic_string<char,std::char_traits<char>,std::allocator<char> >::erase
; File f:\program files (x86)\microsoft visual studio\2017\enterprise\vc\tools\msvc\14.11.25503\include\xstring

; 1617 : 		return (_BUF_SIZE <= _Myres);

  004ae	83 7e 14 10	 cmp	 DWORD PTR [esi+20], 16	; 00000010H

; 1606 : 		const value_type * _Result = _Bx._Buf;

  004b2	8b c6		 mov	 eax, esi

; 1607 : 		if (_Large_string_engaged())

  004b4	72 02		 jb	 SHORT $LN696@Ustaw_usta
; File f:\program files (x86)\microsoft visual studio\2017\enterprise\vc\tools\msvc\14.11.25503\include\xstddef

; 265  : 	return (_Ptr);

  004b6	8b 06		 mov	 eax, DWORD PTR [esi]
$LN696@Ustaw_usta:
; File f:\users\krzysztof\documents\szko³a\2017-2018\informatyka\labolatorium\ruletka\ruletka\main.cpp

; 1225 : 		if (atoi(tekst.c_str())) g³os_odczytu_numeru = atoi(tekst.c_str()); //Sprawdzenie czy po usuniêciu tekstu, to co pozosta³o jest wartoœci¹ ró¿n¹ od zera

  004b8	8b 3d 00 00 00
	00		 mov	 edi, DWORD PTR __imp__atoi
  004be	50		 push	 eax
  004bf	ff d7		 call	 edi
  004c1	83 c4 04	 add	 esp, 4
  004c4	85 c0		 test	 eax, eax
  004c6	74 18		 je	 SHORT $LN77@Ustaw_usta
; File f:\program files (x86)\microsoft visual studio\2017\enterprise\vc\tools\msvc\14.11.25503\include\xstring

; 1617 : 		return (_BUF_SIZE <= _Myres);

  004c8	83 7e 14 10	 cmp	 DWORD PTR [esi+20], 16	; 00000010H

; 1607 : 		if (_Large_string_engaged())

  004cc	72 02		 jb	 SHORT $LN712@Ustaw_usta
; File f:\program files (x86)\microsoft visual studio\2017\enterprise\vc\tools\msvc\14.11.25503\include\xstddef

; 265  : 	return (_Ptr);

  004ce	8b 36		 mov	 esi, DWORD PTR [esi]
$LN712@Ustaw_usta:
; File f:\users\krzysztof\documents\szko³a\2017-2018\informatyka\labolatorium\ruletka\ruletka\main.cpp

; 1225 : 		if (atoi(tekst.c_str())) g³os_odczytu_numeru = atoi(tekst.c_str()); //Sprawdzenie czy po usuniêciu tekstu, to co pozosta³o jest wartoœci¹ ró¿n¹ od zera

  004d0	56		 push	 esi
  004d1	ff d7		 call	 edi
  004d3	83 c4 04	 add	 esp, 4
  004d6	66 a3 00 00 00
	00		 mov	 WORD PTR ?g³os_odczytu_numeru@@3FA, ax ; g³os_odczytu_numeru

; 1253 : 		}
; 1254 : 	}
; 1255 : }

  004dc	5f		 pop	 edi
  004dd	5e		 pop	 esi
  004de	5b		 pop	 ebx
  004df	c3		 ret	 0
$LN77@Ustaw_usta:
; File f:\program files (x86)\microsoft visual studio\2017\enterprise\vc\tools\msvc\14.11.25503\include\xstring

; 1617 : 		return (_BUF_SIZE <= _Myres);

  004e0	8b 4e 14	 mov	 ecx, DWORD PTR [esi+20]

; 1595 : 		value_type * _Result = _Bx._Buf;

  004e3	8b c6		 mov	 eax, esi

; 1617 : 		return (_BUF_SIZE <= _Myres);

  004e5	83 f9 10	 cmp	 ecx, 16			; 00000010H

; 1596 : 		if (_Large_string_engaged())

  004e8	72 02		 jb	 SHORT $LN728@Ustaw_usta
; File f:\program files (x86)\microsoft visual studio\2017\enterprise\vc\tools\msvc\14.11.25503\include\xstddef

; 265  : 	return (_Ptr);

  004ea	8b 06		 mov	 eax, DWORD PTR [esi]
$LN728@Ustaw_usta:
; File f:\program files (x86)\microsoft visual studio\2017\enterprise\vc\tools\msvc\14.11.25503\include\xstring

; 1595 : 		value_type * _Result = _Bx._Buf;

  004ec	8b d6		 mov	 edx, esi

; 1617 : 		return (_BUF_SIZE <= _Myres);

  004ee	83 f9 10	 cmp	 ecx, 16			; 00000010H

; 1596 : 		if (_Large_string_engaged())

  004f1	72 02		 jb	 SHORT $LN744@Ustaw_usta
; File f:\program files (x86)\microsoft visual studio\2017\enterprise\vc\tools\msvc\14.11.25503\include\xstddef

; 265  : 	return (_Ptr);

  004f3	8b 16		 mov	 edx, DWORD PTR [esi]
$LN744@Ustaw_usta:
; File f:\program files (x86)\microsoft visual studio\2017\enterprise\vc\tools\msvc\14.11.25503\include\xstring

; 2876 : 		return (_My_data._Myptr() + _My_data._Mysize);

  004f5	8b 4e 10	 mov	 ecx, DWORD PTR [esi+16]
  004f8	03 ca		 add	 ecx, edx
; File f:\users\krzysztof\documents\szko³a\2017-2018\informatyka\labolatorium\ruletka\ruletka\main.cpp

; 1228 : 			for (const char & i : tekst) //Pêtla id¹ca po ka¿dym elemencie tablicy tekst i przypisuj¹ca wartoœæ na tym polu do zmiennej i

  004fa	3b c1		 cmp	 eax, ecx
  004fc	74 10		 je	 SHORT $LN27@Ustaw_usta
  004fe	66 90		 npad	 2
$LL28@Ustaw_usta:

; 1229 : 				if (i != '0') return; //Je¿eli zmienna i jest ró¿na od znaku 0 to wychodzi z funkcji

  00500	80 38 30	 cmp	 BYTE PTR [eax], 48	; 00000030H
  00503	0f 85 19 01 00
	00		 jne	 $LN87@Ustaw_usta

; 1228 : 			for (const char & i : tekst) //Pêtla id¹ca po ka¿dym elemencie tablicy tekst i przypisuj¹ca wartoœæ na tym polu do zmiennej i

  00509	40		 inc	 eax
  0050a	3b c1		 cmp	 eax, ecx
  0050c	75 f2		 jne	 SHORT $LL28@Ustaw_usta
$LN27@Ustaw_usta:

; 1253 : 		}
; 1254 : 	}
; 1255 : }

  0050e	5f		 pop	 edi
  0050f	33 c0		 xor	 eax, eax
  00511	5e		 pop	 esi
  00512	66 a3 00 00 00
	00		 mov	 WORD PTR ?g³os_odczytu_numeru@@3FA, ax ; g³os_odczytu_numeru
  00518	5b		 pop	 ebx
  00519	c3		 ret	 0
$LN75@Ustaw_usta:

; 1230 : 			g³os_odczytu_numeru = 0; //Je¿eli wszystkie pozycje wyrazu tekst s¹ zerami to zaczy, ¿e jego wartoœæ liczbowa to 0
; 1231 : 		}
; 1232 : 	}
; 1233 : 	else if (tekst.find("g³os_szybkoœæ_odczytu_numeru") != string::npos) //Sprawdzenie czy znaleziony jest poszukiwany tekst

  0051a	51		 push	 ecx
  0051b	68 00 00 00 00	 push	 OFFSET ??_C@_0BN@ECEAENDF@g?$LDos_szybko?$JM?f_odczytu_numeru?$AA@
  00520	8b ce		 mov	 ecx, esi
  00522	e8 00 00 00 00	 call	 ?find@?$basic_string@DU?$char_traits@D@std@@V?$allocator@D@2@@std@@QBEIQBDI@Z ; std::basic_string<char,std::char_traits<char>,std::allocator<char> >::find
  00527	83 f8 ff	 cmp	 eax, -1
  0052a	74 75		 je	 SHORT $LN80@Ustaw_usta

; 1234 : 	{
; 1235 : 		tekst.erase(0, size("g³os_szybkoœæ_odczytu_numeru")); //Usuniêcie s³owa z tekst aby zosta³a tylko liczba która jest wartoœci¹ ustawienia

  0052c	6a 1d		 push	 29			; 0000001dH
  0052e	6a 00		 push	 0
  00530	8b ce		 mov	 ecx, esi
  00532	e8 00 00 00 00	 call	 ?erase@?$basic_string@DU?$char_traits@D@std@@V?$allocator@D@2@@std@@QAEAAV12@II@Z ; std::basic_string<char,std::char_traits<char>,std::allocator<char> >::erase
; File f:\program files (x86)\microsoft visual studio\2017\enterprise\vc\tools\msvc\14.11.25503\include\xstring

; 1617 : 		return (_BUF_SIZE <= _Myres);

  00537	83 7e 14 10	 cmp	 DWORD PTR [esi+20], 16	; 00000010H

; 1606 : 		const value_type * _Result = _Bx._Buf;

  0053b	8b c6		 mov	 eax, esi

; 1607 : 		if (_Large_string_engaged())

  0053d	72 02		 jb	 SHORT $LN763@Ustaw_usta
; File f:\program files (x86)\microsoft visual studio\2017\enterprise\vc\tools\msvc\14.11.25503\include\xstddef

; 265  : 	return (_Ptr);

  0053f	8b 06		 mov	 eax, DWORD PTR [esi]
$LN763@Ustaw_usta:
; File f:\users\krzysztof\documents\szko³a\2017-2018\informatyka\labolatorium\ruletka\ruletka\main.cpp

; 1236 : 		if (atoi(tekst.c_str())) g³os_szybkoœæ_odczytu_numeru = atoi(tekst.c_str()); //Sprawdzenie czy po usuniêciu tekstu, to co pozosta³o jest wartoœci¹ ró¿n¹ od zera

  00541	8b 3d 00 00 00
	00		 mov	 edi, DWORD PTR __imp__atoi
  00547	50		 push	 eax
  00548	ff d7		 call	 edi
  0054a	83 c4 04	 add	 esp, 4
  0054d	85 c0		 test	 eax, eax
  0054f	74 18		 je	 SHORT $LN82@Ustaw_usta
; File f:\program files (x86)\microsoft visual studio\2017\enterprise\vc\tools\msvc\14.11.25503\include\xstring

; 1617 : 		return (_BUF_SIZE <= _Myres);

  00551	83 7e 14 10	 cmp	 DWORD PTR [esi+20], 16	; 00000010H

; 1607 : 		if (_Large_string_engaged())

  00555	72 02		 jb	 SHORT $LN779@Ustaw_usta
; File f:\program files (x86)\microsoft visual studio\2017\enterprise\vc\tools\msvc\14.11.25503\include\xstddef

; 265  : 	return (_Ptr);

  00557	8b 36		 mov	 esi, DWORD PTR [esi]
$LN779@Ustaw_usta:
; File f:\users\krzysztof\documents\szko³a\2017-2018\informatyka\labolatorium\ruletka\ruletka\main.cpp

; 1236 : 		if (atoi(tekst.c_str())) g³os_szybkoœæ_odczytu_numeru = atoi(tekst.c_str()); //Sprawdzenie czy po usuniêciu tekstu, to co pozosta³o jest wartoœci¹ ró¿n¹ od zera

  00559	56		 push	 esi
  0055a	ff d7		 call	 edi
  0055c	83 c4 04	 add	 esp, 4
  0055f	66 a3 00 00 00
	00		 mov	 WORD PTR ?g³os_szybkoœæ_odczytu_numeru@@3FA, ax ; g³os_szybkoœæ_odczytu_numeru

; 1253 : 		}
; 1254 : 	}
; 1255 : }

  00565	5f		 pop	 edi
  00566	5e		 pop	 esi
  00567	5b		 pop	 ebx
  00568	c3		 ret	 0
$LN82@Ustaw_usta:
; File f:\program files (x86)\microsoft visual studio\2017\enterprise\vc\tools\msvc\14.11.25503\include\xstring

; 1617 : 		return (_BUF_SIZE <= _Myres);

  00569	8b 4e 14	 mov	 ecx, DWORD PTR [esi+20]

; 1595 : 		value_type * _Result = _Bx._Buf;

  0056c	8b c6		 mov	 eax, esi

; 1617 : 		return (_BUF_SIZE <= _Myres);

  0056e	83 f9 10	 cmp	 ecx, 16			; 00000010H

; 1596 : 		if (_Large_string_engaged())

  00571	72 02		 jb	 SHORT $LN795@Ustaw_usta
; File f:\program files (x86)\microsoft visual studio\2017\enterprise\vc\tools\msvc\14.11.25503\include\xstddef

; 265  : 	return (_Ptr);

  00573	8b 06		 mov	 eax, DWORD PTR [esi]
$LN795@Ustaw_usta:
; File f:\program files (x86)\microsoft visual studio\2017\enterprise\vc\tools\msvc\14.11.25503\include\xstring

; 1595 : 		value_type * _Result = _Bx._Buf;

  00575	8b d6		 mov	 edx, esi

; 1617 : 		return (_BUF_SIZE <= _Myres);

  00577	83 f9 10	 cmp	 ecx, 16			; 00000010H

; 1596 : 		if (_Large_string_engaged())

  0057a	72 02		 jb	 SHORT $LN811@Ustaw_usta
; File f:\program files (x86)\microsoft visual studio\2017\enterprise\vc\tools\msvc\14.11.25503\include\xstddef

; 265  : 	return (_Ptr);

  0057c	8b 16		 mov	 edx, DWORD PTR [esi]
$LN811@Ustaw_usta:
; File f:\program files (x86)\microsoft visual studio\2017\enterprise\vc\tools\msvc\14.11.25503\include\xstring

; 2876 : 		return (_My_data._Myptr() + _My_data._Mysize);

  0057e	8b 4e 10	 mov	 ecx, DWORD PTR [esi+16]
  00581	03 ca		 add	 ecx, edx
; File f:\users\krzysztof\documents\szko³a\2017-2018\informatyka\labolatorium\ruletka\ruletka\main.cpp

; 1239 : 			for (const char & i : tekst) //Pêtla id¹ca po ka¿dym elemencie tablicy tekst i przypisuj¹ca wartoœæ na tym polu do zmiennej i

  00583	3b c1		 cmp	 eax, ecx
  00585	74 0e		 je	 SHORT $LN30@Ustaw_usta
$LL31@Ustaw_usta:

; 1240 : 				if (i != '0') return; //Je¿eli zmienna i jest ró¿na od znaku 0 to wychodzi z funkcji //Je¿eli zmienna i jest ró¿na od znaku 0 to wychodzi z funkcji

  00587	80 38 30	 cmp	 BYTE PTR [eax], 48	; 00000030H
  0058a	0f 85 92 00 00
	00		 jne	 $LN87@Ustaw_usta

; 1239 : 			for (const char & i : tekst) //Pêtla id¹ca po ka¿dym elemencie tablicy tekst i przypisuj¹ca wartoœæ na tym polu do zmiennej i

  00590	40		 inc	 eax
  00591	3b c1		 cmp	 eax, ecx
  00593	75 f2		 jne	 SHORT $LL31@Ustaw_usta
$LN30@Ustaw_usta:

; 1253 : 		}
; 1254 : 	}
; 1255 : }

  00595	5f		 pop	 edi
  00596	33 c0		 xor	 eax, eax
  00598	5e		 pop	 esi
  00599	66 a3 00 00 00
	00		 mov	 WORD PTR ?g³os_szybkoœæ_odczytu_numeru@@3FA, ax ; g³os_szybkoœæ_odczytu_numeru
  0059f	5b		 pop	 ebx
  005a0	c3		 ret	 0
$LN80@Ustaw_usta:

; 1241 : 			g³os_szybkoœæ_odczytu_numeru = 0; //Je¿eli wszystkie pozycje wyrazu tekst s¹ zerami to zaczy, ¿e jego wartoœæ liczbowa to 0
; 1242 : 		}
; 1243 : 	}
; 1244 : 	else if (tekst.find("efekty_dŸwiêkowe") != string::npos) //Sprawdzenie czy znaleziony jest poszukiwany tekst

  005a1	51		 push	 ecx
  005a2	68 00 00 00 00	 push	 OFFSET ??_C@_0BB@EHOIFKBK@efekty_d?$JPwi?jkowe?$AA@
  005a7	8b ce		 mov	 ecx, esi
  005a9	e8 00 00 00 00	 call	 ?find@?$basic_string@DU?$char_traits@D@std@@V?$allocator@D@2@@std@@QBEIQBDI@Z ; std::basic_string<char,std::char_traits<char>,std::allocator<char> >::find
  005ae	83 f8 ff	 cmp	 eax, -1
  005b1	74 6f		 je	 SHORT $LN87@Ustaw_usta

; 1245 : 	{
; 1246 : 		tekst.erase(0, size("efekty_dŸwiêkowe")); //Usuniêcie s³owa z tekst aby zosta³a tylko liczba która jest wartoœci¹ ustawienia

  005b3	6a 11		 push	 17			; 00000011H
  005b5	6a 00		 push	 0
  005b7	8b ce		 mov	 ecx, esi
  005b9	e8 00 00 00 00	 call	 ?erase@?$basic_string@DU?$char_traits@D@std@@V?$allocator@D@2@@std@@QAEAAV12@II@Z ; std::basic_string<char,std::char_traits<char>,std::allocator<char> >::erase
; File f:\program files (x86)\microsoft visual studio\2017\enterprise\vc\tools\msvc\14.11.25503\include\xstring

; 1617 : 		return (_BUF_SIZE <= _Myres);

  005be	83 7e 14 10	 cmp	 DWORD PTR [esi+20], 16	; 00000010H

; 1606 : 		const value_type * _Result = _Bx._Buf;

  005c2	8b c6		 mov	 eax, esi

; 1607 : 		if (_Large_string_engaged())

  005c4	72 02		 jb	 SHORT $LN830@Ustaw_usta
; File f:\program files (x86)\microsoft visual studio\2017\enterprise\vc\tools\msvc\14.11.25503\include\xstddef

; 265  : 	return (_Ptr);

  005c6	8b 06		 mov	 eax, DWORD PTR [esi]
$LN830@Ustaw_usta:
; File f:\users\krzysztof\documents\szko³a\2017-2018\informatyka\labolatorium\ruletka\ruletka\main.cpp

; 1247 : 		if (atoi(tekst.c_str())) efekty_dŸwiêkowe = atoi(tekst.c_str()); //Sprawdzenie czy po usuniêciu tekstu, to co pozosta³o jest wartoœci¹ ró¿n¹ od zera

  005c8	8b 3d 00 00 00
	00		 mov	 edi, DWORD PTR __imp__atoi
  005ce	50		 push	 eax
  005cf	ff d7		 call	 edi
  005d1	83 c4 04	 add	 esp, 4
  005d4	85 c0		 test	 eax, eax
  005d6	74 18		 je	 SHORT $LN86@Ustaw_usta
; File f:\program files (x86)\microsoft visual studio\2017\enterprise\vc\tools\msvc\14.11.25503\include\xstring

; 1617 : 		return (_BUF_SIZE <= _Myres);

  005d8	83 7e 14 10	 cmp	 DWORD PTR [esi+20], 16	; 00000010H

; 1607 : 		if (_Large_string_engaged())

  005dc	72 02		 jb	 SHORT $LN846@Ustaw_usta
; File f:\program files (x86)\microsoft visual studio\2017\enterprise\vc\tools\msvc\14.11.25503\include\xstddef

; 265  : 	return (_Ptr);

  005de	8b 36		 mov	 esi, DWORD PTR [esi]
$LN846@Ustaw_usta:
; File f:\users\krzysztof\documents\szko³a\2017-2018\informatyka\labolatorium\ruletka\ruletka\main.cpp

; 1247 : 		if (atoi(tekst.c_str())) efekty_dŸwiêkowe = atoi(tekst.c_str()); //Sprawdzenie czy po usuniêciu tekstu, to co pozosta³o jest wartoœci¹ ró¿n¹ od zera

  005e0	56		 push	 esi
  005e1	ff d7		 call	 edi
  005e3	83 c4 04	 add	 esp, 4

; 1252 : 			efekty_dŸwiêkowe = 0; //Je¿eli wszystkie pozycje wyrazu tekst s¹ zerami to zaczy, ¿e jego wartoœæ liczbowa to 0

  005e6	66 a3 00 00 00
	00		 mov	 WORD PTR ?efekty_dŸwiêkowe@@3FA, ax ; efekty_dŸwiêkowe

; 1253 : 		}
; 1254 : 	}
; 1255 : }

  005ec	5f		 pop	 edi
  005ed	5e		 pop	 esi
  005ee	5b		 pop	 ebx
  005ef	c3		 ret	 0
$LN86@Ustaw_usta:
; File f:\program files (x86)\microsoft visual studio\2017\enterprise\vc\tools\msvc\14.11.25503\include\xstring

; 1617 : 		return (_BUF_SIZE <= _Myres);

  005f0	8b 4e 14	 mov	 ecx, DWORD PTR [esi+20]

; 1595 : 		value_type * _Result = _Bx._Buf;

  005f3	8b c6		 mov	 eax, esi

; 1617 : 		return (_BUF_SIZE <= _Myres);

  005f5	83 f9 10	 cmp	 ecx, 16			; 00000010H

; 1596 : 		if (_Large_string_engaged())

  005f8	72 02		 jb	 SHORT $LN862@Ustaw_usta
; File f:\program files (x86)\microsoft visual studio\2017\enterprise\vc\tools\msvc\14.11.25503\include\xstddef

; 265  : 	return (_Ptr);

  005fa	8b 06		 mov	 eax, DWORD PTR [esi]
$LN862@Ustaw_usta:
; File f:\program files (x86)\microsoft visual studio\2017\enterprise\vc\tools\msvc\14.11.25503\include\xstring

; 1595 : 		value_type * _Result = _Bx._Buf;

  005fc	8b d6		 mov	 edx, esi

; 1617 : 		return (_BUF_SIZE <= _Myres);

  005fe	83 f9 10	 cmp	 ecx, 16			; 00000010H

; 1596 : 		if (_Large_string_engaged())

  00601	72 02		 jb	 SHORT $LN878@Ustaw_usta
; File f:\program files (x86)\microsoft visual studio\2017\enterprise\vc\tools\msvc\14.11.25503\include\xstddef

; 265  : 	return (_Ptr);

  00603	8b 16		 mov	 edx, DWORD PTR [esi]
$LN878@Ustaw_usta:
; File f:\program files (x86)\microsoft visual studio\2017\enterprise\vc\tools\msvc\14.11.25503\include\xstring

; 2876 : 		return (_My_data._Myptr() + _My_data._Mysize);

  00605	8b 4e 10	 mov	 ecx, DWORD PTR [esi+16]
  00608	03 ca		 add	 ecx, edx
; File f:\users\krzysztof\documents\szko³a\2017-2018\informatyka\labolatorium\ruletka\ruletka\main.cpp

; 1250 : 			for (const char & i : tekst) //Pêtla id¹ca po ka¿dym elemencie tablicy tekst i przypisuj¹ca wartoœæ na tym polu do zmiennej i

  0060a	3b c1		 cmp	 eax, ecx
  0060c	74 0c		 je	 SHORT $LN33@Ustaw_usta
  0060e	66 90		 npad	 2
$LL34@Ustaw_usta:

; 1251 : 				if (i != '0') return; //Je¿eli zmienna i jest ró¿na od znaku 0 to wychodzi z funkcji //Je¿eli zmienna i jest ró¿na od znaku 0 to wychodzi z funkcji

  00610	80 38 30	 cmp	 BYTE PTR [eax], 48	; 00000030H
  00613	75 0d		 jne	 SHORT $LN87@Ustaw_usta

; 1250 : 			for (const char & i : tekst) //Pêtla id¹ca po ka¿dym elemencie tablicy tekst i przypisuj¹ca wartoœæ na tym polu do zmiennej i

  00615	40		 inc	 eax
  00616	3b c1		 cmp	 eax, ecx
  00618	75 f6		 jne	 SHORT $LL34@Ustaw_usta
$LN33@Ustaw_usta:

; 1252 : 			efekty_dŸwiêkowe = 0; //Je¿eli wszystkie pozycje wyrazu tekst s¹ zerami to zaczy, ¿e jego wartoœæ liczbowa to 0

  0061a	33 c0		 xor	 eax, eax
  0061c	66 a3 00 00 00
	00		 mov	 WORD PTR ?efekty_dŸwiêkowe@@3FA, ax ; efekty_dŸwiêkowe
$LN87@Ustaw_usta:

; 1253 : 		}
; 1254 : 	}
; 1255 : }

  00622	5f		 pop	 edi
  00623	5e		 pop	 esi
  00624	5b		 pop	 ebx
  00625	c3		 ret	 0
?Ustaw_ustawienia@@YAXAAV?$basic_string@DU?$char_traits@D@std@@V?$allocator@D@2@@std@@@Z ENDP ; Ustaw_ustawienia
_TEXT	ENDS
; Function compile flags: /Ogtp
; File f:\program files (x86)\microsoft visual studio\2017\enterprise\vc\tools\msvc\14.11.25503\include\xstring
; File f:\program files (x86)\microsoft visual studio\2017\enterprise\vc\tools\msvc\14.11.25503\include\xmemory0
; File f:\program files (x86)\microsoft visual studio\2017\enterprise\vc\tools\msvc\14.11.25503\include\xstring
; File f:\program files (x86)\microsoft visual studio\2017\enterprise\vc\tools\msvc\14.11.25503\include\xmemory0
; File f:\program files (x86)\microsoft visual studio\2017\enterprise\vc\tools\msvc\14.11.25503\include\xstring
; File f:\program files (x86)\microsoft visual studio\2017\enterprise\vc\tools\msvc\14.11.25503\include\iosfwd
; File f:\program files (x86)\microsoft visual studio\2017\enterprise\vc\tools\msvc\14.11.25503\include\xstring
; File f:\program files (x86)\microsoft visual studio\2017\enterprise\vc\tools\msvc\14.11.25503\include\iosfwd
; File f:\program files (x86)\microsoft visual studio\2017\enterprise\vc\tools\msvc\14.11.25503\include\xstring
; File f:\program files (x86)\microsoft visual studio\2017\enterprise\vc\tools\msvc\14.11.25503\include\xmemory0
; File f:\program files (x86)\microsoft visual studio\2017\enterprise\vc\tools\msvc\14.11.25503\include\xstring
;	COMDAT ??4?$basic_string@DU?$char_traits@D@std@@V?$allocator@D@2@@std@@QAEAAV01@$$QAV01@@Z
_TEXT	SEGMENT
__Right$ = 8						; size = 4
??4?$basic_string@DU?$char_traits@D@std@@V?$allocator@D@2@@std@@QAEAAV01@$$QAV01@@Z PROC ; std::basic_string<char,std::char_traits<char>,std::allocator<char> >::operator=, COMDAT
; _this$ = ecx

; 2085 : 		{	// assign by moving _Right

  00000	55		 push	 ebp
  00001	8b ec		 mov	 ebp, esp
  00003	56		 push	 esi
  00004	57		 push	 edi

; 2086 : 		if (this != _STD addressof(_Right))

  00005	8b 7d 08	 mov	 edi, DWORD PTR __Right$[ebp]
  00008	8b f1		 mov	 esi, ecx
  0000a	3b f7		 cmp	 esi, edi
  0000c	74 67		 je	 SHORT $LN93@operator

; 1617 : 		return (_BUF_SIZE <= _Myres);

  0000e	8b 46 14	 mov	 eax, DWORD PTR [esi+20]
  00011	83 f8 10	 cmp	 eax, 16			; 00000010H

; 3709 : 		if (_My_data._Large_string_engaged())

  00014	72 2d		 jb	 SHORT $LN31@operator
; File f:\program files (x86)\microsoft visual studio\2017\enterprise\vc\tools\msvc\14.11.25503\include\xmemory0

; 941  : 		_Deallocate(_Ptr, _Count, sizeof(_Ty));

  00016	8b 0e		 mov	 ecx, DWORD PTR [esi]
; File f:\program files (x86)\microsoft visual studio\2017\enterprise\vc\tools\msvc\14.11.25503\include\xstring

; 3714 : 			_Al.deallocate(_Ptr, _My_data._Myres + 1);

  00018	40		 inc	 eax
; File f:\program files (x86)\microsoft visual studio\2017\enterprise\vc\tools\msvc\14.11.25503\include\xmemory0

; 107  : 	if (_BIG_ALLOCATION_THRESHOLD <= _Count * _Sz)

  00019	3d 00 10 00 00	 cmp	 eax, 4096		; 00001000H
  0001e	72 1a		 jb	 SHORT $LN34@operator

; 108  : 		{	// deallocate large block
; 109  : 		const uintptr_t _Ptr_user = reinterpret_cast<uintptr_t>(_Ptr);
; 110  : 		if ((_Ptr_user & (_BIG_ALLOCATION_ALIGNMENT - 1)) != 0)

  00020	f6 c1 1f	 test	 cl, 31			; 0000001fH
  00023	75 58		 jne	 SHORT $_Invalid_parameter$98

; 111  : 			{
; 112  : 			goto _Invalid_parameter;
; 113  : 			}
; 114  : 
; 115  : 		const uintptr_t _Ptr_ptr = _Ptr_user - sizeof(void *);
; 116  : 		const uintptr_t _Ptr_container =
; 117  : 			*reinterpret_cast<uintptr_t *>(_Ptr_ptr);

  00025	8b 41 fc	 mov	 eax, DWORD PTR [ecx-4]

; 118  : 
; 119  :  #ifdef _DEBUG
; 120  : 		// If the following asserts, it likely means that we are performing
; 121  : 		// an aligned delete on memory coming from an unaligned allocation.
; 122  : 		if (reinterpret_cast<uintptr_t *>(_Ptr_ptr)[-1] != _BIG_ALLOCATION_SENTINEL)
; 123  : 			{
; 124  : 			goto _Invalid_parameter;
; 125  : 			}
; 126  :  #endif /* _DEBUG */
; 127  : 
; 128  : 		// Extra paranoia on aligned allocation/deallocation
; 129  : 		if (_Ptr_container >= _Ptr_user)

  00028	3b c1		 cmp	 eax, ecx
  0002a	73 51		 jae	 SHORT $_Invalid_parameter$98

; 130  : 			{
; 131  : 			goto _Invalid_parameter;
; 132  : 			}
; 133  : 
; 134  :  #ifdef _DEBUG
; 135  : 		if (2 * sizeof(void *) > _Ptr_user - _Ptr_container)
; 136  :  #else /* _DEBUG */
; 137  : 		if (sizeof(void *) > _Ptr_user - _Ptr_container)

  0002c	2b c8		 sub	 ecx, eax
  0002e	83 f9 04	 cmp	 ecx, 4
  00031	72 4a		 jb	 SHORT $_Invalid_parameter$98

; 138  :  #endif /* _DEBUG */
; 139  : 			{
; 140  : 			goto _Invalid_parameter;
; 141  : 			}
; 142  : 
; 143  : 		if (_Ptr_user - _Ptr_container > _NON_USER_SIZE)

  00033	83 f9 23	 cmp	 ecx, 35			; 00000023H
  00036	77 45		 ja	 SHORT $_Invalid_parameter$98

; 144  : 			{
; 145  : 			goto _Invalid_parameter;
; 146  : 			}
; 147  : 
; 148  : 		_Ptr = reinterpret_cast<void *>(_Ptr_container);

  00038	8b c8		 mov	 ecx, eax
$LN34@operator:

; 149  : 		}
; 150  : 
; 151  : 	::operator delete(_Ptr);

  0003a	51		 push	 ecx
  0003b	e8 00 00 00 00	 call	 ??3@YAXPAX@Z		; operator delete
  00040	83 c4 04	 add	 esp, 4
$LN31@operator:
; File f:\program files (x86)\microsoft visual studio\2017\enterprise\vc\tools\msvc\14.11.25503\include\xstring

; 3717 : 		_My_data._Mysize = 0;

  00043	c7 46 10 00 00
	00 00		 mov	 DWORD PTR [esi+16], 0

; 3718 : 		_My_data._Myres = this->_BUF_SIZE - 1;

  0004a	c7 46 14 0f 00
	00 00		 mov	 DWORD PTR [esi+20], 15	; 0000000fH
; File f:\program files (x86)\microsoft visual studio\2017\enterprise\vc\tools\msvc\14.11.25503\include\iosfwd

; 517  : 		_Left = _Right;

  00051	c6 06 00	 mov	 BYTE PTR [esi], 0
; File f:\program files (x86)\microsoft visual studio\2017\enterprise\vc\tools\msvc\14.11.25503\include\xstring

; 2152 : 		_CSTD memcpy(_My_data_mem, _Right_data_mem, _Memcpy_move_size);

  00054	0f 10 07	 movups	 xmm0, XMMWORD PTR [edi]
  00057	0f 11 06	 movups	 XMMWORD PTR [esi], xmm0
  0005a	f3 0f 7e 47 10	 movq	 xmm0, QWORD PTR [edi+16]
  0005f	66 0f d6 46 10	 movq	 QWORD PTR [esi+16], xmm0

; 3698 : 		_My_data._Mysize = 0;

  00064	c7 47 10 00 00
	00 00		 mov	 DWORD PTR [edi+16], 0

; 3699 : 		_My_data._Myres = this->_BUF_SIZE - 1;

  0006b	c7 47 14 0f 00
	00 00		 mov	 DWORD PTR [edi+20], 15	; 0000000fH
; File f:\program files (x86)\microsoft visual studio\2017\enterprise\vc\tools\msvc\14.11.25503\include\iosfwd

; 517  : 		_Left = _Right;

  00072	c6 07 00	 mov	 BYTE PTR [edi], 0
$LN93@operator:
; File f:\program files (x86)\microsoft visual studio\2017\enterprise\vc\tools\msvc\14.11.25503\include\xstring

; 2097 : 		return (*this);

  00075	5f		 pop	 edi
  00076	8b c6		 mov	 eax, esi
  00078	5e		 pop	 esi

; 2098 : 		}

  00079	5d		 pop	 ebp
  0007a	c2 04 00	 ret	 4
$_Invalid_parameter$98:
; File f:\program files (x86)\microsoft visual studio\2017\enterprise\vc\tools\msvc\14.11.25503\include\xmemory0

; 155  : 	_SCL_SECURE_INVALID_ARGUMENT_NO_ASSERT;

  0007d	ff 15 00 00 00
	00		 call	 DWORD PTR __imp___invalid_parameter_noinfo_noreturn
$LN97@operator:
$LN96@operator:
  00083	cc		 int	 3
??4?$basic_string@DU?$char_traits@D@std@@V?$allocator@D@2@@std@@QAEAAV01@$$QAV01@@Z ENDP ; std::basic_string<char,std::char_traits<char>,std::allocator<char> >::operator=
_TEXT	ENDS
; Function compile flags: /Ogtp
; File f:\program files (x86)\microsoft visual studio\2017\enterprise\vc\tools\msvc\14.11.25503\include\xstring
; File f:\program files (x86)\microsoft visual studio\2017\enterprise\vc\tools\msvc\14.11.25503\include\iosfwd
; File f:\program files (x86)\microsoft visual studio\2017\enterprise\vc\tools\msvc\14.11.25503\include\xstring
;	COMDAT ??0?$basic_string@DU?$char_traits@D@std@@V?$allocator@D@2@@std@@QAE@$$QAV01@@Z
_TEXT	SEGMENT
__Right$ = 8						; size = 4
??0?$basic_string@DU?$char_traits@D@std@@V?$allocator@D@2@@std@@QAE@$$QAV01@@Z PROC ; std::basic_string<char,std::char_traits<char>,std::allocator<char> >::basic_string<char,std::char_traits<char>,std::allocator<char> >, COMDAT
; _this$ = ecx

; 2054 : 		{	// construct by moving _Right

  00000	55		 push	 ebp
  00001	8b ec		 mov	 ebp, esp

; 2152 : 		_CSTD memcpy(_My_data_mem, _Right_data_mem, _Memcpy_move_size);

  00003	8b 45 08	 mov	 eax, DWORD PTR __Right$[ebp]

; 1576 : 		_Mysize(0),

  00006	c7 41 10 00 00
	00 00		 mov	 DWORD PTR [ecx+16], 0

; 1577 : 		_Myres(0)

  0000d	c7 41 14 00 00
	00 00		 mov	 DWORD PTR [ecx+20], 0

; 2152 : 		_CSTD memcpy(_My_data_mem, _Right_data_mem, _Memcpy_move_size);

  00014	0f 10 00	 movups	 xmm0, XMMWORD PTR [eax]
  00017	0f 11 01	 movups	 XMMWORD PTR [ecx], xmm0
  0001a	f3 0f 7e 40 10	 movq	 xmm0, QWORD PTR [eax+16]
  0001f	66 0f d6 41 10	 movq	 QWORD PTR [ecx+16], xmm0

; 3698 : 		_My_data._Mysize = 0;

  00024	c7 40 10 00 00
	00 00		 mov	 DWORD PTR [eax+16], 0

; 3699 : 		_My_data._Myres = this->_BUF_SIZE - 1;

  0002b	c7 40 14 0f 00
	00 00		 mov	 DWORD PTR [eax+20], 15	; 0000000fH
; File f:\program files (x86)\microsoft visual studio\2017\enterprise\vc\tools\msvc\14.11.25503\include\iosfwd

; 517  : 		_Left = _Right;

  00032	c6 00 00	 mov	 BYTE PTR [eax], 0
; File f:\program files (x86)\microsoft visual studio\2017\enterprise\vc\tools\msvc\14.11.25503\include\xstring

; 2056 : 		}

  00035	8b c1		 mov	 eax, ecx
  00037	5d		 pop	 ebp
  00038	c2 04 00	 ret	 4
??0?$basic_string@DU?$char_traits@D@std@@V?$allocator@D@2@@std@@QAE@$$QAV01@@Z ENDP ; std::basic_string<char,std::char_traits<char>,std::allocator<char> >::basic_string<char,std::char_traits<char>,std::allocator<char> >
_TEXT	ENDS
; Function compile flags: /Ogtp
; File f:\program files (x86)\microsoft visual studio\2017\enterprise\vc\tools\msvc\14.11.25503\include\xstring
; File f:\program files (x86)\microsoft visual studio\2017\enterprise\vc\tools\msvc\14.11.25503\include\iosfwd
; File f:\program files (x86)\microsoft visual studio\2017\enterprise\vc\tools\msvc\14.11.25503\include\xstring
; File f:\program files (x86)\microsoft visual studio\2017\enterprise\vc\tools\msvc\14.11.25503\include\iosfwd
; File f:\program files (x86)\microsoft visual studio\2017\enterprise\vc\tools\msvc\14.11.25503\include\xstring
; File f:\program files (x86)\microsoft visual studio\2017\enterprise\vc\tools\msvc\14.11.25503\include\iosfwd
; File f:\program files (x86)\microsoft visual studio\2017\enterprise\vc\tools\msvc\14.11.25503\include\xstring
;	COMDAT ??0?$basic_string@DU?$char_traits@D@std@@V?$allocator@D@2@@std@@QAE@QBD@Z
_TEXT	SEGMENT
__Ptr$ = 8						; size = 4
??0?$basic_string@DU?$char_traits@D@std@@V?$allocator@D@2@@std@@QAE@QBD@Z PROC ; std::basic_string<char,std::char_traits<char>,std::allocator<char> >::basic_string<char,std::char_traits<char>,std::allocator<char> >, COMDAT
; _this$ = ecx

; 1977 : 		{	// construct from [_Ptr, <null>)

  00000	55		 push	 ebp
  00001	8b ec		 mov	 ebp, esp
; File f:\program files (x86)\microsoft visual studio\2017\enterprise\vc\tools\msvc\14.11.25503\include\iosfwd

; 480  : 		return (_CSTD strlen(_First));

  00003	8b 55 08	 mov	 edx, DWORD PTR __Ptr$[ebp]
  00006	8b c2		 mov	 eax, edx
; File f:\program files (x86)\microsoft visual studio\2017\enterprise\vc\tools\msvc\14.11.25503\include\xstring

; 1977 : 		{	// construct from [_Ptr, <null>)

  00008	56		 push	 esi
  00009	8b f1		 mov	 esi, ecx
  0000b	57		 push	 edi
; File f:\program files (x86)\microsoft visual studio\2017\enterprise\vc\tools\msvc\14.11.25503\include\iosfwd

; 480  : 		return (_CSTD strlen(_First));

  0000c	8d 78 01	 lea	 edi, DWORD PTR [eax+1]
; File f:\program files (x86)\microsoft visual studio\2017\enterprise\vc\tools\msvc\14.11.25503\include\xstring

; 3698 : 		_My_data._Mysize = 0;

  0000f	c7 46 10 00 00
	00 00		 mov	 DWORD PTR [esi+16], 0

; 3699 : 		_My_data._Myres = this->_BUF_SIZE - 1;

  00016	c7 46 14 0f 00
	00 00		 mov	 DWORD PTR [esi+20], 15	; 0000000fH
; File f:\program files (x86)\microsoft visual studio\2017\enterprise\vc\tools\msvc\14.11.25503\include\iosfwd

; 517  : 		_Left = _Right;

  0001d	c6 06 00	 mov	 BYTE PTR [esi], 0
$LL30@basic_stri:

; 480  : 		return (_CSTD strlen(_First));

  00020	8a 08		 mov	 cl, BYTE PTR [eax]
  00022	40		 inc	 eax
  00023	84 c9		 test	 cl, cl
  00025	75 f9		 jne	 SHORT $LL30@basic_stri
  00027	2b c7		 sub	 eax, edi
; File f:\program files (x86)\microsoft visual studio\2017\enterprise\vc\tools\msvc\14.11.25503\include\xstring

; 2452 : 		return (assign(_Ptr, _Convert_size<size_type>(_Traits::length(_Ptr))));

  00029	8b ce		 mov	 ecx, esi
  0002b	50		 push	 eax
  0002c	52		 push	 edx
  0002d	e8 00 00 00 00	 call	 ?assign@?$basic_string@DU?$char_traits@D@std@@V?$allocator@D@2@@std@@QAEAAV12@QBDI@Z ; std::basic_string<char,std::char_traits<char>,std::allocator<char> >::assign

; 1978 : 		_Tidy_init();
; 1979 : 		assign(_Ptr);
; 1980 : 		}

  00032	5f		 pop	 edi
  00033	8b c6		 mov	 eax, esi
  00035	5e		 pop	 esi
  00036	5d		 pop	 ebp
  00037	c2 04 00	 ret	 4
??0?$basic_string@DU?$char_traits@D@std@@V?$allocator@D@2@@std@@QAE@QBD@Z ENDP ; std::basic_string<char,std::char_traits<char>,std::allocator<char> >::basic_string<char,std::char_traits<char>,std::allocator<char> >
_TEXT	ENDS
; Function compile flags: /Ogtp
; File f:\program files (x86)\microsoft visual studio\2017\enterprise\vc\tools\msvc\14.11.25503\include\xstring
; File f:\program files (x86)\microsoft visual studio\2017\enterprise\vc\tools\msvc\14.11.25503\include\xstddef
; File f:\program files (x86)\microsoft visual studio\2017\enterprise\vc\tools\msvc\14.11.25503\include\xstring
; File f:\program files (x86)\microsoft visual studio\2017\enterprise\vc\tools\msvc\14.11.25503\include\iosfwd
; File f:\program files (x86)\microsoft visual studio\2017\enterprise\vc\tools\msvc\14.11.25503\include\xstring
; File f:\program files (x86)\microsoft visual studio\2017\enterprise\vc\tools\msvc\14.11.25503\include\iosfwd
; File f:\program files (x86)\microsoft visual studio\2017\enterprise\vc\tools\msvc\14.11.25503\include\xstring
; File f:\program files (x86)\microsoft visual studio\2017\enterprise\vc\tools\msvc\14.11.25503\include\xmemory0
; File f:\program files (x86)\microsoft visual studio\2017\enterprise\vc\tools\msvc\14.11.25503\include\xstring
; File f:\program files (x86)\microsoft visual studio\2017\enterprise\vc\tools\msvc\14.11.25503\include\xmemory0
; File f:\program files (x86)\microsoft visual studio\2017\enterprise\vc\tools\msvc\14.11.25503\include\iosfwd
; File f:\program files (x86)\microsoft visual studio\2017\enterprise\vc\tools\msvc\14.11.25503\include\xstring
; File f:\program files (x86)\microsoft visual studio\2017\enterprise\vc\tools\msvc\14.11.25503\include\iosfwd
; File f:\program files (x86)\microsoft visual studio\2017\enterprise\vc\tools\msvc\14.11.25503\include\xstring
;	COMDAT ??0?$basic_string@DU?$char_traits@D@std@@V?$allocator@D@2@@std@@QAE@ABV01@@Z
_TEXT	SEGMENT
__New_capacity$1$ = -4					; size = 4
__Right$ = 8						; size = 4
??0?$basic_string@DU?$char_traits@D@std@@V?$allocator@D@2@@std@@QAE@ABV01@@Z PROC ; std::basic_string<char,std::char_traits<char>,std::allocator<char> >::basic_string<char,std::char_traits<char>,std::allocator<char> >, COMDAT
; _this$ = ecx

; 1924 : 		{	// construct by copying _Right

  00000	55		 push	 ebp
  00001	8b ec		 mov	 ebp, esp
  00003	51		 push	 ecx
  00004	53		 push	 ebx
  00005	56		 push	 esi
  00006	8b f1		 mov	 esi, ecx
  00008	57		 push	 edi
  00009	8b 7d 08	 mov	 edi, DWORD PTR __Right$[ebp]

; 1576 : 		_Mysize(0),

  0000c	c7 46 10 00 00
	00 00		 mov	 DWORD PTR [esi+16], 0

; 1577 : 		_Myres(0)

  00013	c7 46 14 00 00
	00 00		 mov	 DWORD PTR [esi+20], 0

; 1617 : 		return (_BUF_SIZE <= _Myres);

  0001a	83 7f 14 10	 cmp	 DWORD PTR [edi+20], 16	; 00000010H

; 2186 : 		const size_type _Right_size = _Right_data._Mysize;

  0001e	8b 5f 10	 mov	 ebx, DWORD PTR [edi+16]

; 1607 : 		if (_Large_string_engaged())

  00021	72 02		 jb	 SHORT $LN39@basic_stri
; File f:\program files (x86)\microsoft visual studio\2017\enterprise\vc\tools\msvc\14.11.25503\include\xstddef

; 265  : 	return (_Ptr);

  00023	8b 3f		 mov	 edi, DWORD PTR [edi]
$LN39@basic_stri:
; File f:\program files (x86)\microsoft visual studio\2017\enterprise\vc\tools\msvc\14.11.25503\include\xstring

; 2188 : 		if (_Right_size < this->_BUF_SIZE)

  00025	83 fb 10	 cmp	 ebx, 16			; 00000010H
  00028	73 1b		 jae	 SHORT $LN24@basic_stri
; File f:\program files (x86)\microsoft visual studio\2017\enterprise\vc\tools\msvc\14.11.25503\include\iosfwd

; 486  : 		return ((_Elem *)_CSTD memcpy(_First1, _First2, _Count));

  0002a	0f 10 07	 movups	 xmm0, XMMWORD PTR [edi]
; File f:\program files (x86)\microsoft visual studio\2017\enterprise\vc\tools\msvc\14.11.25503\include\xstring

; 1926 : 		}

  0002d	5f		 pop	 edi
  0002e	8b c6		 mov	 eax, esi
; File f:\program files (x86)\microsoft visual studio\2017\enterprise\vc\tools\msvc\14.11.25503\include\iosfwd

; 486  : 		return ((_Elem *)_CSTD memcpy(_First1, _First2, _Count));

  00030	0f 11 06	 movups	 XMMWORD PTR [esi], xmm0
; File f:\program files (x86)\microsoft visual studio\2017\enterprise\vc\tools\msvc\14.11.25503\include\xstring

; 2201 : 		_My_data._Mysize = _Right_size;

  00033	89 5e 10	 mov	 DWORD PTR [esi+16], ebx
  00036	c7 46 14 0f 00
	00 00		 mov	 DWORD PTR [esi+20], 15	; 0000000fH

; 1926 : 		}

  0003d	5e		 pop	 esi
  0003e	5b		 pop	 ebx
  0003f	8b e5		 mov	 esp, ebp
  00041	5d		 pop	 ebp
  00042	c2 04 00	 ret	 4
$LN24@basic_stri:

; 2197 : 		const size_type _New_capacity = _Min_value(_Right_size | this->_ALLOC_MASK, max_size());

  00045	8b c3		 mov	 eax, ebx
  00047	b9 ff ff ff 7f	 mov	 ecx, 2147483647		; 7fffffffH
  0004c	83 c8 0f	 or	 eax, 15			; 0000000fH
  0004f	3b c1		 cmp	 eax, ecx
  00051	0f 47 c1	 cmova	 eax, ecx
  00054	89 45 fc	 mov	 DWORD PTR __New_capacity$1$[ebp], eax

; 2198 : 		const pointer _New_array = _Al.allocate(_New_capacity + 1); // throws

  00057	83 c0 01	 add	 eax, 1
; File f:\program files (x86)\microsoft visual studio\2017\enterprise\vc\tools\msvc\14.11.25503\include\xmemory0

; 52   : 	if (_Count == 0)

  0005a	75 04		 jne	 SHORT $LN81@basic_stri

; 53   : 		{
; 54   : 		return (_Ptr);

  0005c	33 d2		 xor	 edx, edx
  0005e	eb 3d		 jmp	 SHORT $LN80@basic_stri
$LN81@basic_stri:

; 55   : 		}
; 56   : 
; 57   : 	// check overflow of multiply
; 58   : 	if (static_cast<size_t>(-1) / _Sz < _Count)

  00060	32 c9		 xor	 cl, cl
  00062	74 06		 je	 SHORT $LN82@basic_stri

; 59   : 		{
; 60   : 		_Xbad_alloc();	// report no memory

  00064	ff 15 00 00 00
	00		 call	 DWORD PTR __imp_?_Xbad_alloc@std@@YAXXZ
$LN109@basic_stri:
$LN82@basic_stri:

; 61   : 		}
; 62   : 
; 63   : 	const size_t _User_size = _Count * _Sz;
; 64   : 
; 65   : #if defined(_M_IX86) || defined(_M_X64)
; 66   : 	if (_Try_aligned_allocation
; 67   : 		&& _BIG_ALLOCATION_THRESHOLD <= _User_size)

  0006a	3d 00 10 00 00	 cmp	 eax, 4096		; 00001000H
  0006f	72 21		 jb	 SHORT $LN83@basic_stri

; 68   : 		{	// allocate large block
; 69   : 		static_assert(sizeof(void *) < _BIG_ALLOCATION_ALIGNMENT,
; 70   : 			"Big allocations should at least match vector register size");
; 71   : 		const size_t _Block_size = _NON_USER_SIZE + _User_size;

  00071	8d 48 23	 lea	 ecx, DWORD PTR [eax+35]

; 72   : 		if (_Block_size <= _User_size)

  00074	3b c8		 cmp	 ecx, eax
  00076	77 06		 ja	 SHORT $LN84@basic_stri

; 73   : 			{
; 74   : 			_Xbad_alloc();	// report no memory

  00078	ff 15 00 00 00
	00		 call	 DWORD PTR __imp_?_Xbad_alloc@std@@YAXXZ
$LN110@basic_stri:
$LN84@basic_stri:

; 75   : 			}
; 76   : 
; 77   : 		const uintptr_t _Ptr_container =
; 78   : 			reinterpret_cast<uintptr_t>(::operator new(_Block_size));

  0007e	51		 push	 ecx
  0007f	e8 00 00 00 00	 call	 ??2@YAPAXI@Z		; operator new
  00084	83 c4 04	 add	 esp, 4

; 79   : 		_SCL_SECURE_ALWAYS_VALIDATE(_Ptr_container != 0);
; 80   : 		_Ptr = reinterpret_cast<void *>((_Ptr_container + _NON_USER_SIZE)

  00087	8d 50 23	 lea	 edx, DWORD PTR [eax+35]
  0008a	83 e2 e0	 and	 edx, -32		; ffffffe0H

; 81   : 			& ~(_BIG_ALLOCATION_ALIGNMENT - 1));
; 82   : 		static_cast<uintptr_t *>(_Ptr)[-1] = _Ptr_container;

  0008d	89 42 fc	 mov	 DWORD PTR [edx-4], eax

; 83   : 
; 84   :  #ifdef _DEBUG
; 85   : 		static_cast<uintptr_t *>(_Ptr)[-2] = _BIG_ALLOCATION_SENTINEL;
; 86   :  #endif /* _DEBUG */
; 87   :  		return (_Ptr);

  00090	eb 0b		 jmp	 SHORT $LN80@basic_stri
$LN83@basic_stri:

; 88   : 		}
; 89   : #else /* ^^^ x86/x64 hardware ^^^ // vvv ARM hardware vvv */
; 90   : 	(void)_Try_aligned_allocation;
; 91   : #endif /* defined(_M_IX86) || defined(_M_X64) */
; 92   : 
; 93   : 	_Ptr = ::operator new(_User_size);

  00092	50		 push	 eax
  00093	e8 00 00 00 00	 call	 ??2@YAPAXI@Z		; operator new
  00098	83 c4 04	 add	 esp, 4

; 94   : 	_SCL_SECURE_ALWAYS_VALIDATE(_Ptr != 0);
; 95   : 	return (_Ptr);

  0009b	8b d0		 mov	 edx, eax
$LN80@basic_stri:
; File f:\program files (x86)\microsoft visual studio\2017\enterprise\vc\tools\msvc\14.11.25503\include\xstring

; 2200 : 		_Traits::copy(_Unfancy(_New_array), _Right_ptr, _Right_size + 1);

  0009d	8d 4b 01	 lea	 ecx, DWORD PTR [ebx+1]
; File f:\program files (x86)\microsoft visual studio\2017\enterprise\vc\tools\msvc\14.11.25503\include\xmemory0

; 855  : 		::new (const_cast<void *>(static_cast<const volatile void *>(_Ptr)))

  000a0	89 16		 mov	 DWORD PTR [esi], edx
; File f:\program files (x86)\microsoft visual studio\2017\enterprise\vc\tools\msvc\14.11.25503\include\iosfwd

; 486  : 		return ((_Elem *)_CSTD memcpy(_First1, _First2, _Count));

  000a2	51		 push	 ecx
  000a3	57		 push	 edi
  000a4	52		 push	 edx
  000a5	e8 00 00 00 00	 call	 _memcpy
; File f:\program files (x86)\microsoft visual studio\2017\enterprise\vc\tools\msvc\14.11.25503\include\xstring

; 2202 : 		_My_data._Myres = _New_capacity;

  000aa	8b 45 fc	 mov	 eax, DWORD PTR __New_capacity$1$[ebp]
; File f:\program files (x86)\microsoft visual studio\2017\enterprise\vc\tools\msvc\14.11.25503\include\iosfwd

; 486  : 		return ((_Elem *)_CSTD memcpy(_First1, _First2, _Count));

  000ad	83 c4 0c	 add	 esp, 12			; 0000000cH
; File f:\program files (x86)\microsoft visual studio\2017\enterprise\vc\tools\msvc\14.11.25503\include\xstring

; 2202 : 		_My_data._Myres = _New_capacity;

  000b0	89 46 14	 mov	 DWORD PTR [esi+20], eax

; 1926 : 		}

  000b3	8b c6		 mov	 eax, esi

; 2201 : 		_My_data._Mysize = _Right_size;

  000b5	89 5e 10	 mov	 DWORD PTR [esi+16], ebx

; 1926 : 		}

  000b8	5f		 pop	 edi
  000b9	5e		 pop	 esi
  000ba	5b		 pop	 ebx
  000bb	8b e5		 mov	 esp, ebp
  000bd	5d		 pop	 ebp
  000be	c2 04 00	 ret	 4
$LN108@basic_stri:
??0?$basic_string@DU?$char_traits@D@std@@V?$allocator@D@2@@std@@QAE@ABV01@@Z ENDP ; std::basic_string<char,std::char_traits<char>,std::allocator<char> >::basic_string<char,std::char_traits<char>,std::allocator<char> >
_TEXT	ENDS
; Function compile flags: /Ogtp
; File f:\program files (x86)\microsoft visual studio\2017\enterprise\vc\tools\msvc\14.11.25503\include\xstring
;	COMDAT ?_Move_alloc@?$_String_alloc@U?$_String_base_types@DV?$allocator@D@std@@@std@@@std@@QAEXAAV?$allocator@D@2@@Z
_TEXT	SEGMENT
__Al$dead$ = 8						; size = 4
?_Move_alloc@?$_String_alloc@U?$_String_base_types@DV?$allocator@D@std@@@std@@@std@@QAEXAAV?$allocator@D@2@@Z PROC ; std::_String_alloc<std::_String_base_types<char,std::allocator<char> > >::_Move_alloc, COMDAT
; _this$dead$ = ecx

; 1720 : 		_Pocma(_Getal(), _Al);
; 1721 : 		}

  00000	c2 04 00	 ret	 4
?_Move_alloc@?$_String_alloc@U?$_String_base_types@DV?$allocator@D@std@@@std@@@std@@QAEXAAV?$allocator@D@2@@Z ENDP ; std::_String_alloc<std::_String_base_types<char,std::allocator<char> > >::_Move_alloc
_TEXT	ENDS
; Function compile flags: /Ogtp
; File f:\program files (x86)\microsoft visual studio\2017\enterprise\vc\tools\msvc\14.11.25503\include\xstring
; File f:\program files (x86)\microsoft visual studio\2017\enterprise\vc\tools\msvc\14.11.25503\include\xstddef
; File f:\program files (x86)\microsoft visual studio\2017\enterprise\vc\tools\msvc\14.11.25503\include\xstring
; File f:\program files (x86)\microsoft visual studio\2017\enterprise\vc\tools\msvc\14.11.25503\include\iosfwd
; File f:\program files (x86)\microsoft visual studio\2017\enterprise\vc\tools\msvc\14.11.25503\include\xstring
; File f:\program files (x86)\microsoft visual studio\2017\enterprise\vc\tools\msvc\14.11.25503\include\xmemory0
; File f:\program files (x86)\microsoft visual studio\2017\enterprise\vc\tools\msvc\14.11.25503\include\xstring
; File f:\program files (x86)\microsoft visual studio\2017\enterprise\vc\tools\msvc\14.11.25503\include\xmemory0
; File f:\program files (x86)\microsoft visual studio\2017\enterprise\vc\tools\msvc\14.11.25503\include\iosfwd
; File f:\program files (x86)\microsoft visual studio\2017\enterprise\vc\tools\msvc\14.11.25503\include\xstring
; File f:\program files (x86)\microsoft visual studio\2017\enterprise\vc\tools\msvc\14.11.25503\include\iosfwd
; File f:\program files (x86)\microsoft visual studio\2017\enterprise\vc\tools\msvc\14.11.25503\include\xstring
;	COMDAT ?_Construct_lv_contents@?$basic_string@DU?$char_traits@D@std@@V?$allocator@D@2@@std@@QAEXABV12@@Z
_TEXT	SEGMENT
__New_capacity$1$ = -4					; size = 4
__Right$ = 8						; size = 4
?_Construct_lv_contents@?$basic_string@DU?$char_traits@D@std@@V?$allocator@D@2@@std@@QAEXABV12@@Z PROC ; std::basic_string<char,std::char_traits<char>,std::allocator<char> >::_Construct_lv_contents, COMDAT
; _this$ = ecx

; 2181 : 		{	// assign by copying data stored in _Right

  00000	55		 push	 ebp
  00001	8b ec		 mov	 ebp, esp
  00003	51		 push	 ecx
  00004	53		 push	 ebx
  00005	56		 push	 esi
  00006	8b 75 08	 mov	 esi, DWORD PTR __Right$[ebp]
  00009	57		 push	 edi
  0000a	8b f9		 mov	 edi, ecx

; 1617 : 		return (_BUF_SIZE <= _Myres);

  0000c	83 7e 14 10	 cmp	 DWORD PTR [esi+20], 16	; 00000010H

; 2182 : 			// pre: this != &_Right
; 2183 : 			// pre: *this owns no memory, iterators orphaned (note: _Buf/_Ptr/_Mysize/_Myres may be garbage init)
; 2184 : 		auto& _My_data = this->_Get_data();
; 2185 : 		auto& _Right_data = _Right._Get_data();
; 2186 : 		const size_type _Right_size = _Right_data._Mysize;

  00010	8b 5e 10	 mov	 ebx, DWORD PTR [esi+16]

; 1607 : 		if (_Large_string_engaged())

  00013	72 02		 jb	 SHORT $LN17@Construct_
; File f:\program files (x86)\microsoft visual studio\2017\enterprise\vc\tools\msvc\14.11.25503\include\xstddef

; 265  : 	return (_Ptr);

  00015	8b 36		 mov	 esi, DWORD PTR [esi]
$LN17@Construct_:
; File f:\program files (x86)\microsoft visual studio\2017\enterprise\vc\tools\msvc\14.11.25503\include\xstring

; 2188 : 		if (_Right_size < this->_BUF_SIZE)

  00017	83 fb 10	 cmp	 ebx, 16			; 00000010H
  0001a	73 19		 jae	 SHORT $LN2@Construct_
; File f:\program files (x86)\microsoft visual studio\2017\enterprise\vc\tools\msvc\14.11.25503\include\iosfwd

; 486  : 		return ((_Elem *)_CSTD memcpy(_First1, _First2, _Count));

  0001c	0f 10 06	 movups	 xmm0, XMMWORD PTR [esi]
  0001f	0f 11 07	 movups	 XMMWORD PTR [edi], xmm0
; File f:\program files (x86)\microsoft visual studio\2017\enterprise\vc\tools\msvc\14.11.25503\include\xstring

; 2201 : 		_My_data._Mysize = _Right_size;

  00022	89 5f 10	 mov	 DWORD PTR [edi+16], ebx
  00025	c7 47 14 0f 00
	00 00		 mov	 DWORD PTR [edi+20], 15	; 0000000fH

; 2203 : 		}

  0002c	5f		 pop	 edi
  0002d	5e		 pop	 esi
  0002e	5b		 pop	 ebx
  0002f	8b e5		 mov	 esp, ebp
  00031	5d		 pop	 ebp
  00032	c2 04 00	 ret	 4
$LN2@Construct_:

; 2189 : 			{   // stay small, don't allocate
; 2190 : 			_Traits::copy(_My_data._Bx._Buf, _Right_ptr, this->_BUF_SIZE);
; 2191 : 			_My_data._Mysize = _Right_size;
; 2192 : 			_My_data._Myres = this->_BUF_SIZE - 1;
; 2193 : 			return;
; 2194 : 			}
; 2195 : 
; 2196 : 		auto& _Al = this->_Getal();
; 2197 : 		const size_type _New_capacity = _Min_value(_Right_size | this->_ALLOC_MASK, max_size());

  00035	8b c3		 mov	 eax, ebx
  00037	b9 ff ff ff 7f	 mov	 ecx, 2147483647		; 7fffffffH
  0003c	83 c8 0f	 or	 eax, 15			; 0000000fH
  0003f	3b c1		 cmp	 eax, ecx
  00041	0f 47 c1	 cmova	 eax, ecx
  00044	89 45 fc	 mov	 DWORD PTR __New_capacity$1$[ebp], eax

; 2198 : 		const pointer _New_array = _Al.allocate(_New_capacity + 1); // throws

  00047	83 c0 01	 add	 eax, 1
; File f:\program files (x86)\microsoft visual studio\2017\enterprise\vc\tools\msvc\14.11.25503\include\xmemory0

; 52   : 	if (_Count == 0)

  0004a	75 04		 jne	 SHORT $LN59@Construct_

; 53   : 		{
; 54   : 		return (_Ptr);

  0004c	33 d2		 xor	 edx, edx
  0004e	eb 3d		 jmp	 SHORT $LN58@Construct_
$LN59@Construct_:

; 55   : 		}
; 56   : 
; 57   : 	// check overflow of multiply
; 58   : 	if (static_cast<size_t>(-1) / _Sz < _Count)

  00050	32 c9		 xor	 cl, cl
  00052	74 06		 je	 SHORT $LN60@Construct_

; 59   : 		{
; 60   : 		_Xbad_alloc();	// report no memory

  00054	ff 15 00 00 00
	00		 call	 DWORD PTR __imp_?_Xbad_alloc@std@@YAXXZ
$LN86@Construct_:
$LN60@Construct_:

; 61   : 		}
; 62   : 
; 63   : 	const size_t _User_size = _Count * _Sz;
; 64   : 
; 65   : #if defined(_M_IX86) || defined(_M_X64)
; 66   : 	if (_Try_aligned_allocation
; 67   : 		&& _BIG_ALLOCATION_THRESHOLD <= _User_size)

  0005a	3d 00 10 00 00	 cmp	 eax, 4096		; 00001000H
  0005f	72 21		 jb	 SHORT $LN61@Construct_

; 68   : 		{	// allocate large block
; 69   : 		static_assert(sizeof(void *) < _BIG_ALLOCATION_ALIGNMENT,
; 70   : 			"Big allocations should at least match vector register size");
; 71   : 		const size_t _Block_size = _NON_USER_SIZE + _User_size;

  00061	8d 48 23	 lea	 ecx, DWORD PTR [eax+35]

; 72   : 		if (_Block_size <= _User_size)

  00064	3b c8		 cmp	 ecx, eax
  00066	77 06		 ja	 SHORT $LN62@Construct_

; 73   : 			{
; 74   : 			_Xbad_alloc();	// report no memory

  00068	ff 15 00 00 00
	00		 call	 DWORD PTR __imp_?_Xbad_alloc@std@@YAXXZ
$LN87@Construct_:
$LN62@Construct_:

; 75   : 			}
; 76   : 
; 77   : 		const uintptr_t _Ptr_container =
; 78   : 			reinterpret_cast<uintptr_t>(::operator new(_Block_size));

  0006e	51		 push	 ecx
  0006f	e8 00 00 00 00	 call	 ??2@YAPAXI@Z		; operator new
  00074	83 c4 04	 add	 esp, 4

; 79   : 		_SCL_SECURE_ALWAYS_VALIDATE(_Ptr_container != 0);
; 80   : 		_Ptr = reinterpret_cast<void *>((_Ptr_container + _NON_USER_SIZE)

  00077	8d 50 23	 lea	 edx, DWORD PTR [eax+35]
  0007a	83 e2 e0	 and	 edx, -32		; ffffffe0H

; 81   : 			& ~(_BIG_ALLOCATION_ALIGNMENT - 1));
; 82   : 		static_cast<uintptr_t *>(_Ptr)[-1] = _Ptr_container;

  0007d	89 42 fc	 mov	 DWORD PTR [edx-4], eax

; 83   : 
; 84   :  #ifdef _DEBUG
; 85   : 		static_cast<uintptr_t *>(_Ptr)[-2] = _BIG_ALLOCATION_SENTINEL;
; 86   :  #endif /* _DEBUG */
; 87   :  		return (_Ptr);

  00080	eb 0b		 jmp	 SHORT $LN58@Construct_
$LN61@Construct_:

; 88   : 		}
; 89   : #else /* ^^^ x86/x64 hardware ^^^ // vvv ARM hardware vvv */
; 90   : 	(void)_Try_aligned_allocation;
; 91   : #endif /* defined(_M_IX86) || defined(_M_X64) */
; 92   : 
; 93   : 	_Ptr = ::operator new(_User_size);

  00082	50		 push	 eax
  00083	e8 00 00 00 00	 call	 ??2@YAPAXI@Z		; operator new
  00088	83 c4 04	 add	 esp, 4

; 94   : 	_SCL_SECURE_ALWAYS_VALIDATE(_Ptr != 0);
; 95   : 	return (_Ptr);

  0008b	8b d0		 mov	 edx, eax
$LN58@Construct_:
; File f:\program files (x86)\microsoft visual studio\2017\enterprise\vc\tools\msvc\14.11.25503\include\xstring

; 2200 : 		_Traits::copy(_Unfancy(_New_array), _Right_ptr, _Right_size + 1);

  0008d	8d 4b 01	 lea	 ecx, DWORD PTR [ebx+1]
; File f:\program files (x86)\microsoft visual studio\2017\enterprise\vc\tools\msvc\14.11.25503\include\xmemory0

; 855  : 		::new (const_cast<void *>(static_cast<const volatile void *>(_Ptr)))

  00090	89 17		 mov	 DWORD PTR [edi], edx
; File f:\program files (x86)\microsoft visual studio\2017\enterprise\vc\tools\msvc\14.11.25503\include\iosfwd

; 486  : 		return ((_Elem *)_CSTD memcpy(_First1, _First2, _Count));

  00092	51		 push	 ecx
  00093	56		 push	 esi
  00094	52		 push	 edx
  00095	e8 00 00 00 00	 call	 _memcpy
; File f:\program files (x86)\microsoft visual studio\2017\enterprise\vc\tools\msvc\14.11.25503\include\xstring

; 2202 : 		_My_data._Myres = _New_capacity;

  0009a	8b 45 fc	 mov	 eax, DWORD PTR __New_capacity$1$[ebp]
; File f:\program files (x86)\microsoft visual studio\2017\enterprise\vc\tools\msvc\14.11.25503\include\iosfwd

; 486  : 		return ((_Elem *)_CSTD memcpy(_First1, _First2, _Count));

  0009d	83 c4 0c	 add	 esp, 12			; 0000000cH
; File f:\program files (x86)\microsoft visual studio\2017\enterprise\vc\tools\msvc\14.11.25503\include\xstring

; 2201 : 		_My_data._Mysize = _Right_size;

  000a0	89 5f 10	 mov	 DWORD PTR [edi+16], ebx

; 2202 : 		_My_data._Myres = _New_capacity;

  000a3	89 47 14	 mov	 DWORD PTR [edi+20], eax

; 2203 : 		}

  000a6	5f		 pop	 edi
  000a7	5e		 pop	 esi
  000a8	5b		 pop	 ebx
  000a9	8b e5		 mov	 esp, ebp
  000ab	5d		 pop	 ebp
  000ac	c2 04 00	 ret	 4
$LN85@Construct_:
?_Construct_lv_contents@?$basic_string@DU?$char_traits@D@std@@V?$allocator@D@2@@std@@QAEXABV12@@Z ENDP ; std::basic_string<char,std::char_traits<char>,std::allocator<char> >::_Construct_lv_contents
_TEXT	ENDS
; Function compile flags: /Ogtp
; File f:\program files (x86)\microsoft visual studio\2017\enterprise\vc\tools\msvc\14.11.25503\include\xstring
; File f:\program files (x86)\microsoft visual studio\2017\enterprise\vc\tools\msvc\14.11.25503\include\iosfwd
; File f:\program files (x86)\microsoft visual studio\2017\enterprise\vc\tools\msvc\14.11.25503\include\xstring
;	COMDAT ?_Assign_rv_contents_with_alloc_always_equal@?$basic_string@DU?$char_traits@D@std@@V?$allocator@D@2@@std@@QAEX$$QAV12@U?$integral_constant@_N$00@2@@Z
_TEXT	SEGMENT
__Right$ = 8						; size = 4
___formal$ = 12						; size = 1
?_Assign_rv_contents_with_alloc_always_equal@?$basic_string@DU?$char_traits@D@std@@V?$allocator@D@2@@std@@QAEX$$QAV12@U?$integral_constant@_N$00@2@@Z PROC ; std::basic_string<char,std::char_traits<char>,std::allocator<char> >::_Assign_rv_contents_with_alloc_always_equal, COMDAT
; _this$ = ecx

; 2131 : 		{	// assign by stealing _Right's buffer, memcpy optimization

  00000	55		 push	 ebp
  00001	8b ec		 mov	 ebp, esp

; 2132 : 			// pre: this != &_Right
; 2133 : 			// pre: allocator propagation (POCMA) from _Right, if necessary, is complete
; 2134 : 			// pre: *this owns no memory, iterators orphaned (note: _Buf/_Ptr/_Mysize/_Myres may be garbage init)
; 2135 : 		auto& _Right_data = _Right._Get_data();
; 2136 : 
; 2137 : #if _ITERATOR_DEBUG_LEVEL != 0
; 2138 : 		if (_Right_data._Large_string_engaged())
; 2139 : 			{	// take ownership of _Right's iterators along with its buffer
; 2140 : 			this->_Swap_all(_Right);
; 2141 : 			}
; 2142 : 		else
; 2143 : 			{
; 2144 : 			_Right._Orphan_all();
; 2145 : 			}
; 2146 : #endif /* _ITERATOR_DEBUG_LEVEL != 0 */
; 2147 : 
; 2148 : 		const auto _My_data_mem = reinterpret_cast<unsigned char *>(_STD addressof(this->_Get_data()))
; 2149 : 			+ _Memcpy_move_offset;
; 2150 : 		const auto _Right_data_mem = reinterpret_cast<unsigned char *>(_STD addressof(_Right_data))
; 2151 : 			+ _Memcpy_move_offset;
; 2152 : 		_CSTD memcpy(_My_data_mem, _Right_data_mem, _Memcpy_move_size);

  00003	8b 45 08	 mov	 eax, DWORD PTR __Right$[ebp]
  00006	0f 10 00	 movups	 xmm0, XMMWORD PTR [eax]
  00009	0f 11 01	 movups	 XMMWORD PTR [ecx], xmm0
  0000c	f3 0f 7e 40 10	 movq	 xmm0, QWORD PTR [eax+16]
  00011	66 0f d6 41 10	 movq	 QWORD PTR [ecx+16], xmm0

; 3698 : 		_My_data._Mysize = 0;

  00016	c7 40 10 00 00
	00 00		 mov	 DWORD PTR [eax+16], 0

; 3699 : 		_My_data._Myres = this->_BUF_SIZE - 1;

  0001d	c7 40 14 0f 00
	00 00		 mov	 DWORD PTR [eax+20], 15	; 0000000fH
; File f:\program files (x86)\microsoft visual studio\2017\enterprise\vc\tools\msvc\14.11.25503\include\iosfwd

; 517  : 		_Left = _Right;

  00024	c6 00 00	 mov	 BYTE PTR [eax], 0
; File f:\program files (x86)\microsoft visual studio\2017\enterprise\vc\tools\msvc\14.11.25503\include\xstring

; 2154 : 		}

  00027	5d		 pop	 ebp
  00028	c2 08 00	 ret	 8
?_Assign_rv_contents_with_alloc_always_equal@?$basic_string@DU?$char_traits@D@std@@V?$allocator@D@2@@std@@QAEX$$QAV12@U?$integral_constant@_N$00@2@@Z ENDP ; std::basic_string<char,std::char_traits<char>,std::allocator<char> >::_Assign_rv_contents_with_alloc_always_equal
_TEXT	ENDS
; Function compile flags: /Ogtp
; File f:\program files (x86)\microsoft visual studio\2017\enterprise\vc\tools\msvc\14.11.25503\include\xstring
; File f:\program files (x86)\microsoft visual studio\2017\enterprise\vc\tools\msvc\14.11.25503\include\iosfwd
; File f:\program files (x86)\microsoft visual studio\2017\enterprise\vc\tools\msvc\14.11.25503\include\xstring
;	COMDAT ?_Assign_rv_contents@?$basic_string@DU?$char_traits@D@std@@V?$allocator@D@2@@std@@QAEX$$QAV12@U?$integral_constant@_N$00@2@@Z
_TEXT	SEGMENT
__Right$ = 8						; size = 4
___formal$ = 12						; size = 1
?_Assign_rv_contents@?$basic_string@DU?$char_traits@D@std@@V?$allocator@D@2@@std@@QAEX$$QAV12@U?$integral_constant@_N$00@2@@Z PROC ; std::basic_string<char,std::char_traits<char>,std::allocator<char> >::_Assign_rv_contents, COMDAT
; _this$ = ecx

; 2108 : 		{	// assign either as an rvalue or as an lvalue copy, allocators always equal optimization

  00000	55		 push	 ebp
  00001	8b ec		 mov	 ebp, esp

; 2152 : 		_CSTD memcpy(_My_data_mem, _Right_data_mem, _Memcpy_move_size);

  00003	8b 45 08	 mov	 eax, DWORD PTR __Right$[ebp]
  00006	0f 10 00	 movups	 xmm0, XMMWORD PTR [eax]
  00009	0f 11 01	 movups	 XMMWORD PTR [ecx], xmm0
  0000c	f3 0f 7e 40 10	 movq	 xmm0, QWORD PTR [eax+16]
  00011	66 0f d6 41 10	 movq	 QWORD PTR [ecx+16], xmm0

; 3698 : 		_My_data._Mysize = 0;

  00016	c7 40 10 00 00
	00 00		 mov	 DWORD PTR [eax+16], 0

; 3699 : 		_My_data._Myres = this->_BUF_SIZE - 1;

  0001d	c7 40 14 0f 00
	00 00		 mov	 DWORD PTR [eax+20], 15	; 0000000fH
; File f:\program files (x86)\microsoft visual studio\2017\enterprise\vc\tools\msvc\14.11.25503\include\iosfwd

; 517  : 		_Left = _Right;

  00024	c6 00 00	 mov	 BYTE PTR [eax], 0
; File f:\program files (x86)\microsoft visual studio\2017\enterprise\vc\tools\msvc\14.11.25503\include\xstring

; 2113 : 		}

  00027	5d		 pop	 ebp
  00028	c2 08 00	 ret	 8
?_Assign_rv_contents@?$basic_string@DU?$char_traits@D@std@@V?$allocator@D@2@@std@@QAEX$$QAV12@U?$integral_constant@_N$00@2@@Z ENDP ; std::basic_string<char,std::char_traits<char>,std::allocator<char> >::_Assign_rv_contents
_TEXT	ENDS
; Function compile flags: /Ogtp
; File f:\program files (x86)\microsoft visual studio\2017\enterprise\vc\tools\msvc\14.11.25503\include\xstring
; File f:\program files (x86)\microsoft visual studio\2017\enterprise\vc\tools\msvc\14.11.25503\include\iosfwd
; File f:\program files (x86)\microsoft visual studio\2017\enterprise\vc\tools\msvc\14.11.25503\include\xstring
; File f:\program files (x86)\microsoft visual studio\2017\enterprise\vc\tools\msvc\14.11.25503\include\xstddef
; File f:\program files (x86)\microsoft visual studio\2017\enterprise\vc\tools\msvc\14.11.25503\include\xstring
; File f:\program files (x86)\microsoft visual studio\2017\enterprise\vc\tools\msvc\14.11.25503\include\xstddef
; File f:\program files (x86)\microsoft visual studio\2017\enterprise\vc\tools\msvc\14.11.25503\include\iosfwd
; File f:\program files (x86)\microsoft visual studio\2017\enterprise\vc\tools\msvc\14.11.25503\include\xstring
; File f:\program files (x86)\microsoft visual studio\2017\enterprise\vc\tools\msvc\14.11.25503\include\iosfwd
; File f:\program files (x86)\microsoft visual studio\2017\enterprise\vc\tools\msvc\14.11.25503\include\xstring
; File f:\program files (x86)\microsoft visual studio\2017\enterprise\vc\tools\msvc\14.11.25503\include\iosfwd
; File f:\program files (x86)\microsoft visual studio\2017\enterprise\vc\tools\msvc\14.11.25503\include\xstring
;	COMDAT ??$?HDU?$char_traits@D@std@@V?$allocator@D@1@@std@@YA?AV?$basic_string@DU?$char_traits@D@std@@V?$allocator@D@2@@0@$$QAV10@0@Z
_TEXT	SEGMENT
___$ReturnUdt$ = -4					; size = 4
__Count$1$ = 8						; size = 4
$T24 = 8						; size = 1
__Right$ = 8						; size = 4
??$?HDU?$char_traits@D@std@@V?$allocator@D@1@@std@@YA?AV?$basic_string@DU?$char_traits@D@std@@V?$allocator@D@2@@0@$$QAV10@0@Z PROC ; std::operator+<char,std::char_traits<char>,std::allocator<char> >, COMDAT
; ___$ReturnUdt$ = ecx
; __Left$ = edx

; 3849 : 	{	// return string + string

  00000	55		 push	 ebp
  00001	8b ec		 mov	 ebp, esp
  00003	51		 push	 ecx
  00004	53		 push	 ebx
  00005	56		 push	 esi
  00006	57		 push	 edi
  00007	8b fa		 mov	 edi, edx
  00009	8b d9		 mov	 ebx, ecx

; 3850 : 	if (_Right.size() <= _Left.capacity() - _Left.size()
; 3851 : 		|| _Right.capacity() - _Right.size() < _Left.size())

  0000b	8b 55 08	 mov	 edx, DWORD PTR __Right$[ebp]
  0000e	89 5d fc	 mov	 DWORD PTR ___$ReturnUdt$[ebp], ebx
  00011	8b 47 14	 mov	 eax, DWORD PTR [edi+20]
  00014	8b 77 10	 mov	 esi, DWORD PTR [edi+16]
  00017	2b c6		 sub	 eax, esi
  00019	8b 4a 10	 mov	 ecx, DWORD PTR [edx+16]
  0001c	89 4d 08	 mov	 DWORD PTR __Count$1$[ebp], ecx
  0001f	3b c8		 cmp	 ecx, eax
  00021	76 4a		 jbe	 SHORT $LN4@operator
  00023	8b 42 14	 mov	 eax, DWORD PTR [edx+20]
  00026	2b c1		 sub	 eax, ecx
  00028	3b c6		 cmp	 eax, esi
  0002a	72 41		 jb	 SHORT $LN4@operator

; 3853 : 	else
; 3854 : 		return (_STD move(_Right.insert(0, _Left)));

  0002c	57		 push	 edi
  0002d	51		 push	 ecx
  0002e	8b ca		 mov	 ecx, edx
  00030	e8 00 00 00 00	 call	 ?insert@?$basic_string@DU?$char_traits@D@std@@V?$allocator@D@2@@std@@QAEAAV12@IABV12@@Z ; std::basic_string<char,std::char_traits<char>,std::allocator<char> >::insert

; 1576 : 		_Mysize(0),

  00035	c7 43 10 00 00
	00 00		 mov	 DWORD PTR [ebx+16], 0

; 1577 : 		_Myres(0)

  0003c	c7 43 14 00 00
	00 00		 mov	 DWORD PTR [ebx+20], 0

; 3855 : 	}

  00043	5f		 pop	 edi

; 2152 : 		_CSTD memcpy(_My_data_mem, _Right_data_mem, _Memcpy_move_size);

  00044	0f 10 00	 movups	 xmm0, XMMWORD PTR [eax]

; 3855 : 	}

  00047	5e		 pop	 esi

; 2152 : 		_CSTD memcpy(_My_data_mem, _Right_data_mem, _Memcpy_move_size);

  00048	0f 11 03	 movups	 XMMWORD PTR [ebx], xmm0
  0004b	f3 0f 7e 40 10	 movq	 xmm0, QWORD PTR [eax+16]
  00050	66 0f d6 43 10	 movq	 QWORD PTR [ebx+16], xmm0

; 3698 : 		_My_data._Mysize = 0;

  00055	c7 40 10 00 00
	00 00		 mov	 DWORD PTR [eax+16], 0

; 3699 : 		_My_data._Myres = this->_BUF_SIZE - 1;

  0005c	c7 40 14 0f 00
	00 00		 mov	 DWORD PTR [eax+20], 15	; 0000000fH
; File f:\program files (x86)\microsoft visual studio\2017\enterprise\vc\tools\msvc\14.11.25503\include\iosfwd

; 517  : 		_Left = _Right;

  00063	c6 00 00	 mov	 BYTE PTR [eax], 0
; File f:\program files (x86)\microsoft visual studio\2017\enterprise\vc\tools\msvc\14.11.25503\include\xstring

; 3852 : 		return (_STD move(_Left.append(_Right)));

  00066	8b c3		 mov	 eax, ebx

; 3855 : 	}

  00068	5b		 pop	 ebx
  00069	8b e5		 mov	 esp, ebp
  0006b	5d		 pop	 ebp
  0006c	c3		 ret	 0
$LN4@operator:

; 1617 : 		return (_BUF_SIZE <= _Myres);

  0006d	83 7a 14 10	 cmp	 DWORD PTR [edx+20], 16	; 00000010H

; 1607 : 		if (_Large_string_engaged())

  00071	72 02		 jb	 SHORT $LN71@operator
; File f:\program files (x86)\microsoft visual studio\2017\enterprise\vc\tools\msvc\14.11.25503\include\xstddef

; 265  : 	return (_Ptr);

  00073	8b 12		 mov	 edx, DWORD PTR [edx]
$LN71@operator:
; File f:\program files (x86)\microsoft visual studio\2017\enterprise\vc\tools\msvc\14.11.25503\include\xstring

; 2351 : 		if (_Count <= _My_data._Myres - _Old_size)

  00075	8b 47 14	 mov	 eax, DWORD PTR [edi+20]
  00078	2b c6		 sub	 eax, esi
  0007a	3b c8		 cmp	 ecx, eax
  0007c	77 27		 ja	 SHORT $LN78@operator

; 2352 : 			{
; 2353 : 			_My_data._Mysize = _Old_size + _Count;

  0007e	8d 04 0e	 lea	 eax, DWORD PTR [esi+ecx]
  00081	89 47 10	 mov	 DWORD PTR [edi+16], eax

; 1595 : 		value_type * _Result = _Bx._Buf;

  00084	8b c7		 mov	 eax, edi

; 1617 : 		return (_BUF_SIZE <= _Myres);

  00086	83 7f 14 10	 cmp	 DWORD PTR [edi+20], 16	; 00000010H

; 1596 : 		if (_Large_string_engaged())

  0008a	72 02		 jb	 SHORT $LN87@operator
; File f:\program files (x86)\microsoft visual studio\2017\enterprise\vc\tools\msvc\14.11.25503\include\xstddef

; 265  : 	return (_Ptr);

  0008c	8b 07		 mov	 eax, DWORD PTR [edi]
$LN87@operator:
; File f:\program files (x86)\microsoft visual studio\2017\enterprise\vc\tools\msvc\14.11.25503\include\iosfwd

; 506  : 		return ((_Elem *)_CSTD memmove(_First1, _First2, _Count));

  0008e	51		 push	 ecx
; File f:\program files (x86)\microsoft visual studio\2017\enterprise\vc\tools\msvc\14.11.25503\include\xstring

; 2355 : 			_Traits::move(_Old_ptr + _Old_size, _Ptr, _Count);

  0008f	03 f0		 add	 esi, eax
; File f:\program files (x86)\microsoft visual studio\2017\enterprise\vc\tools\msvc\14.11.25503\include\iosfwd

; 506  : 		return ((_Elem *)_CSTD memmove(_First1, _First2, _Count));

  00091	52		 push	 edx
  00092	56		 push	 esi
  00093	ff 15 00 00 00
	00		 call	 DWORD PTR __imp__memmove

; 517  : 		_Left = _Right;

  00099	8b 45 08	 mov	 eax, DWORD PTR __Count$1$[ebp]

; 506  : 		return ((_Elem *)_CSTD memmove(_First1, _First2, _Count));

  0009c	83 c4 0c	 add	 esp, 12			; 0000000cH

; 517  : 		_Left = _Right;

  0009f	c6 04 06 00	 mov	 BYTE PTR [esi+eax], 0
; File f:\program files (x86)\microsoft visual studio\2017\enterprise\vc\tools\msvc\14.11.25503\include\xstring

; 2357 : 			return (*this);

  000a3	eb 13		 jmp	 SHORT $LN77@operator
$LN78@operator:

; 2358 : 			}
; 2359 : 
; 2360 : 		return (_Reallocate_grow_by(_Count,

  000a5	51		 push	 ecx
  000a6	52		 push	 edx
  000a7	c6 45 08 00	 mov	 BYTE PTR $T24[ebp], 0
  000ab	ff 75 08	 push	 DWORD PTR $T24[ebp]
  000ae	51		 push	 ecx
  000af	8b cf		 mov	 ecx, edi
  000b1	e8 00 00 00 00	 call	 ??$_Reallocate_grow_by@V<lambda_ab246b20b9526e2ef7792587e4298a77>@@PBDI@?$basic_string@DU?$char_traits@D@std@@V?$allocator@D@2@@std@@QAEAAV01@IV<lambda_ab246b20b9526e2ef7792587e4298a77>@@PBDI@Z ; std::basic_string<char,std::char_traits<char>,std::allocator<char> >::_Reallocate_grow_by<<lambda_ab246b20b9526e2ef7792587e4298a77>,char const *,unsigned int>
  000b6	8b f8		 mov	 edi, eax
$LN77@operator:

; 1576 : 		_Mysize(0),

  000b8	c7 43 10 00 00
	00 00		 mov	 DWORD PTR [ebx+16], 0

; 3852 : 		return (_STD move(_Left.append(_Right)));

  000bf	8b c3		 mov	 eax, ebx

; 1577 : 		_Myres(0)

  000c1	c7 43 14 00 00
	00 00		 mov	 DWORD PTR [ebx+20], 0

; 2152 : 		_CSTD memcpy(_My_data_mem, _Right_data_mem, _Memcpy_move_size);

  000c8	0f 10 07	 movups	 xmm0, XMMWORD PTR [edi]
  000cb	0f 11 03	 movups	 XMMWORD PTR [ebx], xmm0
  000ce	f3 0f 7e 47 10	 movq	 xmm0, QWORD PTR [edi+16]
  000d3	66 0f d6 43 10	 movq	 QWORD PTR [ebx+16], xmm0

; 3698 : 		_My_data._Mysize = 0;

  000d8	c7 47 10 00 00
	00 00		 mov	 DWORD PTR [edi+16], 0

; 3699 : 		_My_data._Myres = this->_BUF_SIZE - 1;

  000df	c7 47 14 0f 00
	00 00		 mov	 DWORD PTR [edi+20], 15	; 0000000fH
; File f:\program files (x86)\microsoft visual studio\2017\enterprise\vc\tools\msvc\14.11.25503\include\iosfwd

; 517  : 		_Left = _Right;

  000e6	c6 07 00	 mov	 BYTE PTR [edi], 0
; File f:\program files (x86)\microsoft visual studio\2017\enterprise\vc\tools\msvc\14.11.25503\include\xstring

; 3855 : 	}

  000e9	5f		 pop	 edi
  000ea	5e		 pop	 esi
  000eb	5b		 pop	 ebx
  000ec	8b e5		 mov	 esp, ebp
  000ee	5d		 pop	 ebp
  000ef	c3		 ret	 0
??$?HDU?$char_traits@D@std@@V?$allocator@D@1@@std@@YA?AV?$basic_string@DU?$char_traits@D@std@@V?$allocator@D@2@@0@$$QAV10@0@Z ENDP ; std::operator+<char,std::char_traits<char>,std::allocator<char> >
_TEXT	ENDS
; Function compile flags: /Ogtp
; File f:\program files (x86)\microsoft visual studio\2017\enterprise\vc\tools\msvc\14.11.25503\include\xstring
; File f:\program files (x86)\microsoft visual studio\2017\enterprise\vc\tools\msvc\14.11.25503\include\iosfwd
; File f:\program files (x86)\microsoft visual studio\2017\enterprise\vc\tools\msvc\14.11.25503\include\xstring
; File f:\program files (x86)\microsoft visual studio\2017\enterprise\vc\tools\msvc\14.11.25503\include\xstddef
; File f:\program files (x86)\microsoft visual studio\2017\enterprise\vc\tools\msvc\14.11.25503\include\xstring
; File f:\program files (x86)\microsoft visual studio\2017\enterprise\vc\tools\msvc\14.11.25503\include\xstddef
; File f:\program files (x86)\microsoft visual studio\2017\enterprise\vc\tools\msvc\14.11.25503\include\iosfwd
; File f:\program files (x86)\microsoft visual studio\2017\enterprise\vc\tools\msvc\14.11.25503\include\xstring
; File f:\program files (x86)\microsoft visual studio\2017\enterprise\vc\tools\msvc\14.11.25503\include\iosfwd
; File f:\program files (x86)\microsoft visual studio\2017\enterprise\vc\tools\msvc\14.11.25503\include\xstring
; File f:\program files (x86)\microsoft visual studio\2017\enterprise\vc\tools\msvc\14.11.25503\include\xstddef
; File f:\program files (x86)\microsoft visual studio\2017\enterprise\vc\tools\msvc\14.11.25503\include\xstring
; File f:\program files (x86)\microsoft visual studio\2017\enterprise\vc\tools\msvc\14.11.25503\include\xstddef
; File f:\program files (x86)\microsoft visual studio\2017\enterprise\vc\tools\msvc\14.11.25503\include\iosfwd
; File f:\program files (x86)\microsoft visual studio\2017\enterprise\vc\tools\msvc\14.11.25503\include\xstring
; File f:\program files (x86)\microsoft visual studio\2017\enterprise\vc\tools\msvc\14.11.25503\include\iosfwd
; File f:\program files (x86)\microsoft visual studio\2017\enterprise\vc\tools\msvc\14.11.25503\include\xstring
;	COMDAT ??$?HDU?$char_traits@D@std@@V?$allocator@D@1@@std@@YA?AV?$basic_string@DU?$char_traits@D@std@@V?$allocator@D@2@@0@ABV10@0@Z
_TEXT	SEGMENT
___$ReturnUdt$ = -28					; size = 4
tv589 = -24						; size = 4
__Count$1$ = -20					; size = 4
$T14 = -20						; size = 1
$T1 = -16						; size = 4
__$EHRec$ = -12						; size = 12
$T19 = 8						; size = 1
__Right$ = 8						; size = 4
??$?HDU?$char_traits@D@std@@V?$allocator@D@1@@std@@YA?AV?$basic_string@DU?$char_traits@D@std@@V?$allocator@D@2@@0@ABV10@0@Z PROC ; std::operator+<char,std::char_traits<char>,std::allocator<char> >, COMDAT
; ___$ReturnUdt$ = ecx
; __Left$ = edx

; 3755 : 	{	// return string + string

  00000	55		 push	 ebp
  00001	8b ec		 mov	 ebp, esp
  00003	6a ff		 push	 -1
  00005	68 00 00 00 00	 push	 __ehhandler$??$?HDU?$char_traits@D@std@@V?$allocator@D@1@@std@@YA?AV?$basic_string@DU?$char_traits@D@std@@V?$allocator@D@2@@0@ABV10@0@Z
  0000a	64 a1 00 00 00
	00		 mov	 eax, DWORD PTR fs:0
  00010	50		 push	 eax
  00011	83 ec 10	 sub	 esp, 16			; 00000010H
  00014	53		 push	 ebx
  00015	56		 push	 esi
  00016	57		 push	 edi
  00017	a1 00 00 00 00	 mov	 eax, DWORD PTR ___security_cookie
  0001c	33 c5		 xor	 eax, ebp
  0001e	50		 push	 eax
  0001f	8d 45 f4	 lea	 eax, DWORD PTR __$EHRec$[ebp]
  00022	64 a3 00 00 00
	00		 mov	 DWORD PTR fs:0, eax
  00028	8b da		 mov	 ebx, edx
  0002a	8b f9		 mov	 edi, ecx
  0002c	89 7d e4	 mov	 DWORD PTR ___$ReturnUdt$[ebp], edi
  0002f	c7 45 f0 00 00
	00 00		 mov	 DWORD PTR $T1[ebp], 0

; 3698 : 		_My_data._Mysize = 0;

  00036	c7 47 10 00 00
	00 00		 mov	 DWORD PTR [edi+16], 0

; 3699 : 		_My_data._Myres = this->_BUF_SIZE - 1;

  0003d	c7 47 14 0f 00
	00 00		 mov	 DWORD PTR [edi+20], 15	; 0000000fH
; File f:\program files (x86)\microsoft visual studio\2017\enterprise\vc\tools\msvc\14.11.25503\include\iosfwd

; 517  : 		_Left = _Right;

  00044	c6 07 00	 mov	 BYTE PTR [edi], 0
; File f:\program files (x86)\microsoft visual studio\2017\enterprise\vc\tools\msvc\14.11.25503\include\xstring

; 3760 : 	return (_Ans);

  00047	c7 45 fc 00 00
	00 00		 mov	 DWORD PTR __$EHRec$[ebp+8], 0

; 3062 : 		return (this->_Get_data()._Mysize);

  0004e	8d 73 10	 lea	 esi, DWORD PTR [ebx+16]
  00051	8b 45 08	 mov	 eax, DWORD PTR __Right$[ebp]
  00054	83 c0 10	 add	 eax, 16			; 00000010H
  00057	c7 45 f0 01 00
	00 00		 mov	 DWORD PTR $T1[ebp], 1
  0005e	89 45 e8	 mov	 DWORD PTR tv589[ebp], eax

; 3756 : 	basic_string<_Elem, _Traits, _Alloc> _Ans;
; 3757 : 	_Ans.reserve(_Left.size() + _Right.size());

  00061	8b 00		 mov	 eax, DWORD PTR [eax]
  00063	03 06		 add	 eax, DWORD PTR [esi]
  00065	50		 push	 eax
  00066	e8 00 00 00 00	 call	 ?reserve@?$basic_string@DU?$char_traits@D@std@@V?$allocator@D@2@@std@@QAEXI@Z ; std::basic_string<char,std::char_traits<char>,std::allocator<char> >::reserve

; 1617 : 		return (_BUF_SIZE <= _Myres);

  0006b	83 7b 14 10	 cmp	 DWORD PTR [ebx+20], 16	; 00000010H

; 1607 : 		if (_Large_string_engaged())

  0006f	72 02		 jb	 SHORT $LN57@operator
; File f:\program files (x86)\microsoft visual studio\2017\enterprise\vc\tools\msvc\14.11.25503\include\xstddef

; 265  : 	return (_Ptr);

  00071	8b 1b		 mov	 ebx, DWORD PTR [ebx]
$LN57@operator:
; File f:\program files (x86)\microsoft visual studio\2017\enterprise\vc\tools\msvc\14.11.25503\include\xstring

; 2321 : 		return (append(_Right_data._Myptr(), _Right_data._Mysize));

  00073	8b 0e		 mov	 ecx, DWORD PTR [esi]

; 2351 : 		if (_Count <= _My_data._Myres - _Old_size)

  00075	8b 77 14	 mov	 esi, DWORD PTR [edi+20]
  00078	8b c6		 mov	 eax, esi
  0007a	8b 57 10	 mov	 edx, DWORD PTR [edi+16]
  0007d	2b c2		 sub	 eax, edx

; 2321 : 		return (append(_Right_data._Myptr(), _Right_data._Mysize));

  0007f	89 4d ec	 mov	 DWORD PTR __Count$1$[ebp], ecx

; 2351 : 		if (_Count <= _My_data._Myres - _Old_size)

  00082	3b c8		 cmp	 ecx, eax
  00084	77 27		 ja	 SHORT $LN64@operator

; 2352 : 			{
; 2353 : 			_My_data._Mysize = _Old_size + _Count;

  00086	8d 04 0a	 lea	 eax, DWORD PTR [edx+ecx]
  00089	89 47 10	 mov	 DWORD PTR [edi+16], eax

; 1595 : 		value_type * _Result = _Bx._Buf;

  0008c	8b c7		 mov	 eax, edi

; 1617 : 		return (_BUF_SIZE <= _Myres);

  0008e	83 fe 10	 cmp	 esi, 16			; 00000010H

; 1596 : 		if (_Large_string_engaged())

  00091	72 02		 jb	 SHORT $LN73@operator
; File f:\program files (x86)\microsoft visual studio\2017\enterprise\vc\tools\msvc\14.11.25503\include\xstddef

; 265  : 	return (_Ptr);

  00093	8b 07		 mov	 eax, DWORD PTR [edi]
$LN73@operator:
; File f:\program files (x86)\microsoft visual studio\2017\enterprise\vc\tools\msvc\14.11.25503\include\iosfwd

; 506  : 		return ((_Elem *)_CSTD memmove(_First1, _First2, _Count));

  00095	51		 push	 ecx
; File f:\program files (x86)\microsoft visual studio\2017\enterprise\vc\tools\msvc\14.11.25503\include\xstring

; 2355 : 			_Traits::move(_Old_ptr + _Old_size, _Ptr, _Count);

  00096	8d 34 10	 lea	 esi, DWORD PTR [eax+edx]
; File f:\program files (x86)\microsoft visual studio\2017\enterprise\vc\tools\msvc\14.11.25503\include\iosfwd

; 506  : 		return ((_Elem *)_CSTD memmove(_First1, _First2, _Count));

  00099	53		 push	 ebx
  0009a	56		 push	 esi
  0009b	ff 15 00 00 00
	00		 call	 DWORD PTR __imp__memmove

; 517  : 		_Left = _Right;

  000a1	8b 45 ec	 mov	 eax, DWORD PTR __Count$1$[ebp]

; 506  : 		return ((_Elem *)_CSTD memmove(_First1, _First2, _Count));

  000a4	83 c4 0c	 add	 esp, 12			; 0000000cH

; 517  : 		_Left = _Right;

  000a7	c6 04 06 00	 mov	 BYTE PTR [esi+eax], 0
; File f:\program files (x86)\microsoft visual studio\2017\enterprise\vc\tools\msvc\14.11.25503\include\xstring

; 2357 : 			return (*this);

  000ab	eb 11		 jmp	 SHORT $LN63@operator
$LN64@operator:

; 2358 : 			}
; 2359 : 
; 2360 : 		return (_Reallocate_grow_by(_Count,

  000ad	51		 push	 ecx
  000ae	53		 push	 ebx
  000af	c6 45 ec 00	 mov	 BYTE PTR $T14[ebp], 0
  000b3	ff 75 ec	 push	 DWORD PTR $T14[ebp]
  000b6	51		 push	 ecx
  000b7	8b cf		 mov	 ecx, edi
  000b9	e8 00 00 00 00	 call	 ??$_Reallocate_grow_by@V<lambda_ab246b20b9526e2ef7792587e4298a77>@@PBDI@?$basic_string@DU?$char_traits@D@std@@V?$allocator@D@2@@std@@QAEAAV01@IV<lambda_ab246b20b9526e2ef7792587e4298a77>@@PBDI@Z ; std::basic_string<char,std::char_traits<char>,std::allocator<char> >::_Reallocate_grow_by<<lambda_ab246b20b9526e2ef7792587e4298a77>,char const *,unsigned int>
$LN63@operator:

; 1617 : 		return (_BUF_SIZE <= _Myres);

  000be	8b 4d 08	 mov	 ecx, DWORD PTR __Right$[ebp]
  000c1	83 79 14 10	 cmp	 DWORD PTR [ecx+20], 16	; 00000010H

; 1607 : 		if (_Large_string_engaged())

  000c5	72 02		 jb	 SHORT $LN96@operator
; File f:\program files (x86)\microsoft visual studio\2017\enterprise\vc\tools\msvc\14.11.25503\include\xstddef

; 265  : 	return (_Ptr);

  000c7	8b 09		 mov	 ecx, DWORD PTR [ecx]
$LN96@operator:
; File f:\program files (x86)\microsoft visual studio\2017\enterprise\vc\tools\msvc\14.11.25503\include\xstring

; 2321 : 		return (append(_Right_data._Myptr(), _Right_data._Mysize));

  000c9	8b 5d e8	 mov	 ebx, DWORD PTR tv589[ebp]

; 2351 : 		if (_Count <= _My_data._Myres - _Old_size)

  000cc	8b 77 14	 mov	 esi, DWORD PTR [edi+20]
  000cf	8b c6		 mov	 eax, esi
  000d1	8b 57 10	 mov	 edx, DWORD PTR [edi+16]
  000d4	2b c2		 sub	 eax, edx

; 2321 : 		return (append(_Right_data._Myptr(), _Right_data._Mysize));

  000d6	8b 1b		 mov	 ebx, DWORD PTR [ebx]

; 2351 : 		if (_Count <= _My_data._Myres - _Old_size)

  000d8	3b d8		 cmp	 ebx, eax
  000da	77 36		 ja	 SHORT $LN103@operator

; 2352 : 			{
; 2353 : 			_My_data._Mysize = _Old_size + _Count;

  000dc	8d 04 1a	 lea	 eax, DWORD PTR [edx+ebx]
  000df	89 47 10	 mov	 DWORD PTR [edi+16], eax

; 1595 : 		value_type * _Result = _Bx._Buf;

  000e2	8b c7		 mov	 eax, edi

; 1617 : 		return (_BUF_SIZE <= _Myres);

  000e4	83 fe 10	 cmp	 esi, 16			; 00000010H

; 1596 : 		if (_Large_string_engaged())

  000e7	72 02		 jb	 SHORT $LN112@operator
; File f:\program files (x86)\microsoft visual studio\2017\enterprise\vc\tools\msvc\14.11.25503\include\xstddef

; 265  : 	return (_Ptr);

  000e9	8b 07		 mov	 eax, DWORD PTR [edi]
$LN112@operator:
; File f:\program files (x86)\microsoft visual studio\2017\enterprise\vc\tools\msvc\14.11.25503\include\iosfwd

; 506  : 		return ((_Elem *)_CSTD memmove(_First1, _First2, _Count));

  000eb	53		 push	 ebx
; File f:\program files (x86)\microsoft visual studio\2017\enterprise\vc\tools\msvc\14.11.25503\include\xstring

; 2355 : 			_Traits::move(_Old_ptr + _Old_size, _Ptr, _Count);

  000ec	8d 34 10	 lea	 esi, DWORD PTR [eax+edx]
; File f:\program files (x86)\microsoft visual studio\2017\enterprise\vc\tools\msvc\14.11.25503\include\iosfwd

; 506  : 		return ((_Elem *)_CSTD memmove(_First1, _First2, _Count));

  000ef	51		 push	 ecx
  000f0	56		 push	 esi
  000f1	ff 15 00 00 00
	00		 call	 DWORD PTR __imp__memmove
  000f7	83 c4 0c	 add	 esp, 12			; 0000000cH

; 517  : 		_Left = _Right;

  000fa	c6 04 1e 00	 mov	 BYTE PTR [esi+ebx], 0
; File f:\program files (x86)\microsoft visual studio\2017\enterprise\vc\tools\msvc\14.11.25503\include\xstring

; 3760 : 	return (_Ans);

  000fe	8b c7		 mov	 eax, edi

; 3761 : 	}

  00100	8b 4d f4	 mov	 ecx, DWORD PTR __$EHRec$[ebp]
  00103	64 89 0d 00 00
	00 00		 mov	 DWORD PTR fs:0, ecx
  0010a	59		 pop	 ecx
  0010b	5f		 pop	 edi
  0010c	5e		 pop	 esi
  0010d	5b		 pop	 ebx
  0010e	8b e5		 mov	 esp, ebp
  00110	5d		 pop	 ebp
  00111	c3		 ret	 0
$LN103@operator:

; 2360 : 		return (_Reallocate_grow_by(_Count,

  00112	53		 push	 ebx
  00113	51		 push	 ecx
  00114	c6 45 08 00	 mov	 BYTE PTR $T19[ebp], 0
  00118	8b cf		 mov	 ecx, edi
  0011a	ff 75 08	 push	 DWORD PTR $T19[ebp]
  0011d	53		 push	 ebx
  0011e	e8 00 00 00 00	 call	 ??$_Reallocate_grow_by@V<lambda_ab246b20b9526e2ef7792587e4298a77>@@PBDI@?$basic_string@DU?$char_traits@D@std@@V?$allocator@D@2@@std@@QAEAAV01@IV<lambda_ab246b20b9526e2ef7792587e4298a77>@@PBDI@Z ; std::basic_string<char,std::char_traits<char>,std::allocator<char> >::_Reallocate_grow_by<<lambda_ab246b20b9526e2ef7792587e4298a77>,char const *,unsigned int>

; 3760 : 	return (_Ans);

  00123	8b c7		 mov	 eax, edi

; 3761 : 	}

  00125	8b 4d f4	 mov	 ecx, DWORD PTR __$EHRec$[ebp]
  00128	64 89 0d 00 00
	00 00		 mov	 DWORD PTR fs:0, ecx
  0012f	59		 pop	 ecx
  00130	5f		 pop	 edi
  00131	5e		 pop	 esi
  00132	5b		 pop	 ebx
  00133	8b e5		 mov	 esp, ebp
  00135	5d		 pop	 ebp
  00136	c3		 ret	 0
_TEXT	ENDS
;	COMDAT text$x
text$x	SEGMENT
__unwindfunclet$??$?HDU?$char_traits@D@std@@V?$allocator@D@1@@std@@YA?AV?$basic_string@DU?$char_traits@D@std@@V?$allocator@D@2@@0@ABV10@0@Z$0:
  00000	8b 45 f0	 mov	 eax, DWORD PTR $T1[ebp]
  00003	83 e0 01	 and	 eax, 1
  00006	0f 84 0c 00 00
	00		 je	 $LN4@operator
  0000c	83 65 f0 fe	 and	 DWORD PTR $T1[ebp], -2	; fffffffeH
  00010	8b 4d e4	 mov	 ecx, DWORD PTR ___$ReturnUdt$[ebp]
  00013	e9 00 00 00 00	 jmp	 ??1?$basic_string@DU?$char_traits@D@std@@V?$allocator@D@2@@std@@QAE@XZ ; std::basic_string<char,std::char_traits<char>,std::allocator<char> >::~basic_string<char,std::char_traits<char>,std::allocator<char> >
$LN4@operator:
  00018	c3		 ret	 0
__ehhandler$??$?HDU?$char_traits@D@std@@V?$allocator@D@1@@std@@YA?AV?$basic_string@DU?$char_traits@D@std@@V?$allocator@D@2@@0@ABV10@0@Z:
  00019	8b 54 24 08	 mov	 edx, DWORD PTR [esp+8]
  0001d	8d 42 0c	 lea	 eax, DWORD PTR [edx+12]
  00020	8b 4a e0	 mov	 ecx, DWORD PTR [edx-32]
  00023	33 c8		 xor	 ecx, eax
  00025	e8 00 00 00 00	 call	 @__security_check_cookie@4
  0002a	b8 00 00 00 00	 mov	 eax, OFFSET __ehfuncinfo$??$?HDU?$char_traits@D@std@@V?$allocator@D@1@@std@@YA?AV?$basic_string@DU?$char_traits@D@std@@V?$allocator@D@2@@0@ABV10@0@Z
  0002f	e9 00 00 00 00	 jmp	 ___CxxFrameHandler3
text$x	ENDS
??$?HDU?$char_traits@D@std@@V?$allocator@D@1@@std@@YA?AV?$basic_string@DU?$char_traits@D@std@@V?$allocator@D@2@@0@ABV10@0@Z ENDP ; std::operator+<char,std::char_traits<char>,std::allocator<char> >
; Function compile flags: /Ogtp
; File f:\program files (x86)\microsoft visual studio\2017\enterprise\vc\tools\msvc\14.11.25503\include\xstring
; File f:\program files (x86)\microsoft visual studio\2017\enterprise\vc\tools\msvc\14.11.25503\include\iosfwd
; File f:\program files (x86)\microsoft visual studio\2017\enterprise\vc\tools\msvc\14.11.25503\include\xstring
; File f:\program files (x86)\microsoft visual studio\2017\enterprise\vc\tools\msvc\14.11.25503\include\iosfwd
; File f:\program files (x86)\microsoft visual studio\2017\enterprise\vc\tools\msvc\14.11.25503\include\xstring
; File f:\program files (x86)\microsoft visual studio\2017\enterprise\vc\tools\msvc\14.11.25503\include\iosfwd
; File f:\program files (x86)\microsoft visual studio\2017\enterprise\vc\tools\msvc\14.11.25503\include\xstring
; File f:\program files (x86)\microsoft visual studio\2017\enterprise\vc\tools\msvc\14.11.25503\include\iosfwd
; File f:\program files (x86)\microsoft visual studio\2017\enterprise\vc\tools\msvc\14.11.25503\include\xstring
; File f:\program files (x86)\microsoft visual studio\2017\enterprise\vc\tools\msvc\14.11.25503\include\xstddef
; File f:\program files (x86)\microsoft visual studio\2017\enterprise\vc\tools\msvc\14.11.25503\include\iosfwd
; File f:\program files (x86)\microsoft visual studio\2017\enterprise\vc\tools\msvc\14.11.25503\include\xstring
; File f:\program files (x86)\microsoft visual studio\2017\enterprise\vc\tools\msvc\14.11.25503\include\iosfwd
; File f:\program files (x86)\microsoft visual studio\2017\enterprise\vc\tools\msvc\14.11.25503\include\xstring
; File f:\program files (x86)\microsoft visual studio\2017\enterprise\vc\tools\msvc\14.11.25503\include\iosfwd
; File f:\program files (x86)\microsoft visual studio\2017\enterprise\vc\tools\msvc\14.11.25503\include\xstring
;	COMDAT ??$?HDU?$char_traits@D@std@@V?$allocator@D@1@@std@@YA?AV?$basic_string@DU?$char_traits@D@std@@V?$allocator@D@2@@0@$$QAV10@QBD@Z
_TEXT	SEGMENT
$T6 = -4						; size = 1
___$ReturnUdt$ = -4					; size = 4
__Right$ = 8						; size = 4
??$?HDU?$char_traits@D@std@@V?$allocator@D@1@@std@@YA?AV?$basic_string@DU?$char_traits@D@std@@V?$allocator@D@2@@0@$$QAV10@QBD@Z PROC ; std::operator+<char,std::char_traits<char>,std::allocator<char> >, COMDAT
; ___$ReturnUdt$ = ecx
; __Left$ = edx

; 3884 : 	{	// return string + NTCTS

  00000	55		 push	 ebp
  00001	8b ec		 mov	 ebp, esp
  00003	51		 push	 ecx
  00004	53		 push	 ebx
  00005	56		 push	 esi
  00006	8b da		 mov	 ebx, edx
  00008	8b f1		 mov	 esi, ecx
; File f:\program files (x86)\microsoft visual studio\2017\enterprise\vc\tools\msvc\14.11.25503\include\iosfwd

; 480  : 		return (_CSTD strlen(_First));

  0000a	8b 55 08	 mov	 edx, DWORD PTR __Right$[ebp]
; File f:\program files (x86)\microsoft visual studio\2017\enterprise\vc\tools\msvc\14.11.25503\include\xstring

; 3884 : 	{	// return string + NTCTS

  0000d	57		 push	 edi
; File f:\program files (x86)\microsoft visual studio\2017\enterprise\vc\tools\msvc\14.11.25503\include\iosfwd

; 480  : 		return (_CSTD strlen(_First));

  0000e	8b fa		 mov	 edi, edx
; File f:\program files (x86)\microsoft visual studio\2017\enterprise\vc\tools\msvc\14.11.25503\include\xstring

; 3884 : 	{	// return string + NTCTS

  00010	89 75 fc	 mov	 DWORD PTR ___$ReturnUdt$[ebp], esi
; File f:\program files (x86)\microsoft visual studio\2017\enterprise\vc\tools\msvc\14.11.25503\include\iosfwd

; 480  : 		return (_CSTD strlen(_First));

  00013	8d 4f 01	 lea	 ecx, DWORD PTR [edi+1]
$LL95@operator:
  00016	8a 07		 mov	 al, BYTE PTR [edi]
  00018	47		 inc	 edi
  00019	84 c0		 test	 al, al
  0001b	75 f9		 jne	 SHORT $LL95@operator
; File f:\program files (x86)\microsoft visual studio\2017\enterprise\vc\tools\msvc\14.11.25503\include\xstring

; 2351 : 		if (_Count <= _My_data._Myres - _Old_size)

  0001d	8b 43 14	 mov	 eax, DWORD PTR [ebx+20]
; File f:\program files (x86)\microsoft visual studio\2017\enterprise\vc\tools\msvc\14.11.25503\include\iosfwd

; 480  : 		return (_CSTD strlen(_First));

  00020	2b f9		 sub	 edi, ecx
; File f:\program files (x86)\microsoft visual studio\2017\enterprise\vc\tools\msvc\14.11.25503\include\xstring

; 2350 : 		const size_type _Old_size = _My_data._Mysize;

  00022	8b 4b 10	 mov	 ecx, DWORD PTR [ebx+16]

; 2351 : 		if (_Count <= _My_data._Myres - _Old_size)

  00025	2b c1		 sub	 eax, ecx
  00027	3b f8		 cmp	 edi, eax
  00029	77 28		 ja	 SHORT $LN13@operator

; 1617 : 		return (_BUF_SIZE <= _Myres);

  0002b	83 7b 14 10	 cmp	 DWORD PTR [ebx+20], 16	; 00000010H

; 2353 : 			_My_data._Mysize = _Old_size + _Count;

  0002f	8d 04 39	 lea	 eax, DWORD PTR [ecx+edi]
  00032	89 43 10	 mov	 DWORD PTR [ebx+16], eax

; 1595 : 		value_type * _Result = _Bx._Buf;

  00035	8b c3		 mov	 eax, ebx

; 1596 : 		if (_Large_string_engaged())

  00037	72 02		 jb	 SHORT $LN22@operator
; File f:\program files (x86)\microsoft visual studio\2017\enterprise\vc\tools\msvc\14.11.25503\include\xstddef

; 265  : 	return (_Ptr);

  00039	8b 03		 mov	 eax, DWORD PTR [ebx]
$LN22@operator:
; File f:\program files (x86)\microsoft visual studio\2017\enterprise\vc\tools\msvc\14.11.25503\include\iosfwd

; 506  : 		return ((_Elem *)_CSTD memmove(_First1, _First2, _Count));

  0003b	57		 push	 edi
; File f:\program files (x86)\microsoft visual studio\2017\enterprise\vc\tools\msvc\14.11.25503\include\xstring

; 2355 : 			_Traits::move(_Old_ptr + _Old_size, _Ptr, _Count);

  0003c	8d 34 08	 lea	 esi, DWORD PTR [eax+ecx]
; File f:\program files (x86)\microsoft visual studio\2017\enterprise\vc\tools\msvc\14.11.25503\include\iosfwd

; 506  : 		return ((_Elem *)_CSTD memmove(_First1, _First2, _Count));

  0003f	52		 push	 edx
  00040	56		 push	 esi
  00041	ff 15 00 00 00
	00		 call	 DWORD PTR __imp__memmove

; 517  : 		_Left = _Right;

  00047	c6 04 3e 00	 mov	 BYTE PTR [esi+edi], 0

; 506  : 		return ((_Elem *)_CSTD memmove(_First1, _First2, _Count));

  0004b	83 c4 0c	 add	 esp, 12			; 0000000cH
; File f:\program files (x86)\microsoft visual studio\2017\enterprise\vc\tools\msvc\14.11.25503\include\xstring

; 2357 : 			return (*this);

  0004e	8b 75 fc	 mov	 esi, DWORD PTR ___$ReturnUdt$[ebp]
  00051	eb 13		 jmp	 SHORT $LN12@operator
$LN13@operator:

; 2358 : 			}
; 2359 : 
; 2360 : 		return (_Reallocate_grow_by(_Count,

  00053	57		 push	 edi
  00054	52		 push	 edx
  00055	c6 45 fc 00	 mov	 BYTE PTR $T6[ebp], 0
  00059	8b cb		 mov	 ecx, ebx
  0005b	ff 75 fc	 push	 DWORD PTR $T6[ebp]
  0005e	57		 push	 edi
  0005f	e8 00 00 00 00	 call	 ??$_Reallocate_grow_by@V<lambda_ab246b20b9526e2ef7792587e4298a77>@@PBDI@?$basic_string@DU?$char_traits@D@std@@V?$allocator@D@2@@std@@QAEAAV01@IV<lambda_ab246b20b9526e2ef7792587e4298a77>@@PBDI@Z ; std::basic_string<char,std::char_traits<char>,std::allocator<char> >::_Reallocate_grow_by<<lambda_ab246b20b9526e2ef7792587e4298a77>,char const *,unsigned int>
  00064	8b d8		 mov	 ebx, eax
$LN12@operator:

; 1576 : 		_Mysize(0),

  00066	c7 46 10 00 00
	00 00		 mov	 DWORD PTR [esi+16], 0

; 3885 : 	return (_STD move(_Left.append(_Right)));

  0006d	8b c6		 mov	 eax, esi

; 1577 : 		_Myres(0)

  0006f	c7 46 14 00 00
	00 00		 mov	 DWORD PTR [esi+20], 0

; 2152 : 		_CSTD memcpy(_My_data_mem, _Right_data_mem, _Memcpy_move_size);

  00076	0f 10 03	 movups	 xmm0, XMMWORD PTR [ebx]

; 3885 : 	return (_STD move(_Left.append(_Right)));

  00079	5f		 pop	 edi

; 2152 : 		_CSTD memcpy(_My_data_mem, _Right_data_mem, _Memcpy_move_size);

  0007a	0f 11 06	 movups	 XMMWORD PTR [esi], xmm0
  0007d	f3 0f 7e 43 10	 movq	 xmm0, QWORD PTR [ebx+16]
  00082	66 0f d6 46 10	 movq	 QWORD PTR [esi+16], xmm0

; 3698 : 		_My_data._Mysize = 0;

  00087	c7 43 10 00 00
	00 00		 mov	 DWORD PTR [ebx+16], 0

; 3699 : 		_My_data._Myres = this->_BUF_SIZE - 1;

  0008e	c7 43 14 0f 00
	00 00		 mov	 DWORD PTR [ebx+20], 15	; 0000000fH

; 3885 : 	return (_STD move(_Left.append(_Right)));

  00095	5e		 pop	 esi
; File f:\program files (x86)\microsoft visual studio\2017\enterprise\vc\tools\msvc\14.11.25503\include\iosfwd

; 517  : 		_Left = _Right;

  00096	c6 03 00	 mov	 BYTE PTR [ebx], 0
; File f:\program files (x86)\microsoft visual studio\2017\enterprise\vc\tools\msvc\14.11.25503\include\xstring

; 3885 : 	return (_STD move(_Left.append(_Right)));

  00099	5b		 pop	 ebx

; 3886 : 	}

  0009a	8b e5		 mov	 esp, ebp
  0009c	5d		 pop	 ebp
  0009d	c3		 ret	 0
??$?HDU?$char_traits@D@std@@V?$allocator@D@1@@std@@YA?AV?$basic_string@DU?$char_traits@D@std@@V?$allocator@D@2@@0@$$QAV10@QBD@Z ENDP ; std::operator+<char,std::char_traits<char>,std::allocator<char> >
_TEXT	ENDS
; Function compile flags: /Ogtp
; File f:\program files (x86)\microsoft visual studio\2017\enterprise\vc\tools\msvc\14.11.25503\include\xstring
; File f:\program files (x86)\microsoft visual studio\2017\enterprise\vc\tools\msvc\14.11.25503\include\iosfwd
; File f:\program files (x86)\microsoft visual studio\2017\enterprise\vc\tools\msvc\14.11.25503\include\xstring
; File f:\program files (x86)\microsoft visual studio\2017\enterprise\vc\tools\msvc\14.11.25503\include\iosfwd
; File f:\program files (x86)\microsoft visual studio\2017\enterprise\vc\tools\msvc\14.11.25503\include\xstring
; File f:\program files (x86)\microsoft visual studio\2017\enterprise\vc\tools\msvc\14.11.25503\include\iosfwd
; File f:\program files (x86)\microsoft visual studio\2017\enterprise\vc\tools\msvc\14.11.25503\include\xstring
; File f:\program files (x86)\microsoft visual studio\2017\enterprise\vc\tools\msvc\14.11.25503\include\xstddef
; File f:\program files (x86)\microsoft visual studio\2017\enterprise\vc\tools\msvc\14.11.25503\include\iosfwd
; File f:\program files (x86)\microsoft visual studio\2017\enterprise\vc\tools\msvc\14.11.25503\include\xstring
; File f:\program files (x86)\microsoft visual studio\2017\enterprise\vc\tools\msvc\14.11.25503\include\iosfwd
; File f:\program files (x86)\microsoft visual studio\2017\enterprise\vc\tools\msvc\14.11.25503\include\xstring
; File f:\program files (x86)\microsoft visual studio\2017\enterprise\vc\tools\msvc\14.11.25503\include\iosfwd
; File f:\program files (x86)\microsoft visual studio\2017\enterprise\vc\tools\msvc\14.11.25503\include\xstring
; File f:\program files (x86)\microsoft visual studio\2017\enterprise\vc\tools\msvc\14.11.25503\include\iosfwd
; File f:\program files (x86)\microsoft visual studio\2017\enterprise\vc\tools\msvc\14.11.25503\include\xstring
; File f:\program files (x86)\microsoft visual studio\2017\enterprise\vc\tools\msvc\14.11.25503\include\xstddef
; File f:\program files (x86)\microsoft visual studio\2017\enterprise\vc\tools\msvc\14.11.25503\include\iosfwd
; File f:\program files (x86)\microsoft visual studio\2017\enterprise\vc\tools\msvc\14.11.25503\include\xstring
; File f:\program files (x86)\microsoft visual studio\2017\enterprise\vc\tools\msvc\14.11.25503\include\iosfwd
; File f:\program files (x86)\microsoft visual studio\2017\enterprise\vc\tools\msvc\14.11.25503\include\xstring
;	COMDAT ??$?HDU?$char_traits@D@std@@V?$allocator@D@1@@std@@YA?AV?$basic_string@DU?$char_traits@D@std@@V?$allocator@D@2@@0@ABV10@QBD@Z
_TEXT	SEGMENT
___$ReturnUdt$ = -24					; size = 4
$T17 = -20						; size = 1
$T12 = -20						; size = 1
$T1 = -16						; size = 4
__$EHRec$ = -12						; size = 12
__Right$ = 8						; size = 4
??$?HDU?$char_traits@D@std@@V?$allocator@D@1@@std@@YA?AV?$basic_string@DU?$char_traits@D@std@@V?$allocator@D@2@@0@ABV10@QBD@Z PROC ; std::operator+<char,std::char_traits<char>,std::allocator<char> >, COMDAT
; ___$ReturnUdt$ = ecx
; __Left$dead$ = edx

; 3799 : 	{	// return string + NTCTS

  00000	55		 push	 ebp
  00001	8b ec		 mov	 ebp, esp
  00003	6a ff		 push	 -1
  00005	68 00 00 00 00	 push	 __ehhandler$??$?HDU?$char_traits@D@std@@V?$allocator@D@1@@std@@YA?AV?$basic_string@DU?$char_traits@D@std@@V?$allocator@D@2@@0@ABV10@QBD@Z
  0000a	64 a1 00 00 00
	00		 mov	 eax, DWORD PTR fs:0
  00010	50		 push	 eax
  00011	83 ec 0c	 sub	 esp, 12			; 0000000cH
  00014	53		 push	 ebx
  00015	56		 push	 esi
  00016	57		 push	 edi
  00017	a1 00 00 00 00	 mov	 eax, DWORD PTR ___security_cookie
  0001c	33 c5		 xor	 eax, ebp
  0001e	50		 push	 eax
  0001f	8d 45 f4	 lea	 eax, DWORD PTR __$EHRec$[ebp]
  00022	64 a3 00 00 00
	00		 mov	 DWORD PTR fs:0, eax
  00028	8b d9		 mov	 ebx, ecx
  0002a	89 5d e8	 mov	 DWORD PTR ___$ReturnUdt$[ebp], ebx
  0002d	c7 45 f0 00 00
	00 00		 mov	 DWORD PTR $T1[ebp], 0

; 3698 : 		_My_data._Mysize = 0;

  00034	c7 43 10 00 00
	00 00		 mov	 DWORD PTR [ebx+16], 0

; 3699 : 		_My_data._Myres = this->_BUF_SIZE - 1;

  0003b	c7 43 14 0f 00
	00 00		 mov	 DWORD PTR [ebx+20], 15	; 0000000fH
; File f:\program files (x86)\microsoft visual studio\2017\enterprise\vc\tools\msvc\14.11.25503\include\iosfwd

; 517  : 		_Left = _Right;

  00042	c6 03 00	 mov	 BYTE PTR [ebx], 0

; 480  : 		return (_CSTD strlen(_First));

  00045	8b 4d 08	 mov	 ecx, DWORD PTR __Right$[ebp]
; File f:\program files (x86)\microsoft visual studio\2017\enterprise\vc\tools\msvc\14.11.25503\include\xstring

; 3806 : 	return (_Ans);

  00048	c7 45 fc 00 00
	00 00		 mov	 DWORD PTR __$EHRec$[ebp+8], 0
  0004f	c7 45 f0 01 00
	00 00		 mov	 DWORD PTR $T1[ebp], 1
; File f:\program files (x86)\microsoft visual studio\2017\enterprise\vc\tools\msvc\14.11.25503\include\iosfwd

; 480  : 		return (_CSTD strlen(_First));

  00056	8d 51 01	 lea	 edx, DWORD PTR [ecx+1]
  00059	0f 1f 80 00 00
	00 00		 npad	 7
$LL112@operator:
  00060	8a 01		 mov	 al, BYTE PTR [ecx]
  00062	41		 inc	 ecx
  00063	84 c0		 test	 al, al
  00065	75 f9		 jne	 SHORT $LL112@operator
; File f:\program files (x86)\microsoft visual studio\2017\enterprise\vc\tools\msvc\14.11.25503\include\xstring

; 3803 : 	_Ans.reserve(_Convert_size<_Size_type>(_Left.size() + _Traits::length(_Right)));

  00067	a1 10 00 00 00	 mov	 eax, DWORD PTR ?G³os@@3V?$basic_string@DU?$char_traits@D@std@@V?$allocator@D@2@@std@@A+16
; File f:\program files (x86)\microsoft visual studio\2017\enterprise\vc\tools\msvc\14.11.25503\include\iosfwd

; 480  : 		return (_CSTD strlen(_First));

  0006c	2b ca		 sub	 ecx, edx
; File f:\program files (x86)\microsoft visual studio\2017\enterprise\vc\tools\msvc\14.11.25503\include\xstring

; 3803 : 	_Ans.reserve(_Convert_size<_Size_type>(_Left.size() + _Traits::length(_Right)));

  0006e	03 c1		 add	 eax, ecx
  00070	8b cb		 mov	 ecx, ebx
  00072	50		 push	 eax
  00073	e8 00 00 00 00	 call	 ?reserve@?$basic_string@DU?$char_traits@D@std@@V?$allocator@D@2@@std@@QAEXI@Z ; std::basic_string<char,std::char_traits<char>,std::allocator<char> >::reserve

; 1617 : 		return (_BUF_SIZE <= _Myres);

  00078	83 3d 14 00 00
	00 10		 cmp	 DWORD PTR ?G³os@@3V?$basic_string@DU?$char_traits@D@std@@V?$allocator@D@2@@std@@A+20, 16 ; 00000010H

; 1606 : 		const value_type * _Result = _Bx._Buf;

  0007f	b9 00 00 00 00	 mov	 ecx, OFFSET ?G³os@@3V?$basic_string@DU?$char_traits@D@std@@V?$allocator@D@2@@std@@A ; G³os

; 2351 : 		if (_Count <= _My_data._Myres - _Old_size)

  00084	8b 73 14	 mov	 esi, DWORD PTR [ebx+20]
  00087	8b c6		 mov	 eax, esi

; 1607 : 		if (_Large_string_engaged())

  00089	0f 43 0d 00 00
	00 00		 cmovae	 ecx, DWORD PTR ?G³os@@3V?$basic_string@DU?$char_traits@D@std@@V?$allocator@D@2@@std@@A

; 2350 : 		const size_type _Old_size = _My_data._Mysize;

  00090	8b 53 10	 mov	 edx, DWORD PTR [ebx+16]

; 2351 : 		if (_Count <= _My_data._Myres - _Old_size)

  00093	2b c2		 sub	 eax, edx

; 2321 : 		return (append(_Right_data._Myptr(), _Right_data._Mysize));

  00095	8b 3d 10 00 00
	00		 mov	 edi, DWORD PTR ?G³os@@3V?$basic_string@DU?$char_traits@D@std@@V?$allocator@D@2@@std@@A+16

; 2351 : 		if (_Count <= _My_data._Myres - _Old_size)

  0009b	3b f8		 cmp	 edi, eax
  0009d	77 24		 ja	 SHORT $LN60@operator

; 2352 : 			{
; 2353 : 			_My_data._Mysize = _Old_size + _Count;

  0009f	8d 04 3a	 lea	 eax, DWORD PTR [edx+edi]
  000a2	89 43 10	 mov	 DWORD PTR [ebx+16], eax

; 1595 : 		value_type * _Result = _Bx._Buf;

  000a5	8b c3		 mov	 eax, ebx

; 1617 : 		return (_BUF_SIZE <= _Myres);

  000a7	83 fe 10	 cmp	 esi, 16			; 00000010H

; 1596 : 		if (_Large_string_engaged())

  000aa	72 02		 jb	 SHORT $LN69@operator
; File f:\program files (x86)\microsoft visual studio\2017\enterprise\vc\tools\msvc\14.11.25503\include\xstddef

; 265  : 	return (_Ptr);

  000ac	8b 03		 mov	 eax, DWORD PTR [ebx]
$LN69@operator:
; File f:\program files (x86)\microsoft visual studio\2017\enterprise\vc\tools\msvc\14.11.25503\include\iosfwd

; 506  : 		return ((_Elem *)_CSTD memmove(_First1, _First2, _Count));

  000ae	57		 push	 edi
; File f:\program files (x86)\microsoft visual studio\2017\enterprise\vc\tools\msvc\14.11.25503\include\xstring

; 2355 : 			_Traits::move(_Old_ptr + _Old_size, _Ptr, _Count);

  000af	8d 34 10	 lea	 esi, DWORD PTR [eax+edx]
; File f:\program files (x86)\microsoft visual studio\2017\enterprise\vc\tools\msvc\14.11.25503\include\iosfwd

; 506  : 		return ((_Elem *)_CSTD memmove(_First1, _First2, _Count));

  000b2	51		 push	 ecx
  000b3	56		 push	 esi
  000b4	ff 15 00 00 00
	00		 call	 DWORD PTR __imp__memmove
  000ba	83 c4 0c	 add	 esp, 12			; 0000000cH

; 517  : 		_Left = _Right;

  000bd	c6 04 3e 00	 mov	 BYTE PTR [esi+edi], 0
; File f:\program files (x86)\microsoft visual studio\2017\enterprise\vc\tools\msvc\14.11.25503\include\xstring

; 2357 : 			return (*this);

  000c1	eb 11		 jmp	 SHORT $LN59@operator
$LN60@operator:

; 2358 : 			}
; 2359 : 
; 2360 : 		return (_Reallocate_grow_by(_Count,

  000c3	57		 push	 edi
  000c4	51		 push	 ecx
  000c5	c6 45 ec 00	 mov	 BYTE PTR $T12[ebp], 0
  000c9	8b cb		 mov	 ecx, ebx
  000cb	ff 75 ec	 push	 DWORD PTR $T12[ebp]
  000ce	57		 push	 edi
  000cf	e8 00 00 00 00	 call	 ??$_Reallocate_grow_by@V<lambda_ab246b20b9526e2ef7792587e4298a77>@@PBDI@?$basic_string@DU?$char_traits@D@std@@V?$allocator@D@2@@std@@QAEAAV01@IV<lambda_ab246b20b9526e2ef7792587e4298a77>@@PBDI@Z ; std::basic_string<char,std::char_traits<char>,std::allocator<char> >::_Reallocate_grow_by<<lambda_ab246b20b9526e2ef7792587e4298a77>,char const *,unsigned int>
$LN59@operator:
; File f:\program files (x86)\microsoft visual studio\2017\enterprise\vc\tools\msvc\14.11.25503\include\iosfwd

; 480  : 		return (_CSTD strlen(_First));

  000d4	8b 4d 08	 mov	 ecx, DWORD PTR __Right$[ebp]
  000d7	8b f1		 mov	 esi, ecx
  000d9	8d 56 01	 lea	 edx, DWORD PTR [esi+1]
  000dc	0f 1f 40 00	 npad	 4
$LL113@operator:
  000e0	8a 06		 mov	 al, BYTE PTR [esi]
  000e2	46		 inc	 esi
  000e3	84 c0		 test	 al, al
  000e5	75 f9		 jne	 SHORT $LL113@operator
; File f:\program files (x86)\microsoft visual studio\2017\enterprise\vc\tools\msvc\14.11.25503\include\xstring

; 2351 : 		if (_Count <= _My_data._Myres - _Old_size)

  000e7	8b 7b 14	 mov	 edi, DWORD PTR [ebx+20]
; File f:\program files (x86)\microsoft visual studio\2017\enterprise\vc\tools\msvc\14.11.25503\include\iosfwd

; 480  : 		return (_CSTD strlen(_First));

  000ea	2b f2		 sub	 esi, edx
; File f:\program files (x86)\microsoft visual studio\2017\enterprise\vc\tools\msvc\14.11.25503\include\xstring

; 2350 : 		const size_type _Old_size = _My_data._Mysize;

  000ec	8b 53 10	 mov	 edx, DWORD PTR [ebx+16]

; 2351 : 		if (_Count <= _My_data._Myres - _Old_size)

  000ef	8b c7		 mov	 eax, edi
  000f1	2b c2		 sub	 eax, edx
  000f3	3b f0		 cmp	 esi, eax
  000f5	77 36		 ja	 SHORT $LN91@operator

; 2352 : 			{
; 2353 : 			_My_data._Mysize = _Old_size + _Count;

  000f7	8d 04 32	 lea	 eax, DWORD PTR [edx+esi]
  000fa	89 43 10	 mov	 DWORD PTR [ebx+16], eax

; 1595 : 		value_type * _Result = _Bx._Buf;

  000fd	8b c3		 mov	 eax, ebx

; 1617 : 		return (_BUF_SIZE <= _Myres);

  000ff	83 ff 10	 cmp	 edi, 16			; 00000010H

; 1596 : 		if (_Large_string_engaged())

  00102	72 02		 jb	 SHORT $LN100@operator
; File f:\program files (x86)\microsoft visual studio\2017\enterprise\vc\tools\msvc\14.11.25503\include\xstddef

; 265  : 	return (_Ptr);

  00104	8b 03		 mov	 eax, DWORD PTR [ebx]
$LN100@operator:
; File f:\program files (x86)\microsoft visual studio\2017\enterprise\vc\tools\msvc\14.11.25503\include\iosfwd

; 506  : 		return ((_Elem *)_CSTD memmove(_First1, _First2, _Count));

  00106	56		 push	 esi
; File f:\program files (x86)\microsoft visual studio\2017\enterprise\vc\tools\msvc\14.11.25503\include\xstring

; 2355 : 			_Traits::move(_Old_ptr + _Old_size, _Ptr, _Count);

  00107	8d 3c 10	 lea	 edi, DWORD PTR [eax+edx]
; File f:\program files (x86)\microsoft visual studio\2017\enterprise\vc\tools\msvc\14.11.25503\include\iosfwd

; 506  : 		return ((_Elem *)_CSTD memmove(_First1, _First2, _Count));

  0010a	51		 push	 ecx
  0010b	57		 push	 edi
  0010c	ff 15 00 00 00
	00		 call	 DWORD PTR __imp__memmove
  00112	83 c4 0c	 add	 esp, 12			; 0000000cH

; 517  : 		_Left = _Right;

  00115	c6 04 37 00	 mov	 BYTE PTR [edi+esi], 0
; File f:\program files (x86)\microsoft visual studio\2017\enterprise\vc\tools\msvc\14.11.25503\include\xstring

; 3806 : 	return (_Ans);

  00119	8b c3		 mov	 eax, ebx

; 3807 : 	}

  0011b	8b 4d f4	 mov	 ecx, DWORD PTR __$EHRec$[ebp]
  0011e	64 89 0d 00 00
	00 00		 mov	 DWORD PTR fs:0, ecx
  00125	59		 pop	 ecx
  00126	5f		 pop	 edi
  00127	5e		 pop	 esi
  00128	5b		 pop	 ebx
  00129	8b e5		 mov	 esp, ebp
  0012b	5d		 pop	 ebp
  0012c	c3		 ret	 0
$LN91@operator:

; 2360 : 		return (_Reallocate_grow_by(_Count,

  0012d	56		 push	 esi
  0012e	51		 push	 ecx
  0012f	c6 45 ec 00	 mov	 BYTE PTR $T17[ebp], 0
  00133	8b cb		 mov	 ecx, ebx
  00135	ff 75 ec	 push	 DWORD PTR $T17[ebp]
  00138	56		 push	 esi
  00139	e8 00 00 00 00	 call	 ??$_Reallocate_grow_by@V<lambda_ab246b20b9526e2ef7792587e4298a77>@@PBDI@?$basic_string@DU?$char_traits@D@std@@V?$allocator@D@2@@std@@QAEAAV01@IV<lambda_ab246b20b9526e2ef7792587e4298a77>@@PBDI@Z ; std::basic_string<char,std::char_traits<char>,std::allocator<char> >::_Reallocate_grow_by<<lambda_ab246b20b9526e2ef7792587e4298a77>,char const *,unsigned int>

; 3806 : 	return (_Ans);

  0013e	8b c3		 mov	 eax, ebx

; 3807 : 	}

  00140	8b 4d f4	 mov	 ecx, DWORD PTR __$EHRec$[ebp]
  00143	64 89 0d 00 00
	00 00		 mov	 DWORD PTR fs:0, ecx
  0014a	59		 pop	 ecx
  0014b	5f		 pop	 edi
  0014c	5e		 pop	 esi
  0014d	5b		 pop	 ebx
  0014e	8b e5		 mov	 esp, ebp
  00150	5d		 pop	 ebp
  00151	c3		 ret	 0
_TEXT	ENDS
;	COMDAT text$x
text$x	SEGMENT
__unwindfunclet$??$?HDU?$char_traits@D@std@@V?$allocator@D@1@@std@@YA?AV?$basic_string@DU?$char_traits@D@std@@V?$allocator@D@2@@0@ABV10@QBD@Z$0:
  00000	8b 45 f0	 mov	 eax, DWORD PTR $T1[ebp]
  00003	83 e0 01	 and	 eax, 1
  00006	0f 84 0c 00 00
	00		 je	 $LN4@operator
  0000c	83 65 f0 fe	 and	 DWORD PTR $T1[ebp], -2	; fffffffeH
  00010	8b 4d e8	 mov	 ecx, DWORD PTR ___$ReturnUdt$[ebp]
  00013	e9 00 00 00 00	 jmp	 ??1?$basic_string@DU?$char_traits@D@std@@V?$allocator@D@2@@std@@QAE@XZ ; std::basic_string<char,std::char_traits<char>,std::allocator<char> >::~basic_string<char,std::char_traits<char>,std::allocator<char> >
$LN4@operator:
  00018	c3		 ret	 0
__ehhandler$??$?HDU?$char_traits@D@std@@V?$allocator@D@1@@std@@YA?AV?$basic_string@DU?$char_traits@D@std@@V?$allocator@D@2@@0@ABV10@QBD@Z:
  00019	8b 54 24 08	 mov	 edx, DWORD PTR [esp+8]
  0001d	8d 42 0c	 lea	 eax, DWORD PTR [edx+12]
  00020	8b 4a e4	 mov	 ecx, DWORD PTR [edx-28]
  00023	33 c8		 xor	 ecx, eax
  00025	e8 00 00 00 00	 call	 @__security_check_cookie@4
  0002a	b8 00 00 00 00	 mov	 eax, OFFSET __ehfuncinfo$??$?HDU?$char_traits@D@std@@V?$allocator@D@1@@std@@YA?AV?$basic_string@DU?$char_traits@D@std@@V?$allocator@D@2@@0@ABV10@QBD@Z
  0002f	e9 00 00 00 00	 jmp	 ___CxxFrameHandler3
text$x	ENDS
??$?HDU?$char_traits@D@std@@V?$allocator@D@1@@std@@YA?AV?$basic_string@DU?$char_traits@D@std@@V?$allocator@D@2@@0@ABV10@QBD@Z ENDP ; std::operator+<char,std::char_traits<char>,std::allocator<char> >
; Function compile flags: /Ogtp
; File f:\program files (x86)\microsoft visual studio\2017\enterprise\vc\tools\msvc\14.11.25503\include\xstring
; File f:\program files (x86)\microsoft visual studio\2017\enterprise\vc\tools\msvc\14.11.25503\include\xstddef
; File f:\program files (x86)\microsoft visual studio\2017\enterprise\vc\tools\msvc\14.11.25503\include\iosfwd
; File f:\program files (x86)\microsoft visual studio\2017\enterprise\vc\tools\msvc\14.11.25503\include\xstring
; File f:\program files (x86)\microsoft visual studio\2017\enterprise\vc\tools\msvc\14.11.25503\include\iosfwd
; File f:\program files (x86)\microsoft visual studio\2017\enterprise\vc\tools\msvc\14.11.25503\include\xstring
;	COMDAT ??$?HDU?$char_traits@D@std@@V?$allocator@D@1@@std@@YA?AV?$basic_string@DU?$char_traits@D@std@@V?$allocator@D@2@@0@$$QAV10@D@Z
_TEXT	SEGMENT
$T4 = -4						; size = 1
___$ReturnUdt$ = -4					; size = 4
__Right$ = 8						; size = 1
??$?HDU?$char_traits@D@std@@V?$allocator@D@1@@std@@YA?AV?$basic_string@DU?$char_traits@D@std@@V?$allocator@D@2@@0@$$QAV10@D@Z PROC ; std::operator+<char,std::char_traits<char>,std::allocator<char> >, COMDAT
; ___$ReturnUdt$ = ecx
; __Left$ = edx

; 3894 : 	{	// return string + character

  00000	55		 push	 ebp
  00001	8b ec		 mov	 ebp, esp
  00003	51		 push	 ecx
  00004	56		 push	 esi
  00005	8b f2		 mov	 esi, edx
  00007	57		 push	 edi
  00008	8b f9		 mov	 edi, ecx
  0000a	89 7d fc	 mov	 DWORD PTR ___$ReturnUdt$[ebp], edi

; 2991 : 		const size_type _Old_size = _My_data._Mysize;

  0000d	8b 56 10	 mov	 edx, DWORD PTR [esi+16]

; 2992 : 		if (_Old_size < _My_data._Myres)

  00010	3b 56 14	 cmp	 edx, DWORD PTR [esi+20]
  00013	73 1d		 jae	 SHORT $LN6@operator

; 1617 : 		return (_BUF_SIZE <= _Myres);

  00015	83 7e 14 10	 cmp	 DWORD PTR [esi+20], 16	; 00000010H

; 2994 : 			_My_data._Mysize = _Old_size + 1;

  00019	8d 42 01	 lea	 eax, DWORD PTR [edx+1]
  0001c	89 46 10	 mov	 DWORD PTR [esi+16], eax

; 1595 : 		value_type * _Result = _Bx._Buf;

  0001f	8b ce		 mov	 ecx, esi

; 1596 : 		if (_Large_string_engaged())

  00021	72 02		 jb	 SHORT $LN15@operator
; File f:\program files (x86)\microsoft visual studio\2017\enterprise\vc\tools\msvc\14.11.25503\include\xstddef

; 265  : 	return (_Ptr);

  00023	8b 0e		 mov	 ecx, DWORD PTR [esi]
$LN15@operator:
; File f:\program files (x86)\microsoft visual studio\2017\enterprise\vc\tools\msvc\14.11.25503\include\iosfwd

; 517  : 		_Left = _Right;

  00025	8a 45 08	 mov	 al, BYTE PTR __Right$[ebp]
  00028	88 04 11	 mov	 BYTE PTR [ecx+edx], al
  0002b	c6 44 11 01 00	 mov	 BYTE PTR [ecx+edx+1], 0
; File f:\program files (x86)\microsoft visual studio\2017\enterprise\vc\tools\msvc\14.11.25503\include\xstring

; 2998 : 			return;

  00030	eb 12		 jmp	 SHORT $LN5@operator
$LN6@operator:

; 2999 : 			}
; 3000 : 
; 3001 : 		_Reallocate_grow_by(1,

  00032	ff 75 08	 push	 DWORD PTR __Right$[ebp]
  00035	c6 45 fc 00	 mov	 BYTE PTR $T4[ebp], 0
  00039	ff 75 fc	 push	 DWORD PTR $T4[ebp]
  0003c	51		 push	 ecx
  0003d	8b ce		 mov	 ecx, esi
  0003f	e8 00 00 00 00	 call	 ??$_Reallocate_grow_by@V<lambda_15711c68e099a15a58f4d77303cb286d>@@D@?$basic_string@DU?$char_traits@D@std@@V?$allocator@D@2@@std@@QAEAAV01@IV<lambda_15711c68e099a15a58f4d77303cb286d>@@D@Z ; std::basic_string<char,std::char_traits<char>,std::allocator<char> >::_Reallocate_grow_by<<lambda_15711c68e099a15a58f4d77303cb286d>,char>
$LN5@operator:

; 1576 : 		_Mysize(0),

  00044	c7 47 10 00 00
	00 00		 mov	 DWORD PTR [edi+16], 0

; 3896 : 	return (_STD move(_Left));

  0004b	8b c7		 mov	 eax, edi

; 1577 : 		_Myres(0)

  0004d	c7 47 14 00 00
	00 00		 mov	 DWORD PTR [edi+20], 0

; 2152 : 		_CSTD memcpy(_My_data_mem, _Right_data_mem, _Memcpy_move_size);

  00054	0f 10 06	 movups	 xmm0, XMMWORD PTR [esi]
  00057	0f 11 07	 movups	 XMMWORD PTR [edi], xmm0
  0005a	f3 0f 7e 46 10	 movq	 xmm0, QWORD PTR [esi+16]
  0005f	66 0f d6 47 10	 movq	 QWORD PTR [edi+16], xmm0

; 3698 : 		_My_data._Mysize = 0;

  00064	c7 46 10 00 00
	00 00		 mov	 DWORD PTR [esi+16], 0

; 3699 : 		_My_data._Myres = this->_BUF_SIZE - 1;

  0006b	c7 46 14 0f 00
	00 00		 mov	 DWORD PTR [esi+20], 15	; 0000000fH

; 3896 : 	return (_STD move(_Left));

  00072	5f		 pop	 edi
; File f:\program files (x86)\microsoft visual studio\2017\enterprise\vc\tools\msvc\14.11.25503\include\iosfwd

; 517  : 		_Left = _Right;

  00073	c6 06 00	 mov	 BYTE PTR [esi], 0
; File f:\program files (x86)\microsoft visual studio\2017\enterprise\vc\tools\msvc\14.11.25503\include\xstring

; 3896 : 	return (_STD move(_Left));

  00076	5e		 pop	 esi

; 3897 : 	}

  00077	8b e5		 mov	 esp, ebp
  00079	5d		 pop	 ebp
  0007a	c3		 ret	 0
??$?HDU?$char_traits@D@std@@V?$allocator@D@1@@std@@YA?AV?$basic_string@DU?$char_traits@D@std@@V?$allocator@D@2@@0@$$QAV10@D@Z ENDP ; std::operator+<char,std::char_traits<char>,std::allocator<char> >
_TEXT	ENDS
; Function compile flags: /Ogtp
; File f:\program files (x86)\microsoft visual studio\2017\enterprise\vc\tools\msvc\14.11.25503\include\xstring
; File f:\program files (x86)\microsoft visual studio\2017\enterprise\vc\tools\msvc\14.11.25503\include\iosfwd
; File f:\program files (x86)\microsoft visual studio\2017\enterprise\vc\tools\msvc\14.11.25503\include\xstring
; File f:\program files (x86)\microsoft visual studio\2017\enterprise\vc\tools\msvc\14.11.25503\include\xstddef
; File f:\program files (x86)\microsoft visual studio\2017\enterprise\vc\tools\msvc\14.11.25503\include\iosfwd
; File f:\program files (x86)\microsoft visual studio\2017\enterprise\vc\tools\msvc\14.11.25503\include\xstring
; File f:\program files (x86)\microsoft visual studio\2017\enterprise\vc\tools\msvc\14.11.25503\include\iosfwd
; File f:\program files (x86)\microsoft visual studio\2017\enterprise\vc\tools\msvc\14.11.25503\include\xstring
; File f:\program files (x86)\microsoft visual studio\2017\enterprise\vc\tools\msvc\14.11.25503\include\xstddef
; File f:\program files (x86)\microsoft visual studio\2017\enterprise\vc\tools\msvc\14.11.25503\include\xstring
; File f:\program files (x86)\microsoft visual studio\2017\enterprise\vc\tools\msvc\14.11.25503\include\xstddef
; File f:\program files (x86)\microsoft visual studio\2017\enterprise\vc\tools\msvc\14.11.25503\include\iosfwd
; File f:\program files (x86)\microsoft visual studio\2017\enterprise\vc\tools\msvc\14.11.25503\include\xstring
; File f:\program files (x86)\microsoft visual studio\2017\enterprise\vc\tools\msvc\14.11.25503\include\iosfwd
; File f:\program files (x86)\microsoft visual studio\2017\enterprise\vc\tools\msvc\14.11.25503\include\xstring
;	COMDAT ??$?HDU?$char_traits@D@std@@V?$allocator@D@1@@std@@YA?AV?$basic_string@DU?$char_traits@D@std@@V?$allocator@D@2@@0@QBDABV10@@Z
_TEXT	SEGMENT
___$ReturnUdt$ = -24					; size = 4
$T12 = -20						; size = 1
$T1 = -16						; size = 4
__$EHRec$ = -12						; size = 12
$T17 = 8						; size = 1
__Right$ = 8						; size = 4
??$?HDU?$char_traits@D@std@@V?$allocator@D@1@@std@@YA?AV?$basic_string@DU?$char_traits@D@std@@V?$allocator@D@2@@0@QBDABV10@@Z PROC ; std::operator+<char,std::char_traits<char>,std::allocator<char> >, COMDAT
; ___$ReturnUdt$ = ecx
; __Left$dead$ = edx

; 3769 : 	{	// return NTCTS + string

  00000	55		 push	 ebp
  00001	8b ec		 mov	 ebp, esp
  00003	6a ff		 push	 -1
  00005	68 00 00 00 00	 push	 __ehhandler$??$?HDU?$char_traits@D@std@@V?$allocator@D@1@@std@@YA?AV?$basic_string@DU?$char_traits@D@std@@V?$allocator@D@2@@0@QBDABV10@@Z
  0000a	64 a1 00 00 00
	00		 mov	 eax, DWORD PTR fs:0
  00010	50		 push	 eax
  00011	83 ec 0c	 sub	 esp, 12			; 0000000cH
  00014	53		 push	 ebx
  00015	56		 push	 esi
  00016	57		 push	 edi
  00017	a1 00 00 00 00	 mov	 eax, DWORD PTR ___security_cookie
  0001c	33 c5		 xor	 eax, ebp
  0001e	50		 push	 eax
  0001f	8d 45 f4	 lea	 eax, DWORD PTR __$EHRec$[ebp]
  00022	64 a3 00 00 00
	00		 mov	 DWORD PTR fs:0, eax
  00028	8b f9		 mov	 edi, ecx
  0002a	89 7d e8	 mov	 DWORD PTR ___$ReturnUdt$[ebp], edi
  0002d	c7 45 f0 00 00
	00 00		 mov	 DWORD PTR $T1[ebp], 0

; 3698 : 		_My_data._Mysize = 0;

  00034	c7 47 10 00 00
	00 00		 mov	 DWORD PTR [edi+16], 0

; 3699 : 		_My_data._Myres = this->_BUF_SIZE - 1;

  0003b	c7 47 14 0f 00
	00 00		 mov	 DWORD PTR [edi+20], 15	; 0000000fH
; File f:\program files (x86)\microsoft visual studio\2017\enterprise\vc\tools\msvc\14.11.25503\include\iosfwd

; 517  : 		_Left = _Right;

  00042	c6 07 00	 mov	 BYTE PTR [edi], 0
; File f:\program files (x86)\microsoft visual studio\2017\enterprise\vc\tools\msvc\14.11.25503\include\xstring

; 3776 : 	return (_Ans);

  00045	c7 45 fc 00 00
	00 00		 mov	 DWORD PTR __$EHRec$[ebp+8], 0

; 3062 : 		return (this->_Get_data()._Mysize);

  0004c	8b 5d 08	 mov	 ebx, DWORD PTR __Right$[ebp]
  0004f	c7 45 f0 01 00
	00 00		 mov	 DWORD PTR $T1[ebp], 1

; 3770 : 	using _String_type = basic_string<_Elem, _Traits, _Alloc>;
; 3771 : 	using _Size_type = typename _String_type::size_type;
; 3772 : 	_String_type _Ans;
; 3773 : 	_Ans.reserve(_Convert_size<_Size_type>(_Traits::length(_Left) + _Right.size()));

  00056	8b 43 10	 mov	 eax, DWORD PTR [ebx+16]
  00059	83 c0 05	 add	 eax, 5
  0005c	50		 push	 eax
  0005d	e8 00 00 00 00	 call	 ?reserve@?$basic_string@DU?$char_traits@D@std@@V?$allocator@D@2@@std@@QAEXI@Z ; std::basic_string<char,std::char_traits<char>,std::allocator<char> >::reserve

; 2351 : 		if (_Count <= _My_data._Myres - _Old_size)

  00062	8b 57 14	 mov	 edx, DWORD PTR [edi+20]
  00065	8b c2		 mov	 eax, edx
  00067	8b 4f 10	 mov	 ecx, DWORD PTR [edi+16]
  0006a	2b c1		 sub	 eax, ecx
  0006c	83 f8 05	 cmp	 eax, 5
  0006f	72 29		 jb	 SHORT $LN52@operator

; 2352 : 			{
; 2353 : 			_My_data._Mysize = _Old_size + _Count;

  00071	8d 41 05	 lea	 eax, DWORD PTR [ecx+5]
  00074	89 47 10	 mov	 DWORD PTR [edi+16], eax

; 1595 : 		value_type * _Result = _Bx._Buf;

  00077	8b c7		 mov	 eax, edi

; 1617 : 		return (_BUF_SIZE <= _Myres);

  00079	83 fa 10	 cmp	 edx, 16			; 00000010H

; 1596 : 		if (_Large_string_engaged())

  0007c	72 02		 jb	 SHORT $LN61@operator
; File f:\program files (x86)\microsoft visual studio\2017\enterprise\vc\tools\msvc\14.11.25503\include\xstddef

; 265  : 	return (_Ptr);

  0007e	8b 07		 mov	 eax, DWORD PTR [edi]
$LN61@operator:
; File f:\program files (x86)\microsoft visual studio\2017\enterprise\vc\tools\msvc\14.11.25503\include\iosfwd

; 506  : 		return ((_Elem *)_CSTD memmove(_First1, _First2, _Count));

  00080	6a 05		 push	 5
; File f:\program files (x86)\microsoft visual studio\2017\enterprise\vc\tools\msvc\14.11.25503\include\xstring

; 2355 : 			_Traits::move(_Old_ptr + _Old_size, _Ptr, _Count);

  00082	8d 34 08	 lea	 esi, DWORD PTR [eax+ecx]
; File f:\program files (x86)\microsoft visual studio\2017\enterprise\vc\tools\msvc\14.11.25503\include\iosfwd

; 506  : 		return ((_Elem *)_CSTD memmove(_First1, _First2, _Count));

  00085	68 00 00 00 00	 push	 OFFSET ??_C@_05CMOJBPHN@G?$LDos?1?$AA@
  0008a	56		 push	 esi
  0008b	ff 15 00 00 00
	00		 call	 DWORD PTR __imp__memmove
  00091	83 c4 0c	 add	 esp, 12			; 0000000cH

; 517  : 		_Left = _Right;

  00094	c6 46 05 00	 mov	 BYTE PTR [esi+5], 0
; File f:\program files (x86)\microsoft visual studio\2017\enterprise\vc\tools\msvc\14.11.25503\include\xstring

; 2357 : 			return (*this);

  00098	eb 17		 jmp	 SHORT $LN51@operator
$LN52@operator:

; 2358 : 			}
; 2359 : 
; 2360 : 		return (_Reallocate_grow_by(_Count,

  0009a	6a 05		 push	 5
  0009c	68 00 00 00 00	 push	 OFFSET ??_C@_05CMOJBPHN@G?$LDos?1?$AA@
  000a1	c6 45 ec 00	 mov	 BYTE PTR $T12[ebp], 0
  000a5	8b cf		 mov	 ecx, edi
  000a7	ff 75 ec	 push	 DWORD PTR $T12[ebp]
  000aa	6a 05		 push	 5
  000ac	e8 00 00 00 00	 call	 ??$_Reallocate_grow_by@V<lambda_ab246b20b9526e2ef7792587e4298a77>@@PBDI@?$basic_string@DU?$char_traits@D@std@@V?$allocator@D@2@@std@@QAEAAV01@IV<lambda_ab246b20b9526e2ef7792587e4298a77>@@PBDI@Z ; std::basic_string<char,std::char_traits<char>,std::allocator<char> >::_Reallocate_grow_by<<lambda_ab246b20b9526e2ef7792587e4298a77>,char const *,unsigned int>
$LN51@operator:

; 1617 : 		return (_BUF_SIZE <= _Myres);

  000b1	8b cb		 mov	 ecx, ebx
  000b3	83 79 14 10	 cmp	 DWORD PTR [ecx+20], 16	; 00000010H

; 1607 : 		if (_Large_string_engaged())

  000b7	72 02		 jb	 SHORT $LN84@operator
; File f:\program files (x86)\microsoft visual studio\2017\enterprise\vc\tools\msvc\14.11.25503\include\xstddef

; 265  : 	return (_Ptr);

  000b9	8b 09		 mov	 ecx, DWORD PTR [ecx]
$LN84@operator:
; File f:\program files (x86)\microsoft visual studio\2017\enterprise\vc\tools\msvc\14.11.25503\include\xstring

; 2351 : 		if (_Count <= _My_data._Myres - _Old_size)

  000bb	8b 77 14	 mov	 esi, DWORD PTR [edi+20]
  000be	8b c6		 mov	 eax, esi
  000c0	8b 57 10	 mov	 edx, DWORD PTR [edi+16]
  000c3	2b c2		 sub	 eax, edx

; 2321 : 		return (append(_Right_data._Myptr(), _Right_data._Mysize));

  000c5	8b 5b 10	 mov	 ebx, DWORD PTR [ebx+16]

; 2351 : 		if (_Count <= _My_data._Myres - _Old_size)

  000c8	3b d8		 cmp	 ebx, eax
  000ca	77 36		 ja	 SHORT $LN91@operator

; 2352 : 			{
; 2353 : 			_My_data._Mysize = _Old_size + _Count;

  000cc	8d 04 1a	 lea	 eax, DWORD PTR [edx+ebx]
  000cf	89 47 10	 mov	 DWORD PTR [edi+16], eax

; 1595 : 		value_type * _Result = _Bx._Buf;

  000d2	8b c7		 mov	 eax, edi

; 1617 : 		return (_BUF_SIZE <= _Myres);

  000d4	83 fe 10	 cmp	 esi, 16			; 00000010H

; 1596 : 		if (_Large_string_engaged())

  000d7	72 02		 jb	 SHORT $LN100@operator
; File f:\program files (x86)\microsoft visual studio\2017\enterprise\vc\tools\msvc\14.11.25503\include\xstddef

; 265  : 	return (_Ptr);

  000d9	8b 07		 mov	 eax, DWORD PTR [edi]
$LN100@operator:
; File f:\program files (x86)\microsoft visual studio\2017\enterprise\vc\tools\msvc\14.11.25503\include\iosfwd

; 506  : 		return ((_Elem *)_CSTD memmove(_First1, _First2, _Count));

  000db	53		 push	 ebx
; File f:\program files (x86)\microsoft visual studio\2017\enterprise\vc\tools\msvc\14.11.25503\include\xstring

; 2355 : 			_Traits::move(_Old_ptr + _Old_size, _Ptr, _Count);

  000dc	8d 34 10	 lea	 esi, DWORD PTR [eax+edx]
; File f:\program files (x86)\microsoft visual studio\2017\enterprise\vc\tools\msvc\14.11.25503\include\iosfwd

; 506  : 		return ((_Elem *)_CSTD memmove(_First1, _First2, _Count));

  000df	51		 push	 ecx
  000e0	56		 push	 esi
  000e1	ff 15 00 00 00
	00		 call	 DWORD PTR __imp__memmove
  000e7	83 c4 0c	 add	 esp, 12			; 0000000cH

; 517  : 		_Left = _Right;

  000ea	c6 04 1e 00	 mov	 BYTE PTR [esi+ebx], 0
; File f:\program files (x86)\microsoft visual studio\2017\enterprise\vc\tools\msvc\14.11.25503\include\xstring

; 3776 : 	return (_Ans);

  000ee	8b c7		 mov	 eax, edi

; 3777 : 	}

  000f0	8b 4d f4	 mov	 ecx, DWORD PTR __$EHRec$[ebp]
  000f3	64 89 0d 00 00
	00 00		 mov	 DWORD PTR fs:0, ecx
  000fa	59		 pop	 ecx
  000fb	5f		 pop	 edi
  000fc	5e		 pop	 esi
  000fd	5b		 pop	 ebx
  000fe	8b e5		 mov	 esp, ebp
  00100	5d		 pop	 ebp
  00101	c3		 ret	 0
$LN91@operator:

; 2360 : 		return (_Reallocate_grow_by(_Count,

  00102	53		 push	 ebx
  00103	51		 push	 ecx
  00104	c6 45 08 00	 mov	 BYTE PTR $T17[ebp], 0
  00108	8b cf		 mov	 ecx, edi
  0010a	ff 75 08	 push	 DWORD PTR $T17[ebp]
  0010d	53		 push	 ebx
  0010e	e8 00 00 00 00	 call	 ??$_Reallocate_grow_by@V<lambda_ab246b20b9526e2ef7792587e4298a77>@@PBDI@?$basic_string@DU?$char_traits@D@std@@V?$allocator@D@2@@std@@QAEAAV01@IV<lambda_ab246b20b9526e2ef7792587e4298a77>@@PBDI@Z ; std::basic_string<char,std::char_traits<char>,std::allocator<char> >::_Reallocate_grow_by<<lambda_ab246b20b9526e2ef7792587e4298a77>,char const *,unsigned int>

; 3776 : 	return (_Ans);

  00113	8b c7		 mov	 eax, edi

; 3777 : 	}

  00115	8b 4d f4	 mov	 ecx, DWORD PTR __$EHRec$[ebp]
  00118	64 89 0d 00 00
	00 00		 mov	 DWORD PTR fs:0, ecx
  0011f	59		 pop	 ecx
  00120	5f		 pop	 edi
  00121	5e		 pop	 esi
  00122	5b		 pop	 ebx
  00123	8b e5		 mov	 esp, ebp
  00125	5d		 pop	 ebp
  00126	c3		 ret	 0
_TEXT	ENDS
;	COMDAT text$x
text$x	SEGMENT
__unwindfunclet$??$?HDU?$char_traits@D@std@@V?$allocator@D@1@@std@@YA?AV?$basic_string@DU?$char_traits@D@std@@V?$allocator@D@2@@0@QBDABV10@@Z$0:
  00000	8b 45 f0	 mov	 eax, DWORD PTR $T1[ebp]
  00003	83 e0 01	 and	 eax, 1
  00006	0f 84 0c 00 00
	00		 je	 $LN4@operator
  0000c	83 65 f0 fe	 and	 DWORD PTR $T1[ebp], -2	; fffffffeH
  00010	8b 4d e8	 mov	 ecx, DWORD PTR ___$ReturnUdt$[ebp]
  00013	e9 00 00 00 00	 jmp	 ??1?$basic_string@DU?$char_traits@D@std@@V?$allocator@D@2@@std@@QAE@XZ ; std::basic_string<char,std::char_traits<char>,std::allocator<char> >::~basic_string<char,std::char_traits<char>,std::allocator<char> >
$LN4@operator:
  00018	c3		 ret	 0
__ehhandler$??$?HDU?$char_traits@D@std@@V?$allocator@D@1@@std@@YA?AV?$basic_string@DU?$char_traits@D@std@@V?$allocator@D@2@@0@QBDABV10@@Z:
  00019	8b 54 24 08	 mov	 edx, DWORD PTR [esp+8]
  0001d	8d 42 0c	 lea	 eax, DWORD PTR [edx+12]
  00020	8b 4a e4	 mov	 ecx, DWORD PTR [edx-28]
  00023	33 c8		 xor	 ecx, eax
  00025	e8 00 00 00 00	 call	 @__security_check_cookie@4
  0002a	b8 00 00 00 00	 mov	 eax, OFFSET __ehfuncinfo$??$?HDU?$char_traits@D@std@@V?$allocator@D@1@@std@@YA?AV?$basic_string@DU?$char_traits@D@std@@V?$allocator@D@2@@0@QBDABV10@@Z
  0002f	e9 00 00 00 00	 jmp	 ___CxxFrameHandler3
text$x	ENDS
??$?HDU?$char_traits@D@std@@V?$allocator@D@1@@std@@YA?AV?$basic_string@DU?$char_traits@D@std@@V?$allocator@D@2@@0@QBDABV10@@Z ENDP ; std::operator+<char,std::char_traits<char>,std::allocator<char> >
; Function compile flags: /Ogtp
; File f:\program files (x86)\microsoft visual studio\2017\enterprise\vc\tools\msvc\14.11.25503\include\xutility
;	COMDAT ??$size@D$0BB@@std@@YAIAAY0BB@$$CBD@Z
_TEXT	SEGMENT
??$size@D$0BB@@std@@YAIAAY0BB@$$CBD@Z PROC		; std::size<char,17>, COMDAT
; ___formal$dead$ = ecx

; 1474 : 	return (_Size);

  00000	b8 11 00 00 00	 mov	 eax, 17			; 00000011H

; 1475 : 	}

  00005	c3		 ret	 0
??$size@D$0BB@@std@@YAIAAY0BB@$$CBD@Z ENDP		; std::size<char,17>
_TEXT	ENDS
; Function compile flags: /Ogtp
; File f:\program files (x86)\microsoft visual studio\2017\enterprise\vc\tools\msvc\14.11.25503\include\xstddef
;	COMDAT ??$addressof@V?$basic_string@DU?$char_traits@D@std@@V?$allocator@D@2@@std@@@std@@YAPAV?$basic_string@DU?$char_traits@D@std@@V?$allocator@D@2@@0@AAV10@@Z
_TEXT	SEGMENT
??$addressof@V?$basic_string@DU?$char_traits@D@std@@V?$allocator@D@2@@std@@@std@@YAPAV?$basic_string@DU?$char_traits@D@std@@V?$allocator@D@2@@0@AAV10@@Z PROC ; std::addressof<std::basic_string<char,std::char_traits<char>,std::allocator<char> > >, COMDAT
; __Val$ = ecx

; 249  : 	return (__builtin_addressof(_Val));

  00000	8b c1		 mov	 eax, ecx

; 250  : 	}

  00002	c3		 ret	 0
??$addressof@V?$basic_string@DU?$char_traits@D@std@@V?$allocator@D@2@@std@@@std@@YAPAV?$basic_string@DU?$char_traits@D@std@@V?$allocator@D@2@@0@AAV10@@Z ENDP ; std::addressof<std::basic_string<char,std::char_traits<char>,std::allocator<char> > >
_TEXT	ENDS
; Function compile flags: /Ogtp
; File f:\program files (x86)\microsoft visual studio\2017\enterprise\vc\tools\msvc\14.11.25503\include\type_traits
;	COMDAT ??$move@AAV?$basic_string@DU?$char_traits@D@std@@V?$allocator@D@2@@std@@@std@@YA$$QAV?$basic_string@DU?$char_traits@D@std@@V?$allocator@D@2@@0@AAV10@@Z
_TEXT	SEGMENT
??$move@AAV?$basic_string@DU?$char_traits@D@std@@V?$allocator@D@2@@std@@@std@@YA$$QAV?$basic_string@DU?$char_traits@D@std@@V?$allocator@D@2@@0@AAV10@@Z PROC ; std::move<std::basic_string<char,std::char_traits<char>,std::allocator<char> > &>, COMDAT
; __Arg$ = ecx

; 1607 : 	return (static_cast<remove_reference_t<_Ty>&&>(_Arg));

  00000	8b c1		 mov	 eax, ecx

; 1608 : 	}

  00002	c3		 ret	 0
??$move@AAV?$basic_string@DU?$char_traits@D@std@@V?$allocator@D@2@@std@@@std@@YA$$QAV?$basic_string@DU?$char_traits@D@std@@V?$allocator@D@2@@0@AAV10@@Z ENDP ; std::move<std::basic_string<char,std::char_traits<char>,std::allocator<char> > &>
_TEXT	ENDS
; Function compile flags: /Ogtp
; File f:\program files (x86)\microsoft visual studio\2017\enterprise\vc\tools\msvc\14.11.25503\include\type_traits
;	COMDAT ??$move@AAV?$allocator@D@std@@@std@@YA$$QAV?$allocator@D@0@AAV10@@Z
_TEXT	SEGMENT
??$move@AAV?$allocator@D@std@@@std@@YA$$QAV?$allocator@D@0@AAV10@@Z PROC ; std::move<std::allocator<char> &>, COMDAT
; __Arg$ = ecx

; 1607 : 	return (static_cast<remove_reference_t<_Ty>&&>(_Arg));

  00000	8b c1		 mov	 eax, ecx

; 1608 : 	}

  00002	c3		 ret	 0
??$move@AAV?$allocator@D@std@@@std@@YA$$QAV?$allocator@D@0@AAV10@@Z ENDP ; std::move<std::allocator<char> &>
_TEXT	ENDS
; Function compile flags: /Ogtp
; File f:\program files (x86)\microsoft visual studio\2017\enterprise\vc\tools\msvc\14.11.25503\include\xmemory0
;	COMDAT ??$_Pocma@V?$allocator@D@std@@@std@@YAXAAV?$allocator@D@0@0@Z
_TEXT	SEGMENT
??$_Pocma@V?$allocator@D@std@@@std@@YAXAAV?$allocator@D@0@0@Z PROC ; std::_Pocma<std::allocator<char> >, COMDAT
; __Left$dead$ = ecx
; __Right$dead$ = edx

; 1053 : 	typename allocator_traits<_Alloc>::propagate_on_container_move_assignment _Tag;
; 1054 : 	_Pocma(_Left, _Right, _Tag);
; 1055 : 	}

  00000	c3		 ret	 0
??$_Pocma@V?$allocator@D@std@@@std@@YAXAAV?$allocator@D@0@0@Z ENDP ; std::_Pocma<std::allocator<char> >
_TEXT	ENDS
; Function compile flags: /Ogtp
; File f:\program files (x86)\microsoft visual studio\2017\enterprise\vc\tools\msvc\14.11.25503\include\xstring
;	COMDAT ?capacity@?$basic_string@DU?$char_traits@D@std@@V?$allocator@D@2@@std@@QBEIXZ
_TEXT	SEGMENT
?capacity@?$basic_string@DU?$char_traits@D@std@@V?$allocator@D@2@@std@@QBEIXZ PROC ; std::basic_string<char,std::char_traits<char>,std::allocator<char> >::capacity, COMDAT
; _this$ = ecx

; 3092 : 		return (this->_Get_data()._Myres);

  00000	8b 41 14	 mov	 eax, DWORD PTR [ecx+20]

; 3093 : 		}

  00003	c3		 ret	 0
?capacity@?$basic_string@DU?$char_traits@D@std@@V?$allocator@D@2@@std@@QBEIXZ ENDP ; std::basic_string<char,std::char_traits<char>,std::allocator<char> >::capacity
_TEXT	ENDS
; Function compile flags: /Ogtp
; File f:\program files (x86)\microsoft visual studio\2017\enterprise\vc\tools\msvc\14.11.25503\include\xmemory0
;	COMDAT ??$_Pocma@V?$allocator@D@std@@@std@@YAXAAV?$allocator@D@0@0U?$integral_constant@_N$00@0@@Z
_TEXT	SEGMENT
___formal$ = 8						; size = 1
??$_Pocma@V?$allocator@D@std@@@std@@YAXAAV?$allocator@D@0@0U?$integral_constant@_N$00@0@@Z PROC ; std::_Pocma<std::allocator<char> >, COMDAT
; __Left$dead$ = ecx
; __Right$dead$ = edx

; 1042 : 	_Left = _STD move(_Right);
; 1043 : 	}

  00000	c3		 ret	 0
??$_Pocma@V?$allocator@D@std@@@std@@YAXAAV?$allocator@D@0@0U?$integral_constant@_N$00@0@@Z ENDP ; std::_Pocma<std::allocator<char> >
_TEXT	ENDS
END
